(lp0
S'http://www.taobao.com/'
p1
aS'\xe6\xb7\x98\xe5\xae\x9d\xe7\xbd\x91 - \xe6\xb7\x98\xef\xbc\x81\xe6\x88\x91\xe5\x96\x9c\xe6\xac\xa2'
p2
aI0
aV\u000a<!DOCTYPE html>\u000a<html>\u000a<head>\u000a<meta charset="utf-8" />\u000a<meta http-equiv="X-UA-Compatible" content="IE=edge,chrome=1" />\u000a<meta name="renderer" content="webkit" />\u000a<title>\u6dd8\u5b9d\u7f51 - \u6dd8\uff01\u6211\u559c\u6b22</title>\u000a<meta name="spm-id" content="a21bo" />\u000a<meta name="description" content="\u6dd8\u5b9d\u7f51 - \u4e9a\u6d32\u8f83\u5927\u7684\u7f51\u4e0a\u4ea4\u6613\u5e73\u53f0\uff0c\u63d0\u4f9b\u5404\u7c7b\u670d\u9970\u3001\u7f8e\u5bb9\u3001\u5bb6\u5c45\u3001\u6570\u7801\u3001\u8bdd\u8d39/\u70b9\u5361\u5145\u503c\u2026 \u6570\u4ebf\u4f18\u8d28\u5546\u54c1\uff0c\u540c\u65f6\u63d0\u4f9b\u62c5\u4fdd\u4ea4\u6613(\u5148\u6536\u8d27\u540e\u4ed8\u6b3e)\u7b49\u5b89\u5168\u4ea4\u6613\u4fdd\u969c\u670d\u52a1\uff0c\u5e76\u7531\u5546\u5bb6\u63d0\u4f9b\u9000\u8d27\u627f\u8bfa\u3001\u7834\u635f\u8865\u5bc4\u7b49\u6d88\u8d39\u8005\u4fdd\u969c\u670d\u52a1\uff0c\u8ba9\u4f60\u5b89\u5fc3\u4eab\u53d7\u7f51\u4e0a\u8d2d\u7269\u4e50\u8da3\uff01" />\u000a<meta name="keyword" content="\u6dd8\u5b9d,\u638f\u5b9d,\u7f51\u4e0a\u8d2d\u7269,C2C,\u5728\u7ebf\u4ea4\u6613,\u4ea4\u6613\u5e02\u573a,\u7f51\u4e0a\u4ea4\u6613,\u4ea4\u6613\u5e02\u573a,\u7f51\u4e0a\u4e70,\u7f51\u4e0a\u5356,\u8d2d\u7269\u7f51\u7ad9,\u56e2\u8d2d,\u7f51\u4e0a\u8d38\u6613,\u5b89\u5168\u8d2d\u7269,\u7535\u5b50\u5546\u52a1,\u653e\u5fc3\u4e70,\u4f9b\u5e94,\u4e70\u5356\u4fe1\u606f,\u7f51\u5e97,\u4e00\u53e3\u4ef7,\u62cd\u5356,\u7f51\u4e0a\u5f00\u5e97,\u7f51\u7edc\u8d2d\u7269,\u6253\u6298,\u514d\u8d39\u5f00\u5e97,\u7f51\u8d2d,\u9891\u9053,\u5e97\u94fa" />\u000a<link rel="dns-prefetch" href="//g.alicdn.com" />\u000a<link rel="dns-prefetch" href="//img.alicdn.com" />\u000a<link rel="dns-prefetch" href="//tce.alicdn.com" />\u000a<link rel="dns-prefetch" href="//gm.mmstat.com" />\u000a<link rel="dns-prefetch" href="//log.mmstat.com" />\u000a<link rel="dns-prefetch" href="//tui.taobao.com" />\u000a<link rel="dns-prefetch" href="//ald.taobao.com" />\u000a<link rel="dns-prefetch" href="//gw.alicdn.com" />\u000a<link rel="dns-prefetch" href="//atanx.alicdn.com"/>\u000a<link rel="dns-prefetch" href="//dfhs.tanx.com"/>\u000a<link rel="dns-prefetch" href="//ecpm.tanx.com" />\u000a<link rel="dns-prefetch" href="//res.mmstat.com" />\u000a<link rel="dns-prefetch" href="//log.mmstat.com" />\u000a<link href="//img.alicdn.com/tps/i3/T1OjaVFl4dXXa.JOZB-114-114.png" rel="apple-touch-icon-precomposed" />\u000a<script>if('undefined'===typeof console) {window.console = undefined;}</script>\u000a<style type="text/css">\u000a  blockquote,body,button,dd,dl,dt,fieldset,form,h1,h2,h3,h4,h5,h6,hr,input,legend,li,ol,p,pre,td,textarea,th,ul{margin:0;padding:0}body,button,input,select,textarea{font:12px/1.5 tahoma,arial,'Hiragino Sans GB','\u005c5b8b\u005c4f53',sans-serif}h1,h2,h3,h4,h5,h6{font-size:100%}address,cite,dfn,em,var{font-style:normal}code,kbd,pre,samp{font-family:courier new,courier,monospace}small{font-size:12px}ol,ul{list-style:none}a{text-decoration:none}a:hover{text-decoration:underline}sup{vertical-align:text-top}sub{vertical-align:text-bottom}legend{color:#000}fieldset,img{border:0}button,input,select,textarea{font-size:100%}table{border-collapse:collapse;border-spacing:0}.site-nav .site-nav-login .site-nav-menu-bd .apass-icon,.site-nav .site-nav-login .site-nav-menu-bd .site-nav-vip-icon-0,.site-nav .site-nav-login .site-nav-menu-bd .site-nav-vip-icon-1,.site-nav .site-nav-login .site-nav-menu-bd .site-nav-vip-icon-2,.site-nav .site-nav-login .site-nav-menu-bd .site-nav-vip-icon-3,.site-nav .site-nav-login .site-nav-menu-bd .site-nav-vip-icon-4,.site-nav .site-nav-login .site-nav-menu-bd .site-nav-vip-icon-5,.site-nav .site-nav-login .site-nav-menu-bd .site-nav-vip-icon-6,.site-nav .site-nav-login .site-nav-menu-bd .weibo-bind-icon,.site-nav .site-nav-login .site-nav-menu-hd .site-nav-vip-icon-0,.site-nav .site-nav-login .site-nav-menu-hd .site-nav-vip-icon-1,.site-nav .site-nav-login .site-nav-menu-hd .site-nav-vip-icon-2,.site-nav .site-nav-login .site-nav-menu-hd .site-nav-vip-icon-3,.site-nav .site-nav-login .site-nav-menu-hd .site-nav-vip-icon-4,.site-nav .site-nav-login .site-nav-menu-hd .site-nav-vip-icon-5,.site-nav .site-nav-login .site-nav-menu-hd .site-nav-vip-icon-6{background:url(//img.alicdn.com/tps/i3/TB1iRaYLXXXXXalaXXXEEFTFXXX-239-134.png);background-image:-webkit-image-set(url(//img.alicdn.com/tps/i3/TB1iRaYLXXXXXalaXXXEEFTFXXX-239-134.png) 1x,url(//img.alicdn.com/tps/i2/TB1b7TlLXXXXXXIXpXXAKIPQXXX-478-268.png) 2x);background-image:-moz-image-set(url(//img.alicdn.com/tps/i3/TB1iRaYLXXXXXalaXXXEEFTFXXX-239-134.png) 1x,url(//img.alicdn.com/tps/i2/TB1b7TlLXXXXXXIXpXXAKIPQXXX-478-268.png) 2x);background-image:-ms-image-set(url(//img.alicdn.com/tps/i3/TB1iRaYLXXXXXalaXXXEEFTFXXX-239-134.png) 1x,url(//img.alicdn.com/tps/i2/TB1b7TlLXXXXXXIXpXXAKIPQXXX-478-268.png) 2x);background-image:-o-image-set(url(//img.alicdn.com/tps/i3/TB1iRaYLXXXXXalaXXXEEFTFXXX-239-134.png) 1x,url(//img.alicdn.com/tps/i2/TB1b7TlLXXXXXXIXpXXAKIPQXXX-478-268.png) 2x);background-repeat:no-repeat}.site-nav .login-info .site-nav-vip-icon-7{background-image:url(//img.alicdn.com/tps/i4/T1KxCMXeNjXXXXXXXX-14-14.gif);background-repeat:no-repeat}.site-nav .site-nav-loading{background:url(//img.alicdn.com/tps/i3/T1b1m3XkVpXXXXXXXX-32-32.gif) no-repeat center}@font-face{font-family:global-iconfont;src:url(//at.alicdn.com/t/font_1404888168_2057645.eot);src:url(//at.alicdn.com/t/font_1404888168_2057645.eot?#iefix) format("embedded-opentype"),url(//at.alicdn.com/t/font_1404888168_2057645.woff) format("woff"),url(//at.alicdn.com/t/font_1404888168_2057645.ttf) format("truetype"),url(//at.alicdn.com/t/font_1404888168_2057645.svg#uxiconfont) format("svg")}.site-nav .site-nav-icon{font-family:global-iconfont;font-size:12px;font-style:normal;margin-top:-3px\u005c9;-webkit-font-smoothing:antialiased;-moz-osx-font-smoothing:grayscaleFont type;margin-right:5px;_line-height:33px;color:#9c9c9c}.site-nav .site-nav-menu-hd a:hover .site-nav-icon{color:#f40}.site-nav .site-nav-bd-r .site-nav-icon{width:12px}.site-nav .site-nav-icon-highlight{color:#f40}.site-nav .site-nav-arrow{display:block;float:left;width:12px;height:6px;line-height:6px;overflow:hidden;margin-top:16px}.site-nav .site-nav-arrow .site-nav-icon{display:block;margin-top:-4px;margin-right:20px}.site-nav{z-index:10000;width:100%;background-color:#f5f5f5;border-bottom:1px solid #eee;*zoom:1}.site-nav:after{content:"";display:table;clear:both}.site-nav textarea{display:none}.site-nav .site-nav-bd{margin:0 auto;width:1190px;height:35px;background:#f5f5f5;-webkit-backface-visibility:hidden;*zoom:1}.site-nav .site-nav-bd:after{content:"";display:table;clear:both}.site-nav .site-nav-bd a{color:#3c3c3c}.site-nav .site-nav-bd a:hover{color:#f40;text-decoration:none}.site-nav .site-nav-bd .site-nav-pipe{padding:0 5px;font-style:normal;color:#ddd}.site-nav .site-nav-bd .site-nav-bd-l{float:left;visibility:hidden}.site-nav .site-nav-bd .site-nav-bd-r{float:right}.site-nav .site-nav-bd .site-nav-bd-r .site-nav-pipe{float:left;height:35px;line-height:35px}.site-nav .site-nav-bd .h{color:#f22e00!important}.site-nav .site-nav-bd .site-nav-btn{display:inline-block;vertical-align:middle;*vertical-align:auto;*zoom:1;*display:inline;padding:0 10px;height:25px;line-height:25px;color:#fff;background:#f40;-moz-border-radius:2px;-webkit-border-radius:2px;border-radius:2px}.site-nav .site-nav-bd .site-nav-btn:hover{color:#fff;background:#f40}.site-nav-status-login .site-nav-bd .site-nav-bd-l,.site-nav-status-logout .site-nav-bd .site-nav-bd-l{visibility:visible}.ie-updator-67 .browser-updator{display:none}.site-nav .site-nav-menu{float:left}.site-nav .site-nav-menu .site-nav-menu-hd{z-index:10002;position:relative;padding:0 6px;height:35px;line-height:35px;_display:inline;_zoom:1}.site-nav .site-nav-menu .site-nav-menu-hd a{float:left;margin-right:7px;font-size:12px;color:#6C6C6C}.site-nav .site-nav-menu .site-nav-menu-hd a:hover{color:#F40}.site-nav .site-nav-menu .site-nav-menu-hd a span{float:left;cursor:pointer}.site-nav .site-nav-menu .site-nav-menu-bd{z-index:10001;position:relative;display:none;margin-top:-1px}.site-nav .site-nav-menu .site-nav-menu-bd .site-nav-menu-bd-panel{position:absolute;left:0;top:0;padding:8px;line-height:normal;border:1px solid #EEE;background:#FFF}.site-nav .site-nav-menu .site-nav-menu-bd .site-nav-menu-iframe-shim{z-index:-1;position:absolute;top:0;left:0;border:none;background:0 0;filter:alpha(Opacity=0);opacity:0}.site-nav .site-nav-menu .site-nav-menu-empty .site-nav-menu-hd i{display:none}.site-nav .site-nav-menu .site-nav-menu-list .site-nav-menu-bd-panel{padding:8px 0}.site-nav .site-nav-menu .site-nav-menu-list .site-nav-menu-bd-panel a{display:block;padding:0 5px;line-height:28px;white-space:nowrap;color:#6C6C6C}.site-nav .site-nav-menu .site-nav-menu-list .site-nav-menu-bd-panel a:hover{color:#6C6C6C;background:#F5F5F5}.site-nav .site-nav-menu .site-nav-menu-list .site-nav-menu-bd-panel a span{margin-left:5px}.site-nav .site-nav-menu .site-nav-menu-list .site-nav-menu-bd-panel .site-nav-btn{margin:5px 8px 0;color:#FFF;line-height:25px}.site-nav .site-nav-menu .site-nav-menu-list .site-nav-menu-bd-panel .site-nav-btn:hover{color:#FFF;background:#F40}.site-nav .site-nav-menu-hover{transform:translateZ(0);position:relative;z-index:10000}.site-nav .site-nav-menu-hover .site-nav-menu-hd{padding:0 5px;border-width:0 1px;border-style:solid;border-color:#EEE;background:#FFF}.site-nav .site-nav-menu-hover .site-nav-menu-bd{display:block}.site-nav-cbu-cover{background:#000;width:100%;height:3000px;opacity:.3;filter:alpha(opacity=30);position:fixed;_position:absolute;top:0;z-index:100000000}.site-nav-cbu-cover iframe{position:absolute;top:0;left:0;z-index:-1;filter:mask();width:100%;height:100%}.site-nav-cbu-iframe{width:630px;height:340px;border:0 none;z-index:100000001;position:fixed;_position:absolute;top:25%;left:25%}.site-nav .site-nav-login .site-nav-menu-hd .site-nav-login-info-nick{display:inline-block;max-width:98px;overflow:hidden;text-overflow:ellipsis;white-space:nowrap}.site-nav .site-nav-login .site-nav-menu-hd .site-nav-vip-icon{margin-top:11px;width:14px;height:14px}.site-nav .site-nav-login .site-nav-menu-hd .site-nav-vip-icon-0{background-position:0 0}.site-nav .site-nav-login .site-nav-menu-hd .site-nav-vip-icon-1{background-position:0 -20px}.site-nav .site-nav-login .site-nav-menu-hd .site-nav-vip-icon-2{background-position:0 -40px}.site-nav .site-nav-login .site-nav-menu-hd .site-nav-vip-icon-3{background-position:0 -60px}.site-nav .site-nav-login .site-nav-menu-hd .site-nav-vip-icon-4{background-position:0 -80px}.site-nav .site-nav-login .site-nav-menu-hd .site-nav-vip-icon-5{background-position:0 -100px}.site-nav .site-nav-login .site-nav-menu-hd .site-nav-vip-icon-6{background-position:0 -120px}.site-nav .site-nav-login .site-nav-menu-bd .site-nav-menu-bd-panel{width:248px}.site-nav .site-nav-login .site-nav-menu-bd .site-nav-user-info{height:80px;overflow:hidden;*zoom:1}.site-nav .site-nav-login .site-nav-menu-bd .site-nav-user-info p{height:20px;line-height:20px;overflow:hidden;*zoom:1}.site-nav .site-nav-login .site-nav-menu-bd .site-nav-user-info .site-nav-user-operate{text-align:right}.site-nav .site-nav-login .site-nav-menu-bd .site-nav-user-info .site-nav-vip-icon{float:left;margin:3px 5px 3px 0;width:38px;height:14px}.site-nav .site-nav-login .site-nav-menu-bd .site-nav-user-info .site-nav-apass-icon{float:left;margin:3px 5px 3px 0;width:44px;height:14px;background-position:-100px -91px}.site-nav .site-nav-login .site-nav-menu-bd .site-nav-user-info .site-nav-vip-icon-0{background-position:-20px 0}.site-nav .site-nav-login .site-nav-menu-bd .site-nav-user-info .site-nav-vip-icon-1{background-position:-20px -20px}.site-nav .site-nav-login .site-nav-menu-bd .site-nav-user-info .site-nav-vip-icon-2{background-position:-20px -40px}.site-nav .site-nav-login .site-nav-menu-bd .site-nav-user-info .site-nav-vip-icon-3{background-position:-20px -60px}.site-nav .site-nav-login .site-nav-menu-bd .site-nav-user-info .site-nav-vip-icon-4{background-position:-20px -80px}.site-nav .site-nav-login .site-nav-menu-bd .site-nav-user-info .site-nav-vip-icon-5{background-position:-20px -100px}.site-nav .site-nav-login .site-nav-menu-bd .site-nav-user-info .site-nav-vip-icon-6{background-position:-20px -120px}.site-nav .site-nav-login .site-nav-menu-bd .site-nav-user-info .site-nav-vip-icon-7{width:14px}.site-nav .site-nav-login .site-nav-menu-bd .site-nav-user-avatar{float:left;margin-right:10px;margin-left:9px}.site-nav .site-nav-login .site-nav-menu-bd .site-nav-user-avatar img{display:block;width:80px;height:80px;-moz-border-radius:50%;-webkit-border-radius:50%;border-radius:50%}.site-nav .site-nav-login .site-nav-menu-bd .site-nav-user-privilege-tip{margin:5px 9px}.site-nav .site-nav-login .site-nav-menu-bd .site-nav-user-privilege-tip p{padding:2px 0;text-align:center}.site-nav .site-nav-login .site-nav-menu-bd .site-nav-user-privilege-tip b{color:red;font-weight:700}.site-nav .site-nav-login .site-nav-menu-bd .site-nav-user-privilege-tip .site-nav-user-privilege-ing{background-color:#ffefe8;border:1px solid #ffdac6;border-radius:2px}.site-nav .site-nav-login .site-nav-menu-bd .site-nav-user-privilege-tip .site-nav-user-privilege-coming{background-color:#e9fecf;border:1px solid #ddf6be;border-radius:2px}.site-nav .site-nav-login .site-nav-menu-bd .site-nav-privilege-count{font-weight:400;color:#3c3c3c}.site-nav .site-nav-login .site-nav-menu-bd .site-nav-privilege-count b{color:red}.site-nav .site-nav-login .site-nav-menu-bd a:hover .site-nav-privilege-count{color:red}.site-nav .site-nav-login .site-nav-menu-bd .site-nav-user-medal{margin-top:10px;padding-top:10px;height:60px;border-top:1px solid #EEE;position:relative;overflow:hidden;*zoom:1}.site-nav .site-nav-login .site-nav-menu-bd .site-nav-user-medal .site-nav-user-medal-bd{position:relative;margin-left:14px;width:220px;padding-top:10px;height:50px;overflow:hidden;*zoom:1}.site-nav .site-nav-login .site-nav-menu-bd .site-nav-user-medal .site-nav-user-medal-bd .site-nav-user-medal-cont{position:absolute;top:0;left:0;overflow:hidden;*zoom:1;-moz-transition:ease-in .3s;-o-transition:ease-in .3s;-webkit-transition:ease-in .3s;transition:ease-in .3s}.site-nav .site-nav-login .site-nav-menu-bd .site-nav-user-medal .site-nav-user-medal-bd .site-nav-user-medal-cont a{float:left;margin:0 2px;width:51px;height:60px;text-align:center;white-space:nowrap;overflow:hidden;font-size:12px;color:#999}.site-nav .site-nav-login .site-nav-menu-bd .site-nav-user-medal .site-nav-user-medal-bd .site-nav-user-medal-cont a:hover{color:red}.site-nav .site-nav-login .site-nav-menu-bd .site-nav-user-medal .site-nav-user-medal-bd .site-nav-user-medal-cont img{display:block;width:36px;height:36px;margin:0 auto;margin-bottom:5px}.site-nav .site-nav-login .site-nav-menu-bd .site-nav-user-medal .site-nav-medal-arrow{display:none;position:absolute;width:16px;height:16px;top:20px;text-align:center;font-size:20px;font-weight:700;color:#e1e1e1;font-family:arial}.site-nav .site-nav-login .site-nav-menu-bd .site-nav-user-medal .site-nav-medal-arrow:hover{color:#c3c3c3}.site-nav .site-nav-login .site-nav-menu-bd .site-nav-user-medal .site-nav-arrow-l{left:0}.site-nav .site-nav-login .site-nav-menu-bd .site-nav-user-medal .site-nav-arrow-r{right:0}.site-nav .site-nav-login .site-nav-menu-bd .site-nav-medal-arrow-show .site-nav-medal-arrow{display:inline-block}.site-nav-status-logout .site-nav-login .site-nav-menu-bd,.site-nav-status-logout .site-nav-login .site-nav-user{display:none}.site-nav-status-login .site-nav-login .site-nav-sign{display:none}.site-nav .mini-cart .site-nav-menu-bd .site-nav-menu-bd-panel{width:296px;line-height:20px;min-height:40px;background:#fff url(//img.alicdn.com/tps/i3/T1b1m3XkVpXXXXXXXX-32-32.gif) no-repeat 50% 50%}.site-nav .mini-cart .site-nav-menu-bd .mini-cart-ready{background:#fff}.site-nav .mini-cart .site-nav-menu-bd .mini-cart-closed{background:#fff;width:105px}.site-nav .mini-cart .site-nav-menu-bd .mini-cart-hd{padding:10px 0}.site-nav .mini-cart .site-nav-menu-bd .mini-cart-bd{border-bottom:1px solid #EEE;overflow:hidden;*zoom:1}.site-nav .mini-cart .site-nav-menu-bd .mini-cart-bd li{margin-bottom:10px;height:40px;overflow:hidden;*zoom:1}.site-nav .mini-cart .site-nav-menu-bd .mini-cart-bd .mini-cart-img{float:left;margin-right:10px;width:40px;height:40px;display:inline-block;overflow:hidden;text-align:center}.site-nav .mini-cart .site-nav-menu-bd .mini-cart-bd .mini-cart-img a{display:inline;position:static;line-height:1.5}.site-nav .mini-cart .site-nav-menu-bd .mini-cart-bd .mini-cart-img a img{vertical-align:middle}.site-nav .mini-cart .site-nav-menu-bd .mini-cart-title{height:20px;overflow:hidden;*zoom:1}.site-nav .mini-cart .site-nav-menu-bd .mini-cart-title a{float:left;width:168px;white-space:nowrap;overflow:hidden;text-overflow:ellipsis}.site-nav .mini-cart .site-nav-menu-bd .mini-cart-info{height:20px;overflow:hidden;*zoom:1;color:#9C9C9C}.site-nav .mini-cart .site-nav-menu-bd .mini-cart-count{float:right}.site-nav .mini-cart .site-nav-menu-bd .mini-cart-count .mini-cart-price{margin-left:5px}.site-nav .mini-cart .site-nav-menu-bd .mini-cart-del{float:right}.site-nav .mini-cart .mini-cart-ft{text-align:right}.site-nav .mini-cart .mini-cart-ft p{margin-top:10px}.site-nav .mini-cart .menu-hd .g-icon{color:#f40}.site-nav .site-nav-sitemap .hot{background:url(//img.alicdn.com/tps/i2/T1hOy5XhNnXXXXXXXX-9-14.gif) no-repeat}.site-nav .site-nav-sitemap .new{background:url(//img.alicdn.com/tps/i3/T1lni5XhXXXXXXXXXX-9-14.gif) no-repeat}.site-nav .site-nav-sitemap .site-nav-menu-bd .site-nav-menu-panel{overflow:hidden;position:absolute;right:0;left:auto;width:988px;min-height:258px;line-height:normal;border:1px solid #eee;background:#fff}.site-nav .site-nav-sitemap .site-nav-sitemap-mod{float:left;width:25%;overflow:hidden}.site-nav .site-nav-sitemap .site-nav-sitemap-mod-wrap{padding:5px;border-right:1px solid #eee;overflow:hidden}.site-nav .site-nav-sitemap .site-nav-sitemap-mod-wrap h4{margin:5px;font-size:16px;font-weight:600;overflow:hidden}.site-nav .site-nav-sitemap .site-nav-sitemap-mod-wrap li{*position:relative;float:left;padding-top:5px;width:30%;height:25px;overflow:hidden}.site-nav .site-nav-sitemap .site-nav-sitemap-mod-wrap a{position:relative;float:left;height:25px;line-height:25px;margin:0 2px;padding:0 8px;-moz-border-radius:2px;-webkit-border-radius:2px;border-radius:2px}.site-nav .site-nav-sitemap .site-nav-sitemap-mod-wrap a:after{content:"";display:table;clear:both}.site-nav .site-nav-sitemap .site-nav-sitemap-mod-wrap a:hover{color:#fff;background-color:#f50}.site-nav .site-nav-sitemap .site-nav-sitemap-mod-wrap a i{position:absolute;top:-5px;right:0;display:block;width:9px;height:14px;overflow:hidden}.site-nav .site-nav-sitemap .site-nav-sitemap-mod:nth-child(1) .site-nav-sitemap-mod-wrap a:hover{background-color:#f50}.site-nav .site-nav-sitemap .site-nav-sitemap-mod:nth-child(2) .site-nav-sitemap-mod-wrap a:hover{background-color:#a0b959}.site-nav .site-nav-sitemap .site-nav-sitemap-mod:nth-child(3) .site-nav-sitemap-mod-wrap a:hover{background-color:#df61ab}.site-nav .site-nav-sitemap .site-nav-sitemap-mod:nth-child(4) .site-nav-sitemap-mod-wrap{border-right:none}.site-nav .site-nav-sitemap .site-nav-sitemap-mod:nth-child(4) .site-nav-sitemap-mod-wrap a:hover{background-color:#52a0e5}.site-nav .tmsg{float:left}.site-nav .tmsg .site-nav-menu .tmsg_icon{_padding-top:9px}.site-nav .tmsg .site-nav-menu .tmsg_loading{margin:-5px 5px 0 0;vertical-align:middle}.site-nav .tmsg .site-nav-menu .tmsg_logo_icon{line-height:0;width:8px;display:inline-block;vertical-align:middle;margin-top:0;*display:inline;_display:inline-block}.site-nav .tmsg .site-nav-menu .tmsg_light-sign,.site-nav .tmsg .site-nav-menu .tmsg_logo{display:none}.site-nav .tmsg_logo_loading{display:inline-block;width:13px}.site-nav .tmsg_logo_area{float:left}.site-nav-status-logout .site-nav-tmsg{display:none}.site-nav .site-nav-weekend img{vertical-align:bottom}.site-nav .site-nav-weekend .site-nav-menu-hd{overflow:hidden}@media (max-width:1009px){.site-nav .site-nav-weekend{display:none!important}}.tb-global-pad-notice{width:100%;height:60px;overflow:hidden;position:relative}.tb-global-pad-notice span{position:absolute;top:10px;right:10px;width:40px;height:40px;background-color:rgba(0,0,0,.3);display:block;line-height:40px;font-size:28px;text-align:center;color:#fff;border-radius:20px;-webkit-font-smoothing:antialiased}.site-nav-at-mobile{border-bottom:none}.site-nav-at-mobile .site-nav-bd{height:40px}.site-nav-at-mobile .site-nav-catalog,.site-nav-at-mobile .site-nav-home,.site-nav-at-mobile .site-nav-mobile,.site-nav-at-mobile .site-nav-seller{display:none}.site-nav-at-mobile .siete-nav-menu .site-nav-menu-hd{height:40px;line-height:40px}.site-nav-at-mobile .siete-nav-menu i{position:relative;-moz-transition:none;-o-transition:none;-webkit-transition:none;transition:none;position:absolute;margin:0;display:none;bottom:-1px;left:40%;width:12px;height:6px}.site-nav-at-mobile .siete-nav-menu i em,.site-nav-at-mobile .siete-nav-menu i span{position:absolute;top:0;left:0;width:0;height:0;border-color:rgba(255,255,255,0);border-color:transparent\u005c9;*border-color:transparent;_border-color:tomato;_filter:chroma(color=tomato);border-style:solid;overflow:hidden;*zoom:1;border-width:0 5px 5px}.site-nav-at-mobile .siete-nav-menu i em{top:-1px;border-bottom-color:#eee}.site-nav-at-mobile .siete-nav-menu i span{border-bottom-color:#fff}.site-nav-at-mobile .site-nav-menu-hover .site-nav-menu-hd i{display:block}.site-nav-at-mobile .site-nav-menu-hover .site-nav-menu-bd{display:block}.site-nav-at-mobile .site-nav-login img{cursor:pointer;margin:2px 0;-moz-border-radius:50%;-webkit-border-radius:50%;border-radius:50%;border:2px solid #fff}.site-nav-at-mobile .site-nav-bd-r .site-nav-pipe{display:none}@media (max-width:1219px){.site-nav-at-mobile .site-nav-bd{width:990px}.site-nav-at-mobile .site-nav-sitemap .mod li{width:33%}}@media (max-width:1009px){.site-nav-at-mobile .site-nav-bd{width:740px}.site-nav-at-mobile .site-nav-guide,.site-nav-at-mobile .site-nav-seller{display:none}.site-nav-at-mobile .site-nav-sitemap .site-nav-menu-bd-panel{width:722px}.site-nav-at-mobile .site-nav-sitemap .site-nav-menu-bd-panel .mod{width:50%}.site-nav-at-mobile .site-nav-sitemap .site-nav-menu-bd-panel .mod li{width:20%}.site-nav-at-mobile .site-nav-sitemap .site-nav-menu-bd-panel .mod-b .mod-wrap{border-right:none}.site-nav-at-mobile .site-nav-weekend{display:none}}.footer{width:1190px;max-width:100%;min-height:125px;margin:0 auto;position:relative;padding:7px 0 9px;border-top:1px solid #ddd}.footer p{padding-bottom:8px;overflow:hidden;*zoom:1}.footer b{margin:0 3px;font-weight:400;color:#ddd}.footer em,.footer span{white-space:nowrap;color:#9c9c9c}.footer em{margin-left:30px}.footer span{margin:0 4px}.footer .footer-bd a,.footer .footer-hd a{white-space:nowrap;color:#6c6c6c}.footer .footer-bd a:hover,.footer .footer-hd a:hover{color:#f40;text-decoration:none}.footer .footer-hd p{margin-bottom:8px;line-height:27px;border-bottom:1px solid #ddd}.footer .footer-ft{display:none}.footer .footer-ft a{margin-right:15px}.footer .footer-ft .mod{height:40px;display:inline-block;background-repeat:no-repeat}.footer-with-logo{min-height:170px}.tb-ie-updater-layer{position:absolute;left:0;top:0;bottom:0;right:0;width:100%;height:100%;background-color:#000;filter:alpha(opacity=50);opacity:.5;z-index:99999999}.tb-ie-updater-box{position:absolute;left:50%;top:50%;margin-left:-292px;margin-top:-210px;width:584px;height:420px;background:url(//img.alicdn.com/tps/TB1pH4SLpXXXXXEXVXXXXXXXXXX-584-419.png) no-repeat;z-index:100000000}.tb-ie-updater-box a{position:absolute;text-decoration:none;color:#71a403;font-size:14px;width:130px;height:32px;background-color:#FFF;text-align:center;line-height:32px}.tb-ie-updater-box a:hover{font-weight:700}.tb-ie-updater-google{left:55px;top:107px}.tb-ie-updater-uc{top:107px;left:212px}.tmsg_panel_apps,.tmsg_panel_detail,.tmsg_panel_history,.tmsg_panel_setting{width:288px;border:1px solid #EEE;border-top:0;position:absolute;background:#FFF;box-shadow:1px 1px 2px #ddd;z-index:10000000000}.tmsg_panel_head{height:37px;line-height:37px;position:relative;text-align:center;border-bottom:1px solid #EEE}.tmsg_panel_foot{height:32px;border-top:1px solid #EEE;position:relative}\u000a</style>\u000a<style type="text/css">\u000a@font-face{font-family:iconfont;src:url(//at.alicdn.com/t/font_1475912685_3576825.eot);src:url(//at.alicdn.com/t/font_1475912685_3576825.eot?#iefix) format('embedded-opentype'),url(//at.alicdn.com/t/font_1475912685_3576825.woff) format('woff'),url(//at.alicdn.com/t/font_1475912685_3576825.ttf) format('truetype'),url(//at.alicdn.com/t/font_1475912685_3576825.svg#iconfont) format('svg')}.tb-icon,.iconfont{font-family:iconfont!important;font-size:14px;font-style:normal;display:inline-block;text-decoration:none;-webkit-font-smoothing:antialiased;-moz-osx-font-smoothing:grayscale}.tbh-icon,a.fixedtool-1.on,a.fixedtool-1:hover{background:url(//img.alicdn.com/tfs/TB1rFMcOFXXXXagapXXXXXXXXXX-220-1136.png) 0 0 no-repeat}.tbh-favorite .tbh-icon,.tbh-like .tbh-icon{background-position:center -604px}.tbh-blocks[data-name=fashion] .tbh-icon{background-position:center -719px}.tbh-blocks[data-name=quanlity] .tbh-icon{background-position:center -679px}.tbh-blocks[data-name=special] .tbh-icon{background-position:center -518px}.tbh-headline .tbh-icon{background-position:0 -769px}.tbh-blocks-sh .tbh-icon{background-position:center -558px}.tbh-discover-goods .tbh-icon{background-position:0 -634px}.tbh-discover-shop .tbh-icon{background-position:8px -791px}.tbh-member .tbh-icon{background-position:0 -882px}.tbh-member .member-nick-info .member-apass{background-position:0 -847px}.tbh-conve .conve-item-1 .tbh-icon{background-position:0 0}.tbh-conve .conve-item-2 .tbh-icon{background-position:0 -44px}.tbh-conve .conve-item-3 .tbh-icon{background-position:0 -85px}.tbh-conve .conve-item-4 .tbh-icon{background-position:0 -132px}.tbh-conve .conve-item-5 .tbh-icon{background-position:0 -176px}.tbh-conve .conve-item-6 .tbh-icon{background-position:0 -220px}.tbh-conve .conve-item-7 .tbh-icon{background-position:0 -1052px}.tbh-conve .conve-item-8 .tbh-icon{background-position:0 -308px}.tbh-conve .conve-item-9 .tbh-icon{background-position:0 -352px}.tbh-conve .conve-item-10 .tbh-icon{background-position:0 -396px}.tbh-conve .conve-item-11 .tbh-icon{background-position:0 -440px}.tbh-conve .conve-item-12 .tbh-icon{background-position:0 -484px}@media only screen and (-webkit-min-device-pixel-ratio:1.5),only screen and (min--moz-device-pixel-ratio:1.5),only screen and (-o-min-device-pixel-ratio:3/2),only screen and (min-device-pixel-ratio:1.5){.tbh-icon{background:url(//img.alicdn.com/tfs/TB1K7.ROFXXXXcqXXXXXXXXXXXX-440-2240.png) 0 0 no-repeat;background-size:220px 1120px}.tbh-member .tbh-icon{background-position:0 -881px;_background-position:0 -882px}.tbh-member .tbh-icon.vip-icon-0{background-position:0 -902px}.tbh-member .tbh-icon.vip-icon-1{background-position:0 -922px}.tbh-member .tbh-icon.vip-icon-2{background-position:0 -942px}.tbh-member .tbh-icon.vip-icon-3{background-position:0 -962px}.tbh-member .tbh-icon.vip-icon-4{background-position:0 -982px}.tbh-member .tbh-icon.vip-icon-5{background-position:0 -1002px}.tbh-member .tbh-icon.vip-icon-6{background-position:0 -1022px}}.tb-zoom .fi-dwrap,.tb-zoom .fi-dwrap-c,.tb-zoom .fi-banner-m,.tb-zoom .fi-banner-m>img,.tb-zoom .fi-cwrap-d,.tb-zoom .fi-dwrap{width:137px}.tb-zoom .blocks-thumb3 .blocks-contain a,.tb-zoom .blocks-thumb4 .blocks-contain a{width:109px}.tb-zoom .tmall .mod-6 a{width:172px}.tb-zoom .tmall .mod-12 a:nth-child(4n){width:127px}.tb-zoom .apps-nav li{margin-right:20px}.tb-zoom .service-rmd-list a{margin-right:7px}.tb-zoom .service-rmd-list a{width:109px}.tb-zoom .tmall .mod-4 a:first-child{width:129px}html,body{overflow-x:hidden}body{color:#3C3C3C;-webkit-font-smoothing:antialiased;background-color:#f1f1f1}body a{color:#3C3C3C}body a:hover{color:#F40;text-decoration:none}body a:focus{outline:0}body.disable-hover{pointer-events:none}area{outline:0}.J_Module{min-height:0;background-color:#FFF}.hide,.tb-hide{display:none}.tb-pass{background-color:transparent}.loading,.tb-loading{background-image:url(//img.alicdn.com/tfs/TB1BlobNFXXXXXyXXXXXXXXXXXX-34-34.gif);background-repeat:no-repeat;background-position:center}.tb-loading{background-color:#FFF}.tbh-tag::after{content:' ';width:10px;height:12px;margin-left:2px;background:url(//img.alicdn.com/tps/TB17w6xLVXXXXXoXXXXXXXXXXXX-10-12.png);display:inline-block}#J_SiteNavHome{display:none}.screen,.top-wrap,.seat,.bottom{-webkit-transition:width .2s;-moz-transition:width .2s;-o-transition:width .2s;transition:width .2s;width:1190px;margin:0 auto;position:relative}.top{background-color:#FFF;padding-top:30px;padding-bottom:34px;height:100px;_zoom:1}.top .ta-rect{float:left;width:100%;min-height:1px}.top .ta-rect .rect-wrap{margin-left:265px;margin-right:300px;_overflow:visible}.top .ta-sub{position:relative;width:265px;margin-left:-100%;float:left}.top .ta-extra{position:relative;width:96px;margin-left:-96px;float:left}.screen{margin-top:-34px;height:555px;_zoom:1}.screen .sa-rect{float:left;width:100%;min-height:1px}.screen .sa-rect .rect-wrap{margin-left:200px;margin-right:0;_overflow:visible}.screen .sa-sub{position:relative;width:190px;margin-left:-100%;float:left}.screen .sa-extra{position:relative;width:0;margin-left:0;float:left}.screen .core{_zoom:1}.screen .core .ca-rect{float:left;width:100%;min-height:1px}.screen .core .ca-rect .rect-wrap{margin-left:529px;margin-right:301px;_overflow:visible}.screen .core .ca-sub{position:relative;width:520px;margin-left:-100%;float:left}.screen .core .ca-extra{position:relative;width:290px;margin-left:-290px;float:left}.seat{_zoom:1;*zoom:1}.seat .seat-rect{float:left;width:100%;min-height:1px}.seat .seat-rect .rect-wrap{margin-left:0;margin-right:301px;_overflow:visible}.seat .seat-sub{position:relative;width:0;margin-left:-100%;float:left}.seat .seat-extra{position:relative;width:290px;margin-left:-290px;float:left}.seat:before,.seat:after{content:" ";display:table}.seat:after{height:0;line-height:0;visibility:hidden;clear:both}.rect-wrap{position:relative}.seat .rect-wrap{width:890px}.seat .rect-wrap ins,.seat .rect-wrap ins img,.seat .rect-wrap ins iframe{width:890px!important}.hd-tanx{overflow:hidden;height:280px;background-color:#FFF}.hb-tanx-down{margin-top:1px;height:230px}.hb-tanx-down h5{font-size:12px;font-weight:400;background:#f1f1f1;color:#a1a1a1;line-height:24px;padding-top:6px}.seat-extra .tanx-wrapper{width:290px;overflow:hidden;margin-top:14px}.seat-extra .tanx-wrapper h4{font-size:14px;margin-bottom:10px}.seat-extra .tanx-wrapper .tbh-tanx{width:290px;height:242px;overflow:hidden}.seat-extra .tanx-wrapper .tbh-tanx ins,.seat-extra .tanx-wrapper .tbh-tanx ins img,.seat-extra .tanx-wrapper .tbh-tanx ins iframe{width:290px!important;height:242px!important}.seat-rect .tbh-ald{height:70px;margin-top:15px}.seat-gg{margin-top:5px;height:70px;margin-bottom:10px}.seat-gg ins,.seat-gg ins img,.seat-gg ins iframe{width:890px!important}.blocks-item:hover,.blocksh-item:hover{position:relative;border-right-color:transparent;-webkit-box-shadow:1px 1px 0 #f40,1px -1px 0 #f40,-1px 1px 0 #f40,-1px -1px 0 #f40;-moz-box-shadow:1px 1px 0 #f40,1px -1px 0 #f40,-1px 1px 0 #f40,-1px -1px 0 #f40;box-shadow:1px 1px 0 #f40,1px -1px 0 #f40,-1px 1px 0 #f40,-1px -1px 0 #f40;z-index:2}.tbh-belt,.tbh-favorite,.tbh-blocks,.tbh-blocks-sh{width:889px}.tbh-favorite{overflow:hidden}div.footer{border-top:2px solid #F40}div.footer .footer-ft{display:block}.a-opacity{-webkit-transition:opacity .2s;-moz-transition:opacity .2s;-o-transition:opacity .2s;transition:opacity .2s}.a-all{-webkit-transition:all .2s;-moz-transition:all .2s;-o-transition:all .2s;transition:all .2s}.s1190 .screen,.s1190 .top-wrap,.s1190 .seat,.s1190 .bottom,.s1190 .tbh-hotsale,.s1190 .bubble{-webkit-transition:width .2s;-moz-transition:width .2s;-o-transition:width .2s;transition:width .2s;width:990px}.s1190 .seat .rect-wrap{-webkit-transition:width .2s;-moz-transition:width .2s;-o-transition:width .2s;transition:width .2s;width:690px}.s1190 .screen .core .ca-sub{width:492px;overflow:hidden}.s1190 .top .ta-rect .rect-wrap{margin-right:145px;margin-left:218px}.s1190 .seat-gg ins,.s1190 .seat .rect-wrap ins,.s1190 .seat-gg ins img,.s1190 .seat .rect-wrap ins img,.s1190 .seat-gg ins iframe,.s1190 .seat .rect-wrap ins iframe{width:690px!important}.s1190 .belt a{margin-left:-5px}.s1190 .belt-item-4{display:none}.s1190 .promo,.s1190 .tmall{left:-14px}.s1190 .tmall-ft .tmall-opt .prev,.s1190 .promo-ft .promo-opt .prev{left:14px}.s1190 .tmall-ft .tmall-opt .next,.s1190 .promo-ft .promo-opt .next{right:14px}.s1190 .tmall-hd{width:492px;position:relative;left:14px}.s1190 .favorite-item,.s1190 .like-item{-webkit-transition:width .2s;-moz-transition:width .2s;-o-transition:width .2s;transition:width .2s;width:340px}.s1190 .fi-contain{width:240px}.s1190 .favorite-entry .fi-banner-s-0,.s1190 .like-entry .fi-banner-s-0{display:none}.s1190 .favorite-entry .fi-banner-l span,.s1190 .like-entry .fi-banner-l span{left:10px}.s1190 .fi-infos p a{margin-left:21px;height:80px;margin-top:2px}.s1190 .favorite-info .fi-cdown .fi-banner-l,.s1190 .like-info .fi-cdown .fi-banner-l{width:240px}.s1190 .favorite-info .fi-cdown .fi-banner-l span,.s1190 .like-info .fi-cdown .fi-banner-l span{left:30px}.s1190 .favorite-info .fi-banner-s-1,.s1190 .like-info .fi-banner-s-1{display:none}.s1190 .favorite-overall .fi-cdown .fi-banner-l,.s1190 .like-overall .fi-cdown .fi-banner-l{width:240px}.s1190 .favorite-overall .fi-cdown .fi-banner-l span,.s1190 .like-overall .fi-cdown .fi-banner-l span{left:30px}.s1190 .favorite-overall .fi-banner-s,.s1190 .like-overall .fi-banner-s{display:none}.s1190 .favorite-entry .fi-banner-s,.s1190 .like-entry .fi-banner-s{display:none}.s1190 .blocksh-bd,.s1190 .blocks-bd{width:693px;overflow:hidden}.s1190 .blocksh-bd{height:300px}.s1190 .blocks-bd{height:578px}.s1190 .blocks-item{width:229px}.s1190 .blocksh-item-3,.s1190 .blocksh-item-7{display:none}.s1190 .blocks-thumb3 .blocks-contain a,.s1190 .blocks-thumb4 .blocks-contain a,.s1190 .blocks-thumbtext .blocks-contain a{width:114px}.s1190 .blocks-thumb3 .blocks-contain a span,.s1190 .blocks-thumb4 .blocks-contain a span,.s1190 .blocks-thumbtext .blocks-contain a span{right:14px}.s1190 .blocks-item:hover,.s1190 .blocksh-item:hover{overflow:visible;border-right-color:#eaeaea;-webkit-box-shadow:none;-moz-box-shadow:none;box-shadow:none}.s1190 .markets-last-2{display:none}.s1190 .markets-item{margin-right:21px}.s1190 .fixedtool{-webkit-transition:maring-right .2s;-moz-transition:maring-right .2s;-o-transition:maring-right .2s;transition:maring-right .2s;margin-right:-555px}.s1190 div.footer{width:990px}.s1190 div#J_Sale{min-height:558px}.s1190 .tbh-belt,.s1190 .tbh-favorite,.s1190 .tbh-like,.s1190 .tbh-blocks,.s1190 .tbh-blocks-sh{width:690px;overflow:hidden}.s1190 .thb-belt-activity{width:690px;overflow:hidden}.s1190 .seat-rect .tbh-ald{width:687px;overflow:hidden}@media screen and (max-width:1189px){.screen,.top-wrap,.seat,.bottom,.tbh-hotsale,.bubble{-webkit-transition:width .2s;-moz-transition:width .2s;-o-transition:width .2s;transition:width .2s;width:990px}.seat .rect-wrap{-webkit-transition:width .2s;-moz-transition:width .2s;-o-transition:width .2s;transition:width .2s;width:690px}.screen .core .ca-sub{width:492px;overflow:hidden}.top .ta-rect .rect-wrap{margin-right:145px;margin-left:218px}.seat-gg ins,.seat .rect-wrap ins,.seat-gg ins img,.seat .rect-wrap ins img,.seat-gg ins iframe,.seat .rect-wrap ins iframe{width:690px!important}.belt a{margin-left:-5px}.belt-item-4{display:none}.promo,.tmall{left:-14px}.tmall-ft .tmall-opt .prev,.promo-ft .promo-opt .prev{left:14px}.tmall-ft .tmall-opt .next,.promo-ft .promo-opt .next{right:14px}.tmall-hd{width:492px;position:relative;left:14px}.favorite-item,.like-item{-webkit-transition:width .2s;-moz-transition:width .2s;-o-transition:width .2s;transition:width .2s;width:340px}.fi-contain{width:240px}.favorite-entry .fi-banner-s-0,.like-entry .fi-banner-s-0{display:none}.favorite-entry .fi-banner-l span,.like-entry .fi-banner-l span{left:10px}.fi-infos p a{margin-left:21px;height:80px;margin-top:2px}.favorite-info .fi-cdown .fi-banner-l,.like-info .fi-cdown .fi-banner-l{width:240px}.favorite-info .fi-cdown .fi-banner-l span,.like-info .fi-cdown .fi-banner-l span{left:30px}.favorite-info .fi-banner-s-1,.like-info .fi-banner-s-1{display:none}.favorite-overall .fi-cdown .fi-banner-l,.like-overall .fi-cdown .fi-banner-l{width:240px}.favorite-overall .fi-cdown .fi-banner-l span,.like-overall .fi-cdown .fi-banner-l span{left:30px}.favorite-overall .fi-banner-s,.like-overall .fi-banner-s{display:none}.favorite-entry .fi-banner-s,.like-entry .fi-banner-s{display:none}.blocksh-bd,.blocks-bd{width:693px;overflow:hidden}.blocksh-bd{height:300px}.blocks-bd{height:578px}.blocks-item{width:229px}.blocksh-item-3,.blocksh-item-7{display:none}.blocks-thumb3 .blocks-contain a,.blocks-thumb4 .blocks-contain a,.blocks-thumbtext .blocks-contain a{width:114px}.blocks-thumb3 .blocks-contain a span,.blocks-thumb4 .blocks-contain a span,.blocks-thumbtext .blocks-contain a span{right:14px}.blocks-item:hover,.blocksh-item:hover{overflow:visible;border-right-color:#eaeaea;-webkit-box-shadow:none;-moz-box-shadow:none;box-shadow:none}.markets-last-2{display:none}.markets-item{margin-right:21px}.fixedtool{-webkit-transition:maring-right .2s;-moz-transition:maring-right .2s;-o-transition:maring-right .2s;transition:maring-right .2s;margin-right:-555px}div.footer{width:990px}div#J_Sale{min-height:558px}.tbh-belt,.tbh-favorite,.tbh-like,.tbh-blocks,.tbh-blocks-sh{width:690px;overflow:hidden}.thb-belt-activity{width:690px;overflow:hidden}.seat-rect .tbh-ald{width:687px;overflow:hidden}}\u000a</style>\u000a<link rel="stylesheet" href="//g.alicdn.com/tb-mod/??tbh-banner/0.0.3/index.css,tbh-super-banner/0.1.3/index.css,tbh-decorations/0.0.5/index.css,tbh-search/0.0.2/index.css,tbh-logo/0.0.1/index.css,tbh-qr/0.0.5/index.css,tbh-nav/0.0.4/index.css,tbh-focus/0.0.3/index.css,tbh-tanx/0.0.1/index.css,tbh-promo/0.1.1/index.css,tbh-tmall/0.3.4/index.css,tbh-member/0.1.4/index.css,tbh-notice/0.1.0/index.css,tbh-conve/0.0.5/index.css,tbh-service/0.3.6/index.css,tbh-belt/0.3.2/index.css,tbh-app/0.1.2/index.css,tbh-headline/0.0.7/index.css,tbh-discover-goods/1.0.0/index.css,tbh-footprint/0.0.2/index.css,tbh-discover-shop/0.1.0/index.css,tbh-sale/0.0.1/index.css,tbh-live/0.0.6/index.css,tbh-list/0.0.6/index.css,tbh-hotsale/0.0.10/index.css,tbh-helper/0.0.1/index.css,tbh-fixedtool/0.1.4/index.css,tbh-bubble/0.0.2/index.css,tbh-inject/0.0.1/index.css,tbh-like/1.0.2/index.css,tbh-blocks/0.0.6/index.css,tbh-blocks-sh/0.0.15/index.css">\u000a<base target="_blank" />\u000a</head>\u000a<body data-spm="50862"><script>\u000awith(document)with(body)with(insertBefore(createElement("script"),firstChild))setAttribute("exparams","category=&userid=&aplus&yunid=&&asid=AQAAAAATY1pYJ9TpIgAAAACoocRlQQ14TA==",id="tb-beacon-aplus",src=(location>"https"?"//g":"//g")+".alicdn.com/alilog/mlog/aplus_v2.js")\u000a</script>\u000a<div class="cover J_Cover">\u000a<div class="site-nav" id="J_SiteNav" data-component-config='{ "cart": "0.0.6","message": "3.4.6","umpp": "1.5.4","mini-login": "6.3.8","tb-ie-updater": "0.0.4","tbar": "2.1.0","sidebar": "1.0.1" }' data-tbar='{ "show":true, "miniCart": "2.12.2", "venueUrl": "https://huodong.taobao.com/wow/tb-20161212/act/zhuhuichang", "helpUrl": "https://consumerservice.taobao.com/online-help?from=activity", "validTime":{"startTime": 1480521600, "endTime": 1481558400}, "style": {"name": "20161212", "path": "kg/sidebar-style-20161212/0.0.4/" }, "page":[],"blackList":[],"navDataId":{"tceSid":1182567,"tceVid":0},"pluginVersion":{ "cart":"0.1.0","history":"0.1.1","redpaper":"0.0.8","my1111":"0.0.4","gotop":"0.1.0","help":"0.1.0","ww":"0.0.3","pagenav":"0.1.1","myasset":"0.0.5","my1212":"0.0.1"}}'>\u000a<div class="site-nav-bd" id="J_SiteNavBd">\u000a<ul class="site-nav-bd-l" id="J_SiteNavBdL" data-spm-ab="1">\u000a<li class="site-nav-menu site-nav-login" id="J_SiteNavLogin" data-name="login" data-spm="754894437">\u000a<div class="site-nav-menu-hd">\u000a<a href="//login.taobao.com/member/login.jhtml?f=top&redirectURL=https%3A%2F%2Fwww.taobao.com%2F" target="_top">\u000a<span>\u4eb2\uff0c\u8bf7\u767b\u5f55</span>\u000a</a>\u000a</div>\u000a</li>\u000a<li id="J_Tmsg" class="site-nav-tmsg tmsg site-nav-multi-menu J_MultiMenu" data-name="tmsg" data-spm="1997563201">\u000a<div class="J_Menu site-nav-menu">\u000a<div class="site-nav-menu-hd J_Tmsg_Basic tmsg_basic">\u000a<span class="J_Tmsg_Logo tmsg_logo_area" style="zoom:1;">\u000a<span class="J_Tmsg_Logo_Loading tmsg_logo_loading"></span>\u000a<span class="J_Tmsg_Logo_Icon tmsg_logo_icon site-nav-icon" style="display:none">&#xe602;</span>\u000a<span class="J_Tmsg_Logo_Text tmsg_logo_text">\u6d88\u606f</span>\u000a<span class="J_Tmsg_Logo_Unread tmsg_logo_unread"></span>\u000a</span>\u000a<span class="site-nav-arrow"><span class="site-nav-icon">&#xe605;</span></span>\u000a</div>\u000a<div class="site-nav-menu-bd">\u000a<div class="J_Tmsg_Panel_Apps tmsg_panel_apps"></div>\u000a</div>\u000a</div>\u000a<div class="J_Tmsg_Panels tmsg_panels">\u000a<div class="J_Tmsg_Panel_Detail tmsg_panel_detail"></div>\u000a<div class="J_Tmsg_Panel_history tmsg_panel_history"></div>\u000a<div class="J_Tmsg_Panel_Strong tmsg_panel_strong"></div>\u000a<div class="J_Tmsg_Panel_Setting tmsg_panel_setting"></div>\u000a</div>\u000a</li>\u000a<li class="site-nav-menu site-nav-mobile" id="J_SiteNavMobile" data-name="mobile" data-spm="1997563273">\u000a<div class="site-nav-menu-hd">\u000a<a href="//www.taobao.com/m" target="_top">\u000a<span>\u624b\u673a\u901b\u6dd8\u5b9d</span>\u000a</a>\u000a</div>\u000a</li>\u000a<li class="site-nav-menu site-nav-weekend site-nav-multi-menu J_MultiMenu" id="J_SiteNavWeekend" data-name="weekend" data-spm="">\u000a</li>\u000a</ul>\u000a<ul class="site-nav-bd-r" id="J_SiteNavBdR" data-spm-ab="2">\u000a<li class="site-nav-menu site-nav-home" id="J_SiteNavHome" data-name="home" data-spm="1581860521">\u000a<div class="site-nav-menu-hd">\u000a<a href="//www.taobao.com/" target="_top">\u000a<span>\u6dd8\u5b9d\u7f51\u9996\u9875</span>\u000a</a>\u000a</div>\u000a</li>\u000a<li class="site-nav-menu site-nav-mytaobao site-nav-multi-menu J_MultiMenu" id="J_SiteNavMytaobao" data-name="mytaobao" data-spm="1997525045">\u000a<div class="site-nav-menu-hd">\u000a<a href="//i.taobao.com/my_taobao.htm" target="_top">\u000a<span>\u6211\u7684\u6dd8\u5b9d</span>\u000a</a>\u000a<span class="site-nav-arrow"><span class="site-nav-icon">&#xe605;</span></span>\u000a</div>\u000a<div class="site-nav-menu-bd site-nav-menu-list">\u000a<div class="site-nav-menu-bd-panel menu-bd-panel">\u000a<a href="//trade.taobao.com/trade/itemlist/list_bought_items.htm" target="_top">\u5df2\u4e70\u5230\u7684\u5b9d\u8d1d</a>\u000a<a href="//lu.taobao.com/newMyPath.htm" target="_top">\u6211\u7684\u8db3\u8ff9</a>\u000a</div>\u000a</div>\u000a</li>\u000a<li class="site-nav-menu site-nav-cart site-nav-menu-empty site-nav-multi-menu J_MultiMenu" id="J_MiniCart" data-name="cart" data-spm="1997525049">\u000a<div class="site-nav-menu-hd">\u000a<a href="//cart.taobao.com/cart.htm?from=mini&ad_id=&am_id=&cm_id=&pm_id=1501036000a02c5c3739" target="_top">\u000a<span class="site-nav-icon site-nav-icon-highlight">&#xe603;</span>\u000a<span>\u8d2d\u7269\u8f66</span>\u000a<strong class="h" id="J_MiniCartNum"></strong>\u000a</a>\u000a<span class="site-nav-arrow"><span class="site-nav-icon">&#xe605;</span></span>\u000a</div>\u000a<div class="site-nav-menu-bd">\u000a<div class="site-nav-menu-bd-panel menu-bd-panel">\u000a</div>\u000a</div>\u000a</li>\u000a<li class="site-nav-menu site-nav-favor site-nav-multi-menu J_MultiMenu" id="J_SiteNavFavor" data-name="favor" data-spm="1997525053">\u000a<div class="site-nav-menu-hd">\u000a<a href="//shoucang.taobao.com/shop_collect_list.htm" target="_top">\u000a<span class="site-nav-icon">&#xe604;</span>\u000a<span>\u6536\u85cf\u5939</span>\u000a</a>\u000a<span class="site-nav-arrow"><span class="site-nav-icon">&#xe605;</span></span>\u000a</div>\u000a<div class="site-nav-menu-bd site-nav-menu-list">\u000a<div class="site-nav-menu-bd-panel menu-bd-panel">\u000a<a href="//shoucang.taobao.com/item_collect.htm" target="_top">\u6536\u85cf\u7684\u5b9d\u8d1d</a>\u000a<a href="//shoucang.taobao.com/shop_collect_list.htm" target="_top">\u6536\u85cf\u7684\u5e97\u94fa</a>\u000a</div>\u000a</div>\u000a</li>\u000a<li class="site-nav-menu site-nav-catalog" id="J_SiteNavCatalog" data-name="catalog" data-spm="1997563209">\u000a<div class="site-nav-menu-hd">\u000a<a href="//www.taobao.com/tbhome/page/market-list" target="_top">\u000a<span>\u5546\u54c1\u5206\u7c7b</span>\u000a</a>\u000a</div>\u000a</li>\u000a<li class="site-nav-pipe">|</li>\u000a<li class="site-nav-menu site-nav-seller site-nav-multi-menu J_MultiMenu" id="J_SiteNavSeller" data-name="seller" data-spm="1997525073">\u000a<div class="site-nav-menu-hd">\u000a<a href="//mai.taobao.com/seller_admin.htm" target="_top">\u000a<span>\u5356\u5bb6\u4e2d\u5fc3</span>\u000a</a>\u000a<span class="site-nav-arrow"><span class="site-nav-icon">&#xe605;</span></span>\u000a</div>\u000a<div class="site-nav-menu-bd site-nav-menu-list">\u000a<div class="site-nav-menu-bd-panel menu-bd-panel">\u000a<a href="//mai.taobao.com/seller_admin.htm" target="_top">\u514d\u8d39\u5f00\u5e97</a>\u000a<a href="//trade.taobao.com/trade/itemlist/list_sold_items.htm" target="_top">\u5df2\u5356\u51fa\u7684\u5b9d\u8d1d</a>\u000a<a href="//sell.taobao.com/auction/goods/goods_on_sale.htm" target="_top">\u51fa\u552e\u4e2d\u7684\u5b9d\u8d1d</a>\u000a<a href="//fuwu.taobao.com/?tracelog=tbdd" target="_top">\u5356\u5bb6\u670d\u52a1\u5e02\u573a</a>\u000a<a href="//daxue.taobao.com/" target="_top">\u5356\u5bb6\u57f9\u8bad\u4e2d\u5fc3</a>\u000a<a href="//healthcenter.taobao.com/home/health_home.htm" target="_top">\u4f53\u68c0\u4e2d\u5fc3</a>\u000a</div>\u000a</div>\u000a</li>\u000a<li class="site-nav-menu site-nav-service site-nav-multi-menu J_MultiMenu" id="J_SiteNavService" data-name="service" data-spm="754895749">\u000a<div class="site-nav-menu-hd">\u000a<a href="//service.taobao.com/support/main/service_center.htm?from=newBuyerLead" target="_top">\u000a<span>\u8054\u7cfb\u5ba2\u670d</span>\u000a</a>\u000a<span class="site-nav-arrow"><span class="site-nav-icon">&#xe605;</span></span>\u000a</div>\u000a<div class="site-nav-menu-bd site-nav-menu-list">\u000a<div class="site-nav-menu-bd-panel menu-bd-panel">\u000a<a href="//service.taobao.com/support/main/service_center.htm" target="_top">\u6d88\u8d39\u8005\u5ba2\u670d</a>\u000a<a href="//helpcenter.taobao.com/index?from=high" target="_top">\u5356\u5bb6\u5ba2\u670d</a>\u000a</div>\u000a</div>\u000a</li>\u000a<li class="site-nav-menu site-nav-sitemap site-nav-multi-menu J_MultiMenu" id="J_SiteNavSitemap" data-name="sitemap" data-spm="1997525077">\u000a<div class="site-nav-menu-hd">\u000a<a href="//www.taobao.com/sitemap.php" target="_top">\u000a<span class="site-nav-icon site-nav-icon-highlight">&#xe601;</span>\u000a<span>\u7f51\u7ad9\u5bfc\u822a</span>\u000a</a>\u000a<span class="site-nav-arrow"><span class="site-nav-icon">&#xe605;</span></span>\u000a</div>\u000a</li>\u000a</ul>\u000a</div>\u000a<textarea class="J_SiteNavTemplateSign">\u000a        <div class="site-nav-menu-hd">\u000a            <div class="site-nav-sign">\u000a                <a href="{loginUrl}" target="_top" class="h">\u4eb2\uff0c\u8bf7\u767b\u5f55</a>\u000a                <a href="{regUrl}" target="_top">\u514d\u8d39\u6ce8\u518c</a>\u000a            </div>\u000a            <div class="site-nav-user">\u000a                {userInfo}\u000a                <span class="site-nav-arrow"><span class="site-nav-icon">&#xe605;</span></span>\u000a            </div>\u000a        </div>\u000a        <div class="site-nav-menu-bd" id="J_SiteNavLoginPanel">\u000a        </div>\u000a    </textarea>\u000a<textarea class="J_SiteNavTemplateUser">\u000a        <div class="site-nav-menu-bd-panel">\u000a            <a href="//i{host}/my_taobao.htm?ad_id=&am_id=&cm_id=&pm_id=1501036000a02c5c3739" target="_top" id="J_UserAvatar" class="site-nav-user-avatar">\u000a                <img id="J_SiteNavUserAvatar" src="{avatarUrl}" width="80" height="80" alt="{nick}\u7684\u5934\u50cf">\u000a            </a>\u000a            <div class="site-nav-user-info">\u000a                <p class="site-nav-user-operate">\u000a                    <a href="//member1{host}/member/fresh/account_security.htm" target="_top">\u8d26\u53f7\u7ba1\u7406</a>\u000a                    <span class="site-nav-pipe">|</span>\u000a                    <a href="{logoutUrl}" target="_top">\u9000\u51fa</a>\u000a                </p>\u000a                <p>\u000a                    {levelInfo}\u000a                </p>\u000a                <p>\u000a                    <a href="{powerUrl}" target="_top"><strong class="site-nav-privilege-count">{powerTit}</strong></a>\u000a                </p>\u000a                {newMemberTip}\u000a            </div>\u000a            <div class="site-nav-user-privilege-tip">{privilegeTip}</div>\u000a            <div class="site-nav-user-medal {medalCls}">\u000a                <div class="site-nav-user-medal-bd">\u000a                    <div id="J_UserMedalCont" class="site-nav-user-medal-cont">{userMedals}</div>\u000a                </div>\u000a                <a href="javascript:;" target="_top" id="J_ArrowL" class="site-nav-medal-arrow site-nav-arrow-l">&lt;</span></a>\u000a                <a href="javascript:;" target="_top" id="J_ArrowR" class="site-nav-medal-arrow site-nav-arrow-r">&gt;</a>\u000a            </div>\u000a        </div>\u000a    </textarea>\u000a</div>\u000a<!--[if lt IE 8]>\u000a<style>html,body{overflow:hidden;height:100%}</style>\u000a<div class="tb-ie-updater-layer"></div>\u000a<div class="tb-ie-updater-box" data-spm="20161112">\u000a  <a href="https://www.google.cn/intl/zh-CN/chrome/browser/desktop/" class="tb-ie-updater-google" target="_blank" data-spm-click="gostr=/tbieupdate;locaid=d1;name=google">\u8c37\u6b4c Chrome</a>\u000a  <a href="http://www.uc.cn/ucbrowser/download/" class="tb-ie-updater-uc" target="_blank" data-spm-click="gostr=/tbieupdate20161112;locaid=d2;name=uc">UC \u6d4f\u89c8\u5668</a>"\u000a</div>\u000a<![endif]-->\u000a<div data-spm="201855" class="tbh-banner J_Module" tms="tbh-banner/0.0.3" tms-datakey="tbh_617421"></div>\u000a<div data-spm="523823" class="tbh-super-banner J_Module" tms="tbh-super-banner/0.1.3" tms-datakey="tbh_673803">\u000a</div>\u000a<div data-spm="202137" class="tbh-decorations J_Module" tms="tbh-decorations/0.0.5" tms-datakey="tbh_617447">\u000a</div>\u000a</div>\u000a<div class="cup J_Cup">\u000a<div class="decorations-box tb-hide"></div>\u000a<div class="top J_Top">\u000a<div class="top-wrap">\u000a<div class="ta-rect">\u000a<div class="rect-wrap">\u000a<div data-spm="201856" class="tbh-search J_Module" tms="tbh-search/0.0.2" tms-datakey="tbh_617423"><div class="search-wrap">\u000a<div class="search-hd">\u000a<div class="search-tips">\u000a<a href="//list.taobao.com/browse/ad_search.htm">\u9ad8\u7ea7<br>\u641c\u7d22</a>\u000a</div>\u000a</div>\u000a<div class="search-bd">\u000a<div id="J_SearchTab" class="search-triggers search-tab-header J_SearchTabBox">\u000a<ul class="ks-switchable-nav">\u000a<li class="J_SearchTab selected goods-search-tab" data-searchtype="item" data-defaultpage="nogo" data-spm-click="gostr=/tbindex;locaid=d10;name=\u5b9d\u8d1d">\u5b9d\u8d1d</li>\u000a<li class="J_SearchTab tmall-search-tab" data-searchtype="tmall" data-tmall="true" data-spm-click="gostr=/tbindex;locaid=d11;name=\u5929\u732b" data-action="//list.tmall.com/search_product.htm">\u5929\u732b</li>\u000a<li class="J_SearchTab shop-search-tab" data-searchtype="shop" data-spm-click="gostr=/tbindex;locaid=d12;name=\u5e97\u94fa" data-action="//shopsearch.taobao.com/browse/shop_search.htm">\u5e97\u94fa</li>\u000a</ul>\u000a<div class="search-tab-icon"><i><em></em><span></span></i></div>\u000a</div>\u000a<div class="search-panel search-hp-panel ks-switchable-content J_SearchPanel">\u000a<form target="_top" action="//s.taobao.com/search" name="search" id="J_TSearchForm" class="search-panel-focused">\u000a<div class="search-button"><button class="btn-search" type="submit" data-spm-click="gostr=/tbindex;locaid=d13">\u641c\u7d22</button></div>\u000a<div class="search-panel-fields search-hp-fields search-common-panel">\u000a<div class="J_TbSearchContent J_TbPlaceholder J_Placeholder" id="tbSearchContent">\u000a<label for="q" data-searchtype-item="<span style='display:none;'>\u7535\u5b50\u9f13</span>\u542c\u8bf4\u5728\u5bb6\u6253\u9f13\u4e5f\u4e0d\u6015\u88ab\u6295\u8bc9\u5566" data-searchtype-shop="<span style='display:none;'></span>" data-oeid="" style="visibility: hidden;"><span style='display:none;'>\u7535\u5b50\u9f13</span>\u542c\u8bf4\u5728\u5bb6\u6253\u9f13\u4e5f\u4e0d\u6015\u88ab\u6295\u8bc9\u5566</label>\u000a</div>\u000a<div class="hidden J_TmallSearchContent J_Placeholder J_TmallPlaceholder"><label for="q"></label></div>\u000a<div class="search-combobox" aria-pressed="false">\u000a<div class="search-combobox-input-wrap">\u000a<input id="q" name="q" aria-label="\u8bf7\u8f93\u5165\u641c\u7d22\u6587\u5b57" accesskey="s" autofocus="autofocus" autocomplete="off" class="search-combobox-input" aria-haspopup="true" aria-combobox="list" role="combobox" x-webkit-grammar="builtin:translate">\u000a</div>\u000a</div>\u000a<div class="search-imgsearch-panel" id="J_UploaderPanel">\u000a<span class="search-imgsearch-input-icon"></span>\u000a<div class="search-imgsearch-upload">\u000a<input trace="imgsearchbtn" type="file" id="J_IMGSeachUploadBtn" value="\u4e0a\u4f20\u56fe\u7247" name="imgfile" accept="image/*" />\u000a</div>\u000a</div>\u000a<i class="tb-icon J_SearchIcon">&#xe614;</i>\u000a</div>\u000a<div class="search-imgsearch-message" id="J_UploaderMessage"></div>\u000a<input type="hidden" name="commend" value="all" />\u000a<input type="hidden" name="ssid" value="s5-e" autocomplete="off" />\u000a<input type="hidden" name="search_type" value="item" autocomplete="off" />\u000a<input type="hidden" name="sourceId" value="tb.index" />\u000a<input type="hidden" name="spm" value="" />\u000a<input type="hidden" name="ie" value="utf8" />\u000a<input type="hidden" name="initiative_id" value="tbindexz_20161221" />\u000a<!--[if lt IE 9]>\u000a                <s class="search-fix search-fix-panellt"></s><s class="search-fix search-fix-panellb"></s>\u000a                <![endif]-->\u000a</form>\u000a</div>\u000a</div>\u000a<div class="search-ft J_SearchFt">\u000a<div class="J_TbSearchContent J_HotWord">\u000a<div class="search-hots">\u000a<div class="search-hots-lines">\u000a<div class="search-hots-fline" data-spm-ab="fline">\u000a<a href="&#x2F;&#x2F;s.taobao.com&#x2F;search?spm=1.7274553.1997520241-2.2.TpEKPQ&amp;q=\u8fde\u8863\u88d9&amp;refpid=420460_1006&amp;source=tbsy&amp;style=grid&amp;tab=all&amp;pvid=d0f2ec2810bcec0d5a16d5283ce59f66">\u65b0\u6b3e\u8fde\u8863\u88d9</a>\u000a<a href="&#x2F;&#x2F;s.taobao.com&#x2F;search?spm=1.7274553.1997520241-2.2.TpEKPQ&amp;q=\u56db\u4ef6\u5957&amp;refpid=420461_1006&amp;source=tbsy&amp;style=grid&amp;tab=all&amp;pvid=d0f2ec2810bcec0d5a16d5283ce59f67">\u56db\u4ef6\u5957</a>\u000a<a href="&#x2F;&#x2F;s.taobao.com&#x2F;search?spm=1.7274553.1997520241-2.2.TpEKPQ&amp;q=T\u6064&amp;refpid=420462_1006&amp;source=tbsy&amp;style=grid&amp;tab=all&amp;pvid=d0f2ec2810bcec0d5a16d5283ce59f67" class="h">\u6f6e\u6d41T\u6064</a>\u000a<a href="https:&#x2F;&#x2F;s.taobao.com&#x2F;search?q=%E5%A5%B3%E9%9E%8B&amp;refpid=420466_1006&amp;source=tbsy&amp;style=grid&amp;tab=all&amp;pvid=d0f2ec2810bcec0d5a16d5283ce59f68">\u65f6\u5c1a\u5973\u978b</a>\u000a<a href="&#x2F;&#x2F;s.taobao.com&#x2F;search?spm=1.7274553.1997520241-2.2.TpEKPQ&amp;q=\u77ed\u88e4&amp;refpid=430145_1006&amp;source=tbsy&amp;style=grid&amp;tab=all&amp;pvid=d0f2ec2810bcec0d5a16d5283ce59f69">\u77ed\u88e4</a>\u000a<a href="&#x2F;&#x2F;s.taobao.com&#x2F;search?spm=1.7274553.1997520241-2.2.TpEKPQ&amp;q=\u534a\u8eab\u88d9&amp;refpid=430146_1006&amp;source=tbsy&amp;style=grid&amp;tab=all&amp;pvid=d0f2ec2810bcec0d5a16d5283ce59f70">\u534a\u8eab\u88d9</a>\u000a<a href="&#x2F;&#x2F;s.taobao.com&#x2F;search?spm=1.7274553.1997520241-2.2.TpEKPQ&amp;q=\u7537\u58eb\u5916\u5957&amp;refpid=430147_1006&amp;source=tbsy&amp;style=grid&amp;tab=all&amp;pvid=d0f2ec2810bcec0d5a16d5283ce59f70">\u7537\u58eb\u5916\u5957</a>\u000a<a href="https:&#x2F;&#x2F;s.taobao.com&#x2F;search?q=\u5899\u7eb8&amp;refpid=430148_1006&amp;source=tbsy&amp;style=grid&amp;tab=all&amp;pvid=d0f2ec2810bcec0d5a16d5283ce59f70">\u5899\u7eb8</a>\u000a<a href="&#x2F;&#x2F;s.taobao.com&#x2F;search?spm=1.7274553.1997520241-2.2.TpEKPQ&amp;q=\u884c\u8f66\u8bb0\u5f55\u4eea&amp;refpid=420467_1006&amp;source=tbsy&amp;style=grid&amp;tab=all&amp;pvid=d0f2ec2810bcec0d5a16d5283ce59f69">\u884c\u8f66\u8bb0\u5f55\u4eea</a>\u000a<a href="&#x2F;&#x2F;s.taobao.com&#x2F;search?spm=1.7274553.1997520241-2.2.TpEKPQ&amp;q=\u7537\u978b&amp;refpid=430144_1006&amp;source=tbsy&amp;style=grid&amp;tab=all&amp;pvid=d0f2ec2810bcec0d5a16d5283ce59f69">\u65b0\u6b3e\u7537\u978b</a>\u000a<a href="&#x2F;&#x2F;s.taobao.com&#x2F;search?spm=1.7274553.1997520241-2.2.TpEKPQ&amp;q=\u8033\u673a&amp;refpid=420463_1006&amp;source=tbsy&amp;style=grid&amp;tab=all&amp;pvid=d0f2ec2810bcec0d5a16d5283ce59f67">\u8033\u673a</a>\u000a<a href="&#x2F;&#x2F;s.taobao.com&#x2F;search?spm=1.7274553.1997520241-2.2.TpEKPQ&amp;q=\u5973\u5305&amp;refpid=420464_1006&amp;source=tbsy&amp;style=grid&amp;tab=all&amp;pvid=d0f2ec2810bcec0d5a16d5283ce59f68">\u65f6\u5c1a\u5973\u5305</a>\u000a<a href="&#x2F;&#x2F;s.taobao.com&#x2F;search?spm=1.7274553.1997520241-2.2.TpEKPQ&amp;q=\u6c99\u53d1&amp;refpid=420465_1006&amp;source=tbsy&amp;style=grid&amp;tab=all&amp;pvid=d0f2ec2810bcec0d5a16d5283ce59f68">\u6c99\u53d1</a>\u000a</div>\u000a</div>\u000a<a class="more more-with-border" href="//top.taobao.com/?topid=home" data-spm-ab="more">\u66f4\u591a<i class="tb-icon">&#x27a4;</i></a>\u000a</div>\u000a</div>\u000a<div class="J_TmallSearchContent J_HotWord J_TmallHotWord tmall-hot-word" data-spm-ab="tmallHotWords"></div>\u000a</div>\u000a</div>\u000a</div>\u000a</div>\u000a</div>\u000a<div class="ta-sub">\u000a<div data-spm="201857" class="tbh-logo J_Module tb-pass" tms="tbh-logo/0.0.1" tms-datakey="tbh_617424">\u000a<div class="logo">\u000a<h1>\u000a<a href='//www.taobao.com' class='logo-bd'>\u6dd8\u5b9d\u7f51</a>\u000a</h1>\u000a<h2><a href="//www.taobao.com">\u6dd8\u5b9d\u7f51</a></h2>\u000a</div>\u000a</div>\u000a</div>\u000a<div class="ta-extra">\u000a<div data-spm="201858" class="tbh-qr J_Module" tms="tbh-qr/0.0.5" tms-datakey="tbh_617425">\u000a<div class="qr">\u000a<a href="https://www.taobao.com/m" class="qr-bd">\u000a<span class="h">\u624b\u673a\u6dd8\u5b9d</span>\u000a<img src="//g.alicdn.com/s.gif" data-src="https://gtms01.alicdn.com/tps/i1/TB1h3IXGFXXXXXsXFXXDANtWXXX-175-175.png" alt="\u624b\u673a\u6dd8\u5b9d" />\u000a</a>\u000a<a href="javascript:;" target="_self" class="J_QrFt qr-ft">\u000a<s class="tb-icon">&#xe613;</s>\u000a</a>\u000a</div>\u000a</div>\u000a</div>\u000a</div>\u000a</div>\u000a<div class="screen J_Screen">\u000a<div class="sa-rect">\u000a<div class="rect-wrap">\u000a<div data-spm="201859" class="tbh-nav J_Module tb-pass" tms="tbh-nav/0.0.4" tms-datakey="tbh_617426"><div class="nav J_Nav">\u000a<ul class="nav-hd">\u000a<li style=" "><a href="https://www.tmall.com">\u5929\u732b</a></li>\u000a<li style=" "><a href="https://ju.taobao.com">\u805a\u5212\u7b97</a></li>\u000a<li style=" "><a href="https://chaoshi.tmall.com">\u5929\u732b\u8d85\u5e02</a></li>\u000a</ul>\u000a<ul class="nav-bd"><li class="pipe">|</li>\u000a<li><a href="https://qiang.taobao.com">\u6dd8\u62a2\u8d2d</a></li>\u000a<li><a href="https://3c.tmall.com">\u7535\u5668\u57ce</a></li>\u000a<li><a href="https://sf.taobao.com">\u53f8\u6cd5\u62cd\u5356</a></li>\u000a<li><a href="https://q.taobao.com">\u4e2d\u56fd\u8d28\u9020</a></li>\u000a<li><a href="https://china.taobao.com/">\u7279\u8272\u4e2d\u56fd</a></li>\u000a</ul>\u000a<ul class="nav-bd"><li class="pipe">|</li>\u000a<li style=" color:#3C3C3C"><a href="https://www.alitrip.com">\u98de\u732a\u65c5\u884c</a></li>\u000a<li style=" "><a href="https://yun.taobao.com">\u667a\u80fd\u751f\u6d3b</a></li>\u000a<li style=" "><a href="https://suning.tmall.com/">\u82cf\u5b81\u6613\u8d2d</a></li>\u000a</ul>\u000a</div>\u000a</div>\u000a<div class="core J_Core">\u000a<div class="ca-rect">\u000a<div class="rect-wrap">\u000a<div data-spm="201860" class="tbh-focus J_Module" tms="tbh-focus/0.0.3" tms-datakey="tbh_695480" tms-data="{&quot;moduleinfo&quot;:{&quot;bannerImg&quot;:&quot;https://img.alicdn.com/tps/TB1tg5UNVXXXXciXpXXXXXXXXXX-160-280.png&quot;,&quot;bannerLink&quot;:&quot;https://guang.taobao.com/ifashion/qiangxin.htm&quot;,&quot;subjectImg&quot;:&quot;https://img.alicdn.com/tps/TB1PR4NNVXXXXX4aXXXXXXXXXXX-380-80.jpg&quot;,&quot;subjectLink&quot;:&quot;https://cdj.taobao.com/?acm=201602252.1003.2.718034&amp;aldid=xG2kp1Rh&amp;scm=1003.2.201602252.OTHER_1457795875317_718034&amp;pos=1&quot;,&quot;screenImg&quot;:&quot;//img.alicdn.com/tps/TB1F9hVLVXXXXbfXVXXXXXXXXXX-880-70.jpg&quot;,&quot;screenLink&quot;:&quot;https://www.taobao.com/markets/qiangxin/nvzhuang&quot;,&quot;closePer&quot;:false,&quot;list_count&quot;:[{&quot;count&quot;:1,&quot;count_phone&quot;:1}]},&quot;list&quot;:[{&quot;data_para&quot;:{&quot;tce_vid&quot;:&quot;3&quot;,&quot;env&quot;:&quot;online&quot;,&quot;tce_sid&quot;:1265283},&quot;data_type&quot;:&quot;tceonline&quot;,&quot;tms_type&quot;:&quot;jsonp&quot;}],&quot;$tmsId&quot;:&quot;tbh_695480&quot;}"><span style="display:none"></span></div>\u000a<div class="hd-tanx hb-tanx-down">\u000a<h5>\u4eca\u65e5\u70ed\u5356</h5>\u000a<div data-spm="201861" class="tbh-tanx J_Module" tms="tbh-tanx/0.0.1" tms-datakey="tbh_617428">\u000a<a id="tanx-a-mm_12852562_1778064_48868196" data-id="mm_12852562_1778064_48868196" data-autolazy="0" data-isope="0" data-ahead="" class="J_Tanx">\u000a</a>\u000a</div>\u000a</div>\u000a</div>\u000a</div>\u000a<div class="ca-sub">\u000a<div data-spm="201862" class="tbh-promo J_Module" tms="tbh-promo/0.1.1" tms-datakey="tbh_617429"><div class="promo J_Promo tb-loading">\u000a<div class="promo-bd" data-index="">\u000a<div class="J_Ald J_Ald_20140506001 mod" data-id="20140506001" id="Ald_20140506001" data-spm-ab="1" data-show="1">\u000a<a href="//nz.taobao.com/" target="_blank" title="" data-spm="d1">\u000a<img border="0" src="//g.alicdn.com/s.gif" data-src="//img.alicdn.com/tps/TB1EMhjIpXXXXaPXVXXXXXXXXXX.jpg" width="520px" height="280px" />\u000a</a>\u000a</div>\u000a<div class="J_Tanx mod" data-id="mm_12852562_1778064_13670999" data-isope="0" data-lazychance="1" data-spm-ab="2">\u000a<a id="tanx-a-mm_12852562_1778064_13670999" class="hide"></a>\u000a</div>\u000a<div class="J_Tanx mod" data-id="mm_12852562_1778064_13674396" data-isope="0" data-lazychance="1" data-spm-ab="3">\u000a<a id="tanx-a-mm_12852562_1778064_13674396" class="hide"></a>\u000a</div>\u000a<div class="J_Tanx mod" data-id="mm_12852562_1778064_13672849" data-isope="0" data-lazychance="1" data-spm-ab="4">\u000a<a id="tanx-a-mm_12852562_1778064_13672849" class="hide"></a>\u000a</div>\u000a<div class="J_Ald J_Ald_20140506002 mod" data-id="20140506002" id="Ald_20140506002" data-spm-ab="5" data-show="1">\u000a<a href="https://style.taobao.com" target="_blank" title="" data-spm="d5">\u000a<img border="0" src="//g.alicdn.com/s.gif" data-src="//img.alicdn.com/tps/TB1ZUXnIpXXXXbWXFXXXXXXXXXX.jpg" width="520px" height="280px" />\u000a</a>\u000a</div>\u000a</div>\u000a<div class="promo-ft">\u000a<div class="promo-opt J_PromoOpt">\u000a<a href="javascript:;" class="J_Prev prev">\u000a<i class="s-prev tb-icon">&#xe61e;</i>\u000a</a>\u000a<a href="javascript:;" class="J_Next next">\u000a<i class="s-next tb-icon">&#xe61d;</i>\u000a</a>\u000a</div>\u000a<ul class="promo-nav"></ul>\u000a</div>\u000a</div>\u000a</div>\u000a<div data-spm="201863" class="tbh-tmall J_Module" tms="tbh-tmall/0.3.4" tms-datakey="tbh_617430"><div class="tmall J_Tmall">\u000a<div class="tmall-hd">\u000a<span>\u5929\u732b\u5fc5\u901b</span><em>\u70ed\u95e8\u54c1\u724c,\u5929\u5929\u4e0a\u5929\u732b!</em><strong><i>1</i>/6</strong>\u000a</div>\u000a<div class="tmall-bd tb-loading">\u000a<div class="J_Ald mod J_Ald_201602246 mod-5 mod-6 mod-first" data-id="201602246" data-spm-ab="1">\u000a</div>\u000a<div class="J_Ald mod J_Ald_07085 mod-4" data-id="07085" data-spm-ab="2" data-share="1" data-start="0" data-len="4">\u000a</div>\u000a<div class="J_Ald mod J_Ald_07085 mod-4" data-id="07085" data-spm-ab="3" data-share="1" data-start="4" data-len="4">\u000a</div>\u000a<div class="J_Ald mod J_Ald_03014 mod-12" data-id="03014" data-spm-ab="4">\u000a</div>\u000a<div class="J_Ald mod J_Ald_201608180 mod-2" data-id="201608180" data-spm-ab="5">\u000a</div>\u000a<div class="J_TanxWrapper mod column-2 tanx-wrapper" data-spm-ab="6">\u000a<a id="tanx-a-mm_12852562_1778064_48432768" class="J_Tanx hide" data-id="mm_12852562_1778064_48432768" data-lazychance="" data-isope="0"></a>\u000a<a id="tanx-a-mm_12852562_1778064_48458242" class="J_Tanx hide" data-id="mm_12852562_1778064_48458242" data-lazychance="" data-isope="0"></a>\u000a</div>\u000a</div>\u000a<div class="tmall-ft">\u000a<div class="tmall-opt J_TmallOpt">\u000a<a href="javascript:;" class="J_Prev prev">\u000a<i class="s-prev tb-icon">&#xe61e;</i>\u000a</a>\u000a<a href="javascript:;" class="J_Next next">\u000a<i class="s-next tb-icon">&#xe61d;</i>\u000a</a>\u000a</div>\u000a<ul class="tmall-nav"></ul>\u000a</div>\u000a<textarea style="display:none;">[{"isAld":"true","id":"201602246","open":"false","share":"false","alds":[{"link":"https://pages.tmall.com/wow/huanxin/act/refreshment-pc","img":"//img.alicdn.com/tps/i4/TB1pa4rMXXXXXbWaXXXee.i.VXX-346-402.png","tce_rule_count":"1"},{"link":"https://pages.tmall.com/wow/huanxin/act/mustbuy","img":"//img.alicdn.com/tps/i3/TB13LNGMXXXXXcBXpXXlkjU.VXX-346-200.jpg","tce_rule_count":"1"},{"link":"https://shouji.tmall.com/","img":"//img.alicdn.com/tps/i2/TB1TaNBMXXXXXcBXFXXlkjU.VXX-346-200.jpg","tce_rule_count":"1"},{"link":"https://ku.tmall.com/","img":"//img.alicdn.com/tps/i4/TB1_1BLMXXXXXb3XXXXlkjU.VXX-346-200.jpg","tce_rule_count":"1"},{"link":"https://miao.m.tmall.com/","img":"//img.alicdn.com/tps/i3/TB1OK4CMXXXXXboXFXXlkjU.VXX-346-200.jpg","tce_rule_count":"1"}],"local":"false","isTanx":"false"},{"isAld":"true","id":"07085","open":"false","share":"true","start":"0","alds":[{"link":"https://pages.tmall.com/wow/chaoshi/act/cszs-11","img":"https://gw.alicdn.com/imgextra/i3/92/TB2J9XZc71M.eBjSZFFXXc3vVXa_!!92-0-yamato.jpg","tce_rule_count":"1"},{"link":"https://nanzhuang.tmall.com","img":"https://gw.alicdn.com/imgextra/i3/35/TB2y5X0cxuI.eBjy0FdXXXgbVXa_!!35-0-yamato.jpg","tce_rule_count":"1"},{"link":"https://nvxie.tmall.com","img":"https://gw.alicdn.com/imgextra/i3/193/TB2Eq69cV5N.eBjSZFmXXboSXXa_!!193-0-yamato.jpg","tce_rule_count":"1"},{"link":"https://nvzhuang.tmall.com/","img":"https://gw.alicdn.com/imgextra/i4/62/TB2sF9hcrmI.eBjy1zjXXaq5VXa_!!62-0-yamato.jpg","tce_rule_count":"1"}],"len":"4","local":"false","isTanx":"false"},{"isAld":"true","id":"07085","open":"false","share":"true","start":"4","alds":[{"link":"https://bag.tmall.com","img":"https://gw.alicdn.com/imgextra/i2/146/TB2vB5Gc2SM.eBjSZFNXXbgYpXa_!!146-0-yamato.jpg","tce_rule_count":"1"},{"link":"https://3c.tmall.com","img":"https://gw.alicdn.com/imgextra/i4/155/TB2yC4bcrWJ.eBjSspdXXXiXFXa_!!155-0-yamato.jpg","tce_rule_count":"1"},{"link":"https://watch.tmall.com/","img":"https://gw.alicdn.com/imgextra/i3/143/TB207eEc.OO.eBjSZFLXXcxmXXa_!!143-0-yamato.jpg","tce_rule_count":"1"},{"link":"https://mei.tmall.com/","img":"https://gw.alicdn.com/imgextra/i4/57/TB23Ej8c71M.eBjSZFOXXc0rFXa_!!57-0-yamato.jpg","tce_rule_count":"1"}],"len":"4","local":"false","isTanx":"false"},{"isAld":"true","id":"03014","open":"false","share":"false","alds":[{"title":"\u8054\u60f3","link":"lenovo","img":"//img.alicdn.com/bao/uploaded/TB1WgndFVXXXXc1XpXXwu0bFXXX.png","tce_rule_count":"1"},{"title":"\u6d6a\u838e","link":"langsha","img":"//img.alicdn.com/bao/uploaded/TB1rVLKHpXXXXafaXXXSutbFXXX.jpg","tce_rule_count":"1"},{"title":"\u7ebd\u66fc\u8f66\u54c1","link":"newsmynsm","img":"//img.alicdn.com/bao/uploaded/TB1FsffHXXXXXbaXVXXSutbFXXX.jpg","tce_rule_count":"1"},{"title":"\u5148\u79d1","link":"sast","img":"//img.alicdn.com/bao/uploaded/i4/T1w8nUXn4aXXXQXDnq-90-45.png","tce_rule_count":"1"},{"title":"\u51ef\u7acb\u5fb7","link":"kailide","img":"//img.alicdn.com/bao/uploaded/T1NAeXFbBeXXb1upjX.jpg","tce_rule_count":"1"},{"title":"\u4e1c\u829d","link":"toshibacc","img":"//img.alicdn.com/bao/uploaded/T1FPaZXCdeXXb1upjX.jpg","tce_rule_count":"1"},{"title":"\u6377\u6e21\u8f66\u54c1","link":"jado","img":"//img.alicdn.com/bao/uploaded/T1Z86AFXlbXXb1upjX.jpg","tce_rule_count":"1"},{"title":"\u661f\u706b\u4f1f\u4e1a","link":"garminxhwy","img":"//img.alicdn.com/bao/uploaded/T1xKvZFj0cXXb1upjX.jpg","tce_rule_count":"1"},{"title":"\u98de\u6b4c","link":"flyaudio","img":"//img.alicdn.com/bao/uploaded/T1x0imFvRjXXb1upjX.jpg","tce_rule_count":"1"},{"title":"\u7231\u6155","link":"aimer","img":"//img.alicdn.com/bao/uploaded/T1utGfFf8gXXb1upjX.jpg","tce_rule_count":"1"},{"title":"\u94c1\u5c06\u519b","link":"steelmate","img":"//img.alicdn.com/bao/uploaded/i1/T1J51oXXVjXXXXXXXX-90-45.jpg","tce_rule_count":"1"},{"title":"\u9510\u6b65","link":"reebok","img":"//img.alicdn.com/bao/uploaded/i1/T1_5.YXa0bXXXQXDnq-90-45.png","tce_rule_count":"1"}],"local":"false","isTanx":"false"},{"isAld":"true","id":"201608180","open":"false","share":"false","alds":[{"link":"//ak47.tmall.com/campaign-3742-14.htm","img":"https://img.alicdn.com/tps/TB1qhWZNXXXXXb3XFXXXXXXXXXX-251-190.jpg","tce_rule_count":"1"},{"link":"//deejdyf.tmall.com","img":"https://img.alicdn.com/tps/TB1BBiZNXXXXXb4XFXXXXXXXXXX-251-190.jpg","tce_rule_count":"1"}],"local":"false","isTanx":"false"},{"isAld":"false","open":"false","share":"false","tanxs":[{"id":"mm_12852562_1778064_48432768","isope":"false","tce_rule_count":"1"},{"id":"mm_12852562_1778064_48458242","isope":"false","tce_rule_count":"1"}],"local":"false","isTanx":"true"}]</textarea>\u000a</div></div>\u000a</div>\u000a<div class="ca-extra">\u000a<div data-spm="201864" class="tbh-member J_Module" tms="tbh-member/0.1.4" tms-datakey="tbh_617431">\u000a<div class="member">\u000a<div class="member-bd" data-spm-ab="1">\u000a<a class="J_MemberHome member-home" href="javascript:;" target="_self">\u000a<img class="J_MemberAvatar member-avatar" src="//g.alicdn.com/s.gif" />\u000a</a>\u000a<span class="member-nick-info">\u000aHi! <strong class="J_MemberNick member-nick">\u4f60\u597d</strong>\u000a<a tabindex="-1" class="vip-icon tbh-icon J_MemberVip" href="javascript:;" target="_self"></a>\u000a<a tabindex="-1" class="member-apass tbh-icon J_MemberApass" href="javascript:;" title="\u6211\u7684APASS\u670d\u52a1"></a>\u000a</span>\u000a<p class="member-tjb">\u000a<a data-spm="d3" href="//taojinbi.taobao.com/index.htm?auto_take=true" class="J_MemberPunch h">\u000a<span class="tbh-icon"></span>\u000a\u9886\u6dd8\u91d1\u5e01\u62b5\u94b1\u000a</a>\u000a<span>\u6216\u53bb</span>\u000a<a class="J_MemberClub h" href="//vip.taobao.com">\u4f1a\u5458\u4ff1\u4e50\u90e8</a>\u000a</p>\u000a</div>\u000a<div class="member-ft">\u000a<div class="member-logout J_MemberLogout" data-spm-ab="2">\u000a<a href="//login.taobao.com/member/login.jhtml?f=top&redirectURL=http%3A%2F%2Fwww.taobao.com%2F" class="btn-login ml1" data-spm-click="gostr=/tbindex;locaid=d1;name=\u767b\u5f55">\u767b\u5f55</a>\u000a<a href="//reg.taobao.com/member/new_register.jhtml?from=index&ex_info=&ex_sign=" class="ml2" data-spm-click="gostr=/tbindex;locaid=d2;name=\u6ce8\u518c">\u6ce8\u518c</a>\u000a<a href="//openshop.taobao.com/openshop/welcome.htm" class="ml3">\u5f00\u5e97</a>\u000a</div>\u000a<div class="member-login J_MemberLogin" data-spm-ab="3"></div>\u000a</div>\u000a</div>\u000a</div>\u000a<div data-spm="201865" class="tbh-notice J_Module" tms="tbh-notice/0.1.0" tms-datakey="tbh_617432"><ul class="notice-hd" data-spm-ab="nav">\u000a<li><a href="https://bbs.taobao.com/catalog/438501.htm">\u516c\u544a</a></li>\u000a<li><a href="https://rule.taobao.com/index.htm">\u89c4\u5219</a></li>\u000a<li><a href="https://index.bbs.taobao.com/home.html">\u8bba\u575b</a></li>\u000a<li><a href="https://110.alibaba.com/policeHall/hallIndex.htm?spm=a21bo.7724922.8439-nav.4.1dq6d8&from=taobaoshouye">\u5b89\u5168</a></li>\u000a<li><a href="https://gongyi.taobao.com/?spm=a21bo.7724922.8439-nav.5.1dq6d8">\u516c\u76ca</a></li>\u000a</ul>\u000a<div class="notice-bd">\u000a<ul class="mod first" data-spm-ab="0">\u000a<li>\u000a<a href="//press.taobao.com/detail.html?spm=0.0.0.0.YB8es0&postId=7411895" class="h">\u963f\u91cc\u9996\u5e2d\u5e73\u53f0\u6cbb\u7406\u5b98\u90d1\u4fca\u82b3\u5f53\u9009\u5e74\u5ea6&quot;\u8d28\u91cf\u4eba\u7269&quot;</a>\u000a</li>\u000a<li>\u000a<a href="//press.taobao.com/detail.html?spm=0.0.0.0.YB8es0&postId=7412646">\u963f\u91cc\u62db\u4eba\u5de5\u667a\u80fd\u8bad\u7ec3\u5e08</a>\u000a</li>\u000a<li>\u000a<a href="//press.taobao.com/detail.html?spm=a21bo.50862.201865-0.1.MlGgkW&postId=7406973">\u7b2c\u4e8c\u5c4a\u963f\u91cc\u5e74\u8d27\u8282\u542f\u52a8</a>\u000a</li>\u000a</ul>\u000a<ul class="mod hide"></ul>\u000a<ul class="mod hide"></ul>\u000a<ul class="mod hide"></ul>\u000a<ul class="mod hide"></ul>\u000a<textarea style="display:none">[[{&quot;enhance&quot;:&quot;false&quot;,&quot;text&quot;:&quot;\u4e0d\u6b63\u5f53\u8c0b\u5229\u89c4\u5219\u53d8\u66f4&quot;,&quot;link&quot;:&quot;https:&#x2F;&#x2F;rule.taobao.com&#x2F;detail-4949.htm?spm=a2177.7231193.0.0.y5R0sB&amp;tag=self&amp;cId=82&quot;,&quot;tce_rule_count&quot;:&quot;1&quot;},{&quot;enhance&quot;:&quot;false&quot;,&quot;text&quot;:&quot;\u6dd8\u5b9d\u4eb2\u5b9d\u8d1d\u5e02\u573a\u7ba1\u7406\u89c4\u8303&quot;,&quot;link&quot;:&quot;https:&#x2F;&#x2F;rule.taobao.com&#x2F;detail-4946.htm?spm=a2177.7231193.0.0.y5R0sB&amp;tag=self&amp;cId=82&quot;,&quot;tce_rule_count&quot;:&quot;1&quot;},{&quot;enhance&quot;:&quot;true&quot;,&quot;text&quot;:&quot;\u6dd8\u5b9d\u4ef7\u683c\u53d1\u5e03\u89c4\u8303\u53d8\u66f4&quot;,&quot;link&quot;:&quot;https:&#x2F;&#x2F;rule.taobao.com&#x2F;detail-4880.htm?spm=a2177.7231193.0.0.y5R0sB&amp;tag=self&amp;cId=82&quot;,&quot;tce_rule_count&quot;:&quot;1&quot;},{&quot;enhance&quot;:&quot;false&quot;,&quot;text&quot;:&quot;\u5e97\u94fa\u76f8\u5173\u89c4\u5219\u8c03\u6574\u53d8\u66f4&quot;,&quot;link&quot;:&quot;https:&#x2F;&#x2F;rule.taobao.com&#x2F;detail-4864.htm?spm=a2177.7231193.0.0.y5R0sB&amp;tag=self&amp;cId=82&quot;,&quot;tce_rule_count&quot;:&quot;1&quot;}],[{&quot;enhance&quot;:&quot;true&quot;,&quot;text&quot;:&quot;\u53cc\u5341\u4e8c\u5f00\u59cb\u62a5\u540d\u5566&quot;,&quot;link&quot;:&quot;https:&#x2F;&#x2F;dacu.bbs.taobao.com&#x2F;list.html&quot;,&quot;tce_rule_count&quot;:&quot;1&quot;},{&quot;enhance&quot;:&quot;false&quot;,&quot;text&quot;:&quot;\u6dd8\u5b9d\u8bba\u575b\u62db\u52df\u5fd7\u613f\u8005&quot;,&quot;link&quot;:&quot;https:&#x2F;&#x2F;zt.bbs.taobao.com&#x2F;detail.html?spm=a210m.8245343.0.0.LVQtnn&amp;postId=7277158&quot;,&quot;tce_rule_count&quot;:&quot;1&quot;},{&quot;enhance&quot;:&quot;false&quot;,&quot;text&quot;:&quot;\u540d\u5e08\u4e00\u523b-5\u4e2a\u4ebf\u7684\u79d8\u5bc6&quot;,&quot;link&quot;:&quot;https:&#x2F;&#x2F;daxue.taobao.com&#x2F;markets&#x2F;daxue&#x2F;mastermoment?spm=a1z14.7791671.114381-9.3.LFzsU6&quot;,&quot;tce_rule_count&quot;:&quot;1&quot;},{&quot;enhance&quot;:&quot;false&quot;,&quot;text&quot;:&quot;\u5341\u516b\u7eb8\u98a0\u8986\u5bb6\u5177\u60f3\u8c61&quot;,&quot;link&quot;:&quot;https:&#x2F;&#x2F;chuangye.bbs.taobao.com&#x2F;detail.html?spm=a210m.7699126.0.0.S0YShI&amp;postId=6530789&quot;,&quot;tce_rule_count&quot;:&quot;1&quot;}],[{&quot;enhance&quot;:&quot;true&quot;,&quot;text&quot;:&quot;\u9996\u6b21\u63ed\u79d8\u6253\u5047\u7279\u6218\u961f\u2014&quot;,&quot;link&quot;:&quot;https:&#x2F;&#x2F;safe.bbs.taobao.com&#x2F;detail.html?spm=a210m.8146695.0.0.iGDvL6&amp;postId=7396386&quot;,&quot;tce_rule_count&quot;:&quot;1&quot;},{&quot;enhance&quot;:&quot;true&quot;,&quot;text&quot;:&quot;\u2014\u300a\u5200\u5c16\u4e0a\u7684\u821e\u8005\u300b&quot;,&quot;link&quot;:&quot;https:&#x2F;&#x2F;safe.bbs.taobao.com&#x2F;detail.html?spm=a210m.8146695.0.0.iGDvL6&amp;postId=7396386&quot;,&quot;tce_rule_count&quot;:&quot;1&quot;},{&quot;enhance&quot;:&quot;true&quot;,&quot;text&quot;:&quot;\u5dee\u70b9\u6211\u90fd\u4fe1\u4e86\uff01&quot;,&quot;link&quot;:&quot;&#x2F;&#x2F;h5.m.taobao.com&#x2F;qn&#x2F;pc&#x2F;niuba&#x2F;niuba-feeds.html?spm=0.0.0.0.JerwNh#&#x2F;detail&#x2F;10051094?_k=d4j90u&quot;,&quot;tce_rule_count&quot;:&quot;1&quot;},{&quot;enhance&quot;:&quot;true&quot;,&quot;text&quot;:&quot;\u91cd\u4ea4\u201c\u4fdd\u8bc1\u91d1\u201d\uff1f&quot;,&quot;link&quot;:&quot;&#x2F;&#x2F;h5.m.taobao.com&#x2F;qn&#x2F;pc&#x2F;niuba&#x2F;niuba-feeds.html?spm=0.0.0.0.JerwNh#&#x2F;detail&#x2F;10046040?_k=d4j90u&quot;,&quot;tce_rule_count&quot;:&quot;1&quot;}],[{&quot;enhance&quot;:&quot;false&quot;,&quot;text&quot;:&quot;\u5927\u4f17\u8bc4\u5ba1\u4e61\u6751\u533b\u9662\u5f00\u5efa&quot;,&quot;link&quot;:&quot;https:&#x2F;&#x2F;hot.bbs.taobao.com&#x2F;detail.html?spm=a310u.3036333.0.0.NaYRul&amp;postId=7400444&quot;,&quot;tce_rule_count&quot;:&quot;1&quot;},{&quot;enhance&quot;:&quot;false&quot;,&quot;text&quot;:&quot;\u95f2\u9c7c\u516c\u76ca\u4e0a\u7ebf\u62db\u52dfNGO&quot;,&quot;link&quot;:&quot;https:&#x2F;&#x2F;gongyi.bbs.taobao.com&#x2F;detail.html?postId=7277189&quot;,&quot;tce_rule_count&quot;:&quot;1&quot;},{&quot;enhance&quot;:&quot;false&quot;,&quot;text&quot;:&quot;\u963f\u91cc\u4e0e\u6b8b\u8054\u51fa\u52a9\u6b8b\u653f\u7b56&quot;,&quot;link&quot;:&quot;https:&#x2F;&#x2F;fmcenter.taobao.com&#x2F;message&#x2F;pc&#x2F;get.html?msg_id=9220137364806860276&amp;session=1beec0000f5e036af25220ed3ae7fe6ad4eb824811d4383dedb5e711841968&amp;user_id=711841968&amp;from=fm_msgcenter&quot;,&quot;tce_rule_count&quot;:&quot;1&quot;},{&quot;enhance&quot;:&quot;true&quot;,&quot;text&quot;:&quot;\u516c\u76ca\u5b9d\u8d1d\u5356\u5bb6\u53d1\u7968\u7d22\u53d6&quot;,&quot;link&quot;:&quot;https:&#x2F;&#x2F;gongyi.bbs.taobao.com&#x2F;detail.html?spm=a21bo.7724922.8439-4.3.1dq6d8&amp;postId=816539&quot;,&quot;tce_rule_count&quot;:&quot;1&quot;}]]</textarea>\u000a</div></div>\u000a<div data-spm="201866" class="tbh-conve J_Module" tms="tbh-conve/0.0.5" tms-datakey="tbh_617433"><div class="conve J_Conve">\u000a<ul class="conve-list">\u000a<li class="mod conve-float conve-item-1 min first" data-name="phone">\u000a<a href="//wt.taobao.com/?ks-menu=cz">\u000a<span class="conve-item-icon tbh-icon"></span>\u000a<p>\u5145\u8bdd\u8d39</p>\u000a</a>\u000a</li>\u000a<li class="mod conve-float conve-item-2  first" data-name="game">\u000a<a href="//game.taobao.com">\u000a<span class="conve-item-icon tbh-icon"></span>\u000a<p>\u6e38\u620f</p>\u000a</a>\u000a</li>\u000a<li class="mod conve-float conve-item-3  first" data-name="trip">\u000a<a href="//trip.taobao.com">\u000a<span class="conve-item-icon tbh-icon"></span>\u000a<p>\u65c5\u884c</p>\u000a</a>\u000a</li>\u000a<li class="mod conve-float conve-item-4 min first" data-name="baoxian">\u000a<a href="//baoxian.taobao.com/">\u000a<span class="conve-item-icon tbh-icon"></span>\u000a<p>\u8f66\u9669</p>\u000a</a>\u000a</li>\u000a<li class="mod conve-item-5 min ">\u000a<a href="&#x2F;&#x2F;caipiao.taobao.com&#x2F;?t=1&amp;ad_id=&amp;am_id=13010663204b41fb5276&amp;cm_id=&amp;pm_id=">\u000a<span class="conve-item-icon tbh-icon"></span>\u000a<p>\u5f69\u7968</p>\u000a</a>\u000a</li>\u000a<li class="mod conve-item-6  ">\u000a<a href="//dianying.taobao.com">\u000a<span class="conve-item-icon tbh-icon"></span>\u000a<p>\u7535\u5f71</p>\u000a</a>\u000a</li>\u000a<li class="mod conve-item-7  ">\u000a<a href="https://www.taobao.com/markets/waimai/taobao-takeout">\u000a<span class="conve-item-icon " style="background-image:url(//img.alicdn.com/tps/TB1p8WnOXXXXXaZXFXXXXXXXXXX-48-48.png_24x24.jpg);background-image:-webkit-image-set(url(//img.alicdn.com/tps/TB1p8WnOXXXXXaZXFXXXXXXXXXX-48-48.png_24x24.jpg) 1x,url(//img.alicdn.com/tps/TB1p8WnOXXXXXaZXFXXXXXXXXXX-48-48.png) 2x);"></span>\u000a<p>\u70b9\u5916\u5356</p>\u000a</a>\u000a</li>\u000a<li class="mod conve-item-8 min ">\u000a<a href="http://zhaocaibao.alipay.com/pf/productList.htm">\u000a<span class="conve-item-icon tbh-icon"></span>\u000a<p>\u7406\u8d22</p>\u000a</a>\u000a</li>\u000a<li class="mod conve-item-9 min ">\u000a<a href="//life.taobao.com/">\u000a<span class="conve-item-icon tbh-icon"></span>\u000a<p>\u627e\u670d\u52a1</p>\u000a</a>\u000a</li>\u000a<li class="mod conve-item-10  ">\u000a<a href="//music.taobao.com?from=taobaohomepage">\u000a<span class="conve-item-icon tbh-icon"></span>\u000a<p>\u97f3\u4e50</p>\u000a</a>\u000a</li>\u000a<li class="mod conve-item-11  ">\u000a<a href="//life.taobao.com/market/sdmjf2011.php">\u000a<span class="conve-item-icon tbh-icon"></span>\u000a<p>\u6c34\u7535\u7164</p>\u000a</a>\u000a</li>\u000a<li class="mod conve-item-12 min ">\u000a<a href="https://www.alitrip.com/huochepiao">\u000a<span class="conve-item-icon tbh-icon"></span>\u000a<p>\u706b\u8f66\u7968</p>\u000a</a>\u000a</li>\u000a</ul>\u000a<div class="conve-bd-box" tabindex="-1">\u000a<a href="javascript:;" target="_self" class="conve-bd-box-close J_conveClose tb-icon" data-spm-click="gostr=/tbindex;locaid=d1;name=\u5173\u95ed\u4fbf\u6c11\u670d\u52a1\u6d6e\u5c42">&#xe613;</a>\u000a<div class="conve-bd-item J_Conve_phone loading"><div class="conve-bd-loading"></div></div>\u000a<div class="conve-bd-item J_Conve_game loading"><div class="conve-bd-loading"></div></div>\u000a<div class="conve-bd-item J_Conve_trip loading"><div class="conve-bd-loading"></div></div>\u000a<div class="conve-bd-item J_Conve_baoxian loading"><div class="conve-bd-loading"></div></div>\u000a</div>\u000a</div>\u000a</div>\u000a</div>\u000a</div>\u000a</div>\u000a</div>\u000a<div class="sa-sub">\u000a<div data-spm="201867" class="tbh-service J_Module" tms="tbh-service/0.3.6" tms-datakey="tbh_617434">\u000a<div class="service J_Service" data-spm-ab="main">\u000a<div class="service-hd">\u000a<a href="//www.taobao.com/tbhome/page/market-list?spm=a21bo.7925171.191431.2.EgcrX7">\u000a<h3>\u4e3b\u9898\u5e02\u573a</h3><i class="tb-icon">&#xe621;</i>\u000a</a>\u000a</div>\u000a<ul class="service-bd">\u000a<li data-closeper="" data-groupid="101" data-pvid="" class="J_Cat">\u000a<i class="tb-icon service-icons">&#xe602;</i>\u000a<span>\u000a<a href="https://www.taobao.com/markets/nvzhuang/taobaonvzhuang" data-cid="1" data-dataid="222887">\u5973\u88c5</a> /\u000a<a href="https://www.taobao.com/markets/nanzhuang/index2016" data-cid="1" data-dataid="222890">\u7537\u88c5</a> /\u000a<a href="https://neiyi.taobao.com" data-cid="1" data-dataid="222889">\u5185\u8863</a>\u000a</span>\u000a<i class="tb-icon service-arrow">&#x27a4;</i>\u000a</li>\u000a<li data-closeper="" data-groupid="102" data-pvid="" class="J_Cat">\u000a<i class="tb-icon service-icons">&#xe604;</i>\u000a<span>\u000a<a href="https://www.taobao.com/markets/xie/nvxie/index" data-cid="1" data-dataid="222886">\u978b\u9774</a> /\u000a<a href="https://www.taobao.com/markets/bao/xiangbao" data-cid="1" data-dataid="222906">\u7bb1\u5305</a> /\u000a<a href="https://pei.taobao.com" data-cid="1" data-dataid="222898">\u914d\u4ef6</a>\u000a</span>\u000a<i class="tb-icon service-arrow">&#x27a4;</i>\u000a</li>\u000a<li data-closeper="" data-groupid="103" data-pvid="" class="J_Cat">\u000a<i class="tb-icon service-icons">&#xe60b;</i>\u000a<span>\u000a<a href="https://www.taobao.com/markets/qbb/index?spm=a21bo.50862.201879-item-1008.5.YrbXb6&pvid=b9f2df4c-6d60-4af4-b500-c5168009831f&scm=1007.12802.34660.100200300000000" data-cid="1" data-dataid="222907">\u7ae5\u88c5\u73a9\u5177</a> /\u000a<a href="https://www.taobao.com/markets/qbb/index?spm=a21bo.50862.201867-main.8.mL7cax&pvid=b9f2df4c-6d60-4af4-b500-c5168009831f&scm=1007.12802.34660.100200300000000" data-cid="1" data-dataid="222885">\u5b55\u4ea7</a> /\u000a<a href="https://www.taobao.com/markets/qbb/index?spm=a21bo.50862.201867-main.8&pvid=b9f2df4c-6d60-4af4-b500-c5168009831f&scm=1007.12802.34660.100200300000000" data-cid="1" data-dataid="222895">\u7528\u54c1</a>\u000a</span>\u000a<i class="tb-icon service-arrow">&#x27a4;</i>\u000a</li>\u000a<li data-closeper="" data-groupid="104" data-pvid="" class="J_Cat">\u000a<i class="tb-icon service-icons">&#xe603;</i>\u000a<span>\u000a<a href="https://www.taobao.com/markets/jiadian/index" data-cid="1" data-dataid="222878">\u5bb6\u7535</a> /\u000a<a href="https://www.taobao.com/markets/3c/shuma" data-cid="1" data-dataid="222908">\u6570\u7801</a> /\u000a<a href="https://www.taobao.com/market/3c/shouji.php" data-cid="1" data-dataid="222879">\u624b\u673a</a>\u000a</span>\u000a<i class="tb-icon service-arrow">&#x27a4;</i>\u000a</li>\u000a<li data-closeper="" data-groupid="105" data-pvid="" class="J_Cat">\u000a<i class="tb-icon service-icons">&#xe607;</i>\u000a<span>\u000a<a href="//mei.taobao.com/" data-cid="1" data-dataid="222893">\u7f8e\u5986</a> /\u000a<a href="https://www.taobao.com/market/baihuo/xihuyongpin.php?spm=a217u.7383845.a214d5z-static.49.e8DQmz" data-cid="1" data-dataid="222896">\u6d17\u62a4</a> /\u000a<a href="//g.taobao.com/brand_detail.htm?navigator=all&_input_charset=utf-8&q=%E8%90%A5%E5%85%BB%E5%93%81&spm=a21bo.50862.201867-links-4.54.oMw9IU" data-cid="1" data-dataid="222918">\u4fdd\u5065\u54c1</a>\u000a</span>\u000a<i class="tb-icon service-arrow">&#x27a4;</i>\u000a</li>\u000a<li data-closeper="" data-groupid="106" data-pvid="" class="J_Cat">\u000a<i class="tb-icon service-icons">&#xe606;</i>\u000a<span>\u000a<a href="https://www.taobao.com/market/peishi/zhubao.php" data-cid="1" data-dataid="222917">\u73e0\u5b9d</a> /\u000a<a href="https://www.taobao.com/market/peishi/yanjing.php?spm=a219r.lm5630.a214d69.14.CkLAJ7" data-cid="1" data-dataid="222888">\u773c\u955c</a> /\u000a<a href="https://www.taobao.com/market/peishi/shoubiao.php" data-cid="1" data-dataid="222902">\u624b\u8868</a>\u000a</span>\u000a<i class="tb-icon service-arrow">&#x27a4;</i>\u000a</li>\u000a<li data-closeper="" data-groupid="107" data-pvid="" class="J_Cat">\u000a<i class="tb-icon service-icons">&#xe605;</i>\u000a<span>\u000a<a href="https://www.taobao.com/markets/coolcity/coolcityHome" data-cid="1" data-dataid="222880">\u8fd0\u52a8</a> /\u000a<a href="https://www.taobao.com/markets/coolcity/coolcityHome" data-cid="1" data-dataid="222913">\u6237\u5916</a> /\u000a<a href="https://www.taobao.com/market/wenyu/yueqi.php" data-cid="1" data-dataid="222910">\u4e50\u5668</a>\u000a</span>\u000a<i class="tb-icon service-arrow">&#x27a4;</i>\u000a</li>\u000a<li data-closeper="" data-groupid="108" data-pvid="" class="J_Cat">\u000a<i class="tb-icon service-icons">&#xe620;</i>\u000a<span>\u000a<a href="https://game.taobao.com" data-cid="1" data-dataid="222882">\u6e38\u620f</a> /\u000a<a href="https://www.taobao.com/markets/acg/dongman" data-cid="1" data-dataid="222883">\u52a8\u6f2b</a> /\u000a<a href="https://list.taobao.com/itemlist/acg.htm?cat=56844016&sd=0&as=0&viewIndex=1&hd=1&spm=a2106.m5463.1000188.1.3c72bM&atype=b&style=grid&same_info=1&tid=0&isnew=2&filter=reserve_price%5B100%2C100000000%5D&_input_charset=utf-8" data-cid="1" data-dataid="222921">\u5f71\u89c6</a>\u000a</span>\u000a<i class="tb-icon service-arrow">&#x27a4;</i>\u000a</li>\u000a<li data-closeper="" data-groupid="109" data-pvid="" class="J_Cat">\u000a<i class="tb-icon service-icons">&#xe60a;</i>\u000a<span>\u000a<a href="//chi.taobao.com" data-cid="1" data-dataid="222899">\u7f8e\u98df</a> /\u000a<a href="//chi.taobao.com" data-cid="1" data-dataid="222905">\u751f\u9c9c</a> /\u000a<a href="//chi.taobao.com" data-cid="1" data-dataid="222881">\u96f6\u98df</a>\u000a</span>\u000a<i class="tb-icon service-arrow">&#x27a4;</i>\u000a</li>\u000a<li data-closeper="" data-groupid="110" data-pvid="" class="J_Cat">\u000a<i class="tb-icon service-icons">&#xe60e;</i>\u000a<span>\u000a<a href="https://www.taobao.com/market/xianhua/xianhuayuanyi.php" data-cid="1" data-dataid="222911">\u9c9c\u82b1</a> /\u000a<a href="https://www.taobao.com/market/pet/xiaochong.php" data-cid="1" data-dataid="222894">\u5ba0\u7269</a> /\u000a<a href="https://ny.taobao.com" data-cid="1" data-dataid="222920">\u519c\u8d44</a>\u000a</span>\u000a<i class="tb-icon service-arrow">&#x27a4;</i>\u000a</li>\u000a<li data-closeper="" data-groupid="111" data-pvid="" class="J_Cat">\u000a<i class="tb-icon service-icons">&#xe609;</i>\u000a<span>\u000a<a href="https://fang.taobao.com/" data-cid="1" data-dataid="222914">\u623f\u4ea7</a> /\u000a<a href="https://s.taobao.com/list?spm=a21bo.50862.201867-links-10.27.iQWRJS&source=youjia&cat=50097129" data-cid="1" data-dataid="222877">\u88c5\u4fee</a> /\u000a<a href="https://www.jiyoujia.com/markets/youjia/zhuangxiucailiao" data-cid="1" data-dataid="222919">\u5efa\u6750</a>\u000a</span>\u000a<i class="tb-icon service-arrow">&#x27a4;</i>\u000a</li>\u000a<li data-closeper="" data-groupid="112" data-pvid="" class="J_Cat">\u000a<i class="tb-icon service-icons">&#xe608;</i>\u000a<span>\u000a<a href="https://s.taobao.com/list?spm=a21bo.7932212.202572.1.rtUtMQ&source=youjia&q=%E5%AE%B6%E5%85%B7" data-cid="1" data-dataid="222915">\u5bb6\u5177</a> /\u000a<a href="https://s.taobao.com/list?source=youjia&cat=50065206%2C50065205" data-cid="1" data-dataid="222922">\u5bb6\u9970</a> /\u000a<a href="https://s.taobao.com/list?spm=a21bo.50862.201867-links-11.80.K6jN68&source=youjia&cat=50008163&bcoffset=0&s=240" data-cid="1" data-dataid="222884">\u5bb6\u7eba</a>\u000a</span>\u000a<i class="tb-icon service-arrow">&#x27a4;</i>\u000a</li>\u000a<li data-closeper="" data-groupid="113" data-pvid="" class="J_Cat">\u000a<i class="tb-icon service-icons">&#xe60f;</i>\u000a<span>\u000a<a href="https://car.tmall.com/wow/car/act/carfp" data-cid="1" data-dataid="222912">\u6c7d\u8f66</a> /\u000a<a href="//2car.taobao.com/" data-cid="1" data-dataid="222892">\u4e8c\u624b\u8f66</a> /\u000a<a href="https://car.tmall.com/wow/car/act/carfp" data-cid="1" data-dataid="222900">\u7528\u54c1</a>\u000a</span>\u000a<i class="tb-icon service-arrow">&#x27a4;</i>\u000a</li>\u000a<li data-closeper="" data-groupid="114" data-pvid="" class="J_Cat">\u000a<i class="tb-icon service-icons">&#xe601;</i>\u000a<span>\u000a<a href="https://www.taobao.com/markets/bangong/pchome" data-cid="1" data-dataid="222923">\u529e\u516c</a> /\u000a<a href="https://www.taobao.com/markets/dingzhi/home" data-cid="1" data-dataid="222909">DIY</a> /\u000a<a href="https://wujin.taobao.com/" data-cid="1" data-dataid="222897">\u4e94\u91d1\u7535\u5b50</a>\u000a</span>\u000a<i class="tb-icon service-arrow">&#x27a4;</i>\u000a</li>\u000a<li data-closeper="" data-groupid="115" data-pvid="" class="J_Cat">\u000a<i class="tb-icon service-icons">&#xe600;</i>\u000a<span>\u000a<a href="https://s.taobao.com/list?source=youjia&q=%E7%99%BE%E8%B4%A7" data-cid="1" data-dataid="222891">\u767e\u8d27</a> /\u000a<a href="https://s.taobao.com/list?source=youjia&cat=50035867&bcoffset=0&s=240" data-cid="1" data-dataid="222903">\u9910\u53a8</a> /\u000a<a href="https://www.taobao.com/market/jiadian/baojian.php?spm=a21bo.50862.201867-main.46.K6jN68" data-cid="1" data-dataid="222901">\u5bb6\u5ead\u4fdd\u5065</a>\u000a</span>\u000a<i class="tb-icon service-arrow">&#x27a4;</i>\u000a</li>\u000a<li data-closeper="" data-groupid="116" data-pvid="1" class="J_Cat">\u000a<i class="tb-icon service-icons">&#xe61f;</i>\u000a<span>\u000a<a href="https://xue.taobao.com" data-cid="1" data-dataid="222904">\u5b66\u4e60</a> /\u000a<a href="//ka.taobao.com/" data-cid="1" data-dataid="222916">\u5361\u5238</a> /\u000a<a href="//life.taobao.com/?spm=a21bo.50862.201867-links-15.47&file=life.taobao.com" data-cid="1" data-dataid="222924">\u672c\u5730\u670d\u52a1</a>\u000a</span>\u000a<i class="tb-icon service-arrow">&#x27a4;</i>\u000a</li>\u000a</ul>\u000a<div class="service-ft" id="J_ServiceBottom" data-spm-ab="banner">\u000a</div>\u000a<div class="service-float">\u000a</div>\u000a<style>\u000a  \u000a  .dacu-icon. { width:px; height:px;background:url(2222); 0 0 no-repeat;}\u000a  \u000a  </style>\u000a</div>\u000a</div>\u000a</div>\u000a</div>\u000a</div>\u000a<div class="seat J_Seat">\u000a<div class="seat-rect">\u000a<div class="rect-wrap">\u000a<div data-spm="201868" data-name="belt" class="tbh-belt J_Module" tms="tbh-belt/0.3.2" tms-datakey="tbh_617435">\u000a<div class="belt J_Belt tb-loading " data-permalink="//www.taobao.com/markets/tbhome/crowd-guide">\u000a<textarea style="display:none">[{&quot;useLocal&quot;:&quot;false&quot;,&quot;link&quot;:&quot;https:&#x2F;&#x2F;www.taobao.com&#x2F;markets&#x2F;tbhome&#x2F;crowd-guide?id=3&quot;,&quot;img&quot;:&quot;&#x2F;&#x2F;gw.alicdn.com&#x2F;tfscom&#x2F;TB1XNMMKFXXXXbSXXXXSutbFXXX.jpg&quot;,&quot;type&quot;:&quot;\u597d\u5403\u5230\u70b8\u88c2&quot;,&quot;info&quot;:&quot;\u7f8e\u98df\u603b\u52a8\u5458&quot;},{&quot;useLocal&quot;:&quot;false&quot;,&quot;link&quot;:&quot;https:&#x2F;&#x2F;www.taobao.com&#x2F;markets&#x2F;tbhome&#x2F;crowd-guide?id=75&quot;,&quot;img&quot;:&quot;&#x2F;&#x2F;gw.alicdn.com&#x2F;tfscom&#x2F;TB2uRuwgFXXXXa5XpXXXXXXXXXX_!!5-2-subaru.png&quot;,&quot;type&quot;:&quot;\u624b\u8868\u63a7&quot;,&quot;info&quot;:&quot;\u6211\u4e70\u4e86\u4e2a\u8868&quot;},{&quot;useLocal&quot;:&quot;false&quot;,&quot;link&quot;:&quot;https:&#x2F;&#x2F;www.taobao.com&#x2F;markets&#x2F;tbhome&#x2F;crowd-guide?id=14&quot;,&quot;img&quot;:&quot;&#x2F;&#x2F;gw.alicdn.com&#x2F;tfscom&#x2F;TB2Pwr.gpXXXXbrXXXXXXXXXXXX_!!5-2-subaru.png&quot;,&quot;type&quot;:&quot;\u4e8c\u6b21\u5143\u8fbe\u4eba&quot;,&quot;info&quot;:&quot;\u840c\u6587\u5316\u7814\u7a76\u6240&quot;},{&quot;useLocal&quot;:&quot;false&quot;,&quot;link&quot;:&quot;https:&#x2F;&#x2F;www.taobao.com&#x2F;markets&#x2F;tbhome&#x2F;crowd-guide?id=20&quot;,&quot;img&quot;:&quot;&#x2F;&#x2F;gw.alicdn.com&#x2F;tfscom&#x2F;TB1nh8oKFXXXXc9XVXXSutbFXXX.jpg&quot;,&quot;type&quot;:&quot;\u9493\u9c7c\u7fc1&quot;,&quot;info&quot;:&quot;\u61c2\u884c\u7684\u90fd\u8bf4\u597d&quot;},{&quot;useLocal&quot;:&quot;false&quot;,&quot;link&quot;:&quot;https:&#x2F;&#x2F;www.taobao.com&#x2F;markets&#x2F;tbhome&#x2F;crowd-guide?id=49&quot;,&quot;img&quot;:&quot;&#x2F;&#x2F;gw.alicdn.com&#x2F;tfscom&#x2F;TB2sLDRgpXXXXX8XXXXXXXXXXXX_!!5-2-subaru.png&quot;,&quot;type&quot;:&quot;\u65e5\u7cfb\u8f6f\u59b9&quot;,&quot;info&quot;:&quot;\u7537\u795e\u6536\u5272\u673a&quot;}]</textarea>\u000a</div></div>\u000a<div preload-distance="100" data-index="0" data-spm="201879" data-name="like" class="tbh-like J_Module" tms="tbh-like/1.0.2" tms-datakey="tbh_617414" tms-data="{&quot;moduleinfo&quot;:{&quot;name&quot;:&quot;\u6211\u5e38\u901b\u7684&quot;,&quot;moreLink&quot;:&quot;https://www.taobao.com/tbhome/page/special-markets?spm=a21bo.50862.201879.1.rkwiwe&quot;,&quot;len&quot;:&quot;4&quot;,&quot;bdHeight&quot;:&quot;744&quot;,&quot;open&quot;:true,&quot;beta&quot;:false,&quot;list_count&quot;:[{&quot;count&quot;:1,&quot;count_phone&quot;:1}]},&quot;list&quot;:[{&quot;data_para&quot;:{&quot;tce_vid&quot;:&quot;0&quot;,&quot;env&quot;:&quot;online&quot;,&quot;tce_sid&quot;:1164438},&quot;data_type&quot;:&quot;tceonline&quot;,&quot;tms_type&quot;:&quot;jsonp&quot;}],&quot;$tmsId&quot;:&quot;tbh_617414&quot;}">\u000a<div class="like J_Like" data-len="4" data-open="1">\u000a<h2 class="like-hd a-opacity tbh-icon">\u000a<em>\u6211\u5e38\u901b\u7684</em>\u000a<a href="https://www.taobao.com/tbhome/page/special-markets?spm=a21bo.50862.201879.1.rkwiwe">\u66f4\u591a<i class="tb-icon">&#x27a4;</i></a>\u000a</h2>\u000a<div class="like-bd tb-loading" style="height:744px;">\u000a</div>\u000a</div>\u000a</div>\u000a<div class="seat-gg">\u000a<div data-spm="201880" class="tbh-tanx J_Module" tms="tbh-tanx/0.0.1" tms-datakey="tbh_617415">\u000a<a id="tanx-a-mm_12852562_1778064_23036232" data-id="mm_12852562_1778064_23036232" data-autolazy="1" data-isope="0" data-ahead="400" class="J_Tanx">\u000a</a>\u000a</div>\u000a</div>\u000a<div data-name="fashion" data-index="1" preload-distance="200" data-spm="201881" class="tbh-blocks J_Module" tms="tbh-blocks/0.0.6" tms-datakey="tbh_617416">\u000a<div class="blocks J_Blocks" data-len="4" data-close-per="1">\u000a<h2 class="blocks-hd tbh-icon">\u000a<em>\u65f6\u5c1a\u7206\u6599\u738b</em>\u000a<a href="https://www.taobao.com/tbhome/page/special-markets?spm=a21bo.50862.201881.1.rkwiwe#all-special-market-1">\u66f4\u591a<i class="tb-icon">&#x27a4;</i></a>\u000a</h2>\u000a<div class="blocks-bd tb-loading" style="height:268px;">\u000a<textarea class="tb-hide">[{"uid":"1000","baseid":"1","per":"false","name":"iFashion","mid":"222726","tid":"3","backup":"false"},{"uid":"1001","baseid":"3","per":"false","name":"\u7f8e\u5986\u79c0","mid":"222728","tid":"3","backup":"false"},{"uid":"1002","baseid":"4","per":"false","name":"\u7231\u901b\u8857","mid":"222729","tid":"4","backup":"false"},{"uid":"1003","baseid":"2","per":"false","name":"\u5168\u7403\u8d2d","mid":"222727","tid":"4","backup":"false"}]</textarea>\u000a</div>\u000a</div>\u000a</div>\u000a<div data-name="quanlity" data-index="2" preload-distance="200" data-spm="201882" class="tbh-blocks J_Module" tms="tbh-blocks/0.0.6" tms-datakey="tbh_617417">\u000a<div class="blocks J_Blocks" data-len="8" data-close-per="1">\u000a<h2 class="blocks-hd tbh-icon">\u000a<em>\u54c1\u8d28\u751f\u6d3b\u5bb6</em>\u000a<a href="https://www.taobao.com/markets/tbhome/special-market?spm=a21bo.50862.201882.1.rkwiwe#all-special-market-2">\u66f4\u591a<i class="tb-icon">&#x27a4;</i></a>\u000a</h2>\u000a<div class="blocks-bd tb-loading" style="height:536px;">\u000a<textarea class="tb-hide">[{"uid":"1004","baseid":"1","per":"false","name":"\u6c47\u5403","mid":"222746","tid":"1","backup":"false"},{"uid":"1009","baseid":"7","per":"false","name":"\u6c7d\u8f66(\u963f\u91cc\u6c7d\u8f66+\u4e8c\u624b\u8f66)","mid":"222748","tid":"1","backup":"false"},{"uid":"1010","baseid":"6","per":"false","name":"\u6dd8\u5b9d\u623f\u4ea7","mid":"222745","tid":"1","backup":"false"},{"uid":"1011","baseid":"3","per":"false","name":"\u5962\u54c1\u4f1a","mid":"222747","tid":"1","backup":"false"},{"uid":"1005","baseid":"2","per":"false","name":"\u6781\u6709\u5bb6","mid":"222752","tid":"4","backup":"false"},{"uid":"1006","baseid":"8","per":"false","name":"\u8fd0\u52a8\u6d3e","mid":"222751","tid":"4","backup":"false"},{"uid":"1007","baseid":"4","per":"false","name":"\u4e2d\u56fd\u5236\u9020\uff08\u542b\u8d28+\uff09","mid":"222749","tid":"4","backup":"false"},{"uid":"1008","baseid":"5","per":"false","name":"\u4eb2\u5b9d\u8d1d","mid":"222750","tid":"4","backup":"false"}]</textarea>\u000a</div>\u000a</div>\u000a</div>\u000a<div data-name="special" data-index="3" preload-distance="200" data-spm="201883" class="tbh-blocks J_Module have-fun" tms="tbh-blocks/0.0.6" tms-datakey="tbh_617418">\u000a<div class="blocks J_Blocks" data-len="8" data-close-per="1">\u000a<h2 class="blocks-hd tbh-icon">\u000a<em>\u7279\u8272\u73a9\u5473\u63a7</em>\u000a<a href="https://www.taobao.com/markets/tbhome/special-market#all-special-market-3">\u66f4\u591a<i class="tb-icon">&#x27a4;</i></a>\u000a</h2>\u000a<div class="blocks-bd tb-loading" style="height:536px;">\u000a<textarea class="tb-hide">[{"uid":"1012","baseid":"1","per":"false","name":"\u6f6e\u7535\u8857","mid":"222859","tid":"4","backup":"false"},{"uid":"1013","baseid":"3","per":"false","name":"\u6e38\u620f\u52a8\u6f2b","mid":"222855","tid":"4","backup":"false"},{"uid":"1014","baseid":"2","per":"false","name":"\u6dd8\u5b9d\u4f17\u7b79","mid":"222858","tid":"4","backup":"false"},{"uid":"1015","baseid":"4","per":"false","name":"\u6dd8\u5b9d\u6559\u80b2","mid":"222851","tid":"1","backup":"false"},{"uid":"1016","baseid":"5","per":"false","name":"\u7279\u8272\u4e2d\u56fd\uff08\u542b\u6843\u82b1\u6e90\uff09","mid":"222854","tid":"4","backup":"false"},{"uid":"1017","baseid":"6","per":"false","name":"\u62cd\u5356\u4f1a","mid":"222857","tid":"4","backup":"false"},{"uid":"1018","baseid":"7","per":"false","name":"\u82b1\u9e1f\u7231\u597d","mid":"222856","tid":"4","backup":"false"},{"uid":"1019","baseid":"8","per":"false","name":"\u4f01\u4e1a\u670d\u52a1\uff08\u5c0f\u5fae\u5feb\u91c7\uff09","mid":"222853","tid":"1","backup":"false"}]</textarea>\u000a</div>\u000a</div>\u000a</div>\u000a<div data-name="affordable" data-index="4" preload-distance="300" data-spm="201884" class="tbh-blocks-sh J_Module" tms="tbh-blocks-sh/0.0.15" tms-datakey="tbh_617419">\u000a<div class="blocksh J_Blocksh" data-len="8">\u000a<h2 class="blocksh-hd tbh-icon">\u000a<em>\u5b9e\u60e0\u4e13\u4e1a\u6237</em>\u000a<a href="https://www.taobao.com/tbhome/page/special-markets?spm=a21bo.50862.201884.1.rkwiwe&pvid=d4e4d864-b73c-4273-9242-2385d17c1012&scm=1007.12803.38507.0#all-special-market-4" class="more">\u66f4\u591a<i class="tb-icon">&#x27a4;</i></a>\u000a</h2>\u000a<div class="blocksh-bd tb-loading" style="height:276px;">\u000a<textarea class="tb-hide">[{"uid":"1020","baseid":"1","per":"true","name":"\u6dd8\u62a2\u8d2d","mid":"222868","perLayout":"true","backup":"false"},{"uid":"1021","baseid":"2","per":"true","name":"\u5929\u5929\u7279\u4ef7","mid":"222870","perLayout":"false","backup":"false"},{"uid":"1022","baseid":"5","per":"false","name":"\u91d1\u5e01\u4e50\u56ed","mid":"222866","perLayout":"false","backup":"false"},{"uid":"1023","baseid":"6","per":"false","name":"\u751f\u6d3b\u6c47","mid":"222867","perLayout":"false","backup":"false"},{"uid":"1024","baseid":"7","per":"true","name":"\u91cf\u8d29\u56e2","mid":"222869","perLayout":"false","backup":"false"},{"uid":"1025","baseid":"3","per":"false","name":"\u805a\u540d\u54c1","mid":"222871","perLayout":"false","backup":"false"},{"uid":"1026","baseid":"4","per":"true","name":"\u6e05\u4ed3","mid":"222865","perLayout":"false","backup":"false"},{"uid":"1027","baseid":"8","per":"true","name":"\u4fea\u4eba\u8d2d","mid":"222872","perLayout":"false","backup":"false"}]</textarea>\u000a</div>\u000a</div>\u000a</div>\u000a<div class="screen-column" id="J_ScreenColumn" data-spm="202352"></div>\u000a</div>\u000a</div>\u000a<div class="seat-extra">\u000a<div data-spm="201869" class="tbh-app J_Module" tms="tbh-app/0.1.2" tms-datakey="tbh_617436" tms-data="{&quot;moduleinfo&quot;:{&quot;head_count&quot;:[{&quot;count&quot;:1,&quot;count_phone&quot;:1}],&quot;apps_count&quot;:[{&quot;count&quot;:15,&quot;count_phone&quot;:15}]},&quot;head&quot;:[{&quot;data_para&quot;:{&quot;tce_vid&quot;:&quot;0&quot;,&quot;env&quot;:&quot;online&quot;,&quot;tce_sid&quot;:1164532},&quot;data_type&quot;:&quot;tceonline&quot;,&quot;tms_type&quot;:&quot;jsonp&quot;}],&quot;apps&quot;:[{&quot;data_para&quot;:{&quot;tce_vid&quot;:&quot;0&quot;,&quot;env&quot;:&quot;online&quot;,&quot;tce_sid&quot;:1164533},&quot;data_type&quot;:&quot;tceonline&quot;,&quot;tms_type&quot;:&quot;jsonp&quot;}],&quot;$tmsId&quot;:&quot;tbh_617436&quot;}">\u000a<div class="apps J_Apps tb-loading">\u000a</div>\u000a</div>\u000a<div class="discover J_Discover">\u000a<div data-spm="226762" class="tbh-headline J_Module" tms="tbh-headline/0.0.7" tms-datakey="tbh_617437" tms-data="{&quot;moduleinfo&quot;:{&quot;name&quot;:&quot;\u6dd8\u5b9d\u5934\u6761&quot;,&quot;more&quot;:&quot;https://headline.taobao.com/feed/feedList.htm&quot;,&quot;headlines_count&quot;:[{&quot;count&quot;:3,&quot;count_phone&quot;:3},{&quot;start_time&quot;:&quot;2016-03-25 12:00&quot;,&quot;count&quot;:3,&quot;count_phone&quot;:3},{&quot;count&quot;:3,&quot;count_phone&quot;:3},{&quot;start_time&quot;:&quot;2016-03-27 12:00&quot;,&quot;count&quot;:3,&quot;count_phone&quot;:3}]},&quot;headlines&quot;:[{&quot;data_para&quot;:{&quot;tce_vid&quot;:&quot;0&quot;,&quot;env&quot;:&quot;online&quot;,&quot;tce_sid&quot;:1164534},&quot;data_type&quot;:&quot;tceonline&quot;,&quot;tms_type&quot;:&quot;jsonp&quot;}],&quot;$tmsId&quot;:&quot;tbh_617437&quot;}"><div class="headline J_Headline tb-loading">\u000a<h3 class="tbh-icon">\u000a<em>\u6dd8\u5b9d\u5934\u6761</em>\u000a<a class="more" href="https://headline.taobao.com/feed/feedList.htm">\u66f4\u591a <i class="tb-icon">&#x27a4;</i></a>\u000a</h3>\u000a<div class="headline-bd">\u000a</div>\u000a</div>\u000a</div>\u000a<div data-spm="201870" class="tbh-discover-goods J_Module" tms="tbh-discover-goods/1.0.0" tms-datakey="tbh_617438" tms-data="{&quot;moduleinfo&quot;:{&quot;name&quot;:&quot;\u6709\u597d\u8d27&quot;,&quot;hd&quot;:false,&quot;result_count&quot;:[{&quot;count&quot;:1,&quot;count_phone&quot;:1}]},&quot;result&quot;:[{&quot;data_para&quot;:{&quot;tce_vid&quot;:&quot;0&quot;,&quot;env&quot;:&quot;online&quot;,&quot;tce_sid&quot;:1164535},&quot;data_type&quot;:&quot;tceonline&quot;,&quot;tms_type&quot;:&quot;jsonp&quot;}],&quot;$tmsId&quot;:&quot;tbh_617438&quot;}"><div class="goods goods-stretch J_Goods" data-permalink="">\u000a<h3 class="tbh-icon">\u6709\u597d\u8d27</h3>\u000a<div class="goods-list tb-loading">\u000a</div>\u000a<div class="goods-refresh a-all" data-spm-click="gostr=/tbindex;locaid=d1992;name=\u6709\u597d\u8d27">\u000a<i class="tb-icon">&#xe616;</i><span>\u6362\u4e00\u7ec4\u770b\u770b</span>\u000a</div>\u000a</div>\u000a</div>\u000a<div data-spm="201871" class="tbh-footprint J_Module" tms="tbh-footprint/0.0.2" tms-datakey="tbh_617439" tms-data="{&quot;moduleinfo&quot;:{&quot;name&quot;:&quot;\u8db3\u8ff9\uff0c\u6211\u6700\u8fd1\u770b\u8fc7\u7684&quot;,&quot;link&quot;:&quot;https://lu.taobao.com/newMyPath.htm&quot;},&quot;map&quot;:[{&quot;data_para&quot;:{&quot;tce_vid&quot;:&quot;0&quot;,&quot;env&quot;:&quot;online&quot;,&quot;tce_sid&quot;:1164536},&quot;data_type&quot;:&quot;tceonline&quot;,&quot;tms_type&quot;:&quot;jsonp&quot;}],&quot;$tmsId&quot;:&quot;tbh_617439&quot;}"><div class="footprint" data-permalink="">\u000a<h3 class="footprint-hd J_Lu"><span>\u8db3\u8ff9\uff0c\u6211\u6700\u8fd1\u770b\u8fc7\u7684</h3>\u000a<ul class="footprint-bd J_FootprintBd">\u000a</ul>\u000a<a class="footprint-ft" href="https://lu.taobao.com/newMyPath.htm">\u000a<i class="tb-icon">&#xe60c;</i><span>\u67e5\u770b\u66f4\u591a\u8db3\u8ff9</span>\u000a</a>\u000a</div>\u000a</div>\u000a<div data-spm="201872" class="tbh-discover-shop J_Module" tms="tbh-discover-shop/0.1.0" tms-datakey="tbh_617440" tms-data="{&quot;moduleinfo&quot;:{&quot;name&quot;:&quot;\u6bcf\u65e5\u597d\u5e97&quot;,&quot;link&quot;:&quot;//www.taobao.com/markets/tbhome/cool-shop&quot;,&quot;permalink&quot;:&quot;//www.taobao.com/markets/tbhome/cool-shop&quot;},&quot;list&quot;:[{&quot;data_para&quot;:{&quot;tce_vid&quot;:&quot;0&quot;,&quot;env&quot;:&quot;online&quot;,&quot;tce_sid&quot;:1164537},&quot;data_type&quot;:&quot;tceonline&quot;,&quot;tms_type&quot;:&quot;jsonp&quot;}],&quot;$tmsId&quot;:&quot;tbh_617440&quot;}"><div class="shop shop-stretch J_Goods" data-permalink="//www.taobao.com/markets/tbhome/cool-shop">\u000a<a href="//www.taobao.com/markets/tbhome/cool-shop"><h3 class="tbh-icon">\u6bcf\u65e5\u597d\u5e97</h3></a>\u000a<ul class="shop-list tb-loading">\u000a</ul>\u000a<a class="shop-refresh" href="//www.taobao.com/markets/tbhome/cool-shop" data-spm-click="gostr=/tbindex;locaid=d1992;name=\u6bcf\u65e5\u597d\u5e97">\u000a<i class="tb-icon">&#xe60c;</i><span>\u67e5\u770b\u66f4\u591a\u597d\u5e97</span>\u000a</a>\u000a</div>\u000a</div>\u000a</div>\u000a<div class="tanx-wrapper">\u000a<h4>\u4eca\u65e5\u70ed\u5356</h4>\u000a<div data-spm="201873" class="tbh-tanx J_Module" tms="tbh-tanx/0.0.1" tms-datakey="tbh_617441">\u000a<a id="tanx-a-mm_12852562_1778064_10263209" data-id="mm_12852562_1778064_10263209" data-autolazy="1" data-isope="0" data-ahead="1000" class="J_Tanx">\u000a</a>\u000a</div>\u000a</div>\u000a</div>\u000a</div>\u000a<div class="bottom J_Bottom">\u000a<div class="sale-wrapper">\u000a<div data-spm="201874" class="tbh-sale J_Module" tms="tbh-sale/0.0.1" tms-datakey="tbh_617442"><div id="J_Sale" class="sale tb-loading">\u000a<div class="sale-hd">\u000a<div id="J_SaleP4p" class="sale-p4p" data-spm-ab="p4p"></div>\u000a<h3>\u70ed\u5356\u5355\u54c1</h3>\u000a</div>\u000a<ul id="J_SaleBd" class="sale-bd" data-use="/mm/taobao-remai/0.3.4/index" data-spm-ab="sales"></ul>\u000a</div></div>\u000a</div>\u000a<div data-spm="523825" data-name="live" class="tbh-live J_Module" tms="tbh-live/0.0.6" tms-datakey="tbh_617443" tms-data="{&quot;moduleinfo&quot;:{&quot;on&quot;:true,&quot;dataList_count&quot;:[{&quot;count&quot;:1,&quot;count_phone&quot;:1}]},&quot;dataList&quot;:[{&quot;data_para&quot;:{&quot;tce_vid&quot;:&quot;0&quot;,&quot;env&quot;:&quot;online&quot;,&quot;tce_sid&quot;:1164538},&quot;data_type&quot;:&quot;tceonline&quot;,&quot;tms_type&quot;:&quot;jsonp&quot;}],&quot;$tmsId&quot;:&quot;tbh_617443&quot;}">\u000a<h2 class="live-hd">\u000a<em><span class="tb-icon">&#xe629;</span>\u6dd8\u5b9d\u76f4\u64ad</em>\u000a</h2>\u000a<div class="live-bd">\u000a<div class="tb-loading"></div>\u000a</div>\u000a</div>\u000a<div data-spm="523824" data-name="list" class="tbh-list J_Module" tms="tbh-list/0.0.6" tms-datakey="tbh_617444" tms-data="{&quot;moduleinfo&quot;:{&quot;on&quot;:true,&quot;tag&quot;:false,&quot;list_count&quot;:[{&quot;count&quot;:1,&quot;count_phone&quot;:1}]},&quot;list&quot;:[{&quot;data_para&quot;:{&quot;tce_vid&quot;:&quot;0&quot;,&quot;env&quot;:&quot;online&quot;,&quot;tce_sid&quot;:1164539},&quot;data_type&quot;:&quot;tceonline&quot;,&quot;tms_type&quot;:&quot;jsonp&quot;}],&quot;$tmsId&quot;:&quot;tbh_617444&quot;}">\u000a<h2 class="list-hd">\u000a<em><span class="tb-icon">&#xe628;</span>\u5fc5\u4e70\u6e05\u5355</em>\u000a</h2>\u000a<div class="list-bd clearfix">\u000a<div class="tb-loading"></div>\u000a</div>\u000a</div>\u000a<div data-name="hotsale" preload-distance="300" data-spm="201875" class="tbh-hotsale J_Module" tms="tbh-hotsale/0.0.10" tms-datakey="tbh_617445" tms-data="{&quot;moduleinfo&quot;:{&quot;name&quot;:&quot;\u731c\u4f60\u559c\u6b22&quot;,&quot;on&quot;:true,&quot;map_count&quot;:[{&quot;count&quot;:4,&quot;count_phone&quot;:4},{&quot;start_time&quot;:&quot;2016-12-01 00:00&quot;,&quot;count&quot;:6,&quot;count_phone&quot;:6},{&quot;start_time&quot;:&quot;2016-12-13 00:00&quot;,&quot;count&quot;:4,&quot;count_phone&quot;:4}],&quot;backup_count&quot;:[{&quot;count&quot;:20,&quot;count_phone&quot;:20}]},&quot;map&quot;:[{&quot;data_para&quot;:{&quot;tce_vid&quot;:&quot;0&quot;,&quot;env&quot;:&quot;online&quot;,&quot;tce_sid&quot;:1164540},&quot;data_type&quot;:&quot;tceonline&quot;,&quot;tms_type&quot;:&quot;jsonp&quot;}],&quot;backup&quot;:[{&quot;data_para&quot;:{&quot;tce_vid&quot;:&quot;0&quot;,&quot;env&quot;:&quot;online&quot;,&quot;tce_sid&quot;:1164541},&quot;data_type&quot;:&quot;tceonline&quot;,&quot;tms_type&quot;:&quot;jsonp&quot;}],&quot;$tmsId&quot;:&quot;tbh_617445&quot;}">\u000a<div class="J_HotSale" data-switch="on">\u000a<h3 class="title"><i class="tb-icon">&#xe618;</i>\u731c\u4f60\u559c\u6b22</h3>\u000a<div class="desc">\u5b9e\u65f6\u63a8\u8350\u6700\u9002\u5408\u4f60\u7684\u5b9d\u8d1d</div>\u000a<ul class="hotsale-list clearfix">\u000a</ul>\u000a<i class="tb-loading hotsale-loading"></i>\u000a<i class="hotsale-end">END</i>\u000a</div>\u000a</div>\u000a<div data-spm="201876" class="tbh-helper J_Module" tms="tbh-helper/0.0.1" tms-datakey="tbh_617446" tms-data="{&quot;moduleinfo&quot;:{&quot;helpers_count&quot;:[{&quot;count&quot;:4,&quot;count_phone&quot;:4}]},&quot;helpers&quot;:[{&quot;data_para&quot;:{&quot;tce_vid&quot;:&quot;0&quot;,&quot;env&quot;:&quot;online&quot;,&quot;tce_sid&quot;:1164542},&quot;data_type&quot;:&quot;tceonline&quot;,&quot;tms_type&quot;:&quot;jsonp&quot;}],&quot;$tmsId&quot;:&quot;tbh_617446&quot;}"><div class="helper J_Helper tb-loading">\u000a</div>\u000a</div>\u000a</div>\u000a<div class="hander J_Hander">\u000a<div data-spm="202138" class="tbh-fixedtool J_Module" tms="tbh-fixedtool/0.1.4" tms-datakey="tbh_617448">\u000a<div class="fixedtool J_FixedTool " data-feedback="1" data-version="0.1.33">\u000a<a href="#" class="fixedtool-1 on" data-tool="like" data-spm-click="gostr=/tbindex;locaid=d1;name=fixed-1"><strong>\u6211\u5e38<br>\u901b\u7684</strong></a>\u000a<a href="#" class="fixedtool-3" data-tool="fashion" data-spm-click="gostr=/tbindex;locaid=d2;name=fixed-2"><strong><i>\u65f6\u5c1a</i></strong></a>\u000a<a href="#" class="fixedtool-4" data-tool="quanlity" data-spm-click="gostr=/tbindex;locaid=d3;name=fixed-3"><strong><i>\u54c1\u8d28</i></strong></a>\u000a<a href="#" class="fixedtool-5" data-tool="special" data-spm-click="gostr=/tbindex;locaid=d4;name=fixed-4"><strong><i>\u7279\u8272</i></strong></a>\u000a<a href="#" class="fixedtool-2" data-tool="affordable" data-spm-click="gostr=/tbindex;locaid=d5;name=fixed-5"><strong><i>\u5b9e\u60e0</i></strong></a>\u000a<a href="#" class="fixedtool-6" data-tool="hotsale" data-spm-click="gostr=/tbindex;locaid=d6;name=fixed-6"><strong>\u731c\u4f60<br>\u559c\u6b22</strong></a>\u000a<a href="#" class="fixedtool-7" data-tool="gotop" data-spm-click="gostr=/tbindex;locaid=d7;name=fixed-7"><strong><i class='tb-icon'>&#xe611;</i>\u9876\u90e8</strong></a>\u000a<a href="//survey.taobao.com/survey/kgsa2JZE2" class="fixedtool-8" data-tool="" data-spm-click="gostr=/tbindex;locaid=d8;name=fixed-8"><strong><i>\u53cd\u9988</i></strong></a>\u000a<a href="http://jubao.12377.cn:13225/reportform.do" class="fixedtool-9" data-tool="" data-spm-click="gostr=/tbindex;locaid=d9;name=fixed-9"><strong>\u66b4\u6050<br>\u4e3e\u62a5</strong></a>\u000a</div>\u000a</div>\u000a<div data-spm="202139" class="tbh-bubble J_Module" tms="tbh-bubble/0.0.2" tms-datakey="tbh_617449">\u000a<div class="bubble J_Bubble"><div class="bubble-box"><b>x</b><span></span><em></em></div></div>\u000a</div>\u000a<div class="tanx-corner J_TanxCorner">\u000a<div data-spm="201877" class="tbh-tanx J_Module" tms="tbh-tanx/0.0.1" tms-datakey="tbh_617450">\u000a<a id="tanx-a-mm_12852562_1778064_9118786" data-id="mm_12852562_1778064_9118786" data-autolazy="0" data-isope="0" data-ahead="" class="J_Tanx">\u000a</a>\u000a</div>\u000a<div data-spm="201878" class="tbh-tanx J_Module" tms="tbh-tanx/0.0.1" tms-datakey="tbh_617451">\u000a<a id="tanx-a-mm_12852562_1778064_9118787" data-id="mm_12852562_1778064_9118787" data-autolazy="0" data-isope="0" data-ahead="" class="J_Tanx">\u000a</a>\u000a</div>\u000a</div>\u000a</div>\u000a<div class="tbh-inject J_Module" tms="tbh-inject/0.0.1" tms-datakey="tbh_617452">\u000a</div>\u000a<script src="//g.alicdn.com/??kissy/k/6.2.4/seed-min.js,kg/global-util/1.0.5/index-min.js,tb/tracker/4.0.1/p/index/index.js,kg/tb-nav/2.0.0/index-min.js"></script>\u000a<script>KISSY.use('kg/global-util/1.0.5/',{sync:true});KISSY.config({modules: {'kg/tb-nav':{alias:'kg/tb-nav/2.0.0/',requires:['kg/global-util/1.0.5/']}}});KISSY.ready(function(){KISSY.use('kg/tb-nav')});</script>\u000a<script>KISSY.use('kg/global-util/1.0.5/',{sync:true});KISSY.config({modules: {'kg/tb-nav':{alias:'kg/tb-nav/2.0.0/',requires:['kg/global-util/1.0.5/']}}});KISSY.ready(function(){KISSY.use('kg/tb-nav')});</script>\u000a<script>\u000a    window.g_config = {\u000a      appId: 6,\u000a      startDate: new Date()\u000a    };\u000a    // \u641c\u7d22\u6a21\u5757\u7684\u7248\u672c\u53f7\u000a    window.suggestModuleVersion = '6.2.11';\u000a    KISSY.config({\u000a      combine: true,\u000a      packages: [{\u000a        name: 'kg',\u000a        base:  '//g.alicdn.com/kg/',\u000a        ignorePackageNameInUri: true,\u000a        combine: true\u000a      },{\u000a        name: 'tb-mod',\u000a        base: '//g.alicdn.com/',\u000a        charset: 'utf-8',\u000a        combine: true\u000a      },{\u000a        name: 'tb-page',\u000a        base: '//g.alicdn.com/',\u000a        charset: 'utf-8',\u000a        combine: true\u000a      },{\u000a        name: 'p',\u000a        base: '//g.alicdn.com/tbh/backup/0.0.7',\u000a        combine: false,\u000a        debug:true\u000a      }],\u000a      modules: {\u000a        'xctrl': {\u000a          alias: ['kg/xctrl/6.8.2/xctrl-kissy']\u000a        },\u000a        component: {\u000a          alias: ['kg/pattern/0.2.1/index']\u000a        },\u000a        'offline': {\u000a          alias: ['kg/offline/7.0.0/index']\u000a        },\u000a        'slide': {\u000a          alias: ['kg/slide/6.0.8/index']\u000a        },\u000a        'session': {\u000a          alias: ['kg/session/0.0.1/index']\u000a        },\u000a        'combobox': {\u000a          alias: ['kg/combobox/0.0.2/index']\u000a        },\u000a        'favorite': {\u000a          alias: ['kg/favorite/6.0.1/index']\u000a        },\u000a        'mini-login': {\u000a          alias: ['kg/mini-login/6.3.7/index']\u000a        },\u000a        'reporter': {\u000a          alias: ['kg/reporter/0.0.2/index']\u000a        },\u000a        'interface-backup': {\u000a          alias: ['kg/interface-backup/0.0.3/index']\u000a        },\u000a        'webp': {\u000a          alias: ['kg/webp-replacer/0.0.3/index']\u000a        },\u000a        'personality': {\u000a          alias: ['kg/personality/0.0.8/index']\u000a        },\u000a        'datalazyload': {\u000a          alias: ['kg/datalazyload/2.0.0/index']\u000a        },\u000a        'event-binder': {\u000a          alias: ['kg/event-binder/0.0.2/index']\u000a        },\u000a        'xtemplate': {\u000a          alias: ['kg/xtemplate/4.3.0/index']\u000a        },\u000a        'tanx': {\u000a          alias: ['kg/tanx/0.0.4/index']\u000a        },\u000a        'aladdin': {\u000a          alias: ['kg/aladdin/0.2.0/index']\u000a        },\u000a        'attr-anim': {\u000a          alias: ['kg/attr-anim/6.0.3/index']\u000a        },\u000a        'lazyload': {\u000a          alias: ['kg/datalazyload/6.0.7/index']\u000a        },\u000a        imageUtil: {\u000a          alias: ['kg/pattern/0.2.1/lib/image']\u000a        },\u000a      }\u000a    });\u000a  </script>\u000a<script src="//g.alicdn.com/tb-mod/??tbh-banner/0.0.3/index.js,tbh-super-banner/0.1.3/index.js,tbh-decorations/0.0.5/index.js,tbh-search/0.0.2/index.js,tbh-logo/0.0.1/index.js,tbh-qr/0.0.5/index.js,tbh-nav/0.0.4/index.js,tbh-focus/0.0.3/index.js,tbh-tanx/0.0.1/index.js,tbh-promo/0.1.1/index.js,tbh-tmall/0.3.4/index.js,tbh-member/0.1.4/index.js,tbh-notice/0.1.0/index.js,tbh-conve/0.0.5/index.js,tbh-service/0.3.6/index.js,tbh-belt/0.3.2/index.js,tbh-app/0.1.2/index.js,tbh-headline/0.0.7/index.js,tbh-discover-goods/1.0.0/index.js,tbh-footprint/0.0.2/index.js,tbh-discover-shop/0.1.0/index.js,tbh-sale/0.0.1/index.js,tbh-live/0.0.6/index.js,tbh-list/0.0.6/index.js,tbh-hotsale/0.0.10/index.js,tbh-helper/0.0.1/index.js,tbh-fixedtool/0.1.4/index.js,tbh-bubble/0.0.2/index.js,tbh-inject/0.0.1/index.js,tbh-like/1.0.2/index.js,tbh-blocks/0.0.6/index.js,tbh-blocks-sh/0.0.15/index.js"></script>\u000a<script src="//g.alicdn.com/kissy/k/6.2.4/??event-custom-min.js,event-base-min.js,io-min.js,io-extra-min.js,io-base-min.js,promise-min.js,dom-base-min.js,query-selector-base-min.js,dom-extra-min.js,io-form-min.js,node-min.js,node-base-min.js,node-event-min.js,event-dom-base-min.js,event-dom-extra-min.js,event-gesture-min.js,event-touch-min.js,node-anim-min.js,anim-transition-min.js,anim-base-min.js,cookie-min.js,event-min.js,base-min.js,attribute-min.js,json-base-min.js"></script>\u000a<script src="//g.alicdn.com/kg/??reporter/0.0.2/index-min.js,offline/7.0.0/index-min.js,session/0.0.1/index-min.js,datalazyload/2.0.0/index-min.js,reporter/0.0.2/lib/index-min.js,webp-replacer/0.0.3/index-min.js,tanx/0.0.4/index-min.js,aladdin/0.2.0/index-min.js,slide/6.0.8/index-min.js,pattern/0.2.1/index-min.js,xtemplate/4.3.0/index-min.js,pattern/0.2.1/lib/image-min.js,event-binder/0.0.2/index-min.js,attr-anim/6.0.3/index-min.js,xctrl/6.8.2/xctrl-kissy-min.js,xtemplate/4.3.0/runtime-min.js,datalazyload/6.0.7/index-min.js"></script>\u000a<input id="J_TBBucket" class="" type="hidden" value="4" data-container="">\u000a<script src="//g.alicdn.com/tb-page/taobao-home/0.6.2/index.js"></script>\u000a<script>KISSY.ready(function(){KISSY.use('tb-page/taobao-home/0.6.2/index');});</script>\u000a<div class="tbh-inject J_Module" tms="tbh-inject/0.0.1" tms-datakey="tbh_617453">\u000a</div>\u000a<b data-mark="d3d3LnRhb2Jhby5jb20=" class="tb-hide"></b>\u000a<script type="text/javascript">(function(e){if(!e["_med"])e["_med"]={};var t=e["_med"];t.cookie=function(e,t,a){if(t!==undefined){a=a||{};if(typeof a.expires==="number"){var o=a.expires,l=a.expires=new Date;l.setTime(+l+o*864e5)}return document.cookie=[e,"=",String(t),a.expires?"; expires="+a.expires.toUTCString():"",a.path?"; path="+a.path:"",a.domain?"; domain="+a.domain:"",a.secure?"; secure":""].join("")}var r=e?undefined:{};var i=document.cookie?document.cookie.split("; "):[];for(var n=0,s=i.length;n<s;n++){var b=i[n].split("=");var d=b.shift();var p=b.join("=");if(e&&e===d){r=p;break}if(!e&&p!==undefined){r[d]=p}}return r};var a=document;var o=e.devicePixelRatio||1,l=a.documentElement.clientWidth,r=a.documentElement.clientHeight,i,n,s,b=/initial-scale=([\u005cd\u005c.]+?),/i,d,p;if(a.querySelector){p=a.querySelector('meta[name="viewport"]');if(p){d=b.exec(p.content+",");if(d){s=parseFloat(d[1],10)}}}if(s){l=l*s;r=r*s}if(screen){if(Math.abs(screen.width-l*o)<.2*screen.width){l=screen.width/o;r=screen.height/o;i=screen.width;n=screen.height}else{l=screen.width;r=screen.height;i=screen.width*o;n=screen.height*o}}else{i=l*o;n=r*o}var m="createTouch"in a&&"ontouchstart"in e?1:0;var c=["dw:"+l,"dh:"+r,"pw:"+i,"ph:"+n,"ist:"+m].join("&");t.cookie("_med",c,{expires:3650})})(window);\u000a</script></body>\u000a</html>\u000a
p3
a.