(lp0
S"http://kibana.lab321.org/#/visualize/edit/DEMO?_g=(refreshInterval:(display:Off,pause:!f,section:0,value:0),time:(from:now-1y,mode:quick,to:now))&_a=(filters:!(),linked:!f,query:(query_string:(analyze_wildcard:!t,query:'*')),vis:(aggs:!((id:'1',params:(),schema:metric,type:count),(id:'2',params:(customInterval:'2h',extended_bounds:(),field:'@timestamp',interval:auto,min_doc_count:1),schema:segment,type:date_histogram)),listeners:(),params:(addLegend:!t,addTimeMarker:!f,addTooltip:!t,defaultYExtents:!f,interpolate:linear,mode:stacked,scale:linear,setYExtents:!f,shareYAxis:!t,smoothLines:!f,times:!(),yAxis:()),type:area))"
p1
aS'DEMO - Visualize - Kibana 4'
p2
aI-2
a.