(lp0
S'https://prestodb.io/'
p1
aS'Presto | Distributed SQL Query Engine for Big Data'
p2
aI0
aV<!DOCTYPE html>\u000a<html>\u000a<head>\u000a    <meta charset="utf-8">\u000a    <title>Presto | Distributed SQL Query Engine for Big Data</title>\u000a    <link rel="stylesheet" href="static/presto.css" type="text/css"/>\u000a    <link rel="canonical" href="http://prestodb.io/"/>\u000a\u000a    <meta name="viewport" content="width=device-width">\u000a    <meta property="og:type" content="website">\u000a    <meta property="og:title" content="Presto | Distributed SQL Query Engine for Big Data">\u000a    <meta property="og:description" content="Distributed SQL Query Engine for Big Data">\u000a    <meta property="og:image" content="static/presto-og.png">\u000a\u000a    <script>\u000a    (function(i,s,o,g,r,a,m){i['GoogleAnalyticsObject']=r;i[r]=i[r]||function(){\u000a    (i[r].q=i[r].q||[]).push(arguments)},i[r].l=1*new Date();a=s.createElement(o),\u000a    m=s.getElementsByTagName(o)[0];a.async=1;a.src=g;m.parentNode.insertBefore(a,m)\u000a    })(window,document,'script','//www.google-analytics.com/analytics.js','ga');\u000a    ga('create', 'UA-45503728-1', 'prestodb.io');\u000a    ga('send', 'pageview');\u000a    </script>\u000a</head>\u000a<body>\u000a<div id="fb-root"></div>\u000a<script>(function(d, s, id) {\u000a    var js, fjs = d.getElementsByTagName(s)[0];\u000a    if (d.getElementById(id)) return;\u000a    js = d.createElement(s); js.id = id;\u000a    js.src = "//connect.facebook.net/en_US/all.js#xfbml=1";\u000a    fjs.parentNode.insertBefore(js, fjs);\u000a}(document, 'script', 'facebook-jssdk'));</script>\u000a\u000a\u000a<header class="topbar clearfix">\u000a    <nav class="width">\u000a        <a href="."><h1>Presto</h1></a>\u000a        <ul class="nav">\u000a            <li><a href="overview.html">Overview</a></li>\u000a            <li><a href="docs/current/">Docs</a></li>\u000a            <li><a href="faq.html">FAQ</a></li>\u000a            <li><a href="community.html">Community</a></li>\u000a            <li><a href="resources.html">Resources</a></li>\u000a            <li><a href="https://github.com/facebook/presto">GitHub</a>\u000a        </ul>\u000a    </nav>\u000a</header>\u000a\u000a<header class="hero homehero clearfix">\u000a    <div class="width">\u000a        <div class="leftcol">\u000a            <h1>Distributed SQL Query Engine for&nbsp;Big&nbsp;Data</h1>\u000a            <a class="button" href="overview.html">Get Started</a>\u000a        </div>\u000a        <div class="rightcol widecol showterm">\u000a            <iframe src="https://showterm.io/dc2c39605d14561c79414"></iframe>\u000a        </div>\u000a    </div>\u000a</header>\u000a\u000a<div class="content homecontent width clearfix">\u000a    <div class="leftcol widecol">\u000a        <h2>What is Presto?</h2>\u000a\u000a        <p>\u000a            Presto is an open source distributed SQL query engine for\u000a            running interactive analytic queries against data sources\u000a            of all sizes ranging from gigabytes to petabytes.\u000a        </p>\u000a\u000a        <p>\u000a            Presto was designed and written from the ground up for\u000a            interactive analytics and approaches the speed of commercial\u000a            data warehouses while scaling to the size of organizations\u000a            like Facebook.\u000a        </p>\u000a\u000a        <h2>What can it do?</h2>\u000a\u000a        <p>\u000a            Presto allows querying data where it lives, including Hive,\u000a            Cassandra, relational databases or even proprietary data stores.\u000a            A single Presto query can combine data from multiple sources,\u000a            allowing for analytics across your entire organization.\u000a        </p>\u000a\u000a        <p>\u000a            Presto is targeted at analysts who expect response times ranging\u000a            from sub-second to minutes. Presto breaks the false choice between\u000a            having fast analytics using an expensive commercial solution or\u000a            using a slow "free" solution that requires excessive hardware.\u000a        </p>\u000a\u000a        <h2>Who uses it?</h2>\u000a\u000a        <p>\u000a            Facebook uses Presto for interactive queries against several\u000a            internal data stores, including their 300PB data warehouse.\u000a            Over 1,000 Facebook employees use Presto daily to run more than\u000a            30,000 queries that in total scan over a petabyte each per day.\u000a        </p>\u000a\u000a        <p>\u000a            Leading internet companies including Airbnb and Dropbox are using Presto.\u000a        </p>\u000a\u000a        <blockquote>\u000a            <p>\u000a                Presto is amazing. Lead engineer Andy Kramolisch got it into\u000a                production in just a few days.\u000a                It's an order of magnitude faster than Hive in most our use cases.\u000a                It reads directly from HDFS, so unlike Redshift, there isn't a lot\u000a                of ETL before you can use it. It just works.\u000a            </p>\u000a            <small>Christopher Gutierrez, Manager of Online Analytics, Airbnb</small>\u000a        </blockquote>\u000a\u000a        <blockquote>\u000a            <p>\u000a                We're really excited about Presto.\u000a                We're planning on using it to quickly gain insight about the\u000a                different ways our users use Dropbox, as well as diagnosing\u000a                problems they encounter along the way. In our tests so far it's\u000a                been rock solid and extremely fast when applied to some of our\u000a                most important ad hoc use cases.\u000a            </p>\u000a            <small>Fred Wulff, Software Engineer, Dropbox</small>\u000a        </blockquote>\u000a    </div>\u000a\u000a    <div class="rightcol">\u000a        <h3>Quick links</h3>\u000a        <ul>\u000a            <li><a href="overview.html">Overview</a></li>\u000a            <li><a href="docs/current/">Documentation</a></li>\u000a            <li><a href="faq.html">FAQ</a></li>\u000a            <li><a href="community.html">Community</a></li>\u000a            <li><a href="resources.html">Resources</a></li>\u000a            <li><a href="https://github.com/facebook/presto">Source</a></li>\u000a        </ul>\u000a        <h3>Community</h3>\u000a        <ul>\u000a            <li><a href="https://groups.google.com/group/presto-users">presto-users group</a></li>\u000a            <li><a href="https://github.com/facebook/presto/issues">Report an issue</a></li>\u000a            <li><a href="https://webchat.freenode.net/?channels=prestodb"><tt>#prestodb</tt> IRC on freenode</a></li>\u000a            <li><a href="https://www.facebook.com/prestodb">Facebook</a> <div class="fb-like" data-href="https://www.facebook.com/prestodb" data-layout="button_count" data-action="like" data-show-faces="false" data-share="true"></div></li>\u000a        </ul>\u000a\u000a        <h3>License</h3>\u000a        <ul>\u000a            <li><a href="http://www.apache.org/licenses/LICENSE-2.0">Apache License v2</a></li>\u000a            <li><a href="https://github.com/facebook/presto/blob/master/CONTRIBUTING.md">Contributing</a></li>\u000a        </ul>\u000a    </div>\u000a</div>\u000a\u000a<div class="footer">&copy; Copyright 2013-2016, Facebook</div>\u000a\u000a</body>\u000a</html>\u000a
p3
a.