(lp0
S'http://tech.youmi.net/2016/02/137134732.html'
p1
aS'ELK\xe5\x9c\xa8\xe5\xb9\xbf\xe5\x91\x8a\xe7\xb3\xbb\xe7\xbb\x9f\xe7\x9b\x91\xe6\x8e\xa7\xe4\xb8\xad\xe7\x9a\x84\xe5\xba\x94\xe7\x94\xa8 \xe5\x8f\x8a Elasticsearch\xe7\xae\x80\xe4\xbb\x8b - Youmi Tech Blog.'
p2
aI0
aV<!doctype html>\u000a<html>\u000a\u000a<head>\u000a  <meta charset="UTF-8" />\u000a<meta name="viewport" content="width=device-width, minimum-scale=1.0, maximum-scale=1.0, user-scalable=no">\u000a<meta name="keywords" content="" />\u000a<meta name="description" content="I dream of painting and then I paint my dream." />\u000a<link rel="icon" href="/icon.png" />\u000a<link rel="stylesheet" href="/css/style.css" />\u000a<script type="text/x-mathjax-config">\u000a  MathJax.Hub.Config({tex2jax: {inlineMath: [['$','$'], ['\u005c\u005c(','\u005c\u005c)']]}});\u000a</script>\u000a<script type="text/javascript"\u000a  src="https://cdn.bootcss.com/mathjax/2.6.1/MathJax.js?config=TeX-AMS-MML_HTMLorMML">\u000a</script>\u000a\u000a  <title>\u000aELK\u5728\u5e7f\u544a\u7cfb\u7edf\u76d1\u63a7\u4e2d\u7684\u5e94\u7528 \u53ca Elasticsearch\u7b80\u4ecb | Youmi Tech Blog.\u000a</title>\u000a</head>\u000a\u000a<body>\u000a\u000a<div class="header">\u000a    <div class="center">\u000a        <h1><a href="/">Youmi Tech Blog.</a></h1>\u000a        <p>I dream of painting and then I paint my dream.</p>\u000a    </div>\u000a    <div class="menu">\u000a    \u000a    <a href="/">home</a>\u000a    \u000a    <a href="/archives">archives</a>\u000a    \u000a    </div>\u000a</div>\u000a\u000a\u000a\u000a<div id="post" class="center">\u000a\u000a    <h1>ELK\u5728\u5e7f\u544a\u7cfb\u7edf\u76d1\u63a7\u4e2d\u7684\u5e94\u7528 \u53ca Elasticsearch\u7b80\u4ecb</h1>\u000a\u000a    <p><a href="https://github.com/csyangchen">csyangchen</a> Posted at Feb 29, 2016 . -\u000a\u000a    \u000a    <a href="/category/elasticsearch/">ElasticSearch</a> -\u000a    \u000a    <a href="/category/\u65e5\u5fd7/">\u65e5\u5fd7</a> -\u000a    \u000a    </p>\u000a\u000a    <div class="content"><p>ELK\u662f\u6307elastic\u63d0\u4f9b\u7684\u4e00\u6574\u5957\u6570\u636e\u6536\u96c6\uff0c\u5b58\u50a8\uff0c\u641c\u7d22\uff0c\u53ca\u5c55\u793a\u65b9\u6848\u3002 \u7531\u4e8e\u90e8\u7f72\u53ca\u6269\u5bb9\u65b9\u4fbf\uff0c\u975e\u5e38\u9002\u5408\u5c0f\u56e2\u961f\u5feb\u901f\u642d\u5efa\u6570\u636e\u5206\u6790\u5e73\u53f0\u3002ELK\u5206\u522b\u4ee3\u6307 Elasticsearch\uff0cLogstash\uff0cKibana\u4e09\u4e2a\u4ea7\u54c1\u3002</p>\u000a<!-- more -->\u000a<ul>\u000a<li><a href="https://www.elastic.co/products/elasticsearch"><strong>E</strong>lasticsearch</a>: \u5206\u5e03\u5f0f\uff0c\u5b9e\u65f6\uff0c\u5168\u6587\u641c\u7d22\u5f15\u64ce\uff0c\u6700\u6838\u5fc3\u7684\u90e8\u5206\uff0c\u4e5f\u662f\u63a5\u4e0b\u6765\u4e3b\u8981\u4ecb\u7ecd\u7684\u5185\u5bb9</li>\u000a<li><a href="https://www.elastic.co/products/logstash"><strong>L</strong>ogstash</a>: \u975e\u5e38\u7075\u6d3b\u7684\u65e5\u5fd7\u6536\u96c6\u5de5\u5177\uff0c\u4e0d\u5c40\u9650\u4e8e\u5411 Elasticsearch \u5bfc\u5165\u6570\u636e\uff0c\u53ef\u4ee5\u5b9a\u5236\u591a\u79cd\u8f93\u5165\uff0c\u8f93\u51fa\uff0c\u53ca\u8fc7\u6ee4\u8f6c\u6362\u89c4\u5219</li>\u000a<li><a href="https://www.elastic.co/products/kibana"><strong>K</strong>ibana</a>: \u63d0\u4f9b\u5bf9\u4e8e Elasticsearch \u6570\u636e\u7684\u641c\u7d22\u53ca\u53ef\u89c6\u5316\u529f\u80fd\u3002\u5e76\u4e14\u652f\u6301\u5f00\u53d1\u4eba\u5458\u81ea\u5df1\u6309\u9700\u5f00\u53d1\u63d2\u4ef6\u3002</li>\u000a</ul>\u000a<h1 id="elk\u5728\u5e7f\u544a\u7cfb\u7edf\u76d1\u63a7\u4e2d\u7684\u5e94\u7528">ELK\u5728\u5e7f\u544a\u7cfb\u7edf\u76d1\u63a7\u4e2d\u7684\u5e94\u7528</h1><p>\u5e7f\u544a\u7cfb\u7edf\u5bf9\u4e8e\u8bf7\u6c42\u7684\u54cd\u5e94\u65f6\u95f4\u975e\u5e38\u654f\u611f\uff0c\u6b64\u5916\uff0c\u5bf9\u4e8e\u5e76\u53d1\u8bf7\u6c42\u6570\u8981\u6c42\u4e5f\u5f88\u9ad8\u3002\u56e0\u6b64\uff0c\u6211\u4eec\u9700\u8981\u4ece\u8bf7\u6c42\u54cd\u5e94\u65f6\u95f4\uff0c\u4ee5\u53caQPS\u4e24\u4e2a\u6307\u6807\uff0c\u6765\u68c0\u6d4b\u7cfb\u7edf\u7684\u6027\u80fd; \u540c\u65f6\uff0c\u4e3a\u4e86\u5b9a\u4f4d\u74f6\u9888\uff0c\u6211\u4eec\u9700\u8981\u628a\u8fd9\u4e24\u4e2a\u6307\u6807\uff0c\u5206\u62c6\u5230\u8bf7\u6c42\u5904\u7406\u8fc7\u7a0b\u4e2d\u7684\u6bcf\u4e2a\u7ec4\u4ef6\u53bb\u770b\u3002</p>\u000a<p>\u6b64\u5916\uff0c\u4e3a\u4e86\u4f18\u5316\u5168\u7403\u7528\u6237\u8bbf\u95ee\u7684\u901f\u5ea6\uff0c\u6211\u4eec\u5728\u5168\u7403\u90e8\u7f72\u4e86\u591a\u4e2a\u8282\u70b9\u3002\u56e0\u6b64\uff0c\u6574\u4e2a\u7cfb\u7edf\u4e0d\u662f\u5728\u4e00\u4e2a\u5185\u7f51\u73af\u5883\uff0c\u5bf9\u76d1\u63a7\u6570\u636e\u7684\u5b9e\u65f6\u6536\u96c6\u63d0\u51fa\u4e86\u8003\u9a8c\u3002</p>\u000a<p>\u56e0\u6b64\uff0c\u6211\u4eec\u9700\u8981\u4e00\u5957\u7075\u6d3b\u7684\u76d1\u63a7\u7edf\u8ba1\u5e93\uff0c\u80fd\u591f\u975e\u4fb5\u5165\u7684\u6ce8\u518c\u5230\u4e1a\u52a1\u4ee3\u7801\u4e2d; \u5e76\u4e14\u5728\u4e00\u4e2a\u7edf\u4e00\u7684\u5165\u53e3\uff0c\u5b9e\u65f6\u76d1\u63a7\u6bcf\u4e2a\u8282\u70b9\u7684\u8fd0\u884c\u60c5\u51b5\u3002</p>\u000a<p><img src="https://cloud.githubusercontent.com/assets/839287/13384488/f2339846-ded0-11e5-8b62-368e9d4de3de.png" alt="elk"></p>\u000a<p>\u6211\u4eec\u91c7\u7528\u65b9\u6848\u662f:</p>\u000a<ul>\u000a<li>\u6bcf\u4e2a\u8282\u70b9\uff0c\u6709\u4e00\u4e2a Collector\uff0c\u8d1f\u8d23\u6536\u96c6\u76d1\u63a7\u6570\u636e\uff0c\u6309\u7167\u8282\u70b9/\u670d\u52a1/\u65f6\u95f4\u7ef4\u5ea6\u505a\u805a\u5408\uff0c\u5b9e\u65f6\u5199\u5165 Kinesis \u961f\u5217</li>\u000a<li>Logstash \u5c06 Kinesis \u4e2d\u7684\u76d1\u63a7\u6570\u636e\uff0c\u5b9e\u65f6\u5bfc\u5165\u5230 Elasticsearch</li>\u000a<li>Kibana \u540e\u53f0\u4e0a\uff0c\u901a\u8fc7\u5b9a\u5236\u67e5\u8be2\u56fe\u8868\uff0c\u53ef\u4ee5\u7edf\u8ba1\u5bf9\u6bd4\u6bcf\u4e2a\u8282\u70b9/\u670d\u52a1/\u7ec4\u4ef6\u7684\u76d1\u63a7\u6570\u636e</li>\u000a<li>\u6211\u4eec\u91c7\u7528\u9ed8\u8ba4\u7684 Logstash \u65e5\u5fd7\u5bfc\u5165\u7b56\u7565\uff0c\u6309\u5929\u7d22\u5f15\uff0c\u4f7f\u7528<a href="https://www.elastic.co/guide/en/elasticsearch/client/curator/current/index.html">curator</a>\u5de5\u5177\uff0c\u5b9a\u671f\u5bf9\u5386\u53f2\u6570\u636e\u5220\u9664/\u4f18\u5316\u3002</li>\u000a<li>\u6b64\u5916\uff0c\u901a\u8fc7 <a href="https://www.elastic.co/products/watcher">Watcher</a> \u63d2\u4ef6\uff0c\u5b9a\u5236\u544a\u8b66\u4fe1\u606f\uff0c\u4ece\u800c\u5728\u7cfb\u7edf\u51fa\u73b0\u95ee\u9898\u65f6\u53ca\u65f6\u5904\u7406\u3002</li>\u000a</ul>\u000a<p>\u8fd9\u5957\u673a\u5236\uff0c\u5f88\u597d\u5730\u6ee1\u8db3\u4e86\u6211\u4eec\u5bf9\u4e8e\u7cfb\u7edf\u76d1\u63a7\u7684\u9700\u6c42\uff0c\u5e2e\u52a9\u6211\u4eec\u5206\u6790\uff0c\u5b9a\u4f4d\u4f18\u5316\u7cfb\u7edf\u74f6\u9888\u3002</p>\u000a<h1 id="elasticsearch\u7b80\u4ecb">Elasticsearch\u7b80\u4ecb</h1><p>Elasticsearch \u662f\u4e00\u4e2a\u5206\u5e03\u5f0f\uff0c\u5b9e\u65f6\uff0c\u5168\u6587\u641c\u7d22\u5f15\u64ce\u3002\u6240\u6709\u64cd\u4f5c\u90fd\u662f\u901a\u8fc7 RESTful \u63a5\u53e3\u5b9e\u73b0; \u5176\u5e95\u5c42\u5b9e\u73b0\u662f\u57fa\u4e8e Lucene \u5168\u6587\u641c\u7d22\u5f15\u64ce\u3002\u6570\u636e\u4ee5JSON\u6587\u6863\u7684\u683c\u5f0f\u5b58\u50a8\u7d22\u5f15\uff0c\u4e0d\u9700\u8981\u9884\u5148\u89c4\u5b9a\u8303\u5f0f\u3002</p>\u000a<p>\u548c\u4f20\u7edf\u6570\u636e\u5e93\u7684\u672f\u8bed\u5bf9\u6bd4\u4e00\u4e0b\uff0c\u4e5f\u8bb8\u80fd\u591f\u5e2e\u52a9\u6211\u4eec\u5bf9 Elasticsearch \u6709\u4e00\u4e2a\u66f4\u52a0\u611f\u6027\u7684\u8ba4\u8bc6</p>\u000a<table>\u000a<thead>\u000a<tr>\u000a<th>RDS</th>\u000a<th>Elasticsearch</th>\u000a<th>\u8bf4\u660e</th>\u000a</tr>\u000a</thead>\u000a<tbody>\u000a<tr>\u000a<td>database</td>\u000a<td>index</td>\u000a<td></td>\u000a</tr>\u000a<tr>\u000a<td>table</td>\u000a<td>type</td>\u000a<td></td>\u000a</tr>\u000a<tr>\u000a<td>primary key</td>\u000a<td>id</td>\u000a<td></td>\u000a</tr>\u000a<tr>\u000a<td>row</td>\u000a<td>JSON document</td>\u000a<td>\u6587\u6863\u662f\u6700\u57fa\u672c\u7684\u6570\u636e\u5b58\u50a8\u5355\u5143\uff0c\u56e0\u6b64\u4e5f\u53ef\u4ee5\u79f0 Elasticsearch \u4e3a\u6587\u6863\u578b NoSQL \u6570\u636e\u5e93</td>\u000a</tr>\u000a<tr>\u000a<td>column</td>\u000a<td>field</td>\u000a<td></td>\u000a</tr>\u000a<tr>\u000a<td>schema</td>\u000a<td>mapping</td>\u000a<td>\u53ef\u4ee5\u652f\u6301\u52a8\u6001\u8303\u5f0f\uff0c\u4e5f\u53ef\u4ee5\u5c06\u8303\u5f0f\u6307\u5b9a\u4e0b\u6765\uff0c\u4ece\u800c\u4f18\u5316\u5bf9\u6570\u636e\u7d22\u5f15\u548c\u67e5\u8be2</td>\u000a</tr>\u000a<tr>\u000a<td>index</td>\u000a<td>(all)</td>\u000a<td>\u6240\u6709\u7684\u5b57\u6bb5\u90fd\u662f\u88ab\u7d22\u5f15\u7684\uff0c\u56e0\u6b64\u4e0d\u9700\u8981\u624b\u52a8\u6307\u5b9a\u7d22\u5f15</td>\u000a</tr>\u000a<tr>\u000a<td>SQL</td>\u000a<td>query DSL</td>\u000a<td>\u4e0d\u540c\u4e8e\u6211\u4eec\u4e60\u60ef\u7684SQL\u8bed\u53e5\uff0c\u9700\u8981\u6784\u9020\u7e41\u5197\u7684JSON\u53c2\u6570\u6765\u5b9e\u73b0\u590d\u6742\u7684\u6570\u636e\u7edf\u8ba1\u67e5\u8be2\u529f\u80fd</td>\u000a</tr>\u000a</tbody>\u000a</table>\u000a<h2 id="\u4f7f\u7528\u7b80\u4ecb">\u4f7f\u7528\u7b80\u4ecb</h2><p>\u6240\u6709\u64cd\u4f5c\u90fd\u662f\u901a\u8fc7RESTfull\u63a5\u53e3\u5b8c\u6210\u3002\u8bf7\u6c42URI\u6307\u5b9a\u4e86\u6587\u6863\u7684&quot;\u8def\u5f84&quot;\u3002\u000a\u6ce8\u610f\u5230\u8bed\u4e49\u901a\u8fc7\u8bf7\u6c42\u7684HTTP\u65b9\u6cd5\u4e0d\u540c\u533a\u5206\u5f00\u6765:</p>\u000a<ul>\u000a<li>\u521b\u5efa <code>POST /{index}/{type} {&quot;field&quot;: &quot;value&quot;, ...}</code></li>\u000a<li>\u521b\u5efa/\u66f4\u65b0 <code>PUT /{index}/{type}/{id} {&quot;field&quot;: &quot;value&quot;, ...}</code></li>\u000a<li>\u5224\u65ad\u4e00\u4e2a\u6587\u6863\u662f\u5426\u5b58\u5728 <code>HEAD /{index}/{type}/{id}</code></li>\u000a<li>\u83b7\u53d6\u4e00\u4e2a\u6587\u6863 <code>GET /{index}/{type}/{id}</code></li>\u000a<li>\u5220\u9664 <code>DELETE /{index}/{type}/{id}</code></li>\u000a</ul>\u000a<p>\u8bf4\u660e\u4e00\u4e0b<code>POST</code>\u548c<code>PUT</code>\u7684<a href="http://stackoverflow.com/questions/630453/put-vs-post-in-rest">\u533a\u522b</a>: <code>POST</code> \u6c38\u8fdc\u662f\u521b\u5efa\u65b0\u7684\u3002<code>PUT</code> \u53ef\u4ee5\u8868\u793a\u521b\u5efa\uff0c\u4f46\u662f\u5982\u679c\u6307\u5b9a\u7684URI\u5b58\u5728\uff0c\u5219\u542b\u4e49\u4e3a\u66f4\u65b0\u3002\u6362\u53e5\u8bdd\u8bf4\uff0c\u4e00\u4e2a<code>PUT</code>\u8bf7\u6c42\uff0c\u91cd\u590d\u6267\u884c\uff0c\u7ed3\u679c\u5e94\u8be5\u662f\u4e00\u6837\u7684\u3002\u56e0\u6b64\uff0c\u5728 Elasticsearch \u7684API\uff0c<code>POST</code> \u8868\u793a\u521b\u5efa\u65b0\u7684\u6587\u6863\uff0c\u5e76\u7531 Elasticsearch \u81ea\u52a8\u751f\u6210<code>id</code>; \u800c <code>PUT</code> \u65b9\u6cd5\u9700\u8981\u6307\u5b9a\u6587\u6863<code>id</code>\uff0c\u542b\u4e49\u4e3a&quot;\u521b\u5efa\uff0c\u82e5\u5b58\u5728\u5219\u66f4\u65b0&quot;\u3002</p>\u000a<p>\u53e6\u5916\uff0c\u9700\u8981\u63d0\u4e00\u4e0b\u7248\u672c\u7684\u6982\u5ff5\u3002\u56e0\u4e3a Elasticsearch \u4e2d\u7684\u6587\u6863\u662f\u4e0d\u53ef\u53d8\u7684(immutable)\uff0c\u6240\u4ee5\u6bcf\u4e2a\u6587\u6863\u4f1a\u6709\u4e00\u4e2a \u7248\u672c\u53f7(version)\u5b57\u6bb5\uff0c\u6bcf\u6b21\u66f4\u65b0\uff0c\u5b9e\u9645\u4e0a\u662f\u5c06\u65e7\u7684\u7248\u672c\u6807\u8bb0\u672a\u5220\u9664\uff0c\u5e76\u521b\u5efa\u4e86\u4e00\u4e2a\u65b0\u7248\u672c(\u7248\u672c\u53f7+1)\u3002\u8fd9\u4e2a\u5f00\u9500\u662f\u5f88\u5927\u7684\u3002\u56e0\u6b64\uff0c\u5728\u5b9e\u9645\u4f7f\u7528\u4e2d\uff0c\u9700\u8981\u5c3d\u91cf\u907f\u514d\u9891\u7e41\u7684\u66f4\u65b0\u64cd\u4f5c\u3002</p>\u000a<p>\u4e3a\u4e86\u6ee1\u8db3\u4e00\u4e9b\u590d\u6742\u7684\u6570\u636e\u7edf\u8ba1\uff0c\u4ec5\u4ec5\u4e0a\u8ff0\u7684\u589e\u5220\u6539\u67e5\u662f\u4e0d\u591f\u7684\uff0c\u4e3a\u4e86\u5145\u5206\u4f7f\u7528 Elasticsearch\u7684\u641c\u7d22\u529f\u80fd\uff0c\u8fd8\u9700\u8981\u5b66\u4e60 query DSL \u7684\u4f7f\u7528\u3002query DSL \u5199\u8d77\u6765\u6bd4\u8f83\u590d\u6742\uff0c\u8fd9\u91cc\u4ec5\u4ec5\u5217\u4e3e\u4e00\u4e0b\u548cSQL\u5173\u952e\u5b57\u7684\u5bf9\u5e94\u3002\u5177\u4f53\u4f7f\u7528\u8fd8\u5f97\u53c2\u8003\u6587\u6863\u3002</p>\u000a<pre><code>SQL            | query DSL\u000a-------        | --------\u000a=              | {<span class="hljs-string">"term"</span><span class="hljs-symbol">:</span> {fie<span class="hljs-symbol">ld:</span> val}\u000aIN             | {<span class="hljs-string">"terms"</span><span class="hljs-symbol">:</span> {fie<span class="hljs-symbol">ld:</span> [val, ...]}\u000aLIKE           | {<span class="hljs-string">"wildcard:"</span> {fie<span class="hljs-symbol">ld:</span> pattern}}\u000aBETWEEN <span class="hljs-built_in">AND</span>    | {<span class="hljs-string">"range"</span><span class="hljs-symbol">:</span> {fie<span class="hljs-symbol">ld:</span> {<span class="hljs-string">"gt"</span><span class="hljs-symbol">:</span> val, <span class="hljs-string">"lt"</span><span class="hljs-symbol">:</span> val}}}\u000a<span class="hljs-built_in">AND</span> / <span class="hljs-built_in">OR</span> / <span class="hljs-built_in">NOT</span> | {<span class="hljs-string">"bool"</span><span class="hljs-symbol">:</span> {<span class="hljs-string">"must"</span>/<span class="hljs-string">"should"</span>/<span class="hljs-string">"must_not"</span><span class="hljs-symbol">:</span> ...}\u000aAggregations   | {<span class="hljs-string">"aggs"</span><span class="hljs-symbol">:</span> ...}\u000aJOIN           | {<span class="hljs-string">"nestted"</span>/<span class="hljs-string">"has_child"</span>/<span class="hljs-string">"has_parent"</span><span class="hljs-symbol">:</span> ...}\u000a</code></pre><p>\u968f\u4fbf\u5217\u4e24\u4e2a\u67e5\u8be2\u8bed\u53e5\uff0c\u611f\u53d7\u4e00\u4e0b:</p>\u000a<p><code>SELECT * FROM megacorp.employee WHERE age &gt; 30 AND last_name = &quot;smith&quot;</code></p>\u000a<pre><code>GET /megacorp/employee/_search\u000a{\u000a  <span class="hljs-string">"query"</span>: {\u000a    <span class="hljs-string">"filtered"</span>: {\u000a      <span class="hljs-string">"filter"</span>: {\u000a        <span class="hljs-string">"range"</span>: { <span class="hljs-string">"age"</span>: { <span class="hljs-string">"gt"</span>: <span class="hljs-number">30</span> } }\u000a      },\u000a      <span class="hljs-string">"query"</span>: {\u000a        <span class="hljs-string">"match"</span>: {\u000a          <span class="hljs-string">"last_name"</span>: <span class="hljs-string">"smith"</span>\u000a        }\u000a      }\u000a    }\u000a  }\u000a}\u000a</code></pre><p><code>SELECT interests\uff0cavg(age) FROM megacorp.employee GROUP BY interests</code></p>\u000a<pre><code>GET /megacorp/employee/_search\u000a{\u000a  <span class="hljs-string">"aggs"</span>: {\u000a    <span class="hljs-string">"all_interests"</span>: {\u000a      <span class="hljs-string">"terms"</span>: { <span class="hljs-string">"field"</span>: <span class="hljs-string">"interests"</span> },\u000a      <span class="hljs-string">"aggs"</span>: {\u000a        <span class="hljs-string">"avg_age"</span>: {\u000a          <span class="hljs-string">"avg"</span>: {\u000a            <span class="hljs-string">"field"</span>: <span class="hljs-string">"age"</span>\u000a          }\u000a        }\u000a      }\u000a    }\u000a  }\u000a}\u000a</code></pre><p>\u4ece\u4e2a\u4eba\u7684\u4f7f\u7528\u7ecf\u9a8c\u6765\u8bf4\uff0c\u719f\u7ec3\u638c\u63e1 query DSL \u7684\u96be\u5ea6\u8fd8\u662f\u4e0d\u5c0f\u7684 (\u6bd5\u7adf\u5927\u5bb6\u90fd\u4e60\u60ef\u7684SQL\u7684\u7b80\u6d01\u76f4\u63a5)\u3002\u6b64\u5916\uff0c\u7531\u4e8e\u8f93\u5165\u8f93\u51fa\u90fd\u662f\u5d4c\u5957\u5f88\u6df1\u7684JSON\uff0c\u89e3\u6790\u8d77\u6765\u4e5f\u6bd4\u8f83\u9ebb\u70e6\u3002\u4e3a\u4e86\u964d\u4f4e\u4f7f\u7528\u95e8\u69db\uff0c\u4e00\u822c\u90fd\u4f1a\u6709\u4eceSQL\u7ffb\u8bd1\u7684\u7ec4\u4ef6\u3002\u6bd4\u5982Hive\u4e4b\u4e8eHadoop\uff0cSparkSQL \u4e4b\u4e8e Spark\u3002<a href="http://github.com/NLPchina/elasticsearch-sql">elasticsearch-sql</a>\u8fd9\u4e2a\u9879\u76ee\uff0c\u63d0\u4f9b\u4e86\u7c7b\u4f3c\u4e86SQL\u7ffb\u8bd1\u529f\u80fd\u3002</p>\u000a<p>\u5f53\u7136\uff0cElasticsearch \u6700\u7a81\u51fa\u7684\u5730\u65b9\u5728\u4e8e\u5bf9\u4e8e\u5168\u6587\u641c\u7d22\u7684\u652f\u6301\u3002\u5168\u6587\u641c\u7d22\u7684\u539f\u7406\uff0c\u4ee5\u53ca\u5728 Elasticsearch\u4e2d\u5177\u4f53\u5982\u4f55\u5168\u6587\u641c\u7d22\uff0c\u8fd9\u91cc\u7565\u53bb\u4e0d\u8868\u3002\u4e0b\u9762\u4ecb\u7ecd\u4e0b Elasticsearch \u96c6\u7fa4\u7684\u5b9e\u73b0\u3002</p>\u000a<h2 id="elasticsearch-\u96c6\u7fa4">Elasticsearch \u96c6\u7fa4</h2><p>Elasticsearch \u662f\u5206\u5e03\u5f0f\u7684\u67b6\u6784\uff0c\u53ef\u4ee5\u901a\u8fc7\u65b0\u589e\u8282\u70b9\u7684\u65b9\u5f0f\u6c34\u5e73\u6269\u5bb9\uff0c\u5e76\u63d0\u4f9b\u4e00\u5b9a\u7684\u5bb9\u9519\u6027\u3002\u90a3\u4e48\uff0c\u5b83\u662f\u600e\u4e48\u505a\u5230\u7684\u5462? \u6211\u4eec\u4e00\u4e2a\u4e00\u4e2a\u6982\u5ff5\uff0c\u7ec6\u7ec6\u9053\u6765:</p>\u000a<ul>\u000a<li><p><strong>\u8282\u70b9(node)</strong>: \u662f\u4e00\u4e2a\u72ec\u7acb\u7684 Elasticsearch \u8fd0\u884c\u5b9e\u4f8b\u3002\u53ef\u4ee5\u662f\u4e00\u53f0\u673a\u5668\u4e0a\u591a\u4e2a\u5b9e\u4f8b\uff0c\u5f53\u7136\u66f4\u5e38\u89c1\u7684\u9009\u62e9\u662f\u90e8\u7f72\u5728\u4e0d\u540c\u7684\u673a\u5668\u4e0a\u3002\u591a\u4e2a\u4e92\u901a\u8282\u70b9\u5728\u4e00\u8d77\u7ec4\u6210\u4e86\u4e00\u4e2a <strong>\u96c6\u7fa4 (cluster)</strong>\u3002\u4e0d\u540c\u4e8e\u5e38\u89c1\u7684master/slave\u96c6\u7fa4\u67b6\u6784\uff0cElasticsearch \u96c6\u7fa4\u4e2d\u7684\u8282\u70b9\u662f\u540c\u6784\u7684\uff0c\u6bcf\u4e2a\u8282\u70b9\u90fd\u53ef\u4ee5\u5904\u7406\u8bf7\u6c42\uff0c\u5e76\u5c06\u81ea\u5df1\u4e0d\u80fd\u5904\u7406\u7684\u8bf7\u6c42&quot;\u91cd\u5b9a\u5411&quot;\u5230\u76ee\u6807\u8282\u70b9\u3002</p>\u000a</li>\u000a<li><p><strong>\u7d22\u5f15(index)</strong>: \u4e00\u4e2a\u7d22\u5f15\uff0c\u5206\u6210\u4e86\u591a\u4e2a\u5206\u7247\u3002\u5f53\u5c06\u6587\u6863\u5199\u5165\u4e00\u4e2a\u7d22\u5f15\u65f6\uff0c\u6839\u636eid\u505a\u5207\u5272\uff0c\u4ea4\u7531\u67d0\u4e2a\u5177\u4f53\u7684\u5206\u7247\u53bb\u5b8c\u6210\u5199\u5165\u64cd\u4f5c\u3002\u56e0\u6b64\u8d8a\u591a\u7684\u5206\u7247\u6570\uff0c\u63d0\u4f9b\u4e86\u66f4\u597d\u7684\u5e76\u53d1\u5199\u5165\u6027\u80fd\u3002\u5206\u7247\u6570\u76ee\u5728\u7d22\u5f15\u521b\u5efa\u5c31\u4e0d\u80fd\u66f4\u6539\u3002</p>\u000a</li>\u000a<li><p><strong>\u5206\u7247(shard)</strong>: \u5373\u4e00\u4e2a Lucene \u5b9e\u4f8b\uff0c\u4ece\u6570\u636e\u5e93\u7684\u89d2\u5ea6\u6765\u7406\u89e3\uff0c\u53ef\u4ee5\u89c6\u4e3a\u4e00\u4e2a\u5206\u533a(partition)\u3002</p>\u000a</li>\u000a<li><p><strong>\u955c\u50cf\u5206\u7247(replica)</strong>: \u5206\u7247\u7531\u4e00\u4e2a \u4e3b\u5206\u7247 (primary shard)\uff0c\u548c\u53ef\u914d\u7f6e\u6570\u76ee\u7684\u591a\u4e2a\u955c\u50cf\u5206\u7247\u7ec4\u6210\u3002</p>\u000a<ul>\u000a<li>\u987e\u540d\u601d\u4e49\uff0c\u955c\u50cf\u5206\u7247 \u7684\u6570\u636e\u5185\u5bb9\u548c \u4e3b\u5206\u7247 \u4fdd\u6301\u6570\u636e\u540c\u6b65\u3002\u6570\u636e\u5199\u5165\u8bf7\u6c42\u5728\u4e3b\u5206\u7247\u88ab\u5b8c\u6210\uff0c\u5e76\u7531\u4e3b\u5206\u7247\u5c06\u5199\u5165\u6570\u636e\u63a8\u9001(push)\u5230\u5176\u955c\u50cf\u5206\u7247\u53bb\u3002</li>\u000a<li>\u5728\u591a\u8282\u70b9\u96c6\u7fa4\u91cc\uff0c\u540c\u4e00\u5206\u7247\u7684\u4e3b\u5206\u7247\u548c\u955c\u50cf\u5206\u7247\u88ab\u5206\u6563\u5230\u4e86\u4e0d\u540c\u7684\u8282\u70b9\u3002\u540c\u4e00\u4e2a\u5206\u7247\u91cc\u6587\u6863\u7684\u67e5\u8be2\u8bf7\u6c42\uff0c\u65e2\u53ef\u4ee5\u5728\u4e3b\u5206\u7247\u6240\u5728\u8282\u70b9\u5b8c\u6210\uff0c\u4e5f\u53ef\u4ee5\u5728\u955c\u50cf\u5206\u7247\u8282\u70b9\u5b8c\u6210\u3002</li>\u000a<li>\u6b64\u5916\uff0c\u5f53\u4e3b\u5206\u7247\u6240\u5728\u8282\u70b9\u5931\u6548\u65f6\uff0c\u4f1a\u5c06\u5176\u4e2d\u4e00\u4e2a\u955c\u50cf\u5206\u7247\u63d0\u5347\u4e3a\u4e3b\u5206\u7247\u3002</li>\u000a<li>\u56e0\u6b64\uff0c\u66f4\u9ad8\u7684\u5206\u7247\u955c\u50cf\u6570\u76ee\uff0c\u63d0\u4f9b\u4e86\u66f4\u597d\u7684\u67e5\u8be2\u6548\u7387\uff0c\u4ee5\u53ca\u66f4\u597d\u7684\u5bb9\u9519\u673a\u5236\u3002</li>\u000a</ul>\u000a</li>\u000a</ul>\u000a<p><img src="https://cloud.githubusercontent.com/assets/839287/13384489/f2344cdc-ded0-11e5-8fe0-93c8f634464e.png" alt="cluster"></p>\u000a<p>\u5982\u56fe\uff0c\u4e09\u4e2a\u8282\u70b9\u6784\u6210\u7684\u96c6\u7fa4\u3002\u6709\u4e24\u4e2a\u7d22\u5f15(A\uff0cB)\u3002\u6bcf\u4e2a\u7d22\u5f15\u8bbe\u7f6e\u4e3a3\u4e2a\u5206\u7247\uff0c\u6bcf\u4e2a\u5206\u7247\u955c\u50cf\u6570\u4e3a1:</p>\u000a<ul>\u000a<li>\u7531\u4e8e\u955c\u50cf\u5206\u7247\u4f1a\u5728\u8282\u70b9\u95f4\u5145\u5206\u5e73\u8861\uff0c\u56e0\u6b64\uff0c\u5f53\u4efb\u610f\u4e00\u4e2a\u8282\u70b9\u5931\u6548\u65f6\uff0c\u90fd\u4e0d\u4f1a\u5bfc\u81f4\u6570\u636e\u4e22\u5931</li>\u000a<li>\u7531\u4e8e\u7d22\u5f15\u4e2a\u5206\u7247\u5747\u5300\u5206\u5e03\u5230\u4e09\u4e2a\u8282\u70b9\uff0c\u56e0\u6b64\uff0c\u5199\u5165\u65f6\uff0c\u603b\u4f53\u4e0a\u53ef\u4ee5\u5b9e\u73b0\u4e09\u500d\u6bcf\u4e2a\u8282\u70b9\u7684\u5199\u5165\u541e\u5410</li>\u000a<li>\u5bf9\u4e8e\u6bcf\u4e2a\u7d22\u5f15\u7684\u67e5\u8be2\uff0c\u90fd\u53ef\u4ee5\u5229\u7528\u5230\u6bcf\u53f0\u8282\u70b9\u7684\u8ba1\u7b97\u80fd\u529b</li>\u000a</ul>\u000a<h2 id="lucene-\u662f\u600e\u4e48\u5de5\u4f5c\u7684">Lucene \u662f\u600e\u4e48\u5de5\u4f5c\u7684?</h2><p>\u524d\u9762\u6211\u4eec\u63d0\u5230\uff0cElasticsearch \u662f\u6784\u5efa\u5728 Lucene \u4e4b\u4e0a\u7684\u3002\u90a3\u4e48\uff0cLucene (\u4e5f\u5c31\u662f\u6bcf\u4e2a\u5206\u7247) \u662f\u5982\u4f55\u5b9e\u73b0\u6570\u636e\u7684\u5b9e\u65f6\u5199\u5165\u548c\u67e5\u8be2\u7684\u5462?</p>\u000a<p>\u4e00\u4e2a Lucene \u7531\u591a\u4e2a segment \u6784\u6210\u3002\u6bcf\u4e2a segment \u81ea\u6784\u5efa\u7d22\u5f15\u4fe1\u606f\u3002\u5728\u67e5\u8be2\u7684\u65f6\u5019\uff0c\u5148\u7531\u5206\u53d1\u5230\u6bcf\u4e2a segment \u6267\u884c\uff0c\u7136\u540e\u5c06\u7ed3\u679c\u6c47\u603b\u3002\u6570\u636e\u5199\u5165\u65f6\uff0c\u662f\u6309\u7167 segment \u6765\u7ec4\u7ec7\u7684\u3002\u4e3a\u4e86\u63d0\u9ad8\u5199\u5165\u901f\u5ea6\uff0c\u6570\u636e\u5148\u5199\u5165\u5185\u5b58\uff0c\u7136\u540e\u5728\u5b9a\u671f\u5237\u56de\u78c1\u76d8(commit)\u3002</p>\u000a<p>\u6bcf\u4e2a segment \u6570\u636e\u662f\u4e0d\u53ef\u53d8\u7684\uff0c\u56e0\u6b64\u5220\u9664\u7684\u65f6\u5019\u4ec5\u4ec5\u6807\u8bb0\u4e3a\u5220\u9664\uff0c\u76f8\u5e94\u7684\u6570\u636e\u5e76\u6ca1\u6709\u5f7b\u5e95\u6e05\u9664\u3002\u5728\u5199\u5165\u7684\u8fc7\u7a0b\u4e2d\uff0c\u4f1a\u5b9a\u671f\u5c06 segment \u7684\u6570\u636e\u5408\u5e76\uff0c\u5728\u8fd9\u4e2a\u5408\u5e76\u7684\u8fc7\u7a0b\u4e2d\u5220\u9664\u7684\u6570\u636e\u624d\u771f\u6b63\u88ab\u6e05\u7406\u6389\u3002\u8fd9\u4e5f\u662f\u4e3a\u4ec0\u4e48\u9891\u7e41\u66f4\u65b0\u4f1a\u5bf9\u6027\u80fd\u4e0d\u597d\u7684\u539f\u56e0\u3002\u6700\u4f18\u7684\u60c5\u51b5\u4e0b\uff0c\u6bcf\u4e2a Lucene \u53ea\u6709\u4e00\u4e2a segment\uff0c\u4ece\u800c\u6240\u6709\u67e5\u8be2\u90fd\u4e0d\u9700\u8981\u7ecf\u8fc7\u518d\u6b21\u805a\u5408\u3002\u6211\u4eec\u4e5f\u53ef\u4ee5\u624b\u52a8\u89e6\u53d1 segment \u5408\u5e76\uff0c\u4ece\u800c\u63d0\u9ad8\u5355\u4e2a Lucene \u7684\u67e5\u8be2\u6027\u80fd\u3002</p>\u000a<p>\u5199\u5165\u4ee5\u53ca\u5408\u5e76\u7684\u793a\u610f\u56fe:</p>\u000a<p><img src="https://cloud.githubusercontent.com/assets/839287/13384491/f239c6b2-ded0-11e5-8f12-f51a46efb0ea.png" alt="seg1">\u000a<img src="https://cloud.githubusercontent.com/assets/839287/13384492/f253488a-ded0-11e5-8865-a2be651a9ac0.png" alt="seg2"></p>\u000a<p>\u5982\u679c\u8981\u505a\u7c7b\u6bd4\u7684\u8bdd\uff0c\u6211\u4eec\u53ef\u4ee5\u5c06\u5199\u5165\u7406\u89e3\u4e3a\u6570\u636e\u5e93\u7cfb\u7edf Write-Ahead-Logging (WAL) \u7684\u8fc7\u7a0b\u3002\u53ea\u4e0d\u8fc7\uff0c\u8fd9\u91cc\u5199\u5165\u7684\u6570\u636e\u90fd\u662f\u4e0d\u53d8\u7684\uff0c\u56e0\u6b64\u53ef\u4ee5\u5728\u5199\u5165\u7684\u65f6\u5019\u88ab\u975e\u5e38\u9ad8\u6548\u5730\u7d22\u5f15\uff0c\u5e76\u76f4\u63a5\u57fa\u4e8e\u8fd9\u4e9b&quot;\u65e5\u5fd7&quot;(\u5373segments)\u67e5\u8be2\u3002</p>\u000a<h2 id="\u7d22\u5f15\u7ef4\u5ea6\u7684\u5207\u5272">\u7d22\u5f15\u7ef4\u5ea6\u7684\u5207\u5272</h2><p>\u7531\u4e8e\u6bcf\u4e2a\u7d22\u5f15\u662f\u56fa\u5b9a\u5206\u7247\u6570\u7684\uff0c\u4e3a\u4e86\u4f18\u5316\u67e5\u8be2\uff0c\u6bcf\u4e2a\u5206\u7247 (\u8bb0\u5f97\u662f Lucene \u5b9e\u4f8b) \u7d22\u5f15\u7684\u6570\u636e\u4e0d\u80fd\u591f\u65e0\u9650\u589e\u957f\u3002\u5f88\u591a\u65f6\u5019\uff0c\u6211\u4eec\u7684\u5199\u5165\u7684\u662f\u6309\u5929\u5206\u7684\u65e5\u5fd7\u6570\u636e\u3002\u4e00\u822c\u7684\u505a\u6cd5\u662f\uff0c\u6309\u5929\u7d22\u5f15\u3002\u5728\u65f6\u95f4\u7ef4\u5ea6\u4e0a\u5229\u7528\u7d22\u5f15\u8fdb\u884c\u5206\u533a\uff0cLogstash \u9ed8\u8ba4\u4e3a <code>logstash-2016-02-01\uff0clogstash-2016-02-02\uff0c...</code> \u8fd9\u6837\u6309\u5929\u5206\u8868\u3002\u5728\u67e5\u8be2\u7684\u65f6\u5019\uff0c\u53ef\u4ee5\u6307\u5b9a\u591a\u4e2a\u7d22\u5f15\u67e5\u8be2\uff0c\u5982<code>logstash-*</code>\u7d22\u5f15\u5339\u914d\u3002\u5728\u6709\u65f6\u95f4\u8303\u56f4\u9650\u5b9a\u67e5\u8be2\u7684\u65f6\u5019\uff0c\u53ef\u4ee5\u63d0\u524d\u5bf9\u4e8e\u6f5c\u5728\u7d22\u5f15\u8fc7\u6ee4\uff0c\u4ece\u800c\u51cf\u5c11\u6267\u884c\u67e5\u8be2\u6240\u6d89\u53ca\u7684\u7d22\u5f15\u6570\u76ee\u3002\u8fd9\u4e5f\u662f\u5e38\u89c1\u7684\u6570\u636e\u5e93\u5206\u533a\u67e5\u8be2\u4f18\u5316\u7684\u4e00\u4e2a\u624b\u6bb5\u3002</p>\u000a<h2 id="\u53c2\u8003">\u53c2\u8003</h2><ul>\u000a<li><a href="https://www.elastic.co/guide/en/elasticsearch/guide/master/">Elasticsearch: The Definitive Guide</a> \u5b98\u65b9\u6587\u6863\uff0c\u5543\u900f\u4e86 Elasticsearch \u4e5f\u5c31\u719f\u6089\u4e86</li>\u000a<li><a href="http://www.slideshare.net/gugod/elasticsearch-19877436">Elasticsearch \u5be6\u6230\u4ecb\u7d39</a> \u4ee5\u53ca\u5176\u540e\u5b9d\u8d35\u7684\u5f15\u7528</li>\u000a</ul>\u000a</div>\u000a\u000a    \u000a\u000a    <div class="relate">\u000a    \u000a    \u000a    <a rel="prev" href="/2016/04/145599925.html">\u2190 Ansible Dynamic Inventory \u7684\u4f7f\u7528</a>\u000a    \u000a\u000a    \u000a    \u000a    <a rel="next" href="/2016/01/129715411.html">Alertover - \u514d\u8d39\u597d\u7528\u7684\u56e2\u961f\u6d88\u606f\u5de5\u5177 \u2192</a>\u000a    \u000a    </div>\u000a\u000a    <div class="comment_list hide" id="disqus_thread"></div>\u000a    <div id="duoshuo_thread" class="comment_list hide ds-thread" data-thread-key="137134732" data-title="" data-url=""></div>\u000a\u000a    <button class="hide" data-id="137134732" id="comment">Add Comments</button>\u000a\u000a</div>\u000a\u000a\u000a<div class="footer">\u000a    <div class="center">\u000a        &copy; 2016 Youmi Tech Blog. . <a target="_blank" href="https://github.com/AcyOrt/acyort">AcyOrt</a> . <a target="_blank" href="/rss.xml">RSS</a>\u000a    </div>\u000a</div>\u000a\u000a\u000a\u000a\u000a\u000a<script src="/js/comment.js"></script>\u000a\u000a\u000a</body>\u000a</html>\u000a
p3
a.