(lp0
S'http://lifegoo.pluskid.org/wiki/EmacsAsFileManger.html'
p1
aS'Emacs -- \xe5\xbc\xba\xe5\xa4\xa7\xe7\x9a\x84\xe6\x96\x87\xe4\xbb\xb6\xe7\xae\xa1\xe7\x90\x86\xe5\x99\xa8'
p2
aI0
aV<!DOCTYPE HTML PUBLIC "-//W3C//DTD HTML 4.0 Transitional//EN">\u000a<html>\u000a  <head>\u000a    <title>Emacs -- \u5f3a\u5927\u7684\u6587\u4ef6\u7ba1\u7406\u5668</title>\u000a    <meta name="generator" content="muse.el">\u000a    <meta http-equiv="Content-Type"\u000a          content="text/html; charset=utf-8">\u000a    <LINK REL=StyleSheet HREF="css/style.css" TYPE="text/css">\u000a\u000a    <script src="http://www.google-analytics.com/urchin.js" type="text/javascript">\u000a    </script>\u000a    <script type="text/javascript">\u000a      _uacct = "UA-2502495-1";\u000a      urchinTracker();\u000a    </script>\u000a\u000a  </head>\u000a  <body>\u000a    <a id="top"></a>\u000a    <h1>Emacs -- \u5f3a\u5927\u7684\u6587\u4ef6\u7ba1\u7406\u5668</h1>\u000a<div id="wrap">\u000a<div id="navmenu">\u000a  <h2>Favourite</h2>\u000a  <ul>\u000a    <li><a href="index.html">Home</a></li>\u000a    <li><a href="Emacs.html">Emacs</a></li>\u000a    <li><a href="CommonLisp.html">Common Lisp</a></li>\u000a  </ul>\u000a\u000a  <h2>Unix</h2>\u000a  <ul>\u000a    <li><a href="Linux.html">Linux</a></li>\u000a    <li><a href="Debian.html">Debian</a></li>\u000a  </ul>\u000a\u000a  <h2>Software</h2>\u000a  <ul>\u000a    <li><a href="Emacs.html">Emacs</a></li>\u000a    <li><a href="Sawfish.html">Sawfish</a></li>\u000a    <li><a href="Screen.html">Screen</a></li>\u000a  </ul>\u000a\u000a  <h2>Programming</h2>\u000a  <ul>\u000a    <li><a href="CAndCPlusPlus.html">C/C++</a></li>\u000a    <li><a href="CommonLisp.html">Common Lisp</a></li>\u000a    <li><a href="Scheme.html">Scheme</a></li>\u000a    <li><a href="Python.html">Python</a></li>\u000a  </ul>\u000a\u000a</div>\u000a\u000a<div id="content">\u000a<!-- end header -->\u000a\u000a<!--contents goes here--><div class="contents"><h2>Contents</h2>\u000a<dl>\u000a<dt>\u000a<a href="#sec1">nc.el</a>\u000a</dt>\u000a<dt>\u000a<a href="#sec2">dired</a>\u000a</dt>\u000a<dd>\u000a<dl>\u000a<dt>\u000a<a href="#sec3">Mark &amp; Flag</a>\u000a</dt>\u000a<dt>\u000a<a href="#sec4">\u6587\u4ef6\u64cd\u4f5c</a>\u000a</dt>\u000a<dd>\u000a<dl>\u000a<dt>\u000a<a href="#sec5">\u5e38\u7528\u64cd\u4f5c</a>\u000a</dt>\u000a<dt>\u000a<a href="#sec6">shell \u547d\u4ee4</a>\u000a</dt>\u000a<dt>\u000a<a href="#sec7">\u5f3a\u5927\u7684\u91cd\u547d\u540d\u529f\u80fd</a>\u000a</dt>\u000a</dl>\u000a</dd>\u000a<dt>\u000a<a href="#sec8">\u6392\u5e8f\u548c\u8fc7\u6ee4</a>\u000a</dt>\u000a<dt>\u000a<a href="#sec9">\u5b50\u76ee\u5f55\u64cd\u4f5c</a>\u000a</dt>\u000a<dt>\u000a<a href="#sec10">\u5176\u4ed6\u529f\u80fd</a>\u000a</dt>\u000a</dl>\u000a</dd>\u000a</dl>\u000a</div>\u000a\u000a\u000a    <!-- Page published by Emacs Muse begins here -->\u000a<h2><a name="sec1" id="sec1"></a>\u000anc.el</h2>\u000a\u000a<p class="first">\u5982\u679c\u4f60\u5f88\u559c\u6b22 Norton Commander \u7684\u8bdd\uff0c<a href="http://www.emacswiki.org/cgi-bin/emacs/nc.el">\u8fd9\u4e2a\u6269\u5c55</a>\u6b63\u662f\u5728 <a href="Emacs.html">Emacs</a> \u91cc\u6a21\u62df\u51fa\u000aNorton Commander \u6765\u3002\u529f\u80fd\u6bd4\u8f83\u5f3a\u5927\uff0c\u540c\u65f6\u53c8\u7b80\u5355\u597d\u7528\u3002</p>\u000a\u000a\u000a<h2><a name="sec2" id="sec2"></a>\u000adired</h2>\u000a\u000a<p class="first">dired \u662f <a href="Emacs.html">Emacs</a> \u81ea\u5e26\u7684\u6587\u4ef6\u7ba1\u7406\u5668\uff0c\u64cd\u4f5c\u975e\u5e38\u65b9\u4fbf\uff0c\u518d\u52a0\u4e0a\u4e00\u4e9b\u6269\u5c55\u4e4b\u540e\u65e0\u7591\u662f\u000a\u4e00\u4e2a\u7406\u60f3\u7684\u6587\u4ef6\u7ba1\u7406\u5668\u3002\u770b\u770b\u8fd9\u91cc\u6765\u4e86\u89e3\u5982\u4f55<a href="EnhanceDired.html">\u589e\u5f3a\u4f60\u7684 dired</a> \u3002</p>\u000a\u000a<h3><a name="sec3" id="sec3"></a>\u000aMark &amp; Flag</h3>\u000a\u000a<p class="first">dired \u6700\u65b9\u4fbf\u7684\u4e00\u70b9\u5c31\u662f\u53ef\u4ee5\u5bf9\u8bb8\u591a\u6587\u4ef6\u8fdb\u884c\u6807\u8bb0\uff0c\u5e76\u8fdb\u884c\u6279\u91cf\u64cd\u4f5c\u3002\u6807\u8bb0\u7684\u65b9\u000a\u6cd5\u6709\u5f88\u591a\uff0c\u6700\u666e\u901a\u7684\u6807\u8bb0\u5c31\u662f <code>d</code> \u4e3a\u5f53\u524d\u6587\u4ef6\u8d34\u4e0a\u5220\u9664\u6807\u7b7e\uff0c\u4e4b\u540e\u53ef\u4ee5\u4f7f\u7528 <code>x</code> \u6765\u000a\u771f\u6b63\u5220\u9664\u6240\u6709\u8d34\u4e0a\u5220\u9664\u6807\u7b7e\u7684\u6587\u4ef6\u3002</p>\u000a\u000a<p>dired \u8fd8\u63d0\u4f9b\u4e86\u8bb8\u591a\u9884\u5b9a\u4e49\u7684\u65b9\u4fbf\u7684\u6807\u8bb0\u64cd\u4f5c(\u5f53\u4f7f\u7528 <code>C-u</code> \u4f20\u9012\u4e00\u4e2a\u524d\u7f00\u53c2\u6570\u000a\u65f6\uff0c\u4ed6\u4eec\u6267\u884c\u76f8\u53cd\u64cd\u4f5c\uff0c\u5373\u53bb\u6389\u6807\u8bb0)\uff0c\u4f8b\u5982\uff1a</p>\u000a\u000a<ul>\u000a<li><code>#</code> \u4e3a\u6240\u6709\u81ea\u52a8\u4fdd\u5b58\u7684\u6587\u4ef6(\u901a\u5e38\u662f\u6587\u4ef6\u540d\u5f00\u59cb\u548c\u7ed3\u5c3e\u90fd\u662f <code>#</code> \u7684\u6587\u4ef6)\u8d34\u4e0a\u5220\u9664\u000a\u6807\u7b7e\u3002</li>\u000a<li><code>~</code> \u4e3a\u6240\u6709\u5907\u4efd\u6587\u4ef6(\u5373\u6587\u4ef6\u540d\u4ee5 <code>~</code> \u7ed3\u5c3e\u7684\u6587\u4ef6\uff0c<a href="Emacs.html">Emacs</a> \u548c vi \u7b49\u7f16\u8f91\u5668\u9ed8\u8ba4\u000a\u60c5\u51b5\u4e0b\u90fd\u4f1a\u4ea7\u751f\u8fd9\u6837\u7684\u6587\u4ef6)\u8d34\u4e0a\u5220\u9664\u6807\u7b7e\u3002</li>\u000a<li><code>&amp;</code> \u4e3a\u201c\u5783\u573e\u6587\u4ef6\u201d(\u770b <code>dired-garbage-files-regexp</code> \u7684\u503c\u53ef\u4ee5\u77e5\u9053 dired \u628a\u000a\u54ea\u4e9b\u6587\u4ef6\u5f53\u4f5c\u4e86\u5783\u573e\u6587\u4ef6)\u8d34\u4e0a\u5220\u9664\u6807\u7b7e\u3002</li>\u000a</ul>\u000a\u000a<p>\u901a\u5e38\u8fd9\u4e9b\u547d\u4ee4\u53ef\u4ee5\u65b9\u4fbf\u5730\u5e2e\u4f60\u6e05\u7406\u5783\u573e\uff0c\u5982\u679c\u8fd8\u4e0d\u6ee1\u610f\uff0c\u53ef\u4ee5\u4f7f\u7528 <code>% d REGEXP\u000a&lt;RET&gt;</code> \u6765\u8f93\u5165\u81ea\u5df1\u7684\u6b63\u5219\u8868\u8fbe\u5f0f\uff0c\u5339\u914d\u5230\u7684\u6587\u4ef6\u4f1a\u88ab\u8d34\u4e0a\u5220\u9664\u6807\u7b7e\u3002</p>\u000a\u000a<p>\u5f53\u7136\uff0c\u80fd\u7528\u7684\u6807\u7b7e\u5e76\u4e0d\u6b62\u662f <code>D</code> (\u5373\u5220\u9664\u6807\u7b7e)\uff0c\u51e0\u4e4e\u4efb\u4f55\u4e00\u4e2a\u5b57\u7b26\u90fd\u53ef\u4ee5\u4f7f\u7528\uff0c\u4e0d\u000a\u8fc7\u6700\u5e38\u7528\u7684\u8fd8\u662f <code>*</code> \uff0c <code>m</code> \u547d\u4ee4\u5373\u662f\u4ee5 <code>*</code> \u6807\u8bb0\u5f53\u524d\u6587\u4ef6\u3002\u540c\u6837\uff0cdired \u63d0\u4f9b\u4e86\u5f88\u591a\u000a\u65b9\u4fbf\u7684\u6807\u8bb0\u64cd\u4f5c(\u8fd9\u4e9b\u547d\u4ee4\u5728\u4f20\u9012\u4e00\u4e2a\u524d\u7f00\u53c2\u6570\u7684\u65f6\u5019\u90fd\u4f1a\u6267\u884c\u76f8\u53cd\u7684\u64cd\u4f5c\uff0c\u4f8b\u5982\u000a<code>C-u * *</code> \u4f1a\u53bb\u6389\u6240\u6709\u53ef\u6267\u884c\u6587\u4ef6\u7684\u6807\u8bb0)\uff1a</p>\u000a\u000a<ul>\u000a<li><code>* *</code> \u6807\u8bb0\u6240\u6709\u53ef\u6267\u884c\u6587\u4ef6\u3002</li>\u000a<li><code>* @</code> \u6807\u8bb0\u6240\u6709\u7b26\u53f7\u94fe\u63a5\u3002</li>\u000a<li><code>* /</code> \u6807\u8bb0\u6240\u6709\u76ee\u5f55(\u4e0d\u5305\u62ec <code>.</code> \u548c <code>..</code> )\u3002</li>\u000a<li><code>* s</code> \u6807\u8bb0\u6240\u6709\u6587\u4ef6(\u4e0d\u9ad8\u8003 <code>.</code> \u548c <code>..</code> )\u3002</li>\u000a<li><code>* .</code> \u6807\u8bb0\u5177\u6709\u7ed9\u5b9a\u6269\u5c55\u540d\u7684\u6587\u4ef6\u3002</li>\u000a<li><code>% m REGEXP &lt;RET&gt;</code> \u6216 <code>* % REGEXP &lt;RET&gt;</code> \u6807\u8bb0\u6240\u6709\u5339\u914d\u5230\u7ed9\u5b9a\u7684\u6b63\u5219\u8868\u8fbe\u5f0f\u000a\u7684\u6587\u4ef6\u3002</li>\u000a<li><code>% g REGEXP &lt;RET&gt;</code> \u6807\u8bb0\u6240\u6709\u6587\u4ef6 <strong>\u5185\u5bb9</strong> \u5339\u914d\u5230\u7ed9\u5b9a\u7684\u6b63\u5219\u8868\u8fbe\u5f0f\u7684\u6587\u4ef6\u3002</li>\u000a</ul>\u000a\u000a<p>\u53e6\u5916\uff0c\u8fd8\u6709\u4e00\u4e9b\u76f8\u5173\u7684\u547d\u4ee4\uff1a</p>\u000a\u000a<ul>\u000a<li><code>u</code> \u53bb\u9664\u5f53\u524d\u884c\u7684\u6807\u8bb0\u3002</li>\u000a<li><code>&lt;DEL&gt;</code> \u4e0a\u79fb\u4e00\u884c\u5e76\u53bb\u9664\u8be5\u884c\u7684\u6807\u8bb0\u3002</li>\u000a<li><code>U</code> \u53bb\u9664\u6240\u6709\u6807\u8bb0\u3002</li>\u000a<li><code>* ? MARKCHAR</code> \u6216 <code>M-&lt;DEL&gt;</code> \u53bb\u9664\u6240\u6709\u4ee5 <code>MARKCHAR</code> \u6807\u8bb0\u7684\u6587\u4ef6\u7684\u6807\u8bb0\uff0c\u5982\u679c\u000a\u4f20\u9012\u4e00\u4e2a\u524d\u7f00\u53c2\u6570\uff0c\u5219\u4f1a\u5bf9\u6bcf\u4e00\u4e2a\u6587\u4ef6\u8981\u6c42\u4f60\u786e\u8ba4\u662f\u5426\u53bb\u9664\u6807\u8bb0\u3002</li>\u000a<li><code>t</code> \u4ea4\u6362\u6807\u8bb0\uff0c\u5373\u6240\u6709\u539f\u6765\u6807\u8bb0\u4e3a <code>*</code> \u7684\u6587\u4ef6\u88ab\u7f6e\u4e8e\u672a\u6807\u8bb0\u72b6\u6001\uff0c\u539f\u6765\u672a\u6807\u8bb0\u7684\u000a\u6587\u4ef6\u88ab\u6807\u8bb0\u4e3a <code>*</code> \uff0c\u539f\u6765\u6709\u5176\u4ed6\u6807\u8bb0\u7684\u6587\u4ef6\u4e0d\u53d7\u5f71\u54cd\u3002</li>\u000a</ul>\u000a\u000a<p>\u4e0a\u9762\u7684\u64cd\u4f5c\u90fd\u662f\u4f7f\u7528 <code>*</code> \u8fdb\u884c\u6807\u8bb0\uff0c\u4f46\u662f dired \u53ef\u4ee5\u4f7f\u7528\u66f4\u591a\u7684\u5b57\u7b26\u8fdb\u884c\u6807\u8bb0\uff0c\u000a\u53ea\u662f\u6ca1\u6709\u63d0\u4f9b\u76f8\u5e94\u7684\u5feb\u6377\u952e\u64cd\u4f5c\u800c\u5df2\uff0c\u4f60\u53ef\u4ee5\u5148\u4ee5 <code>*</code> \u6807\u8bb0\uff0c\u7136\u540e\u4f7f\u7528 <code>* c\u000aOLD-MARKCHAR NEW-MARKCHAR</code> \u6765\u628a <code>*</code> \u6807\u8bb0\u53d8\u6362\u6210\u5176\u4ed6\u6807\u8bb0\uff0c\u51e0\u4e4e\u4efb\u4f55\u5b57\u7b26(\u5f53\u7136\u000a\u4e0d\u5305\u62ec\u4e2d\u6587\u8fd9\u79cd\u591a\u5b57\u8282\u7684\u5b57\u7b26)\u90fd\u53ef\u4ee5\u4f5c\u4e3a\u6807\u8bb0\uff0c\u4e0d\u8fc7\u7a7a\u683c\u88ab\u7279\u6b8a\u5bf9\u5f85\uff0c\u7528\u4e8e\u8868\u793a\u000a\u6240\u6709\u672a\u6807\u8bb0\u7684\u6587\u4ef6\u3002</p>\u000a\u000a<p>\u5217\u4e3e\u4e86\u8fd9\u4e48\u591a\u547d\u4ee4\uff0c\u591a\u5c11\u6709\u4e9b\u67af\u71e5\uff0c\u4f5c\u4e3a\u4e00\u4e2a\u4f8b\u5b50\uff0c\u6211\u4eec\u6765\u628a\u5f53\u524d\u76ee\u5f55\u4e0b\u7684\u6240\u6709\u000a\u5907\u4efd\u6587\u4ef6\u79fb\u52a8\u5230 <code>~/backup</code> \u76ee\u5f55\u4e0b\u3002\u5047\u8bbe\u5f53\u524d\u76ee\u5f55\u5df2\u7ecf\u6709\u4e00\u4e9b\u6587\u4ef6\u88ab\u4f60\u4ee5 <code>D</code> \u6807\u000a\u8bb0\uff0c\u4f46\u662f\u6682\u65f6\u8fd8\u4e0d\u60f3\u5220\u9664\uff1a</p>\u000a\u000a<ol>\u000a<li>\u9009\u62e9\u4e2a\u4e34\u65f6\u6807\u8bb0\uff0c\u6bd4\u5982 <code>t</code> \uff0c\u53ea\u8981\u4fdd\u8bc1\u5f53\u524d buffer \u91cc\u9762\u6ca1\u6709\u5df2\u7ecf\u5b58\u5728\u7684\u000a\u8fd9\u79cd\u6807\u8bb0\u5c31\u884c\u4e86\u3002</li>\u000a<li><code>* c D t</code> \u628a\u5f53\u524d\u6240\u6709 <code>D</code> \u6807\u7b7e\u6362\u4e3a <code>t</code> \u6807\u7b7e\u3002</li>\u000a<li><code>~</code> \u4ee5 <code>D</code> \u6807\u8bb0\u6240\u6709\u5907\u4efd\u6587\u4ef6\u3002</li>\u000a<li><code>* c D *</code> \u628a <code>D</code> \u6807\u7b7e\u6362\u4e3a <code>*</code> \u6807\u7b7e\u3002</li>\u000a<li><code>R ~/backup &lt;RET&gt;</code> \u6765\u628a\u6240\u6709\u6807\u8bb0\u4e3a <code>*</code> \u7684\u6587\u4ef6\u79fb\u52a8\u5230 <code>~/backup</code> \u76ee\u5f55\u91cc\u9762\u3002</li>\u000a<li><code>* c t D</code> \u6062\u590d\u539f\u6765\u7684 <code>D</code> \u6807\u8bb0\u3002</li>\u000a</ol>\u000a\u000a<p>\u5f53\u7136\u8fd9\u8981\u5047\u8bbe\u4f60\u539f\u6765\u6ca1\u6709\u8bbe\u5b9a\u5176\u4ed6\u7684 <code>*</code> \u6807\u8bb0\uff0c\u8981\u4e0d\u7136\u4f60\u4e5f\u53ef\u4ee5\u518d\u6dfb\u52a0\u4e00\u4e2a\u4e34\u65f6\u000a\u6807\u8bb0\u3002\u603b\u4e4b\u64cd\u4f5c\u548c\u6e05\u6670\u4e5f\u5f88\u65b9\u4fbf\uff0c\u611f\u89c9\u50cf\u5728\u6c47\u7f16\u8bed\u8a00\u91cc\u9762\u4f7f\u7528\u5bc4\u5b58\u5668\u4e00\u6837\uff0c\u5927\u591a\u000a\u6570\u6279\u91cf\u64cd\u4f5c\u90fd\u662f\u9488\u5bf9 <code>*</code> \u6807\u8bb0\u7684\uff0c\u6240\u4ee5\u5bf9\u67d0\u4e2a\u6807\u8bb0\u64cd\u4f5c\u4e4b\u524d\u9700\u8981\u628a\u4ed6\u5148\u8f6c\u6362\u4e3a <code>*</code>\u000a\u6807\u8bb0\u3002</p>\u000a\u000a<p>\u53e6\u5916\uff0c\u8fd8\u6709\u4e00\u4e2a\u975e\u5e38\u5f3a\u5927\u7684\u6807\u8bb0\u7684\u65b9\u6cd5\uff0c\u7ed1\u5b9a\u5230 <code>M-(</code> \u6216 <code>* (</code> \u4e0a\u3002\u5b83\u53ef\u4ee5\u8ba9\u4f60\u4f7f\u000a\u7528\u65ad\u8a00\u6765\u51b3\u5b9a\u6807\u8bb0\u54ea\u4e9b\u6587\u4ef6\u3002 <code>C-h f dired-mark-sexp RET</code> \u53ef\u4ee5\u5f97\u5230\u8be6\u7ec6\u7684\u6587\u6863\u3002\u000a\u8fd9\u4e2a\u529f\u80fd\u975e\u5e38\u5f3a\u5927\uff0c\u6709\u70b9\u7c7b\u4f3c\u4e8e <a href="UtilFind.html">find</a> \u7a0b\u5e8f\uff0c\u4f8b\u5982\uff0c\u6807\u8bb0\u6240\u6709\u6ca1\u6709\u7f16\u8bd1\u7684<a href="Elisp">Elisp</a>\u000a\u6587\u4ef6(\u5982\u679c\u7f16\u8bd1\u4e86\uff0c\u90a3\u4e48\u4f1a\u6709\u4e00\u4e2a\u540c\u540d\uff0c\u4f46\u662f\u6269\u5c55\u540d\u4e3a <code>.elc</code> \u7684\u6587\u4ef6\u5b58\u5728) \u7684\u65b9\u6cd5\u000a\u662f\u8f93\u5165\u8fd9\u4e2a\u65ad\u8a00\uff1a <code>(and (string-match &quot;\u005c\u005c.el$&quot; name) (not (file-exists-p\u000a(concat name &quot;c&quot;))))</code> \u3002</p>\u000a\u000a\u000a<h3><a name="sec4" id="sec4"></a>\u000a\u6587\u4ef6\u64cd\u4f5c</h3>\u000a\u000a<p class="first">dired \u5185\u5efa\u4e86\u5f88\u591a\u6587\u4ef6\u64cd\u4f5c\uff0c\u5bf9\u4e8e\u64cd\u4f5c\u7684\u6587\u4ef6\u6709\u4e00\u4e2a\u7edf\u4e00\u7684\u7ea6\u5b9a\uff0c\u6309\u7167\u987a\u5e8f\u662f\uff1a</p>\u000a\u000a<ol>\u000a<li>\u5982\u679c\u4f60\u901a\u8fc7 <code>C-u</code> \u4f20\u9012\u4e00\u4e2a\u524d\u7f00\u53c2\u6570 <code>N</code> \uff0c\u90a3\u4e48\u5b83\u5bf9\u4ece\u5f53\u524d\u884c\u5f00\u59cb\u7684 <code>N</code> \u884c\u6267\u000a\u884c\u64cd\u4f5c( <code>N</code> \u4e5f\u53ef\u4ee5\u662f\u8d1f\u6570)\u3002</li>\u000a<li>\u5982\u679c\u6709\u88ab\u6807\u8bb0\u4e3a <code>*</code> \u7684\u6587\u4ef6\uff0c\u5219\u4ee5\u8fd9\u4e9b\u6587\u4ef6\u4e3a\u64cd\u4f5c\u5bf9\u8c61\u3002</li>\u000a<li>\u53ea\u5bf9\u5f53\u524d\u5149\u6807\u6240\u5728\u7684\u6587\u4ef6\u8fdb\u884c\u64cd\u4f5c\u3002</li>\u000a</ol>\u000a\u000a<h4><a name="sec5" id="sec5"></a>\u000a\u5e38\u7528\u64cd\u4f5c</h4>\u000a\u000a<p class="first">\u8fd9\u4e9b\u547d\u4ee4\u5168\u90e8\u7ed1\u5b9a\u5230\u5927\u5199\u5b57\u6bcd\u4e0a\uff0c\u8bb0\u5fc6\u4e5f\u975e\u5e38\u65b9\u4fbf\uff1a</p>\u000a\u000a<ul>\u000a<li><code>C</code> \u62f7\u8d1d\u6587\u4ef6\u3002\u628a <code>dired-recursive-copies</code> \u8bbe\u4e3a\u975e <code>nil</code> \u7684\u503c\u53ef\u4ee5\u9012\u5f52\u62f7\u8d1d\u76ee\u000a\u5f55\uff0c\u901a\u5e38\u6211\u4eec\u8bbe\u5b9a\u4e3a <code>top</code> \uff0c\u8fd9\u8868\u793a\u5bf9\u4e8e\u9876\u5c42\u76ee\u5f55 dired \u4f1a\u5148\u8fdb\u884c\u8be2\u95ee\u662f\u5426\u000a\u8981\u9012\u5f52\u62f7\u8d1d\uff0c\u800c\u5176\u4e2d\u7684\u5b50\u76ee\u5f55\u5219\u4e0d\u518d\u8be2\u95ee\u3002\u5982\u679c\u5acc\u8be2\u95ee\u592a\u9ebb\u70e6\uff0c\u53ef\u4ee5\u76f4\u63a5\u8bbe\u000a\u7f6e\u4e3a <code>always</code> \u3002</li>\u000a<li><code>D</code> \u5220\u9664\u6587\u4ef6\u3002\u7c7b\u4f3c\u7684\u6709\u4e00\u4e2a <code>dired-recursive-deletes</code> \u53d8\u91cf\u53ef\u4ee5\u63a7\u5236\u9012\u5f52\u5220\u000a\u9664\u3002</li>\u000a<li><code>R</code> \u91cd\u547d\u540d\u6587\u4ef6\uff0c\u4e5f\u5c31\u662f\u79fb\u52a8\u6587\u4ef6\u3002</li>\u000a<li><code>H</code> \u521b\u5efa\u786c\u94fe\u63a5\u3002</li>\u000a<li><code>S</code> \u521b\u5efa\u8f6f\u94fe\u63a5\u3002</li>\u000a<li><code>M</code> \u4fee\u6539\u6743\u9650\u4f4d\uff0c\u5373 shell \u91cc\u9762\u7684 chmod \u547d\u4ee4\u3002</li>\u000a<li><code>G</code> \u4fee\u6539\u6587\u4ef6\u6240\u5c5e\u7684\u7ec4\u3002</li>\u000a<li><code>O</code> \u4fee\u6539\u6587\u4ef6\u7684\u6240\u6709\u8005\u3002</li>\u000a<li><code>T</code> \u4fee\u6539\u6587\u4ef6\u7684\u4fee\u6539\u65f6\u95f4\uff0c\u7c7b\u4f3c\u4e8e shell \u547d\u4ee4 touch \u3002</li>\u000a<li><code>P</code> \u6253\u5370\u6587\u4ef6\u3002</li>\u000a<li><code>Z</code> \u538b\u7f29\u6216\u89e3\u538b\u6587\u4ef6\u3002</li>\u000a<li><code>L</code> \u628a <a href="Elisp">Elisp</a> \u6587\u4ef6\u52a0\u8f7d\u8fdb <a href="Emacs.html">Emacs</a> \u3002</li>\u000a<li><code>B</code> \u5bf9 <a href="Elisp">Elisp</a> \u6587\u4ef6\u8fdb\u884c Byte compile \u3002</li>\u000a<li><code>A</code> \u5bf9\u6587\u4ef6\u5185\u5bb9\u8fdb\u884c\u6b63\u5219\u8868\u8fbe\u5f0f\u641c\u7d22\uff0c\u641c\u7d22\u4f1a\u5728\u7b2c\u4e00\u4e2a\u5339\u914d\u7684\u5730\u65b9\u505c\u4e0b\uff0c\u7136\u540e\u000a\u53ef\u4ee5\u4f7f\u7528 <code>M-,</code> \u641c\u7d22\u4e0b\u4e00\u4e2a\u5339\u914d\u3002</li>\u000a<li><code>Q</code> \u5bf9\u6587\u4ef6\u5185\u5bb9\u8fdb\u884c\u4ea4\u4e92\u5f0f\u7684\u6b63\u5219\u8868\u8fbe\u5f0f\u66ff\u6362\u3002</li>\u000a</ul>\u000a\u000a\u000a<h4><a name="sec6" id="sec6"></a>\u000ashell \u547d\u4ee4</h4>\u000a\u000a<p class="first">\u9664\u4e86\u8fd9\u4e9b\u64cd\u4f5c\uff0c\u8fd8\u53ef\u4ee5\u4f7f\u7528 <code>!</code> \u6765\u6267\u884c shell \u547d\u4ee4\u3002<a href="EnhanceDired.html#GuessShell">\u8fd9\u91cc</a>\u4ecb\u7ecd\u4e86\u81ea\u52a8\u731c\u6d4b shell\u000a\u547d\u4ee4\u7684\u529e\u6cd5\uff0c\u5c31\u7c7b\u4f3c\u4e8e\u901a\u5e38\u7684\u6587\u4ef6\u7ba1\u7406\u5668\u91cc\u9762\u4ee5\u5173\u8054\u7684\u7a0b\u5e8f\u6253\u5f00\u4e86\u3002</p>\u000a\u000a\u000a<h4><a name="sec7" id="sec7"></a>\u000a\u5f3a\u5927\u7684\u91cd\u547d\u540d\u529f\u80fd</h4>\u000a\u000a<p class="first">dired \u6709\u4e00\u4e2a\u6587\u4ef6\u540d\u8f6c\u6362\u7684\u7406\u5ff5\uff0c\u6240\u4ee5\u8f6c\u6362\uff0c\u5e76\u4e0d\u4e00\u5b9a\u662f\u91cd\u547d\u540d\uff0c\u8fd8\u53ef\u4ee5\u662f\u590d\u5236\u000a\u548c\u521b\u5efa\u94fe\u63a5\u3002\u6240\u4ee5\uff0c\u9664\u4e86 <code>% u</code> \u548c <code>% l</code> \u91cd\u547d\u540d\u539f\u6587\u4ef6\u4e3a\u5927\u5199\u3001\u5c0f\u5199\u5916\uff0c\u4e00\u4e2a\u4f7f\u7528\u000a\u6b63\u5219\u8868\u8fbe\u5f0f\u8fdb\u884c\u8f6c\u6362\u7684\u547d\u4ee4\u63d0\u4f9b\u4e86\u56db\u4e2a\u9009\u9879\uff1a <code>% X</code> \u5176\u4e2d <code>X</code> \u53ef\u4ee5\u662f <code>R</code> , <code>C</code> , <code>H</code> \u548c\u000a<code>S</code> \uff0c\u5206\u522b\u4ee3\u8868\u91cd\u547d\u540d\u3001\u590d\u5236\u3001\u521b\u5efa\u786c\u94fe\u63a5\u548c\u521b\u5efa\u8f6f\u94fe\u63a5\uff0c\u4ed6\u4eec\u4f7f\u7528\u5339\u914d\u548c\u66ff\u6362\u7684\u000a\u673a\u5236\uff0c\u8fd9\u6709\u70b9\u50cf rename \u8fd9\u4e2a\u7a0b\u5e8f\uff0c\u4f8b\u5982\uff1a <code>% R \u005c.[^.]*$ &lt;RET&gt; .1\u005c&amp; &lt;RET&gt;</code>\u000a\u7ed9\u539f\u6765\u7684\u6587\u4ef6\u540d\u52a0\u4e2a\u6807\u53f7 1 \uff0c\u628a <code>foo.txt</code> \u53d8\u6210 <code>foo.1.txt</code> \u3002</p>\u000a\u000a<p>\u53e6\u5916\uff0cdired \u8fd8\u6709\u4e00\u4e2a\u53eb\u505a Wdired \u7684\u6269\u5c55\u53ef\u4ee5\u76f4\u63a5\u5728 dired \u7684 buffer \u91cc\u9762\u7f16\u000a\u8f91\u6587\u4ef6\u540d\u6765\u8fbe\u5230\u91cd\u547d\u540d\u7684\u6548\u679c\u3002\u4f7f\u7528 <code>M-x wdired-change-to-wdired-mode</code> \u8fdb\u5165\u000a\u7f16\u8f91\u6a21\u5f0f\uff0c\u8fd9\u4e2a\u65f6\u5019\u53ef\u4ee5\u76f4\u63a5\u50cf\u7f16\u8f91\u666e\u901a\u6587\u672c\u4e00\u6837\u7f16\u8f91\u6587\u4ef6\u540d\uff0c\u8fd8\u53ef\u4ee5\u6dfb\u52a0\u8def\u5f84\u000a\u6765\u5b9e\u73b0\u628a\u6587\u4ef6\u79fb\u52a8\u5230\u5176\u4ed6\u76ee\u5f55\u3002\u9664\u4e86\u6587\u4ef6\u540d\u53ef\u4ee5\u7f16\u8f91\u4ee5\u5916\uff0c\u5176\u4ed6\u90e8\u5206\u88ab\u6807\u8bb0\u4e3a\u53ea\u000a\u8bfb\uff0c\u4f46\u662f\u5982\u679c\u628a <code>wdired-allow-to-change-permissions</code> \u8bbe\u4e3a <code>t</code> \u7684\u8bdd\uff0c\u8fd8\u53ef\u4ee5\u000a\u7f16\u8f91\u6587\u4ef6\u7684\u6743\u9650\u4f4d\u3002\u7f16\u8f91\u5b8c\u6210\u4e4b\u540e\u4f7f\u7528 <code>C-c C-c</code> \u6765\u5e94\u7528\u6240\u505a\u7684\u7f16\u8f91\u3002\u975e\u5e38\u65b9\u4fbf\u3002</p>\u000a\u000a\u000a\u000a<h3><a name="sec8" id="sec8"></a>\u000a\u6392\u5e8f\u548c\u8fc7\u6ee4</h3>\u000a\u000a<p class="first">dired \u6709\u65b9\u4fbf\u7684\u6392\u5e8f\u529f\u80fd\uff0c<a href="EnhanceDired.html#Sort">\u8fd9\u91cc</a>\u4ecb\u7ecd\u4e86\u5982\u4f55\u65b9\u4fbf\u5730\u4f7f\u7528\u6392\u5e8f\u529f\u80fd\u3002\u53e6\u5916 dired\u000a\u8fd8\u6709\u4e00\u4e2a <code>k</code> \u7528\u4e8e\u53bb\u6389\u4e0d\u60f3\u663e\u793a\u51fa\u6765\u7684\u6587\u4ef6\uff0c\u5b83\u5e76\u4e0d\u5220\u9664\u78c1\u76d8\u4e0a\u7684\u6587\u4ef6\uff0c\u53ea\u662f\u4e34\u000a\u65f6\u4ece dired \u7684 buffer \u4e2d\u53bb\u6389\u4ed6\u4eec\uff0c <code>g</code> \u5237\u65b0\u4e00\u4e0b\u5b83\u4eec\u53c8\u4f1a\u663e\u793a\u51fa\u6765\uff0c\u8fd9\u6837\uff0c\u9996\u000a\u5148\u7528\u5f3a\u5927\u7684\u6807\u8bb0\u529f\u80fd\u8fdb\u884c\u6807\u8bb0\uff0c\u7136\u540e\u4f7f\u7528 <code>k</code> \u53bb\u6389\uff0c\u5c31\u5b9e\u73b0\u4e86\u8fc7\u6ee4\u7684\u529f\u80fd\u3002</p>\u000a\u000a\u000a<h3><a name="sec9" id="sec9"></a>\u000a\u5b50\u76ee\u5f55\u64cd\u4f5c</h3>\u000a\u000a<p class="first">dired \u5141\u8bb8\u540c\u65f6\u64cd\u4f5c\u5f53\u524d\u76ee\u5f55\u548c\u5b50\u76ee\u5f55\u3002\u5728 <code>dired-listing-switches</code> \u91cc\u9762\u52a0\u5165\u000a<code>R</code> \u9009\u9879\u5c31\u53ef\u4ee5\u663e\u793a\u5b50\u76ee\u5f55\uff0c\u5982\u679c\u53ea\u662f\u60f3\u4e34\u65f6\u663e\u793a\u67d0\u4e2a\u5b50\u76ee\u5f55\u7684\u5185\u5bb9\uff0c\u5bf9\u8be5\u76ee\u5f55\u6267\u000a\u884c <code>i</code> \u64cd\u4f5c\u5c31\u4f1a\u628a\u8be5\u5b50\u76ee\u5f55\u7684\u5185\u5bb9\u6dfb\u52a0\u5230 dired \u5f53\u524d buffer \u7684\u672b\u5c3e\u5e76\u628a\u5149\u6807\u79fb\u000a\u52a8\u5230\u90a3\u91cc\uff0cdired \u5728\u79fb\u52a8\u4e4b\u524d\u4f1a\u5148\u8bbe\u7f6e\u4e00\u4e2a mark \uff0c\u6240\u4ee5\u53ef\u4ee5\u4f7f\u7528 <code>C-u C-&lt;SPC&gt;</code>\u000a(\u5bf9\u4e8e\u6211\u6765\u8bf4\uff0c\u6211\u628a <code>set-mark-command</code> \u7ed1\u5b9a\u5230\u4e86 <code>M-&lt;SPC&gt;</code> \u4e0a\uff0c\u8fd9\u91cc\u81ea\u7136\u5c31\u662f\u4f7f\u000a\u7528 <code>C-u M-&lt;SPC&gt;</code> \u4e86)\u56de\u5230\u539f\u6765\u7684\u4f4d\u7f6e\u3002</p>\u000a\u000a<p>\u5173\u4e8e\u5b50\u76ee\u5f55\u7684\u66f4\u591a\u65b9\u4fbf\u7684\u64cd\u4f5c\u53ef\u4ee5\u53c2\u89c1 <a href="Emacs.html">Emacs</a> \u7684 info \u6587\u6863\u3002</p>\u000a\u000a\u000a<h3><a name="sec10" id="sec10"></a>\u000a\u5176\u4ed6\u529f\u80fd</h3>\u000a\u000a<p class="first">\u8fd8\u6709\u4e00\u4e9b\u65b9\u4fbf\u7684\u529f\u80fd\uff0c\u6211\u628a\u51e0\u4e2a\u5e38\u7528\u7684\u547d\u4ee4\u5217\u5728\u8fd9\u91cc\uff1a</p>\u000a\u000a<ul>\u000a<li><code>+</code> \u521b\u5efa\u76ee\u5f55</li>\u000a<li><code>w</code> \u590d\u5236\u6587\u4ef6\u540d\uff0c\u5982\u679c\u901a\u8fc7 <code>C-u</code> \u4f20\u9012\u4e00\u4e2a\u524d\u7f00\u53c2\u6570 <code>0</code> \uff0c\u5219\u590d\u5236\u51b3\u5b9a\u8def\u5f84\u540d\uff0c\u000a\u5982\u679c\u53ea\u662f <code>C-u</code> \u5219\u590d\u5236\u76f8\u5bf9\u4e8e dired \u5f53\u524d\u76ee\u5f55\u7684\u76f8\u5bf9\u8def\u5f84\u3002</li>\u000a<li><code>I</code> \u628a\u5f53\u524d\u6587\u4ef6\u4ee5 info \u6587\u6863\u7684\u683c\u5f0f\u6253\u5f00\u3002</li>\u000a<li><code>N</code> \u628a\u5f53\u524d\u6587\u4ef6\u4ee5 man \u683c\u5f0f\u6253\u5f00(\u4f7f\u7528 WoMan)\u3002</li>\u000a<li><code>Y</code> \u4e3a\u6240\u6709\u6807\u8bb0\u7684\u6587\u4ef6\u521b\u5efa\u4e00\u4e2a\u5230\u6307\u5b9a\u76ee\u5f55\u7684\u76f8\u5bf9\u7b26\u53f7\u8fde\u63a5(\u5373\u4f7f\u7528\u76f8\u5bf9\u8def\u5f84\u8fdb\u000a\u884c\u5f15\u7528\uff0c\u800c\u4e0d\u662f\u7edd\u5bf9\u8def\u5f84)\u3002</li>\u000a</ul>\u000a\u000a\u000a\u000a<!-- Page published by Emacs Muse ends here -->\u000a  </div>\u000a  </div>\u000a  </body>\u000a</html>\u000a
p3
a.