(lp0
S'http://webpy.org/tutorial3.zh-cn'
p1
aS'web.py 0.3 \xe6\x96\xb0\xe6\x89\x8b\xe6\x8c\x87\xe5\x8d\x97 (web.py)'
p2
aI0
aV<?xml version="1.0" encoding="UTF-8"?>\u000a<!DOCTYPE html PUBLIC "-//W3C//DTD XHTML 1.0 Strict//EN" "http://www.w3.org/TR/xhtml1/DTD/xhtml1-strict.dtd"> \u000a<html><head> \u000a  <meta http-equiv="Content-Type" content="text/html; charset=utf-8">\u000a  <title>web.py 0.3 \u65b0\u624b\u6307\u5357 (web.py)</title> \u000a  <link rel="stylesheet" type="text/css" href="/static/webpy-new.css"/> \u000a  <link rel="SHORTCUT ICON" href="/static/favicon.ico"/> \u000a</head><body> \u000a \u000a        <div id="header"><table class="header"><tr>\u000a                <td class="logo"><a href="/" title="Home"><img src="/static/webpy.gif" alt="" /></a></td> \u000a<td class="blurb">&ldquo;Think about the ideal way to write a web app.<br />Write the code to make it happen.&rdquo; [<a href="/philosophy">more...</a>]</td> </tr>\u000a</table>\u000a        </div> \u000a        <div id="location"> \u000a                <a href="/">home</a> &gt; web.py 0.3 \u65b0\u624b\u6307\u5357\u000a        </div> \u000a<div id="container"> \u000a<div id="sidebar">\u000a<strong>get started:</strong>\u000a<ul class="body">\u000a  <li><a href="/install">install</a></li>\u000a  <li><a href="/docs/0.3/tutorial">tutorial</a></li>\u000a</ul>\u000a<strong>learn more:</strong>\u000a<ul class="body">\u000a<li><a href="/docs/0.3/api">api reference</a></li>\u000a<li><a href="/cookbook/">cookbook</a></li>\u000a<li><a href="/src/">code examples</a></li>\u000a</ul>\u000a\u000a<strong>dive in:</strong>\u000a<ul class="body"> \u000a<li><a href="https://github.com/webpy/webpy">source code</a></li>\u000a<li><a href="http://groups.google.com/group/webpy/">mailing list</a></li>\u000a<li><a href="https://github.com/webpy/webpy/issues">issue tracker</a></li>\u000a</ul>\u000a</div>\u000a\u000a<div id="main"> \u000a<div id="content" class="body"> \u000a<h1>web.py 0.3 \u65b0\u624b\u6307\u5357</h1>\u000a\u000a<ul>\u000a<li><a href="#starting">\u5f00\u59cb</a></li>\u000a<li><a href="#urlhandling">URL\u5904\u7406</a></li>\u000a<li><a href="#getpost">GET\u548cPOST\u7684\u533a\u522b</a></li>\u000a<li><a href="#start">\u542f\u52a8\u670d\u52a1</a></li>\u000a<li><a href="#templating">\u6a21\u677f</a></li>\u000a<li><a href="#forms">\u8868\u5355</a></li>\u000a<li><a href="#databasing">\u6570\u636e\u5e93</a></li>\u000a<li><a href="#developing">\u5f00\u53d1</a></li>\u000a<li><a href="#whatnext">\u4e0b\u4e00\u6b65\u505a\u4ec0\u4e48?</a></li>\u000a</ul>\u000a\u000a\u000a<h2>\u5f00\u59cb</h2>\u000a\u000a<p>\u4f60\u77e5\u9053Python\u540c\u65f6\u4f60\u5e0c\u671b\u5236\u4f5c\u4e00\u4e2a\u7f51\u7ad9\u3002 \u90a3\u4e48web.py\u6b63\u597d\u63d0\u4f9b\u4e86\u4e00\u79cd\u7b80\u5355\u7684\u65b9\u6cd5\u3002</p>\u000a\u000a<p>\u5982\u679c\u4f60\u5e0c\u671b\u8bfb\u5b8c\u6574\u4e2a\u6307\u5357\uff0c \u4f60\u9700\u8981\u5b89\u88c5Python, web.py, flup, psycopg2, \u548cPostgres (\u6216\u8005\u7b49\u4ef7\u7684\u6570\u636e\u5e93\u548cPython\u9a71\u52a8)\u3002 \u8be6\u7ec6\uff0c\u53ef\u4ee5\u67e5\u770b <a href="http://webpy.org/">webpy.org</a>.</p>\u000a\u000a<p>\u5982\u679c\u4f60\u5df2\u7ecf\u6709\u4e86\u4e00\u4e2aweb.py\u9879\u76ee\uff0c\u8bf7\u770b\u770b<a href="/docs/0.3/upgrade">\u5347\u7ea7</a> \u9875\u9762\u7684\u76f8\u5173\u4fe1\u606f\u3002</p>\u000a\u000a<p>\u51c6\u5907\u5f00\u59cb\u3002</p>\u000a\u000a<p><a name="urlhandling"> </a></p>\u000a\u000a<h2>URL \u5904\u7406</h2>\u000a\u000a<p>\u4efb\u4f55\u7f51\u7ad9\u6700\u91cd\u8981\u7684\u90e8\u5206\u5c31\u662f\u5b83\u7684URL\u7ed3\u6784\u3002\u4f60\u7684URL\u5e76\u4e0d\u4ec5\u4ec5\u53ea\u662f\u8bbf\u95ee\u8005\u6240\u80fd\u770b\u5230\u5e76\u4e14\u80fd\u53d1\u7ed9\u670b\u53cb\u7684\u3002\u5b83\u8fd8\u89c4\u5b9a\u4e86\u4f60\u7f51\u7ad9\u8fd0\u884c\u7684\u5fc3\u667a\u6a21\u578b\u3002\u5728\u4e00\u4e9b\u7c7b\u4f3c<a href="http://del.icio.us/">del.icio.us</a>\u7684\u6d41\u884c\u7f51\u7ad9 , URL\u751a\u81f3\u662fUI\u7684\u4e00\u90e8\u5206\u3002 web.py\u4f7f\u8fd9\u7c7b\u5f3a\u5927\u7684URL\u6210\u4e3a\u53ef\u80fd\u3002</p>\u000a\u000a<p>\u5728\u5f00\u59cb\u4f60\u7684web.py\u7a0b\u5e8f\u4e4b\u524d,\u6253\u5f00\u4e00\u4e2a\u6587\u672c\u6587\u4ef6\uff08\u6587\u4ef6\u540d\u4e3acode.py\uff09\u8f93\u5165:</p>\u000a\u000a<pre><code>import web\u000a</code></pre>\u000a\u000a<p>\u8fd9\u6761\u8bed\u53e5\u4f1a\u5bfc\u5165web.py\u6a21\u5757\u3002</p>\u000a\u000a<p>\u73b0\u5728\u6211\u4eec\u9700\u8981\u628a\u6211\u4eec\u7684URL\u7ed3\u6784\u544a\u8bc9web.py\u3002\u8ba9\u6211\u4ece\u4e0b\u9762\u8fd9\u4e2a\u7b80\u5355\u7684\u4f8b\u5b50\u5f00\u59cb:</p>\u000a\u000a<pre><code>urls = (\u000a  '/', 'index'\u000a)\u000a</code></pre>\u000a\u000a<p>\u7b2c\u4e00\u90e8\u5206\u662f\u5339\u914dURL\u7684<a href="http://osteele.com/tools/rework/">\u6b63\u5219\u8868\u8fbe\u5f0f</a>\uff0c\u50cf<code>/</code>\u3001<code>/help/faq</code>\u3001<code>/item/(\u005cd+)</code>\u7b49(<code>\u005cd+</code>\u5c06\u5339\u914d\u6570\u5b57)\u3002\u5706\u62ec\u53f7\u8868\u793a\u6355\u6349\u5bf9\u5e94\u7684\u6570\u636e\u4ee5\u4fbf\u540e\u9762\u4f7f\u7528\u3002\u7b2c\u4e8c\u90e8\u5206\u662f\u63a5\u53d7\u8bf7\u6c42\u7684\u7c7b\u540d\u79f0\uff0c\u50cf<code>index</code>\u3001<code>view</code>\u3001<code>welcomes.hello</code> (<code>welcomes</code>\u6a21\u5757\u7684<code>hello</code>\u7c7b)\uff0c\u6216\u8005<code>get_\u005c1</code>\u3002<code>\u005c1</code> \u4f1a\u88ab\u6b63\u5219\u8868\u8fbe\u5f0f\u6355\u6349\u5230\u7684\u5185\u5bb9\u66ff\u6362\uff0c\u5269\u4e0b\u6765\u6355\u6349\u7684\u7684\u5185\u5bb9\u5c06\u88ab\u4f20\u9012\u5230\u4f60\u7684\u51fd\u6570\u4e2d\u53bb\u3002</p>\u000a\u000a<p>\u8fd9\u884c\u8868\u793a\u6211\u4eec\u8981URL<code>/</code>(\u9996\u9875)\u88ab\u4e00\u4e2a\u53eb<code>index</code>\u7684\u7c7b\u5904\u7406\u3002</p>\u000a\u000a<p>\u73b0\u5728\u6211\u4eec\u9700\u8981\u521b\u5efa\u4e00\u4e2a\u5217\u4e3e\u8fd9\u4e9burl\u7684application\u3002</p>\u000a\u000a<pre><code>app = web.application(urls, globals())\u000a</code></pre>\u000a\u000a<p>\u8fd9\u4f1a\u544a\u8bc9web.py\u53bb\u521b\u5efa\u4e00\u4e2a\u57fa\u4e8e\u6211\u4eec\u521a\u63d0\u4ea4\u7684URL\u5217\u8868\u7684application\u3002\u8fd9\u4e2aapplication\u4f1a\u5728\u8fd9\u4e2a\u6587\u4ef6\u7684\u5168\u5c40\u547d\u540d\u7a7a\u95f4\u4e2d\u67e5\u627e\u5bf9\u5e94\u7c7b\u3002</p>\u000a\u000a<p><a name="getpost"> </a></p>\u000a\u000a<h2>GET\u548cPOST: \u533a\u522b</h2>\u000a\u000a<p>\u73b0\u5728\u6211\u4eec\u9700\u8981\u6765\u5199<code>index</code>\u7c7b\u3002\u867d\u7136\u5927\u591a\u6570\u4eba\u53ea\u4f1a\u770b\u770b\uff0c\u5e76\u4e0d\u4f1a\u6ce8\u610f\u4f60\u7684\u6d4f\u89c8\u5668\u5728\u4f7f\u7528\u7528\u4e8e\u4e0e\u4e07\u7ef4\u7f51\u901a\u4fe1\u7684HTTP\u8bed\u8a00\u3002\u5177\u4f53\u7684\u7ec6\u8282\u5e76\u4e0d\u91cd\u8981\uff0c\u4f46\u662f\u8981\u7406\u89e3web\u8bbf\u95ee\u8005\u8bf7\u6c42web\u670d\u52a1\u5668\u53bb\u6839\u636eURL(\u50cf<code>/</code>\u3001<code>/foo?f=1</code>)\u6267\u884c\u4e00\u4e2a\u5408\u9002\u7684\u51fd\u6570\uff08\u50cf<code>GET</code>\u3001<code>POST</code>\uff09\u7684\u57fa\u672c\u601d\u60f3\u3002</p>\u000a\u000a<p><code>GET</code>\u662f\u6211\u4eec\u90fd\u719f\u6089\u7684\u3002\u5b83\u7528\u4e8e\u8bf7\u6c42\u7f51\u9875\u6587\u672c\u3002\u5f53\u4f60\u5728\u6d4f\u89c8\u5668\u8f93\u5165<code>harvard.edu</code>\uff0c\u5b83\u4f1a\u76f4\u63a5\u8bbf\u95eeHarvard\u7684web\u670d\u52a1\u5668\uff0c\u53bb<code>GET /</code>\u3002 \u7b2c\u4e8c\u4e2a\u6700\u6709\u540d\u7684\u662f<code>POST</code>\uff0c\u5b83\u7ecf\u5e38\u88ab\u7528\u5728\u63d0\u4ea4form\uff0c\u6bd4\u5982\u8bf7\u6c42\u4e70\u4ec0\u4e48\u4e1c\u897f\u3002\u6bcf\u5f53\u63d0\u4ea4\u4e00\u4e2a\u53bb\u505a\u4ec0\u4e48\u4e8b\u60c5(\u50cf\u4f7f\u7528\u4fe1\u7528\u5361\u5904\u7406\u4e00\u7b14\u4ea4\u6613)\u7684\u8bf7\u6c42\u65f6\uff0c\u4f60\u53ef\u4ee5\u4f7f\u7528<code>POST</code>\u3002\u8fd9\u662f\u5173\u952e\uff0c\u56e0\u4e3a<code>GET</code>\u7684URL\u53ef\u4ee5\u88ab\u641c\u7d22\u5f15\u64ce\u7d22\u5f15\uff0c\u5e76\u901a\u8fc7\u641c\u7d22\u5f15\u64ce\u8bbf\u95ee\u3002\u867d\u7136\u5927\u90e8\u5206\u9875\u9762\u4f60\u5e0c\u671b\u88ab\u7d22\u5f15\uff0c\u4f46\u662f\u5c11\u6570\u7c7b\u4f3c\u8ba2\u5355\u5904\u7406\u7684\u9875\u9762\u4f60\u662f\u4e0d\u5e0c\u671b\u88ab\u7d22\u5f15\u7684 (\u60f3\u8c61\u4e00\u4e0bGoogle\u5c1d\u8bd5\u53bb\u8d2d\u4e70\u4f60\u7f51\u7ad9\u4e0a\u7684\u6240\u6709\u4e1c\u897f)\u3002</p>\u000a\u000a<p>\u5728\u6211\u4eecweb.py\u7684\u4ee3\u7801\u4e2d\uff0c\u6211\u4eec\u5c06\u8fd9\u4e24\u4e2a\u65b9\u6cd5\u660e\u786e\u533a\u5206:</p>\u000a\u000a<pre><code>class index:\u000a    def GET(self):\u000a        return "Hello, world!"\u000a</code></pre>\u000a\u000a<p>\u5f53\u6709\u4eba\u7528<code>GET</code>\u8bf7\u6c42<code>/</code>\u65f6\uff0c\u8fd9\u4e2a<code>GET</code>\u51fd\u6570\u968f\u65f6\u4f1a\u88abweb.py\u8c03\u7528\u3002</p>\u000a\u000a<p>\u597d\u4e86\uff0c\u9650\u5236\u6211\u4eec\u53ea\u9700\u8981\u6700\u540e\u4e00\u53e5\u5c31\u5199\u5b8c\u4e86\u3002\u8fd9\u884c\u4f1a\u544a\u8bc9web.py\u5f00\u59cb\u63d0\u4f9bweb\u9875\u9762:</p>\u000a\u000a<pre><code>if __name__ == "__main__": app.run()\u000a</code></pre>\u000a\u000a<p>\u8fd9\u4f1a\u544a\u8bc9web.py\u4e3a\u6211\u4eec\u542f\u52a8\u4e0a\u9762\u6211\u4eec\u5199\u7684\u5e94\u7528\u3002</p>\u000a\u000a<p>\u73b0\u5728\u6ce8\u610f\uff0c\u5373\u4f7f\u6211\u5df2\u7ecf\u5728\u8fd9\u91cc\u8bf4\u4e86\u5f88\u591a\uff0c\u4f46\u6211\u4eec\u771f\u6b63\u67095\u884c\u8fd9\u4e9b\u4ee3\u7801\u3002\u8fd9\u5c31\u662f\u4f60\u9700\u8981\u7f16\u5199\u7684\u4e00\u4e2a\u5b8c\u6574\u7684web.py\u5e94\u7528\u3002\u000a\u4e3a\u4e86\u66f4\u65b9\u4fbf\u7684\u4f7f\u7528\uff0c\u4f60\u7684\u5b8c\u6574\u4ee3\u7801\u5e94\u8be5\u50cf\u4e0b\u9762\u8fd9\u6837:</p>\u000a\u000a<pre><code>import web\u000a\u000aurls = (\u000a    '/', 'index'\u000a)\u000a\u000aclass index:\u000a    def GET(self):\u000a        return "Hello, world!"\u000a\u000aif __name__ == "__main__":\u000a    app = web.application(urls, globals())\u000a    app.run()\u000a</code></pre>\u000a\u000a<p><a name="start"> </a></p>\u000a\u000a<h2>\u542f\u52a8\u670d\u52a1</h2>\u000a\u000a<p> \u5982\u679c\u4f60\u5728\u547d\u4ee4\u884c\u4e0b\u9762\uff0c\u8bf7\u8f93\u5165::\u000a    $ python code.py\u000a    http://0.0.0.0:8080/</p>\u000a\u000a<p>\u73b0\u5728\u4f60\u7684web.py\u5e94\u7528\u6b63\u8fd0\u884c\u5728\u4f60\u7535\u8111\u4e0a\u7684\u4e00\u4e2a\u771f\u6b63\u7684web\u670d\u52a1\u5668\u4e0a\u3002 \u8bbf\u95ee\u90a3\u4e2aURL\uff0c\u7136\u540e\u4f60\u5e94\u8be5\u770b\u5230"Hello, world!" (\u4f60\u53ef\u4ee5\u901a\u8fc7\u628aIP\u5730\u5740/\u7aef\u53e3\u52a0\u5728"code.py"\u7684\u540e\u9762\uff0c\u6765\u63a7\u5236web.py\u5728\u54ea\u91cc\u542f\u52a8\u670d\u52a1\u5668\u3002\u4f60\u4e5f\u53ef\u4ee5\u8ba9\u5b83\u8fd0\u884c\u5728<code>fastcgi</code>\u6216<code>scgi</code>\u670d\u52a1\u5668\u4e0a)\u3002</p>\u000a\u000a<p><strong>\u6ce8\u610f:</strong> \u5982\u679c\u4f60\u4e0d\u80fd\u6216\u8005\u4e0d\u60f3\u4f7f\u7528\u9ed8\u8ba4\u7aef\u53e3\uff0c\u4f60\u53ef\u4ee5\u4f7f\u7528\u8fd9\u6837\u7684\u547d\u4ee4\u6765\u6307\u5b9a\u7aef\u53e3\u53f7:</p>\u000a\u000a<pre><code>$ python code.py 1234\u000a</code></pre>\u000a\u000a<p><a name="templating"> </a></p>\u000a\u000a<h2>\u6a21\u677f</h2>\u000a\u000a<p>\u5728 Python \u4e2d\u5199 HTML \u4e0d\u662f\u806a\u660e\u7684\u9009\u62e9\uff0c\u76f8\u53cd\u5728 HTML \u4e2d\u5199 Python \u5219\u6709\u8da3\u7684\u591a\u3002\u5e78\u8fd0\u7684\u662f\uff0c<code>web.py</code> \u8ba9\u8fd9\u4ef6\u4e8b\u60c5\u505a\u5f97\u7b80\u5355\u800c\u53c8\u6f02\u4eae\u3002</p>\u000a\u000a<p><strong>\u6ce8\u610f\uff1a</strong> \u8001\u7248\u672c\u7684 <code>web.py</code> \u4f7f\u7528 <a href="http://www.cheetahtemplate.org/">Cheetah \u6a21\u677f\u7cfb\u7edf</a>\uff0c\u4f60\u53ef\u4ee5\u4e5f\u6b22\u8fce\u4f7f\u7528\u5176\u4ed6\u6a21\u677f\u7cfb\u7edf\uff0c\u4f46\u5b83\u53ef\u80fd\u4e0d\u4f1a\u88ab\u957f\u4e45\u652f\u6301\u3002</p>\u000a\u000a<p>\u7ed9\u6a21\u677f\u65b0\u5efa\u4e00\u4e2a\u76ee\u5f55\uff08\u547d\u540d\u4e3a <code>templates</code>\uff09\uff0c\u5728\u8be5\u76ee\u5f55\u4e0b\u65b0\u5efa\u4e00\u4e2a\u4ee5 <code>.html</code> \u7ed3\u5c3e\u7684\u6587\u4ef6\uff0c\u5185\u5bb9\u5982\u4e0b\uff1a</p>\u000a\u000a<pre><code>&lt;em&gt;Hello&lt;/em&gt;, world!\u000a</code></pre>\u000a\u000a<p>\u4f60\u4e5f\u53ef\u4ee5\u5728\u6a21\u677f\u4e2d\u4f7f\u7528 <code>web.py</code> \u6a21\u677f\u652f\u6301\u4ee3\u7801\uff1a</p>\u000a\u000a<pre><code>$def with (name)\u000a\u000a$if name:\u000a    I just wanted to say &lt;em&gt;hello&lt;/em&gt; to $name.\u000a$else:\u000a    &lt;em&gt;Hello&lt;/em&gt;, world!\u000a</code></pre>\u000a\u000a<p>\u5982\u4e0a\uff0c\u8be5\u6a21\u677f\u770b\u8d77\u6765\u5c31\u50cf python \u6587\u4ef6\u4e00\u6837\uff0c\u9664\u4e86\u9876\u90e8\u7684 <code>def with</code> (\u8868\u793a\u4ece\u6a21\u677f\u5c06\u4ece\u8fd9\u540e\u9762\u53d6\u503c)\u548c\u603b\u662f\u4f4d\u4e8e\u4ee3\u7801\u6bb5\u4e4b\u524d\u7684<code>$</code>\u3002\u5f53\u524d\uff0c<code>template.py</code> \u9996\u5148\u8bf7\u6c42\u6a21\u677f\u6587\u4ef6\u7684\u9996\u884c <code>$def</code> \u3002\u5f53\u7136\uff0c\u4f60\u8981\u6ce8\u610f <code>web.py</code> \u5c06\u4f1a\u8f6c\u4e49\u4efb\u4f55\u4efb\u4f55\u7528\u5230\u7684\u53d8\u91cf\uff0c\u6240\u4ee5\u5f53\u4f60\u5c06 <code>name</code> \u7684\u503c\u8bbe\u4e3a\u662f\u4e00\u6bb5 HTML \u65f6\uff0c\u5b83\u4f1a\u88ab\u8f6c\u4e49\u663e\u793a\u6210\u7eaf\u6587\u672c\u3002\u5982\u679c\u8981\u5173\u95ed\u8be5\u9009\u9879\uff0c\u53ef\u4ee5\u5199\u6210 <code>$:name</code> \u6765\u4ee3\u66ff <code>$name</code>\u3002</p>\u000a\u000a<p>\u56de\u770b\u518d\u770b <code>code.py</code>\u3002\u5728\u7b2c\u4e00\u884c\u4e4b\u4e0b\u6dfb\u52a0\uff1a</p>\u000a\u000a<pre><code>render = web.template.render('templates/')\u000a</code></pre>\u000a\u000a<p>\u8fd9\u4f1a\u544a\u8bc9web.py\u5230\u4f60\u7684\u6a21\u677f\u76ee\u5f55\u4e2d\u53bb\u67e5\u627e\u6a21\u677f\u3002\u7136\u540e\u628a <code>index.GET</code>\u6539\u6210:\u000a\u544a\u8bc9 <code>web.py</code> \u5728\u4f60\u7684\u6a21\u677f\u76ee\u5f55\u4e0b\u67e5\u627e\u6a21\u677f\u6587\u4ef6\u3002\u4fee\u6539 <code>index.GET</code> \uff1a</p>\u000a\u000a<pre><code>name = 'Bob'    \u000areturn render.index(name)\u000a</code></pre>\u000a\u000a<p>\uff08'index' \u662f\u6a21\u677f\u7684\u540d\u5b57\uff0c'name' \u662f\u4f20\u5165\u6a21\u677f\u7684\u4e00\u4e2a\u53c2\u6570\uff09</p>\u000a\u000a<p>\u8bbf\u95ee\u7ad9\u70b9\u5b83\u5c06\u663e\u793a hello Bob\u3002</p>\u000a\u000a<p>\u4f46\u662f\u5982\u679c\u6211\u4eec\u60f3\u8ba9\u7528\u6237\u81ea\u884c\u8f93\u5165\u4ed6\u7684\u540d\u5b57\uff0c\u4e48\u529e\uff1f\u5982\u4e0b\uff1a</p>\u000a\u000a<pre><code>i = web.input(name=None)\u000areturn render.index(i.name)\u000a</code></pre>\u000a\u000a<p>\u8bbf\u95ee <code>/</code> \u5c06\u663e\u793a hello world\uff0c\u8bbf\u95ee <code>/?name=Joe</code> \u5c06\u663e\u793a hello Joe\u3002</p>\u000a\u000a<p>URL \u7684\u540e\u9762\u7684 <code>?</code> \u770b\u8d77\u6765\u4e0d\u597d\u770b\uff1f\u4fee\u6539\u4e0b URL \u914d\u7f6e\uff1a</p>\u000a\u000a<pre><code>'/(.*)', 'index'\u000a</code></pre>\u000a\u000a<p>\u7136\u540e\u4fee\u6539\u4e0b <code>index.GET</code>\uff1a</p>\u000a\u000a<pre><code>def GET(self, name):\u000a    return render.index(name)\u000a</code></pre>\u000a\u000a<p>\u73b0\u5728\u8bbf\u95ee <code>/Joe</code> \u770b\u770b\uff0c\u5b83\u4f1a\u663e\u793a hello Joe\u3002</p>\u000a\u000a<p>\u5982\u679c\u5b66\u4e60\u66f4\u591a\u5173\u4e8e web.py \u7684\u6a21\u677f\u5904\u7406\uff0c\u8bf7\u8bbf\u95ee <a href="/docs/0.3/templetor">web.py \u6a21\u677f</a>.</p>\u000a\u000a<p><a name="forms"> </a></p>\u000a\u000a<h2>\u8868\u5355</h2>\u000a\u000a<p>web.py\u7684form\u6a21\u5757\u80fd\u591f\u5e2e\u52a9\u4f60\u751f\u6210HTML\u8868\u5355\uff1b\u83b7\u53d6\u7528\u6237\u7684\u8f93\u5165\uff0c\u5e76\u5728\u5904\u7406\u6216\u6dfb\u52a0\u5230\u6570\u636e\u5e93\u4e4b\u524d\u5bf9\u5176\u8fdb\u884c\u5185\u5bb9\u7684\u9a8c\u8bc1\u3002\u000a\u5982\u679c\u4f60\u8981\u5b66\u4e60\u66f4\u591a\u5173\u4e8eform\u6a21\u5757\u7684\u4f7f\u7528\uff0c\u8bf7\u67e5\u770b<a href="/docs/0.3">\u5e2e\u52a9\u6587\u6863</a>\u6216\u8005<a href="/form">Form</a>\u7c7b\u5e93\u7684\u94fe\u63a5</p>\u000a\u000a<p><a name="databasing"> </a></p>\u000a\u000a<h2>\u6570\u636e\u5e93\u64cd\u4f5c</h2>\u000a\u000a<p><strong>\u6ce8\u610f:</strong> \u5728\u4f60\u5f00\u59cb\u4f7f\u7528\u6570\u636e\u5e93\u4e4b\u524d\uff0c\u786e\u4fdd\u4f60\u5df2\u7ecf\u5b89\u88c5\u4e86\u5408\u9002\u7684\u6570\u636e\u5e93\u8bbf\u95ee\u5e93\u3002\u6bd4\u5982\u5bf9\u4e8eMySQL\u6570\u636e\u5e93\uff0c\u4f7f\u7528 <a href="http://sourceforge.net/project/showfiles.php?group_id=22307">MySQLdb</a> \uff0c\u5bf9\u4e8ePostgres\u6570\u636e\u5e93\u4f7f\u7528<a href="http://initd.org/pub/software/psycopg/">psycopg2</a>\u3002</p>\u000a\u000a<p>\u9996\u5148\u4f60\u9700\u8981\u521b\u5efa\u4e00\u4e2a\u6570\u636e\u5e93\u5bf9\u8c61\u3002</p>\u000a\u000a<pre><code>db = web.database(dbn='postgres', user='username', pw='password', db='dbname')\u000a</code></pre>\u000a\u000a<p>(\u6839\u636e\u9700\u8981\u4fee\u6539\u8fd9\u91cc -- \u5c24\u5176\u662f<code>username</code> \u3001 <code>password</code> \u3001 <code>dbname</code> -- \u3002 MySQL\u7528\u6237\u8fd8\u9700\u8981\u628a <code>dbn</code> \u5b9a\u4e49\u6539\u4e3a <code>mysql</code>\u3002)</p>\u000a\u000a<p>\u8fd9\u5c31\u662f\u6240\u6709\u4f60\u9700\u8981\u505a\u7684 -- web.py\u5c06\u4f1a\u81ea\u52a8\u5904\u7406\u4e0e\u6570\u636e\u5e93\u7684\u8fde\u63a5\u548c\u65ad\u5f00\u3002</p>\u000a\u000a<p>\u4f7f\u7528\u7684\u7684\u6570\u636e\u5e93\u5f15\u64ce\u7ba1\u7406\u5de5\u5177\uff0c\u5728\u4f60\u7684\u5e93\u4e2d\u521b\u5efa\u4e00\u4e2a\u7b80\u5355\u7684\u8868:</p>\u000a\u000a<pre><code>CREATE TABLE todo (\u000a  id serial primary key,\u000a  title text,\u000a  created timestamp default now(),\u000a  done boolean default 'f'    );\u000a</code></pre>\u000a\u000a<p>\u7136\u540e\u521d\u59cb\u5316\u884c:</p>\u000a\u000a<pre><code>INSERT INTO todo (title) VALUES ('Learn web.py');\u000a</code></pre>\u000a\u000a<p>\u6211\u4eec\u56de\u6765\u7ee7\u7eed\u7f16\u8f91 <code>code.py</code> \uff0c\u628a <code>index.GET</code> \u6539\u6210\u4e0b\u9762\u7684\u6837\u5b50\uff0c\u66ff\u6362\u6574\u4e2a\u51fd\u6570:</p>\u000a\u000a<pre><code>def GET(self):\u000a    todos = db.select('todo')\u000a    return render.index(todos)\u000a</code></pre>\u000a\u000a<p>\u7136\u540e\u628aURL\u5217\u8868\u6539\u56de\u6765\uff0c\u53ea\u4fdd\u7559 <code>/</code>:</p>\u000a\u000a<pre><code>'/', 'index',\u000a</code></pre>\u000a\u000a<p>\u50cf\u8fd9\u6837\u7f16\u8f91\u5e76\u66ff\u6362 <code>index.html</code> \u7684\u5168\u90e8\u5185\u5bb9:</p>\u000a\u000a<pre><code>$def with (todos)\u000a&lt;ul&gt;\u000a$for todo in todos:\u000a    &lt;li id="t$todo.id"&gt;$todo.title&lt;/li&gt;\u000a&lt;/ul&gt;\u000a</code></pre>\u000a\u000a<p>\u518d\u8bbf\u95ee\u4f60\u7684\u7f51\u7ad9\uff0c\u7136\u540e\u4f60\u53ef\u4ee5\u770b\u5230\u4f60\u7684todo item: "Learn web.py"\u3002\u606d\u559c\u4f60\uff01\u4f60\u5df2\u7ecf\u5b8c\u6574\u5730\u5199\u597d\u4e86\u4e00\u4e2a\u53ef\u4ee5\u4ece\u6570\u636e\u5e93\u8bfb\u53d6\u6570\u636e\u7684\u7a0b\u5e8f\u3002\u73b0\u5728\u8ba9\u6211\u4eec\u540c\u6837\u518d\u5199\u4e00\u4e2a\u53ef\u4ee5\u628a\u6570\u636e\u5199\u5165\u6570\u636e\u5e93\u7684\u7a0b\u5e8f\u3002</p>\u000a\u000a<p>\u5728 <code>index.html</code>\u5c3e\u90e8\u6dfb\u52a0:</p>\u000a\u000a<pre><code>&lt;form method="post" action="add"&gt;\u000a&lt;p&gt;&lt;input type="text" name="title" /&gt; &lt;input type="submit" value="Add" /&gt;&lt;/p&gt;\u000a&lt;/form&gt;\u000a</code></pre>\u000a\u000a<p>\u7136\u540e\u628a\u4f60\u7684URL\u5217\u8868\u6539\u4e3a:</p>\u000a\u000a<pre><code>'/', 'index',\u000a'/add', 'add'\u000a</code></pre>\u000a\u000a<p>(\u4f60\u5fc5\u987b\u8981\u975e\u5e38\u5c0f\u5fc3\u90a3\u4e9b\u9017\u53f7\u3002\u5982\u679c\u4f60\u7701\u7565\u4ed6\u4eec\uff0cPython\u4f1a\u628a\u6240\u6709\u5b57\u7b26\u4e32\u8fde\u63a5\u8d77\u6765,\u53d8\u6210 <code>'/index/addadd'</code>)</p>\u000a\u000a<p>\u73b0\u5728\u6dfb\u52a0\u53e6\u4e00\u4e2a\u7c7b:</p>\u000a\u000a<pre><code>class add:\u000a    def POST(self):\u000a        i = web.input()\u000a        n = db.insert('todo', title=i.title)\u000a        raise web.seeother('/')\u000a</code></pre>\u000a\u000a<p>(\u6ce8\u610f\u73b0\u5728\u6211\u4eec\u6b63\u5728\u4f7f\u7528 <code>POST</code>)</p>\u000a\u000a<p><code>web.input</code> \u53ef\u4ee5\u8ba9\u4f60\u8bbf\u95ee\u7528\u6237\u901a\u8fc7form\u63d0\u4ea4\u7684\u4efb\u4f55\u6570\u636e\u3002</p>\u000a\u000a<p>\u6ce8\u610f: \u5982\u679c\u8981\u8bbf\u95ee\u591a\u4e2a\u76f8\u540c\u540d\u5b57\u7684\u5b57\u6bb5\uff0c\u8bf7\u4f7f\u7528list\u7684\u683c\u5f0f(\u6bd4\u5982:\u4e00\u4e32name="name"\u7684\u591a\u9009\u6846):</p>\u000a\u000a<pre><code>post_data=web.input(name=[])\u000a</code></pre>\u000a\u000a<p><code>db.insert</code> \u628a\u6570\u636e\u63d2\u5165\u6570\u636e\u8868 <code>todo</code> \uff0c\u7136\u540e\u628a\u65b0\u7684\u884c\u53f7\u8fd4\u56de\u7ed9\u4f60\u3002 <code>seeother</code> \u628a\u7528\u6237\u91cd\u5b9a\u5411\u5230\u6307\u5b9a\u7684URL\u3002</p>\u000a\u000a<p>\u4e00\u4e9b\u5feb\u901f\u8865\u5145\u8bf4\u660e: <code>db.update</code> \u4e0e <code>db.insert</code> \u5dee\u4e0d\u591a\uff0c\u9664\u4e86\u5b83\u8fd4\u56de\u7684\u884c\u53f7\u662f\u76f4\u63a5\u4ecesql\u8bed\u53e5\u91cc\u9762\u63d0\u53d6\u7684(<code>WHERE ID=2</code>)\u3002</p>\u000a\u000a<p><code>web.input</code>\u3001 <code>db.query</code>\u5df2\u7ecf\u5176\u4ed6web.py\u4e2d\u7684\u51fd\u6570\u8fd4\u56de"Storage objects"\uff0c\u8fd9\u4e9b\u4e1c\u897f\u5c31\u50cf\u5b57\u5178\uff0c\u4f60\u9664\u4e86\u53ef\u4ee5 <code>d['foo']</code>\u4e4b\u5916\uff0c\u4f60\u8fd8\u53ef\u4ee5 <code>d.foo</code>\u3002\u8fd9\u53ef\u4ee5\u8ba9\u4ee3\u7801\u66f4\u52a0\u5e72\u51c0\u3002</p>\u000a\u000a<p>\u4f60\u53ef\u4ee5\u5728<a href="/docs/0.3">the documentation</a>\u627e\u5230\u8fd9\u65b9\u9762\u5177\u4f53\u7684\u7ec6\u8282\u4ee5\u53ca\u6240\u6709web.py\u7684\u51fd\u6570\u8bf4\u660e\u3002</p>\u000a\u000a<p><a name="developing"> </a></p>\u000a\u000a<h2>\u5f00\u53d1</h2>\u000a\u000a<p>web.py \u8fd8\u6709\u4e00\u4e9b\u5e2e\u52a9\u6211\u4eecdebug\u7684\u5de5\u5177\u3002\u5f53\u5b83\u5728\u5185\u5efa\u7684\u670d\u52a1\u5668\u4e2d\u8fd0\u884c\u65f6\uff0c\u5b83\u4f1a\u4e00debug\u6a21\u5f0f\u542f\u52a8\u7a0b\u5e8f\u3002\u5728debug\u6a21\u5f0f\u4e2d\uff0c\u4efb\u4f55\u4ee3\u7801\u3001\u6a21\u677f\u7684\u4fee\u6539\uff0c\u90fd\u4f1a\u8ba9\u670d\u52a1\u5668\u91cd\u65b0\u52a0\u8f7d\u5b83\u4eec\uff0c\u7136\u540e\u8fd8\u4f1a\u8f93\u51fa\u6709\u7528\u7684\u9519\u8bef\u6d88\u606f\u3002</p>\u000a\u000a<p>\u53ea\u6709\u5728\u751f\u4ea7\u73af\u5883\u4e2ddebug\u6a21\u5f0f\u662f\u5173\u95ed\u7684\u3002\u5982\u679c\u4f60\u60f3\u7981\u7528debug\u6a21\u5f0f\uff0c\u4f60\u53ef\u4ee5\u5728\u521b\u5efa\u7a0b\u5e8f/\u6a21\u677f\u524d\u6dfb\u52a0\u50cf\u8fd9\u6837\u7684\u884c\u3002</p>\u000a\u000a<pre><code>web.config.debug = False\u000a</code></pre>\u000a\u000a<p>\u6211\u4eec\u7684\u6307\u5357\u5c31\u5230\u8fd9\u91cc\u4e86\u3002\u5982\u679c\u8981\u505a\u66f4\u591a\u5f88\u9177\u7684\u4e1c\u897f\uff0c\u4f60\u53ef\u4ee5\u5148\u67e5\u770b\u4e00\u4e0b\u6587\u6863\u3002</p>\u000a\u000a<p><a name="whatnext"> </a></p>\u000a\u000a<h2>\u4e0b\u4e00\u6b65\u662f\u4ec0\u4e48?</h2>\u000a\u000a<ul>\u000a<li><a href="/docs/0.3">\u66f4\u591a\u6587\u6863</a></li>\u000a<li><a href="/cookbook">Cookbook</a></li>\u000a<li><a href="/src">code samples</a></li>\u000a</ul>\u000a\u000a\u000a<div style="clear: both;"></div> \u000a \u000a</div> \u000a \u000a</div> \u000a</div>\u000a        <div id="footer"> \u000a    <p>started by <a style="color: gray;" href="http://www.aaronsw.com/">Aaron Swartz</a> (<a style="color: black;" href="mailto:webpy@aaronsw.com">webpy@aaronsw.com</a>)</p>\u000a\u000a<p><a href="https://github.com/webpy/webpy.github.com/blob/master/tutorial3.zh-cn.md">fork this page on GitHub</a></p>\u000a</div> \u000a \u000a</body> \u000a</html> \u000a
p3
a.