(lp0
S'http://webpy.org/cookbook/index.zh-cn'
p1
aS'Web.py Cookbook \xe7\xae\x80\xe4\xbd\x93\xe4\xb8\xad\xe6\x96\x87\xe7\x89\x88 (web.py)'
p2
aI0
aV<?xml version="1.0" encoding="UTF-8"?>\u000a<!DOCTYPE html PUBLIC "-//W3C//DTD XHTML 1.0 Strict//EN" "http://www.w3.org/TR/xhtml1/DTD/xhtml1-strict.dtd"> \u000a<html><head> \u000a  <meta http-equiv="Content-Type" content="text/html; charset=utf-8">\u000a  <title>Web.py Cookbook \u7b80\u4f53\u4e2d\u6587\u7248 (web.py)</title> \u000a  <link rel="stylesheet" type="text/css" href="/static/webpy-new.css"/> \u000a  <link rel="SHORTCUT ICON" href="/static/favicon.ico"/> \u000a</head><body> \u000a \u000a        <div id="header"><table class="header"><tr>\u000a                <td class="logo"><a href="/" title="Home"><img src="/static/webpy.gif" alt="" /></a></td> \u000a<td class="blurb">&ldquo;Think about the ideal way to write a web app.<br />Write the code to make it happen.&rdquo; [<a href="/philosophy">more...</a>]</td> </tr>\u000a</table>\u000a        </div> \u000a        <div id="location"> \u000a                <a href="/">home</a> &gt; Web.py Cookbook \u7b80\u4f53\u4e2d\u6587\u7248\u000a        </div> \u000a<div id="container"> \u000a<div id="sidebar">\u000a<strong>get started:</strong>\u000a<ul class="body">\u000a  <li><a href="/install">install</a></li>\u000a  <li><a href="/docs/0.3/tutorial">tutorial</a></li>\u000a</ul>\u000a<strong>learn more:</strong>\u000a<ul class="body">\u000a<li><a href="/docs/0.3/api">api reference</a></li>\u000a<li><a href="/cookbook/">cookbook</a></li>\u000a<li><a href="/src/">code examples</a></li>\u000a</ul>\u000a\u000a<strong>dive in:</strong>\u000a<ul class="body"> \u000a<li><a href="https://github.com/webpy/webpy">source code</a></li>\u000a<li><a href="http://groups.google.com/group/webpy/">mailing list</a></li>\u000a<li><a href="https://github.com/webpy/webpy/issues">issue tracker</a></li>\u000a</ul>\u000a</div>\u000a\u000a<div id="main"> \u000a<div id="content" class="body"> \u000a<h1>Web.py Cookbook \u7b80\u4f53\u4e2d\u6587\u7248</h1>\u000a\u000a<p>\u6b22\u8fce\u6765\u5230web.py 0.3\u7684Cookbook\u3002\u63d0\u9192\u60a8\u6ce8\u610f\uff1a\u67d0\u4e9b\u7279\u6027\u5728\u4e4b\u524d\u7684\u7248\u672c\u4e2d\u5e76\u4e0d\u53ef\u7528\u3002\u5f53\u524d\u5f00\u53d1\u7248\u672c\u662f0.3\u3002</p>\u000a\u000a<h1>\u683c\u5f0f</h1>\u000a\u000a<ol>\u000a<li><p>\u5728\u7f16\u6392\u5185\u5bb9\u65f6\uff0c\u8bf7\u5c3d\u91cf\u4f7f\u7528cookbook\u683c\u5f0f...\u5982\uff1a</p>\u000a\u000a<p> ###\u95ee\u9898\uff1a\u5982\u4f55\u8bbf\u95ee\u6570\u636e\u5e93\u4e2d\u7684\u6570\u636e\uff1f</p>\u000a\u000a<p> ###\u89e3\u6cd5\uff1a\u4f7f\u7528\u5982\u4e0b\u4ee3\u7801...</p></li>\u000a<li><p>\u8bf7\u6ce8\u610f\uff0c\u7f51\u5740\u4e2d\u4e0d\u5fc5\u542b\u6709"web"\u3002\u5982"/cookbook/select"\uff0c\u800c\u975e"/cookbook/web.select"\u3002</p></li>\u000a<li><p>\u8be5\u624b\u518c\u9002\u7528\u4e8e0.3\u7248\u672c\uff0c\u6240\u4ee5\u60a8\u5728\u6dfb\u52a0\u4ee3\u7801\u65f6\uff0c\u8bf7\u786e\u8ba4\u4ee3\u7801\u80fd\u5728\u65b0\u7248\u672c\u4e2d\u5de5\u4f5c\u3002</p></li>\u000a</ol>\u000a\u000a\u000a<hr />\u000a\u000a<h2>\u57fa\u672c\u5e94\u7528:</h2>\u000a\u000a<ul>\u000a<li><a href="helloworld.zh-cn">Hello World</a></li>\u000a<li><a href="staticfiles.zh-cn">\u63d0\u4f9b\u9759\u6001\u6587\u4ef6\u8bbf\u95ee</a></li>\u000a<li><a href="url_handling.zh-cn">\u7406\u89e3URL\u63a7\u5236</a></li>\u000a<li><a href="redirect%20seeother.zh-cn">\u8df3\u8f6c\u4e0e\u91cd\u5b9a\u5411</a></li>\u000a<li><a href="subapp.zh-cn">\u4f7f\u7528\u5b50\u5e94\u7528</a></li>\u000a<li><a href="xmlfiles.zh-cn">\u63d0\u4f9bXML\u8bbf\u95ee</a></li>\u000a<li><a href="postbasic.zh-cn">\u4ecepost\u8bfb\u53d6\u539f\u59cb\u6570\u636e</a></li>\u000a</ul>\u000a\u000a\u000a<h2>\u9ad8\u7ea7\u5e94\u7528</h2>\u000a\u000a<ul>\u000a<li><a href="ctx.zh-cn">\u7528web.ctx\u83b7\u5f97\u5ba2\u6237\u7aef\u4fe1\u606f</a></li>\u000a<li><a href="application_processors.zh-cn">\u5e94\u7528\u5904\u7406\u5668\uff0c\u6dfb\u52a0\u94a9\u5b50\u548c\u5378\u8f7d\u94a9\u5b50</a></li>\u000a<li><a href="background.zh-cn">\u5982\u4f55\u4f7f\u7528web.background</a></li>\u000a<li><a href="custom_notfound.zh-cn">\u81ea\u5b9a\u4e49NotFound\u4fe1\u606f</a></li>\u000a<li><a href="streaming_large_files.zh-cn">\u5982\u4f55\u6d41\u4f20\u8f93\u5927\u6587\u4ef6</a></li>\u000a<li><a href="logging.zh-cn">\u5bf9\u81ea\u5e26\u7684webserver\u65e5\u5fd7\u8fdb\u884c\u64cd\u4f5c</a></li>\u000a<li><a href="ssl.zh-cn">\u7528cherrypy\u63d0\u4f9bSSL\u652f\u6301</a></li>\u000a<li><a href="runtime-language-switch.zh-cn">\u5b9e\u65f6\u8bed\u8a00\u5207\u6362</a></li>\u000a</ul>\u000a\u000a\u000a<h2>Sessions and user state \u4f1a\u8bdd\u548c\u7528\u6237\u72b6\u6001:</h2>\u000a\u000a<ul>\u000a<li><a href="sessions.zh-cn">\u5982\u4f55\u4f7f\u7528Session</a></li>\u000a<li><a href="session_with_reloader.zh-cn">\u5982\u4f55\u5728\u8c03\u8bd5\u6a21\u5f0f\u4e0b\u4f7f\u7528Session</a></li>\u000a<li><a href="session_in_template.zh-cn">\u5728template\u4e2d\u4f7f\u7528session</a></li>\u000a<li><a href="cookies.zh-cn">\u5982\u4f55\u64cd\u4f5cCookie</a></li>\u000a<li><a href="userauth.zh-cn">\u7528\u6237\u8ba4\u8bc1</a></li>\u000a<li><a href="userauthpgsql.zh-cn">\u4e00\u4e2a\u5728postgreSQL\u6570\u636e\u5e93\u73af\u5883\u4e0b\u7684\u7528\u6237\u8ba4\u8bc1\u7684\u4f8b\u5b50</a></li>\u000a<li><a href="sessions_with_subapp.zh-cn">\u5982\u4f55\u5728\u5b50\u5e94\u7528\u4e2d\u64cd\u4f5cSession</a></li>\u000a</ul>\u000a\u000a\u000a<h2>Utils \u5b9e\u7528\u5de5\u5177:</h2>\u000a\u000a<ul>\u000a<li><a href="sendmail.zh-cn">\u5982\u4f55\u53d1\u9001\u90ae\u4ef6</a></li>\u000a<li><a href="sendmail_using_gmail.zh-cn">\u5982\u4f55\u5229\u7528Gmail\u53d1\u9001\u90ae\u4ef6</a></li>\u000a<li><a href="webservice.zh-cn">\u4f7f\u7528soaplib\u5b9e\u73b0webservice</a></li>\u000a</ul>\u000a\u000a\u000a<h2>Templates \u6a21\u677f</h2>\u000a\u000a<ul>\u000a<li><a href="/docs/0.3/templetor.zh-cn">Templetor: web.py \u6a21\u677f\u7cfb\u7edf</a></li>\u000a<li><a href="layout_template.zh-cn">\u4f7f\u7528\u7ad9\u70b9\u5e03\u5c40\u6a21\u677f</a></li>\u000a<li><a href="alternating_style.zh-cn">\u4ea4\u66ff\u5f0f\u98ce\u683c (\u672a\u8bd1)</a></li>\u000a<li><a href="template_import.zh-cn">\u5bfc\u5165\u51fd\u6570\u5230\u6a21\u677f\u4e2d (\u672a\u8bd1)</a></li>\u000a<li><a href="i18n_support_in_template_file.zh-cn">\u6a21\u677f\u6587\u4ef6\u4e2d\u7684i18n\u652f\u6301</a></li>\u000a<li><a href="template_mako.zh-cn">\u5728web.py\u4e2d\u4f7f\u7528Mako\u6a21\u677f\u5f15\u64ce </a></li>\u000a<li><a href="template_cheetah.zh-cn">\u5728web.py\u4e2d\u4f7f\u7528Cheetah\u6a21\u677f\u5f15\u64ce</a></li>\u000a<li><a href="template_jinja.zh-cn">\u5728web.py\u4e2d\u4f7f\u7528Jinja2\u6a21\u677f\u5f15\u64ce</a></li>\u000a<li><a href="templates_on_gae.zh-cn">\u5982\u4f55\u5728\u8c37\u6b4c\u5e94\u7528\u7a0b\u5e8f\u5f15\u64ce\u4f7f\u7528\u6a21\u677f</a></li>\u000a</ul>\u000a\u000a\u000a<h2>Testing \u6d4b\u8bd5:</h2>\u000a\u000a<ul>\u000a<li><a href="testing_with_paste_and_nose.zh-cn">Testing with Paste and Nose (\u672a\u8bd1)</a></li>\u000a<li><a href="restful_doctesting_using_request.zh-cn">RESTful doctesting using an application's request method (\u672a\u8bd1)</a></li>\u000a</ul>\u000a\u000a\u000a<h2>User input \u7528\u6237\u8f93\u5165:</h2>\u000a\u000a<ul>\u000a<li><a href="fileupload.zh-cn">\u6587\u4ef6\u4e0a\u4f20</a></li>\u000a<li><a href="storeupload.zh-cn">\u4fdd\u5b58\u4e0a\u4f20\u7684\u6587\u4ef6</a></li>\u000a<li><a href="limiting_upload_size.zh-cn">\u4e0a\u4f20\u6587\u4ef6\u5927\u5c0f\u9650\u5b9a</a></li>\u000a<li><a href="input.zh-cn">\u901a\u8fc7 web.input \u63a5\u53d7\u7528\u6237\u8f93\u5165</a></li>\u000a<li><a href="forms.zh-cn">\u600e\u6837\u4f7f\u7528\u8868\u5355</a></li>\u000a<li><a href="form_fields.zh-cn">\u663e\u793a\u4e2a\u522b\u8868\u5355\u5b57\u6bb5</a></li>\u000a</ul>\u000a\u000a\u000a<h2>Database \u6570\u636e\u5e93</h2>\u000a\u000a<ul>\u000a<li><a href="multidbs.zh-cn">\u4f7f\u7528\u591a\u6570\u636e\u5e93</a></li>\u000a<li><a href="select.zh-cn">Select: \u67e5\u8be2\u6570\u636e</a></li>\u000a<li><a href="update.zh-cn">Update: \u66f4\u65b0\u6570\u636e </a></li>\u000a<li><a href="delete.zh-cn">Delete: \u5220\u9664\u6570\u636e</a></li>\u000a<li><a href="Insert.zh-cn">Insert: \u65b0\u589e\u6570\u636e</a></li>\u000a<li><a href="query.zh-cn">Query: \u9ad8\u7ea7\u6570\u636e\u5e93\u67e5\u8be2</a></li>\u000a<li><a href="transactions.zh-cn">\u600e\u6837\u4f7f\u7528\u6570\u636e\u5e93\u4e8b\u52a1</a></li>\u000a<li><a href="sqlalchemy.zh-cn">\u4f7f\u7528 sqlalchemy</a></li>\u000a<li><a href="sqlite-udf.zh-cn">\u6574\u5408 SQLite UDF (\u7528\u6237\u5b9a\u4e49\u51fd\u6570) \u5230 webpy \u6570\u636e\u5e93\u5c42</a></li>\u000a<li><a href="where_dict.zh-cn">\u4f7f\u7528\u5b57\u5178\u52a8\u6001\u6784\u9020where\u5b50\u53e5</a></li>\u000a</ul>\u000a\u000a\u000a<h2>Deployment \u90e8\u7f72:</h2>\u000a\u000a<ul>\u000a<li><a href="fastcgi-lighttpd.zh-cn">\u901a\u8fc7Fastcgi\u548clighttpd\u90e8\u7f72</a></li>\u000a<li><a href="fastcgi-nginx.zh-cn">\u901a\u8fc7Webpy\u548cNginx with FastCGI\u642d\u5efaWeb.py</a></li>\u000a<li><a href="cgi-apache.zh-cn">CGI deployment through Apache (\u672a\u8bd1)</a></li>\u000a<li>mod_python deployment through Apache (requested)</li>\u000a<li><a href="mod_wsgi-apache.zh-cn">\u901a\u8fc7Apache\u548cmod_wsgi\u90e8\u7f72</a></li>\u000a<li><a href="mod_wsgi-nginx.zh-cn">mod_wsgi deployment through Nginx (\u672a\u8bd1)</a></li>\u000a<li><a href="fastcgi-nginx.zh-cn">Fastcgi deployment through Nginx (\u672a\u8bd1)</a></li>\u000a</ul>\u000a\u000a\u000a<h2>Subdomains \u5b50\u57df\u540d:</h2>\u000a\u000a<ul>\u000a<li>Subdomains and how to access the username (requested)</li>\u000a</ul>\u000a\u000a\u000a<div style="clear: both;"></div> \u000a \u000a</div> \u000a \u000a</div> \u000a</div>\u000a        <div id="footer"> \u000a    <p>started by <a style="color: gray;" href="http://www.aaronsw.com/">Aaron Swartz</a> (<a style="color: black;" href="mailto:webpy@aaronsw.com">webpy@aaronsw.com</a>)</p>\u000a\u000a<p><a href="https://github.com/webpy/webpy.github.com/blob/master/cookbook/index.zh-cn.md">fork this page on GitHub</a></p>\u000a</div> \u000a \u000a</body> \u000a</html> \u000a
p3
a.