(lp0
S'https://bitbucket.org/dashboard/overview'
p1
aS'iuyo5678 / home \xe2\x80\x94 Bitbucket'
p2
aI0
aV<!doctype html>\u000a<html lang="en">\u000a<head>\u000a  <meta id="bb-bootstrap" data-current-user="{&quot;isKbdShortcutsEnabled&quot;: true, &quot;isSshEnabled&quot;: false, &quot;isAuthenticated&quot;: false}" />\u000a  <script src="//cdn.optimizely.com/js/1096093.js"></script>\u000a  <meta charset="utf-8">\u000a  <meta name="viewport" content="initial-scale=1.0">\u000a  <meta http-equiv="X-UA-Compatible" content="IE=edge">\u000a  <meta name="description" content="Bitbucket is a Git and Mercurial based source code management and collaboration solution in the cloud. Bitbucket is simple and powerful, enables code collaboration for teams, works with the tools that matter, and is easy to use even for teams new to Git and Mercurial">\u000a  <script type="text/javascript">window.NREUM||(NREUM={}),__nr_require=function(e,t,n){function r(n){if(!t[n]){var o=t[n]={exports:{}};e[n][0].call(o.exports,function(t){var o=e[n][1][t];return r(o||t)},o,o.exports)}return t[n].exports}if("function"==typeof __nr_require)return __nr_require;for(var o=0;o<n.length;o++)r(n[o]);return r}({1:[function(e,t,n){function r(){}function o(e,t,n){return function(){return i(e,[(new Date).getTime()].concat(u(arguments)),t?null:this,n),t?void 0:this}}var i=e("handle"),a=e(2),u=e(3),c=e("ee").get("tracer"),f=NREUM;"undefined"==typeof window.newrelic&&(newrelic=f);var s=["setPageViewName","setCustomAttribute","setErrorHandler","finished","addToTrace","inlineHit"],l="api-",p=l+"ixn-";a(s,function(e,t){f[t]=o(l+t,!0,"api")}),f.addPageAction=o(l+"addPageAction",!0),f.setCurrentRouteName=o(l+"routeName",!0),t.exports=newrelic,f.interaction=function(){return(new r).get()};var d=r.prototype={createTracer:function(e,t){var n={},r=this,o="function"==typeof t;return i(p+"tracer",[Date.now(),e,n],r),function(){if(c.emit((o?"":"no-")+"fn-start",[Date.now(),r,o],n),o)try{return t.apply(this,arguments)}finally{c.emit("fn-end",[Date.now()],n)}}}};a("setName,setAttribute,save,ignore,onEnd,getContext,end,get".split(","),function(e,t){d[t]=o(p+t)}),newrelic.noticeError=function(e){"string"==typeof e&&(e=new Error(e)),i("err",[e,(new Date).getTime()])}},{}],2:[function(e,t,n){function r(e,t){var n=[],r="",i=0;for(r in e)o.call(e,r)&&(n[i]=t(r,e[r]),i+=1);return n}var o=Object.prototype.hasOwnProperty;t.exports=r},{}],3:[function(e,t,n){function r(e,t,n){t||(t=0),"undefined"==typeof n&&(n=e?e.length:0);for(var r=-1,o=n-t||0,i=Array(o<0?0:o);++r<o;)i[r]=e[t+r];return i}t.exports=r},{}],ee:[function(e,t,n){function r(){}function o(e){function t(e){return e&&e instanceof r?e:e?c(e,u,i):i()}function n(n,r,o){if(!p.aborted){e&&e(n,r,o);for(var i=t(o),a=v(n),u=a.length,c=0;c<u;c++)a[c].apply(i,r);var f=s[w[n]];return f&&f.push([y,n,r,i]),i}}function d(e,t){b[e]=v(e).concat(t)}function v(e){return b[e]||[]}function g(e){return l[e]=l[e]||o(n)}function m(e,t){f(e,function(e,n){t=t||"feature",w[n]=t,t in s||(s[t]=[])})}var b={},w={},y={on:d,emit:n,get:g,listeners:v,context:t,buffer:m,abort:a,aborted:!1};return y}function i(){return new r}function a(){(s.api||s.feature)&&(p.aborted=!0,s=p.backlog={})}var u="nr@context",c=e("gos"),f=e(2),s={},l={},p=t.exports=o();p.backlog=s},{}],gos:[function(e,t,n){function r(e,t,n){if(o.call(e,t))return e[t];var r=n();if(Object.defineProperty&&Object.keys)try{return Object.defineProperty(e,t,{value:r,writable:!0,enumerable:!1}),r}catch(i){}return e[t]=r,r}var o=Object.prototype.hasOwnProperty;t.exports=r},{}],handle:[function(e,t,n){function r(e,t,n,r){o.buffer([e],r),o.emit(e,t,n)}var o=e("ee").get("handle");t.exports=r,r.ee=o},{}],id:[function(e,t,n){function r(e){var t=typeof e;return!e||"object"!==t&&"function"!==t?-1:e===window?0:a(e,i,function(){return o++})}var o=1,i="nr@id",a=e("gos");t.exports=r},{}],loader:[function(e,t,n){function r(){if(!h++){var e=y.info=NREUM.info,t=l.getElementsByTagName("script")[0];if(setTimeout(f.abort,3e4),!(e&&e.licenseKey&&e.applicationID&&t))return f.abort();c(b,function(t,n){e[t]||(e[t]=n)}),u("mark",["onload",a()],null,"api");var n=l.createElement("script");n.src="https://"+e.agent,t.parentNode.insertBefore(n,t)}}function o(){"complete"===l.readyState&&i()}function i(){u("mark",["domContent",a()],null,"api")}function a(){return(new Date).getTime()}var u=e("handle"),c=e(2),f=e("ee"),s=window,l=s.document,p="addEventListener",d="attachEvent",v=s.XMLHttpRequest,g=v&&v.prototype;NREUM.o={ST:setTimeout,CT:clearTimeout,XHR:v,REQ:s.Request,EV:s.Event,PR:s.Promise,MO:s.MutationObserver},e(1);var m=""+location,b={beacon:"bam.nr-data.net",errorBeacon:"bam.nr-data.net",agent:"js-agent.newrelic.com/nr-998.min.js"},w=v&&g&&g[p]&&!/CriOS/.test(navigator.userAgent),y=t.exports={offset:a(),origin:m,features:{},xhrWrappable:w};l[p]?(l[p]("DOMContentLoaded",i,!1),s[p]("load",r,!1)):(l[d]("onreadystatechange",o),s[d]("onload",r)),u("mark",["firstbyte",a()],null,"api");var h=0},{}]},{},["loader"]);</script>\u000a  \u000a\u000a\u000a<meta id="bb-canon-url" name="bb-canon-url" content="https://bitbucket.org">\u000a\u000a<meta name="bb-view-name" content="bitbucket.apps.account.views.bb_login">\u000a<meta name="ignore-whitespace" content="False">\u000a<meta name="tab-size" content="None">\u000a\u000a<meta name="application-name" content="Bitbucket">\u000a<meta name="apple-mobile-web-app-title" content="Bitbucket">\u000a<meta name="theme-color" content="#205081">\u000a<meta name="msapplication-TileColor" content="#205081">\u000a<meta name="msapplication-TileImage" content="https://d301sr5gafysq2.cloudfront.net/fd7f99bdbcc4/img/logos/bitbucket/white-256.png">\u000a<link rel="apple-touch-icon" sizes="192x192" type="image/png" href="https://d301sr5gafysq2.cloudfront.net/fd7f99bdbcc4/img/bitbucket_avatar/192/bitbucket.png">\u000a<link rel="icon" sizes="192x192" type="image/png" href="https://d301sr5gafysq2.cloudfront.net/fd7f99bdbcc4/img/bitbucket_avatar/192/bitbucket.png">\u000a<link rel="icon" sizes="16x16 32x32" type="image/x-icon" href="/favicon.ico">\u000a<link rel="search" type="application/opensearchdescription+xml" href="/opensearch.xml" title="Bitbucket">\u000a  <meta name="description" content=""/>\u000a\u000a  <title>Bitbucket</title>\u000a\u000a  <link rel="stylesheet" href="https://d301sr5gafysq2.cloudfront.net/fd7f99bdbcc4/css/entry/vendor.css" />\u000a  \u000a  <link rel="stylesheet" href="https://d301sr5gafysq2.cloudfront.net/fd7f99bdbcc4/css/entry/atlassian-id-login.css" />\u000a\u000a</head>\u000a\u000a<body\u000a  class="aid-login aui-page-focused aui-page-focused-xsmall aui-page-size-xsmall"\u000a  id="atlassian-id-login">\u000a  \u000a<header id="aui-message-bar">\u000a  \u000a</header>\u000a  <header class="microbranding">\u000a    <h1 class="microbranding--atlassian-logo">Log in to continue</h1>\u000a    <a class="microbranding--bitbucket-logo" href="/">Bitbucket</a>\u000a  </header>\u000a  <header id="aui-message-bar"></header>\u000a\u000a  <section class="content atlassian-id--content" role="main">\u000a    \u000a  <section data-module="atlassian-id/login">\u000a    <section id="login-form" class="hidden">\u000a      \u000a\u000a<section class="aui-page-panel-inner">\u000a  \u000a    <div class="google-login" data-i18n-or="or">\u000a      \u000a    \u000a  \u000a  <form class="connect-button" name="login"\u000a        data-module="registration/connect-account-button"\u000a        method="POST" action="/socialauth/login/google-oauth2/">\u000a    <input type='hidden' name='csrfmiddlewaretoken' value='Qlz6YlGztQzeScLQ9QM8GjnEgOZBetGg' />\u000a    <input type="hidden" name="next" value="/dashboard/overview">\u000a    <button type="submit" class="aui-button google-button login-with-google">\u000a      <span class="connect-button--label">Log in with Google</span>\u000a    </button>\u000a  </form>\u000a    </div>\u000a    <div class="or">\u000a      or\u000a    </div>\u000a  \u000a  <form\u000a      action="/account/signin/"\u000a      class="aui aid-form errors-below-inputs"\u000a      data-errors=""\u000a      id="aid-login-form"\u000a      method="post">\u000a\u000a    <div id="js-global-login-error-container" class="aui-message aui-message-error hidden">\u000a    </div>\u000a\u000a    <input type="hidden" name="next" value="/dashboard/overview">\u000a    <input\u000a        name="csrfmiddlewaretoken"\u000a        type="hidden"\u000a        value="Qlz6YlGztQzeScLQ9QM8GjnEgOZBetGg" />\u000a    \u000a    \u000a    \u000a    \u000a    <section class="text-inputs">\u000a      <input\u000a          autofocus\u000a          class="override-aui text"\u000a          id="js-email-field"\u000a          name="username"\u000a          maxlength=255\u000a          placeholder="Email"\u000a          type="text"\u000a          value="" />\u000a      <input\u000a          class="override-aui text"\u000a          id="js-password-field"\u000a          name="password"\u000a          placeholder="Password"\u000a          type="password" />\u000a    </section>\u000a\u000a    <div class="button-container submit-container">\u000a      <input\u000a          type="submit"\u000a          class="large-blue-button selenium-login-submit aui-button-primary"\u000a          value="Log in" />\u000a      <a class="reset-password" href="/account/password/reset/">\u000a        Forgot your password?\u000a      </a>\u000a    </div>\u000a\u000a    \u000a      <div class="button-container">\u000a        \u000a          <div class="signup-link">\u000a            \u000a              Need an account?\u000a              <a href="/account/signup/" id="signup">Sign up</a>.\u000a            \u000a          </div>\u000a        \u000a      </div>\u000a    \u000a  </form>\u000a</section>\u000a\u000a  <div class="aui-page-panel-inner deprecated-auths">\u000a    <p>\u000a      \u000a        <a class="js-change-page-state"\u000a            data-to-state="SOCIAL_AUTH"\u000a            href="#social-auth">\u000a            Looking for GitHub, Facebook, or Twitter log in?\u000a        </a>\u000a      \u000a    </p>\u000a  </div>\u000a\u000a    </section>\u000a    <section id="social-auth" class="hidden">\u000a      \u000a\u000a<div class="aui-message aui-message-warning social-auth-deprecation-msg">\u000a  <p>\u000a    \u000a      We're in the process of phasing out these options.<br />\u000a      It's recommended that you log in <a class="js-change-page-state" data-to-state="LOGIN_FORM" href="#login-form">using email or Google</a>.\u000a    \u000a  </p>\u000a</div>\u000a\u000a<section class="social-logins">\u000a  \u000a    \u000a  \u000a  <form class="connect-button" name="login"\u000a        data-module="registration/connect-account-button"\u000a        method="POST" action="/social/facebook/redirect/">\u000a    <input type='hidden' name='csrfmiddlewaretoken' value='Qlz6YlGztQzeScLQ9QM8GjnEgOZBetGg' />\u000a    <input type="hidden" name="next" value="">\u000a    <button type="submit" class="aui-button facebook-button">\u000a      <span class="connect-button--label">Facebook</span>\u000a    </button>\u000a  </form>\u000a  \u000a    \u000a  \u000a  <form class="connect-button" name="login"\u000a        data-module="registration/connect-account-button"\u000a        method="POST" action="/social/twitter/redirect/">\u000a    <input type='hidden' name='csrfmiddlewaretoken' value='Qlz6YlGztQzeScLQ9QM8GjnEgOZBetGg' />\u000a    <input type="hidden" name="next" value="">\u000a    <button type="submit" class="aui-button twitter-button">\u000a      <span class="connect-button--label">Twitter</span>\u000a    </button>\u000a  </form>\u000a  \u000a    \u000a  \u000a  <form class="connect-button" name="login"\u000a        data-module="registration/connect-account-button"\u000a        method="POST" action="/social/github/redirect/">\u000a    <input type='hidden' name='csrfmiddlewaretoken' value='Qlz6YlGztQzeScLQ9QM8GjnEgOZBetGg' />\u000a    <input type="hidden" name="next" value="">\u000a    <button type="submit" class="aui-button github-button">\u000a      <span class="connect-button--label">Github</span>\u000a    </button>\u000a  </form>\u000a</section>\u000a\u000a<section class="atlassian-id-openid-container">\u000a  \u000a\u000a<form id="openid-form" class="aui login-form"\u000a      data-module="registration/openid-form"\u000a      action="/social/openid/redirect/" method="POST">\u000a  <input type='hidden' name='csrfmiddlewaretoken' value='Qlz6YlGztQzeScLQ9QM8GjnEgOZBetGg' />\u000a  \u000a    <input name="next" type="hidden" value="/account/team_check/?next=/dashboard/overview">\u000a  \u000a  \u000a  <div class="field-group">\u000a    <label class="openid-label">OpenID providers</label>\u000a    <ul class="openid-providers">\u000a      <li><a href="#yahoo" data-url="http://yahoo.com/" title="Yahoo!">Yahoo!</a></li>\u000a      <li><a href="#aol" title="AOL" data-url="http://openid.aol.com/{id}"\u000a             \u000a          >AOL</a></li>\u000a      <li><a href="#openid" title="OpenID" data-url="{id}"\u000a             \u000a          >OpenID</a></li>\u000a      <li><a href="#myopenid" title="MyOpenID" data-url="http://{id}.myopenid.com/"\u000a             \u000a          >MyOpenID</a></li>\u000a      <li><a href="#livejournal" title="LiveJournal" data-url="http://{id}.livejournal.com/"\u000a             \u000a          >LiveJournal</a></li>\u000a      <li><a href="#flickr" title="Flickr" data-url="http://flickr.com/{id}/"\u000a             \u000a          >Flickr</a></li>\u000a      <li><a href="#wordpress" title="WordPress" data-url="http://{id}.wordpress.com/"\u000a             \u000a          >WordPress</a></li>\u000a      <li><a href="#verisign" title="VeriSign" data-url="http://{id}.pip.verisignlabs.com/"\u000a             \u000a          >VeriSign</a></li>\u000a      <li><a href="#claimid" title="ClaimID" data-url="http://claimid.com/{id}"\u000a             \u000a          >ClaimID</a></li>\u000a    </ul>\u000a  </div>\u000a  <div class="field-group provider" id="aol">\u000a    <label for="aol-username">Username</label>\u000a    <input type="text" class="text" id="aol-username" name="aol-username">\u000a  </div>\u000a  <div class="field-group provider" id="openid">\u000a    <label for="openid-url">OpenID URL</label>\u000a    <input type="url" class="text" id="openid-url" name="openid-url">\u000a  </div>\u000a  <div class="field-group provider" id="myopenid">\u000a    <label for="myopenid-username">Username</label>\u000a    <input type="text" class="text" id="myopenid-username" name="myopenid-username">\u000a  </div>\u000a  <div class="field-group provider" id="livejournal">\u000a    <label for="livejournal-username">Username</label>\u000a    <input type="text" class="text" id="livejournal-username" name="livejournal-username">\u000a  </div>\u000a  <div class="field-group provider" id="flickr">\u000a    <label for="flickr-username">Username</label>\u000a    <input type="text" class="text" id="flickr-username" name="flickr-username">\u000a  </div>\u000a  <div class="field-group provider" id="wordpress">\u000a    <label for="wordpress-username">Username</label>\u000a    <input type="text" class="text" id="wordpress-username" name="wordpress-username">\u000a  </div>\u000a  <div class="field-group provider" id="verisign">\u000a    <label for="verisign-username">Username</label>\u000a    <input type="text" class="text" id="verisign-username" name="verisign-username">\u000a  </div>\u000a  <div class="field-group provider" id="claimid">\u000a    <label for="claimid-username">Username</label>\u000a    <input type="text" class="text" id="claimid-username" name="claimid-username">\u000a  </div>\u000a  <div class="buttons-container">\u000a    <div class="buttons">\u000a      <input type="hidden" id="openid_provider" name="openid_provider">\u000a      <input type="hidden" id="openid_username" name="openid_username">\u000a      <button type="submit" class="aui-button aui-button-primary">\u000a        Log in\u000a      </button>\u000a    </div>\u000a    \u000a      <p class="signup-copy">\u000a        <a href="/account/signup/">Need an account? Sign up free.</a>\u000a      </p>\u000a    \u000a  </div>\u000a</form>\u000a</section>\u000a    </section>\u000a\u000a    <script>\u000a      if (location.hash === '#social\u005cu002Dauth') {\u000a        document.getElementById('social-auth').className = '';\u000a      } else {\u000a        document.getElementById('login-form').className = '';\u000a      }\u000a    </script>\u000a  </section>\u000a\u000a  </section>\u000a\u000a  <footer id="footer" class="atlassian-id--footer" role="contentinfo">\u000a    \u000a      <ul>\u000a        <li class="atlassian-id--footer-link">\u000a          <a target="_blank" href="https://www.atlassian.com/legal/customer-agreement">Terms of Use</a>\u000a        </li>\u000a        <li class="atlassian-id--footer-link">\u000a          <a target="_blank" href="https://support.atlassian.com">Support</a>\u000a        </li>\u000a        <li class="atlassian-id--footer-link">\u000a          <a target="_blank" href="https://www.atlassian.com/legal/privacy-policy">Privacy Policy</a>\u000a        </li>\u000a      </ul>\u000a    \u000a  </footer>\u000a\u000a  \u000a    \u000a  \u000a\u000a\u000a<script src="https://d301sr5gafysq2.cloudfront.net/fd7f99bdbcc4/jsi18n/en/djangojs.js"></script>\u000a<script src="https://d301sr5gafysq2.cloudfront.net/fd7f99bdbcc4/dist/webpack/vendor.js"></script>\u000a<script src="https://d301sr5gafysq2.cloudfront.net/fd7f99bdbcc4/dist/webpack/app.js"></script>\u000a  \u000a  <script type="text/javascript">window.NREUM||(NREUM={});NREUM.info={"beacon":"bam.nr-data.net","queueTime":0,"licenseKey":"a2cef8c3d3","agent":"","transactionName":"Z11RZxdWW0cEVkYLDV4XdUYLVEFdClsdAAtEWkZQDlJBGgRFQhFMUVtQXBBZQRoTXFcVEQpaUWwJWFJdCw==","applicationID":"1841284","errorBeacon":"bam.nr-data.net","applicationTime":17}</script>\u000a</body>\u000a</html>
p3
a.