(lp0
S'http://ink.sapo.pt/'
p1
aS'InK - Interface Kit'
p2
aI0
aV<!DOCTYPE html>\u000a<html lang="en">\u000a<!-- _includes/document-top.html -->\u000a<head>\u000a    <link rel="stylesheet" type="text/css" href="http://fastly.ink.sapo.pt/3.1.10/css/ink-flex.min.css">\u000a    <link rel="stylesheet" type="text/css" href="http://fastly.ink.sapo.pt/3.1.10/css/font-awesome.min.css">\u000a    <link rel="stylesheet" type="text/css" href="/assets/css/docs.min.css">\u000a\u000a    <!--[if lt IE 9 ]>\u000a        <link rel="stylesheet" href="http://fastly.ink.sapo.pt/3.1.10/css/ink-ie.min.css" type="text/css" media="screen" title="no title" charset="utf-8">\u000a    <![endif]-->\u000a\u000a    <script type="text/javascript" src="http://fastly.ink.sapo.pt/3.1.10/js/modernizr.js"></script>\u000a    <script type="text/javascript">\u000a        Modernizr.load({\u000a          test: Modernizr.flexbox,\u000a          nope : 'http://fastly.ink.sapo.pt/3.1.10/css/ink-legacy.min.css'\u000a        });\u000a    </script>\u000a\u000a    <meta charset="utf-8">\u000a    <meta http-equiv="X-UA-Compatible" content="IE=edge,chrome=1">\u000a    \u000a    <title>Ink Interface Kit</title>\u000a    \u000a    \u000a    <meta name="description" content="Ink is a set of tools for quick development of web interfaces. It offers a fluid and responsive grid, common interface elements, interactive components, a design-first approach with ease of use and simplicity at its core. Start integrating Ink in your projects and remove the hassle of building the basics, staying free to focus on what's important.">\u000a    <meta name="author" content="SAPO WEB & MEDIA DESIGN">\u000a\u000a    <meta name="google-site-verification" content="K-nloq8xn7KxLTZ6KCFUkgKECMQFIm7qA1uOWoQOEc0" />\u000a\u000a    <meta name="twitter:card" content="summary">\u000a    <meta name="twitter:site" content="@inksapo">\u000a    <meta name="twitter:title" content="Ink">\u000a    <meta name="twitter:description" content="Create responsive web interfaces quick and efficiently.">\u000a    <meta name="twitter:creator" content="@inksapo">\u000a    <meta name="twitter:image:src" content="http://imgs.sapo.pt/ink/assets/imgs/ink_opengraph.png">\u000a    <meta name="twitter:domain" content="http://ink.sapo.pt/">\u000a\u000a    <meta property="og:title" content="Ink - Interface Kit"/>\u000a    <meta property="og:type" content="website"/>\u000a    <meta property="og:url" content="http://ink.sapo.pt/"/>\u000a    <meta property="og:image" content="http://imgs.sapo.pt/ink/assets/imgs/ink_opengraph.png"/>\u000a    <meta property="og:site_name" content="Ink"/>\u000a    <meta property="og:description" content="Ink is a set of tools for quick development of web interfaces.  It offers a fluid and responsive grid, common interface elements, interactive components, a design-first approach with ease of use and simplicity at its core. Start integrating Ink in your projects and remove the hassle of building the basics, staying free to focus on what's important. "/>\u000a\u000a    <meta name="HandheldFriendly" content="True">\u000a    <meta name="MobileOptimized" content="320">\u000a    <meta name="viewport" content="width=device-width, initial-scale=1.0, maximum-scale=1.0, user-scalable=0">\u000a\u000a    <link rel="shortcut icon" href="/assets/img/ink-favicon.ico">\u000a    <link rel="apple-touch-icon" href="/assets/img/touch-icon-iphone.png">\u000a    <link rel="apple-touch-icon" sizes="76x76" href="/assets/img/touch-icon-ipad.png">\u000a    <link rel="apple-touch-icon" sizes="120x120" href="/assets/img/touch-icon-iphone-retina.png">\u000a    <link rel="apple-touch-icon" sizes="152x152" href="/assets/img/touch-icon-ipad-retina.png">\u000a    <link rel="apple-touch-startup-image" href="/assets/img/splash.320x460.png" media="screen and (min-device-width: 200px) and (max-device-width: 320px) and (orientation:portrait)">\u000a    <link rel="apple-touch-startup-image" href="/assets/img/splash.768x1004.png" media="screen and (min-device-width: 481px) and (max-device-width: 1024px) and (orientation:portrait)">\u000a    <link rel="apple-tousplash.1024x748.png" media="screen and (min-device-width: 481px) and (max-device-width: 1024px) and (orientation:landscape)">\u000a\u000a    <script type="text/javascript" src="http://fastly.ink.sapo.pt/3.1.10/js/ink-all.min.js"></script>\u000a    <script type="text/javascript">\u000a      window.heap=window.heap||[],heap.load=function(e,t){window.heap.appid=e,window.heap.config=t=t||{};var r=t.forceSSL||"https:"===document.location.protocol,a=document.createElement("script");a.type="text/javascript",a.async=!0,a.src=(r?"https:":"http:")+"//cdn.heapanalytics.com/js/heap-"+e+".js";var n=document.getElementsByTagName("script")[0];n.parentNode.insertBefore(a,n);for(var o=function(e){return function(){heap.push([e].concat(Array.prototype.slice.call(arguments,0)))}},p=["addEventProperties","addUserProperties","clearEventProperties","identify","removeEventProperty","setEventProperties","track","unsetEventProperty"],c=0;c<p.length;c++)heap[p[c]]=o(p[c])};\u000a        heap.load("3263209346");\u000a    </script>\u000a</head>\u000a<body class="ink-drawer">\u000a\u000a<!-- _includes/top-navigation.html -->\u000a\u000a\u000a<div id="topbar">\u000a    <nav class="ink-navigation ink-grid ie7">\u000a        <ul class="menu horizontal black push-left medium-push-center small-push-center tiny-push-center">\u000a            <li class="hide-all show-tiny show-small show-medium"><button class="fa fa-bars left-drawer-trigger"></button></li>\u000a            <li class="logoPlaceholder"><a href="http://ink.sapo.pt/" class="logoPlaceholder">Ink</a></li>\u000a        </ul>\u000a        <ul class="menu horizontal black push-right hide-small hide-tiny hide-medium">\u000a            <li>\u000a                <a class="ink-button blue" href="https://github.com/sapo/Ink/releases/download/3.1.10/ink-3.1.10.zip" onclick="ga('send', 'event', 'link', 'click', 'Download');" data-trackerlink="content|menutop|downloadzip">Download <span>3.1.10</span></a>\u000a            </li>\u000a            \u000a            \u000a            <li>\u000a                <a href="http://ink.sapo.pt/ui-elements/" title="UI Elements">UI Elements</a>\u000a            </li>\u000a            \u000a            \u000a            <li>\u000a                <a href="http://ink.sapo.pt/javascript-ui/" title="Javascript UI Components">Javascript UI Components</a>\u000a            </li>\u000a            \u000a            \u000a            <li>\u000a                <a href="http://ink.sapo.pt/javascript/" title="Javascript API Reference">Javascript API Reference</a>\u000a            </li>\u000a            \u000a            \u000a            <li>\u000a                <a href="http://ink.sapo.pt/cookbook/" title="Cookbook">Cookbook</a>\u000a            </li>\u000a            \u000a            \u000a            <li>\u000a                <a href="http://ink.sapo.pt/glossary/" title="Glossary">Glossary</a>\u000a            </li>\u000a            \u000a        </ul>\u000a    </nav>\u000a</div>\u000a\u000a<!-- _includes/left-drawer.html -->\u000a\u000a<div class="left-drawer">\u000a    <ul>\u000a        <li class="search">\u000a            <!-- _includes/search.html -->\u000a<form action="http://ink.sapo.pt/search/" method="GET" class="docsearch" role="search">\u000a    <input placeholder="Search..." type="search" class="search-field" name="search"><span class="fa fa-search"></span>\u000a</form>\u000a\u000a        </li>\u000a\u000a        \u000a        \u000a        \u000a        <li>\u000a            <a href="http://ink.sapo.pt/ui-elements/" title="UI Elements">UI Elements</a>\u000a        </li>\u000a        \u000a        \u000a        \u000a        <li>\u000a            <a href="http://ink.sapo.pt/javascript-ui/" title="Javascript UI Components">Javascript UI Components</a>\u000a        </li>\u000a        \u000a        \u000a        \u000a        <li>\u000a            <a href="http://ink.sapo.pt/javascript/" title="Javascript API Reference">Javascript API Reference</a>\u000a        </li>\u000a        \u000a        \u000a        \u000a        <li>\u000a            <a href="http://ink.sapo.pt/cookbook/" title="Cookbook">Cookbook</a>\u000a        </li>\u000a        \u000a        \u000a        \u000a        <li>\u000a            <a href="http://ink.sapo.pt/glossary/" title="Glossary">Glossary</a>\u000a        </li>\u000a        \u000a\u000a        <!-- _includes/section-selector.html -->\u000a\u000a\u000a\u000a\u000a        \u000a\u000a        <li><a class="ink-button blue" href="https://github.com/sapo/Ink/releases/download/3.1.10/ink-3.1.10.zip" data-trackerlink="content|menudrawer|downloadzip">Download <span>3.1.10</span></a></li>\u000a\u000a    </ul>\u000a</div>\u000a\u000a<div  id="home" class="content-drawer">\u000a<section class="ink">\u000a  <div class="ink-grid">\u000a    <div class="column-group push-middle">\u000a      <div class="xlarge-70 large-70 all-80 align-center push-center">\u000a        <p><img src="/assets/img/ink.png" alt="Ink"></p>\u000a        <h1 class="fw-light">Create responsive web interfaces quick and efficiently.</h1>\u000a      </div>\u000a    </div>\u000a  </div>\u000a</section>\u000a<section class="download">\u000a  <div class="ink-grid">\u000a    <h1 class="fw-light align-center uppercase">Get our code</h1>\u000a        <div class="column-group push-middle">\u000a          <div class="xlarge-70 large-70 all-80 align-center push-center">\u000a            <div class="column-group horizontal-gutters small-vertical-gutters tiny-vertical-gutters">\u000a              <div class="all-33 small-100 tiny-100">\u000a                <a href="https://github.com/sapo/Ink/releases/download/3.1.10/ink-3.1.10.zip" data-trackerlink="content|maincontainer|downloadzip" onclick="ga('send', 'event', 'link', 'click', 'Download');" class="ink-button download">Download <span>3.1.10</span></a>\u000a                <p class="half-top-space">This file contains CSS, JavaScript and their minified versions, images, fonts and the cookbook.</p>\u000a              </div>\u000a              <div class="all-33 small-100 tiny-100">\u000a                <a href="https://github.com/sapo/Ink/archive/3.1.10.zip" data-trackerlink="content|maincontainer|downloadsourcezip" onclick="ga('send', 'event', 'link', 'click', 'Download with source');" class="ink-button download">Download with source</a>\u000a                <p class="half-top-space">This file contains SASS and JavaScript source code, distribution versions and the build tools config files.</p>\u000a              </div>\u000a              <div class="all-33 small-100 tiny-100">\u000a                <a href="https://github.com/sapo/Ink/" data-trackerlink="external|maincontainer|gotogithub" class="ink-button repo" onclick="ga('send', 'event', 'link', 'click', 'Moved to Github');">Github</a>\u000a                <p class="half-top-space">If you prefer, head on to our github repository, fork the project and help us create an even better Ink.</p>\u000a              </div>\u000a            </div>\u000a          </div>\u000a        </div>\u000a  </div>\u000a</section>\u000a<section class="what">\u000a  <div class="ink-grid">\u000a    <h1 class="fw-light uppercase align-center small-align-left tiny-align-left">Lightning fast responsive web development</h1>\u000a    <div class="column-group horizontal-gutters push-top">\u000a      <div class="xlarge-50 large-50 medium-50 small-100 tiny-100">\u000a        <h2 class="fw-light">Responsive from the ground up</h2>\u000a        <p>Our grid system is percentage based. Nesting grid elements gives you infinite possibilities. Version 3.0.0 introduces a flex based grid system that gives you unprecedented control over your layouts.</p>\u000a<figure class="highlight"><pre><code class="language-html" data-lang="html"><span class="nt">&lt;div</span> <span class="na">class=</span><span class="s">"ink-grid"</span><span class="nt">&gt;</span>\u000a  <span class="nt">&lt;div</span> <span class="na">class=</span><span class="s">"column-group"</span><span class="nt">&gt;</span>\u000a    <span class="nt">&lt;div</span> <span class="na">class=</span><span class="s">"all-50 small-100 tiny-100"</span><span class="nt">&gt;</span>...<span class="nt">&lt;/div&gt;</span>\u000a    <span class="nt">&lt;div</span> <span class="na">class=</span><span class="s">"all-50 small-100 tiny-100"</span><span class="nt">&gt;</span>...<span class="nt">&lt;/div&gt;</span>\u000a  <span class="nt">&lt;/div&gt;</span>\u000a<span class="nt">&lt;/div&gt;</span></code></pre></figure>\u000a      </div>\u000a      <div class="xlarge-50 large-50 medium-50 small-100 tiny-100">\u000a        <h2 class="fw-light">Easy to code and easy to read</h2>\u000a        <p>Our syntax was designed to be clean and readable like a human language, creating legible code that both designers and developers can understand, helping to make your work accessible to anyone on your teams.</p>\u000a<figure class="highlight"><pre><code class="language-html" data-lang="html"><span class="nt">&lt;nav</span> <span class="na">class=</span><span class="s">"ink-navigation"</span><span class="nt">&gt;</span>\u000a  <span class="nt">&lt;ul</span> <span class="na">class=</span><span class="s">"horizontal menu"</span><span class="nt">&gt;</span>\u000a    <span class="nt">&lt;li&gt;&lt;a</span> <span class="na">href=</span><span class="s">"/home"</span><span class="nt">&gt;</span>home<span class="nt">&lt;/a&gt;&lt;/li&gt;</span>\u000a    <span class="nt">&lt;li&gt;&lt;a</span> <span class="na">href=</span><span class="s">"/about"</span><span class="nt">&gt;</span>about<span class="nt">&lt;/a&gt;&lt;/li&gt;</span>\u000a  <span class="nt">&lt;/ul&gt;</span>\u000a<span class="nt">&lt;/nav&gt;</span></code></pre></figure>\u000a      </div>\u000a      <div class="xlarge-50 large-50 medium-50 small-100 tiny-100">\u000a        <h2 class="fw-light">More than HTML and CSS</h2>\u000a        <p>We've developed our own JavaScript library based on the latest coding standards and a modular architecture. The <a href="http://ink.sapo.pt/javascript/Ink/#Ink_1-Ink_1-requireModules">Ink.requireModules()</a> method ensures all of Ink's power is at your fingertips.</p>\u000a<figure class="highlight"><pre><code class="language-js" data-lang="js"><span class="nx">Ink</span><span class="p">.</span><span class="nx">requireModules</span><span class="p">(</span>\u000a  <span class="p">[</span><span class="s1">'Ink.Dom.Css_1'</span><span class="p">],</span>\u000a  <span class="kd">function</span><span class="p">(</span><span class="nx">Css</span><span class="p">)</span> <span class="p">{</span>\u000a    <span class="kd">var</span> <span class="nx">elm</span> <span class="o">=</span> <span class="nx">Ink</span><span class="p">.</span><span class="nx">s</span><span class="p">(</span><span class="s1">'.ink'</span><span class="p">);</span>\u000a    <span class="nx">Css</span><span class="p">.</span><span class="nx">addClassName</span><span class="p">(</span><span class="nx">elm</span><span class="p">,</span><span class="s1">'hot'</span><span class="p">);</span>\u000a  <span class="p">}</span>\u000a<span class="p">);</span></code></pre></figure>\u000a      </div>\u000a      <div class="xlarge-50 large-50 medium-50 small-100 tiny-100">\u000a        <h2 class="fw-light">Customizable</h2>\u000a        <p>Ink's CSS is created with <a href="http://sass-lang.com/" target="_blank">SASS</a>. Breakpoints, dimensions, color, font sizes and even class names are defined as variables and are easily reconfigurable. Just <a href="http://ink.sapo.pt/ui-elements/">edit a couple of files</a>, recompile and you'll have your unique custom build.</p>\u000a<figure class="highlight"><pre><code class="language-scss" data-lang="scss"><span class="c1">// scss\u000a</span><span class="nv">$ink-class-prefix</span><span class="p">:</span> <span class="n">my-</span><span class="p">;</span>\u000a<span class="nv">$navigation-class-name</span><span class="p">:</span> <span class="si">#{</span><span class="nv">$ink-class-prefix</span><span class="si">}</span><span class="n">nav</span>\u000a<span class="o">//</span> <span class="n">css</span>\u000a<span class="o">.</span><span class="n">my-nav</span> <span class="p">{</span>\u000a  <span class="nc">...</span>\u000a<span class="p">}</span></code></pre></figure>\u000a      </div>\u000a    </div>\u000a  </div>\u000a</section>\u000a<section class="showcase">\u000a<div class="ink-grid">\u000a  <h1 class="fw-light align-center uppercase">Made with Ink</h1>\u000a  <div class="column-group gutters">\u000a  <div class="all-25 medium-50 small-50 tiny-100 align-center">\u000a    <p><a href="http://music.meo.pt/" title="Meo Music"><img src="/assets/img/meomusic.jpg" alt="Meo Music"></a></p>\u000a    <p class="fw-thin">Meo Music is the largest portuguese music streaming service.</p>\u000a  </div>\u000a  <div class="all-25 medium-50 small-50 tiny-100 align-center">\u000a    <p><a href="http://sobre.sapo.pt/" title="About SAPO"><img src="/assets/img/sobre.jpg" alt="About SAPO"></a></p>\u000a    <p class="fw-thin">Learn about SAPO products, mission and job opportunities.</p>\u000a  </div>\u000a  <div class="all-25 medium-50 small-50 tiny-100 align-center">\u000a    <p><a href="http://lifestyle.sapo.pt/" title="SAPO Lifestyle"><img src="/assets/img/lifestyle.jpg" alt="SAPO Lifestyle"></a></p>\u000a    <p class="fw-thin">SAPO Lifestyle is a content gatherer for fashion, travel, health and much more.</p>\u000a  </div>\u000a  <div class="all-25 medium-50 small-50 tiny-100 align-center">\u000a    <p><a href="https://codebits.eu/" title="Codebits"><img src="/assets/img/codebits.jpg" alt="Codebits"></a></p>\u000a    <p class="fw-thin">Portugal's largest tech event organized yearly by SAPO.</p>\u000a  </div>\u000a  </div>\u000a</div>\u000a</section>\u000a<section class="who">\u000a  <div class="ink-grid">\u000a    <div class="column-group push-middle">\u000a      <div class="all-90 align-center push-center">\u000a        <h1 class="fw-light uppercase">Ink is made at SAPO</h1>\u000a        <p>\u000a          For the last 18 years, SAPO has lead the way in web development, in Portugal. We've always contributed to and made use of many open source projects, many of which are critical to our operations. Ink is developed under our <a href="http://oss.sapo.pt">open source initiative</a> and made freely available under the <a href="http://opensource.org/licenses/MIT">MIT</a> license.\u000a        </p>\u000a        <p>\u000a          <iframe src="http://ghbtns.com/github-btn.html?user=sapo&repo=Ink&type=watch&count=true" allowtransparency="true" frameborder="0" scrolling="0" width="110" height="20"></iframe>\u000a          <iframe src="http://ghbtns.com/github-btn.html?user=sapo&repo=Ink&type=fork&count=true" allowtransparency="true" frameborder="0" scrolling="0" width="110" height="20"></iframe>\u000a        </p>\u000a        <div class="column-group horizontal-gutters copyright fw-thin uppercase">\u000a          <div class="all-33 small-100 tiny-100 align-left small-align-center tiny-align-center">\u000a            <p><a class="SAPOlogo" href="http://www.sapo.pt">sapo.pt</a></p>\u000a          </div>\u000a          <div class="all-33 small-100 tiny-100 align-center small-align-center tiny-align-center">\u000a            <p>\u000a                <a href="https://heapanalytics.com/?utm_source=badge"><img style="width:108px;height:41px" src="//heapanalytics.com/img/badgeLight.png" alt="Heap | Mobile and Web Analytics" /></a>\u000a            </p>\u000a          </div>\u000a          <div class="all-33 small-100 tiny-100 align-right small-align-center tiny-align-center">\u000a            <p class="fastly">\u000a              CDN service is provided by <a href="http://fastly.com" target="_blank"><img src="/assets/img//fastly_white.png" alt="Fastly"></a>\u000a            </p>\u000a          </div>\u000a        </div>\u000a      </div>\u000a    </div>\u000a  </div>\u000a</section>\u000a\u000a</div>\u000a<!-- _includes/document-bottom.html -->\u000a\u000a    <script>\u000a    Ink.requireModules(['Ink.UI.Drawer_1'], function(Drawer) {\u000a      var inkDrawer = new Drawer({ sides: 'left', mode: 'push' });\u000a    });\u000a    </script>\u000a    <script type="text/javascript" src="/assets/js/search.js"></script>\u000a    \u000a        <script type="text/javascript" src="http://js.sapo.pt/SAPOWebAnalytics/"></script>\u000a        <script>\u000a          SAPO.WebAnalytics.track({swakt:"FC2C65EF-D60C-4BC2-9D76-251A50DADC3D"});\u000a          SAPO.WebAnalytics.registerClick();\u000a        </script>\u000a        <!--\u000a        <div id="fb-root"></div>\u000a        <script>(function(d, s, id) {\u000a          var js, fjs = d.getElementsByTagName(s)[0];\u000a          if (d.getElementById(id)) return;\u000a          js = d.createElement(s); js.id = id;\u000a          //js.src = "//connect.facebook.net/en_GB/all.js#xfbml=1&appId=82073436953";\u000a          js.src = "//connect.facebook.net/en_US/all.js#xfbml=1&appId=180039342148350";\u000a          fjs.parentNode.insertBefore(js, fjs);\u000a        }(document, 'script', 'facebook-jssdk'));</script>\u000a        -->\u000a        <div id="fb-root"></div>\u000a        <script>(function(d, s, id) {\u000a          var js, fjs = d.getElementsByTagName(s)[0];\u000a          if (d.getElementById(id)) return;\u000a          js = d.createElement(s); js.id = id;\u000a          js.src = "//connect.facebook.net/en_US/all.js#xfbml=1&appId=1429763897272358";\u000a          fjs.parentNode.insertBefore(js, fjs);\u000a          }(document, 'script', 'facebook-jssdk'));\u000a        </script>\u000a        <script>\u000a          (function(i,s,o,g,r,a,m){i['GoogleAnalyticsObject']=r;i[r]=i[r]||function(){\u000a          (i[r].q=i[r].q||[]).push(arguments)},i[r].l=1*new Date();a=s.createElement(o),\u000a          m=s.getElementsByTagName(o)[0];a.async=1;a.src=g;m.parentNode.insertBefore(a,m)\u000a          })(window,document,'script','//www.google-analytics.com/analytics.js','ga');\u000a          ga('create', 'UA-2620870-11', 'auto');\u000a          ga('require', 'displayfeatures');\u000a          ga('require', 'linkid', 'linkid.js');\u000a          ga('send', 'pageview');\u000a        </script>\u000a    \u000a  </body>\u000a</html>\u000a\u000a
p3
a.