(lp0
S'https://github.com/justjavac/free-programming-books-zh_CN#python'
p1
aS'justjavac/free-programming-books-zh_CN'
p2
aI0
aV\u000a\u000a\u000a\u000a<!DOCTYPE html>\u000a<html lang="en" class=" is-copy-enabled is-u2f-enabled">\u000a  <head prefix="og: http://ogp.me/ns# fb: http://ogp.me/ns/fb# object: http://ogp.me/ns/object# article: http://ogp.me/ns/article# profile: http://ogp.me/ns/profile#">\u000a    <meta charset='utf-8'>\u000a    \u000a\u000a    <link crossorigin="anonymous" href="https://assets-cdn.github.com/assets/frameworks-b94ec35a696398c8a00f27343992e597c93faadce7783164f7f8967248cc818f.css" integrity="sha256-uU7DWmljmMigDyc0OZLll8k/qtzneDFk9/iWckjMgY8=" media="all" rel="stylesheet" />\u000a    <link crossorigin="anonymous" href="https://assets-cdn.github.com/assets/github-aebd420532800f9cce20cd765d8312a057d4628ae7bc626c8535e671d7767037.css" integrity="sha256-rr1CBTKAD5zOIM12XYMSoFfUYornvGJshTXmcdd2cDc=" media="all" rel="stylesheet" />\u000a    \u000a    \u000a    <link crossorigin="anonymous" href="https://assets-cdn.github.com/assets/site-9e0f35305336555b58884b07a160747fc1f6dbd79e13e18820a598a9abcb2662.css" integrity="sha256-ng81MFM2VVtYiEsHoWB0f8H229eeE+GIIKWYqavLJmI=" media="all" rel="stylesheet" />\u000a    \u000a\u000a    <meta http-equiv="X-UA-Compatible" content="IE=edge">\u000a    <meta http-equiv="Content-Language" content="en">\u000a    <meta name="viewport" content="width=device-width">\u000a    \u000a    <title>GitHub - justjavac/free-programming-books-zh_CN: \u514d\u8d39\u7684\u8ba1\u7b97\u673a\u7f16\u7a0b\u7c7b\u4e2d\u6587\u4e66\u7c4d\uff0c\u6b22\u8fce\u6295\u7a3f</title>\u000a    <link rel="search" type="application/opensearchdescription+xml" href="/opensearch.xml" title="GitHub">\u000a    <link rel="fluid-icon" href="https://github.com/fluidicon.png" title="GitHub">\u000a    <link rel="apple-touch-icon" href="/apple-touch-icon.png">\u000a    <link rel="apple-touch-icon" sizes="57x57" href="/apple-touch-icon-57x57.png">\u000a    <link rel="apple-touch-icon" sizes="60x60" href="/apple-touch-icon-60x60.png">\u000a    <link rel="apple-touch-icon" sizes="72x72" href="/apple-touch-icon-72x72.png">\u000a    <link rel="apple-touch-icon" sizes="76x76" href="/apple-touch-icon-76x76.png">\u000a    <link rel="apple-touch-icon" sizes="114x114" href="/apple-touch-icon-114x114.png">\u000a    <link rel="apple-touch-icon" sizes="120x120" href="/apple-touch-icon-120x120.png">\u000a    <link rel="apple-touch-icon" sizes="144x144" href="/apple-touch-icon-144x144.png">\u000a    <link rel="apple-touch-icon" sizes="152x152" href="/apple-touch-icon-152x152.png">\u000a    <link rel="apple-touch-icon" sizes="180x180" href="/apple-touch-icon-180x180.png">\u000a    <meta property="fb:app_id" content="1401488693436528">\u000a\u000a      <meta content="https://avatars2.githubusercontent.com/u/359395?v=3&amp;s=400" name="twitter:image:src" /><meta content="@github" name="twitter:site" /><meta content="summary" name="twitter:card" /><meta content="justjavac/free-programming-books-zh_CN" name="twitter:title" /><meta content="free-programming-books-zh_CN - :books: \u514d\u8d39\u7684\u8ba1\u7b97\u673a\u7f16\u7a0b\u7c7b\u4e2d\u6587\u4e66\u7c4d\uff0c\u6b22\u8fce\u6295\u7a3f" name="twitter:description" />\u000a      <meta content="https://avatars2.githubusercontent.com/u/359395?v=3&amp;s=400" property="og:image" /><meta content="GitHub" property="og:site_name" /><meta content="object" property="og:type" /><meta content="justjavac/free-programming-books-zh_CN" property="og:title" /><meta content="https://github.com/justjavac/free-programming-books-zh_CN" property="og:url" /><meta content="free-programming-books-zh_CN - :books: \u514d\u8d39\u7684\u8ba1\u7b97\u673a\u7f16\u7a0b\u7c7b\u4e2d\u6587\u4e66\u7c4d\uff0c\u6b22\u8fce\u6295\u7a3f" property="og:description" />\u000a      <meta name="browser-stats-url" content="https://api.github.com/_private/browser/stats">\u000a    <meta name="browser-errors-url" content="https://api.github.com/_private/browser/errors">\u000a    <link rel="assets" href="https://assets-cdn.github.com/">\u000a    \u000a    <meta name="pjax-timeout" content="1000">\u000a    \u000a    <meta name="request-id" content="6A266622:557C:C2B1D85:585A67E8" data-pjax-transient>\u000a\u000a    <meta name="msapplication-TileImage" content="/windows-tile.png">\u000a    <meta name="msapplication-TileColor" content="#ffffff">\u000a    <meta name="selected-link" value="repo_source" data-pjax-transient>\u000a\u000a    <meta name="google-site-verification" content="KT5gs8h0wvaagLKAVWq8bbeNwnZZK1r1XQysX3xurLU">\u000a<meta name="google-site-verification" content="ZzhVyEFwb7w3e0-uOTltm8Jsck2F5StVihD0exw2fsA">\u000a    <meta name="google-analytics" content="UA-3769691-2">\u000a\u000a<meta content="collector.githubapp.com" name="octolytics-host" /><meta content="github" name="octolytics-app-id" /><meta content="6A266622:557C:C2B1D85:585A67E8" name="octolytics-dimension-request_id" />\u000a<meta content="/&lt;user-name&gt;/&lt;repo-name&gt;" data-pjax-transient="true" name="analytics-location" />\u000a\u000a\u000a\u000a  <meta class="js-ga-set" name="dimension1" content="Logged Out">\u000a\u000a\u000a\u000a        <meta name="hostname" content="github.com">\u000a    <meta name="user-login" content="">\u000a\u000a        <meta name="expected-hostname" content="github.com">\u000a      <meta name="js-proxy-site-detection-payload" content="YmJhZDYzMDMwYmFhMzVlODBlM2FjOWJlOTdhYmRlZDZiZDRmOWU0YjZhY2Q3NzgxZWQ1OGUwYmE3YmEwMDE0Mnx7InJlbW90ZV9hZGRyZXNzIjoiMTA2LjM4LjEwMi4zNCIsInJlcXVlc3RfaWQiOiI2QTI2NjYyMjo1NTdDOkMyQjFEODU6NTg1QTY3RTgiLCJ0aW1lc3RhbXAiOjE0ODIzMTk4NDksImhvc3QiOiJnaXRodWIuY29tIn0=">\u000a\u000a\u000a      <link rel="mask-icon" href="https://assets-cdn.github.com/pinned-octocat.svg" color="#000000">\u000a      <link rel="icon" type="image/x-icon" href="https://assets-cdn.github.com/favicon.ico">\u000a\u000a    <meta name="html-safe-nonce" content="8e15c911e0efc43bb6c766e6502ca131bedeb154">\u000a    <meta content="185c870ae69c6dcaa8c635c419f803f65ba624c5" name="form-nonce" />\u000a\u000a    <meta http-equiv="x-pjax-version" content="9ac6f3e80176faec82e45cb144ad6878">\u000a    \u000a\u000a      \u000a  <meta name="description" content="free-programming-books-zh_CN - :books: \u514d\u8d39\u7684\u8ba1\u7b97\u673a\u7f16\u7a0b\u7c7b\u4e2d\u6587\u4e66\u7c4d\uff0c\u6b22\u8fce\u6295\u7a3f">\u000a  <meta name="go-import" content="github.com/justjavac/free-programming-books-zh_CN git https://github.com/justjavac/free-programming-books-zh_CN.git">\u000a\u000a  <meta content="359395" name="octolytics-dimension-user_id" /><meta content="justjavac" name="octolytics-dimension-user_login" /><meta content="14098069" name="octolytics-dimension-repository_id" /><meta content="justjavac/free-programming-books-zh_CN" name="octolytics-dimension-repository_nwo" /><meta content="true" name="octolytics-dimension-repository_public" /><meta content="false" name="octolytics-dimension-repository_is_fork" /><meta content="14098069" name="octolytics-dimension-repository_network_root_id" /><meta content="justjavac/free-programming-books-zh_CN" name="octolytics-dimension-repository_network_root_nwo" />\u000a  <link href="https://github.com/justjavac/free-programming-books-zh_CN/commits/master.atom" rel="alternate" title="Recent Commits to free-programming-books-zh_CN:master" type="application/atom+xml">\u000a\u000a\u000a      <link rel="canonical" href="https://github.com/justjavac/free-programming-books-zh_CN" data-pjax-transient>\u000a  </head>\u000a\u000a\u000a  <body class="logged-out  env-production linux vis-public">\u000a    <div id="js-pjax-loader-bar" class="pjax-loader-bar"><div class="progress"></div></div>\u000a    <a href="#start-of-content" tabindex="1" class="accessibility-aid js-skip-to-content">Skip to content</a>\u000a\u000a    \u000a    \u000a    \u000a\u000a\u000a\u000a          <header class="site-header js-details-container" role="banner">\u000a  <div class="container-responsive">\u000a    <a class="header-logo-invertocat" href="https://github.com/" aria-label="Homepage" data-ga-click="(Logged out) Header, go to homepage, icon:logo-wordmark">\u000a      <svg aria-hidden="true" class="octicon octicon-mark-github" height="32" version="1.1" viewBox="0 0 16 16" width="32"><path fill-rule="evenodd" d="M8 0C3.58 0 0 3.58 0 8c0 3.54 2.29 6.53 5.47 7.59.4.07.55-.17.55-.38 0-.19-.01-.82-.01-1.49-2.01.37-2.53-.49-2.69-.94-.09-.23-.48-.94-.82-1.13-.28-.15-.68-.52-.01-.53.63-.01 1.08.58 1.23.82.72 1.21 1.87.87 2.33.66.07-.52.28-.87.51-1.07-1.78-.2-3.64-.89-3.64-3.95 0-.87.31-1.59.82-2.15-.08-.2-.36-1.02.08-2.12 0 0 .67-.21 2.2.82.64-.18 1.32-.27 2-.27.68 0 1.36.09 2 .27 1.53-1.04 2.2-.82 2.2-.82.44 1.1.16 1.92.08 2.12.51.56.82 1.27.82 2.15 0 3.07-1.87 3.75-3.65 3.95.29.25.54.73.54 1.48 0 1.07-.01 1.93-.01 2.2 0 .21.15.46.55.38A8.013 8.013 0 0 0 16 8c0-4.42-3.58-8-8-8z"/></svg>\u000a    </a>\u000a\u000a    <button class="btn-link float-right site-header-toggle js-details-target" type="button" aria-label="Toggle navigation">\u000a      <svg aria-hidden="true" class="octicon octicon-three-bars" height="24" version="1.1" viewBox="0 0 12 16" width="18"><path fill-rule="evenodd" d="M11.41 9H.59C0 9 0 8.59 0 8c0-.59 0-1 .59-1H11.4c.59 0 .59.41.59 1 0 .59 0 1-.59 1h.01zm0-4H.59C0 5 0 4.59 0 4c0-.59 0-1 .59-1H11.4c.59 0 .59.41.59 1 0 .59 0 1-.59 1h.01zM.59 11H11.4c.59 0 .59.41.59 1 0 .59 0 1-.59 1H.59C0 13 0 12.59 0 12c0-.59 0-1 .59-1z"/></svg>\u000a    </button>\u000a\u000a    <div class="site-header-menu">\u000a      <nav class="site-header-nav site-header-nav-main">\u000a        <a href="/personal" class="js-selected-navigation-item nav-item nav-item-personal" data-ga-click="Header, click, Nav menu - item:personal" data-selected-links="/personal /personal">\u000a          Personal\u000a</a>        <a href="/open-source" class="js-selected-navigation-item nav-item nav-item-opensource" data-ga-click="Header, click, Nav menu - item:opensource" data-selected-links="/open-source /open-source">\u000a          Open source\u000a</a>        <a href="/business" class="js-selected-navigation-item nav-item nav-item-business" data-ga-click="Header, click, Nav menu - item:business" data-selected-links="/business /business/partners /business/features /business/customers /business">\u000a          Business\u000a</a>        <a href="/explore" class="js-selected-navigation-item nav-item nav-item-explore" data-ga-click="Header, click, Nav menu - item:explore" data-selected-links="/explore /trending /trending/developers /integrations /integrations/feature/code /integrations/feature/collaborate /integrations/feature/ship /showcases /explore">\u000a          Explore\u000a</a>      </nav>\u000a\u000a      <div class="site-header-actions">\u000a            <a class="btn btn-primary site-header-actions-btn" href="/join?source=header-repo" data-ga-click="(Logged out) Header, clicked Sign up, text:sign-up">Sign up</a>\u000a          <a class="btn site-header-actions-btn mr-1" href="/login?return_to=%2Fjustjavac%2Ffree-programming-books-zh_CN" data-ga-click="(Logged out) Header, clicked Sign in, text:sign-in">Sign in</a>\u000a      </div>\u000a\u000a        <nav class="site-header-nav site-header-nav-secondary mr-md-3">\u000a          <a class="nav-item" href="/pricing">Pricing</a>\u000a          <a class="nav-item" href="/blog">Blog</a>\u000a          <a class="nav-item" href="https://help.github.com">Support</a>\u000a          <a class="nav-item header-search-link" href="https://github.com/search">Search GitHub</a>\u000a              <div class="header-search scoped-search site-scoped-search js-site-search" role="search">\u000a  <!-- '"` --><!-- </textarea></xmp> --></option></form><form accept-charset="UTF-8" action="/justjavac/free-programming-books-zh_CN/search" class="js-site-search-form" data-scoped-search-url="/justjavac/free-programming-books-zh_CN/search" data-unscoped-search-url="/search" method="get"><div style="margin:0;padding:0;display:inline"><input name="utf8" type="hidden" value="&#x2713;" /></div>\u000a    <label class="form-control header-search-wrapper js-chromeless-input-container">\u000a      <div class="header-search-scope">This repository</div>\u000a      <input type="text"\u000a        class="form-control header-search-input js-site-search-focus js-site-search-field is-clearable"\u000a        data-hotkey="s"\u000a        name="q"\u000a        placeholder="Search"\u000a        aria-label="Search this repository"\u000a        data-unscoped-placeholder="Search GitHub"\u000a        data-scoped-placeholder="Search"\u000a        autocapitalize="off">\u000a    </label>\u000a</form></div>\u000a\u000a        </nav>\u000a    </div>\u000a  </div>\u000a</header>\u000a\u000a\u000a\u000a    <div id="start-of-content" class="accessibility-aid"></div>\u000a\u000a      <div id="js-flash-container">\u000a</div>\u000a\u000a\u000a    <div role="main">\u000a        <div itemscope itemtype="http://schema.org/SoftwareSourceCode">\u000a    <div id="js-repo-pjax-container" data-pjax-container>\u000a      \u000a<div class="pagehead repohead instapaper_ignore readability-menu experiment-repo-nav">\u000a  <div class="container repohead-details-container">\u000a\u000a    \u000a\u000a<ul class="pagehead-actions">\u000a\u000a  <li>\u000a      <a href="/login?return_to=%2Fjustjavac%2Ffree-programming-books-zh_CN"\u000a    class="btn btn-sm btn-with-count tooltipped tooltipped-n"\u000a    aria-label="You must be signed in to watch a repository" rel="nofollow">\u000a    <svg aria-hidden="true" class="octicon octicon-eye" height="16" version="1.1" viewBox="0 0 16 16" width="16"><path fill-rule="evenodd" d="M8.06 2C3 2 0 8 0 8s3 6 8.06 6C13 14 16 8 16 8s-3-6-7.94-6zM8 12c-2.2 0-4-1.78-4-4 0-2.2 1.8-4 4-4 2.22 0 4 1.8 4 4 0 2.22-1.78 4-4 4zm2-4c0 1.11-.89 2-2 2-1.11 0-2-.89-2-2 0-1.11.89-2 2-2 1.11 0 2 .89 2 2z"/></svg>\u000a    Watch\u000a  </a>\u000a  <a class="social-count" href="/justjavac/free-programming-books-zh_CN/watchers"\u000a     aria-label="2418 users are watching this repository">\u000a    2,418\u000a  </a>\u000a\u000a  </li>\u000a\u000a  <li>\u000a      <a href="/login?return_to=%2Fjustjavac%2Ffree-programming-books-zh_CN"\u000a    class="btn btn-sm btn-with-count tooltipped tooltipped-n"\u000a    aria-label="You must be signed in to star a repository" rel="nofollow">\u000a    <svg aria-hidden="true" class="octicon octicon-star" height="16" version="1.1" viewBox="0 0 14 16" width="14"><path fill-rule="evenodd" d="M14 6l-4.9-.64L7 1 4.9 5.36 0 6l3.6 3.26L2.67 14 7 11.67 11.33 14l-.93-4.74z"/></svg>\u000a    Star\u000a  </a>\u000a\u000a    <a class="social-count js-social-count" href="/justjavac/free-programming-books-zh_CN/stargazers"\u000a      aria-label="15648 users starred this repository">\u000a      15,648\u000a    </a>\u000a\u000a  </li>\u000a\u000a  <li>\u000a      <a href="/login?return_to=%2Fjustjavac%2Ffree-programming-books-zh_CN"\u000a        class="btn btn-sm btn-with-count tooltipped tooltipped-n"\u000a        aria-label="You must be signed in to fork a repository" rel="nofollow">\u000a        <svg aria-hidden="true" class="octicon octicon-repo-forked" height="16" version="1.1" viewBox="0 0 10 16" width="10"><path fill-rule="evenodd" d="M8 1a1.993 1.993 0 0 0-1 3.72V6L5 8 3 6V4.72A1.993 1.993 0 0 0 2 1a1.993 1.993 0 0 0-1 3.72V6.5l3 3v1.78A1.993 1.993 0 0 0 5 15a1.993 1.993 0 0 0 1-3.72V9.5l3-3V4.72A1.993 1.993 0 0 0 8 1zM2 4.2C1.34 4.2.8 3.65.8 3c0-.65.55-1.2 1.2-1.2.65 0 1.2.55 1.2 1.2 0 .65-.55 1.2-1.2 1.2zm3 10c-.66 0-1.2-.55-1.2-1.2 0-.65.55-1.2 1.2-1.2.65 0 1.2.55 1.2 1.2 0 .65-.55 1.2-1.2 1.2zm3-10c-.66 0-1.2-.55-1.2-1.2 0-.65.55-1.2 1.2-1.2.65 0 1.2.55 1.2 1.2 0 .65-.55 1.2-1.2 1.2z"/></svg>\u000a        Fork\u000a      </a>\u000a\u000a    <a href="/justjavac/free-programming-books-zh_CN/network" class="social-count"\u000a       aria-label="6450 users forked this repository">\u000a      6,450\u000a    </a>\u000a  </li>\u000a</ul>\u000a\u000a    <h1 class="public ">\u000a  <svg aria-hidden="true" class="octicon octicon-repo" height="16" version="1.1" viewBox="0 0 12 16" width="12"><path fill-rule="evenodd" d="M4 9H3V8h1v1zm0-3H3v1h1V6zm0-2H3v1h1V4zm0-2H3v1h1V2zm8-1v12c0 .55-.45 1-1 1H6v2l-1.5-1.5L3 16v-2H1c-.55 0-1-.45-1-1V1c0-.55.45-1 1-1h10c.55 0 1 .45 1 1zm-1 10H1v2h2v-1h3v1h5v-2zm0-10H2v9h9V1z"/></svg>\u000a  <span class="author" itemprop="author"><a href="/justjavac" class="url fn" rel="author">justjavac</a></span><!--\u000a--><span class="path-divider">/</span><!--\u000a--><strong itemprop="name"><a href="/justjavac/free-programming-books-zh_CN" data-pjax="#js-repo-pjax-container">free-programming-books-zh_CN</a></strong>\u000a\u000a</h1>\u000a\u000a  </div>\u000a  <div class="container">\u000a    \u000a<nav class="reponav js-repo-nav js-sidenav-container-pjax"\u000a     itemscope\u000a     itemtype="http://schema.org/BreadcrumbList"\u000a     role="navigation"\u000a     data-pjax="#js-repo-pjax-container">\u000a\u000a  <span itemscope itemtype="http://schema.org/ListItem" itemprop="itemListElement">\u000a    <a href="/justjavac/free-programming-books-zh_CN" class="js-selected-navigation-item selected reponav-item" data-hotkey="g c" data-selected-links="repo_source repo_downloads repo_commits repo_releases repo_tags repo_branches /justjavac/free-programming-books-zh_CN" itemprop="url">\u000a      <svg aria-hidden="true" class="octicon octicon-code" height="16" version="1.1" viewBox="0 0 14 16" width="14"><path fill-rule="evenodd" d="M9.5 3L8 4.5 11.5 8 8 11.5 9.5 13 14 8 9.5 3zm-5 0L0 8l4.5 5L6 11.5 2.5 8 6 4.5 4.5 3z"/></svg>\u000a      <span itemprop="name">Code</span>\u000a      <meta itemprop="position" content="1">\u000a</a>  </span>\u000a\u000a    <span itemscope itemtype="http://schema.org/ListItem" itemprop="itemListElement">\u000a      <a href="/justjavac/free-programming-books-zh_CN/issues" class="js-selected-navigation-item reponav-item" data-hotkey="g i" data-selected-links="repo_issues repo_labels repo_milestones /justjavac/free-programming-books-zh_CN/issues" itemprop="url">\u000a        <svg aria-hidden="true" class="octicon octicon-issue-opened" height="16" version="1.1" viewBox="0 0 14 16" width="14"><path fill-rule="evenodd" d="M7 2.3c3.14 0 5.7 2.56 5.7 5.7s-2.56 5.7-5.7 5.7A5.71 5.71 0 0 1 1.3 8c0-3.14 2.56-5.7 5.7-5.7zM7 1C3.14 1 0 4.14 0 8s3.14 7 7 7 7-3.14 7-7-3.14-7-7-7zm1 3H6v5h2V4zm0 6H6v2h2v-2z"/></svg>\u000a        <span itemprop="name">Issues</span>\u000a        <span class="counter">51</span>\u000a        <meta itemprop="position" content="2">\u000a</a>    </span>\u000a\u000a  <span itemscope itemtype="http://schema.org/ListItem" itemprop="itemListElement">\u000a    <a href="/justjavac/free-programming-books-zh_CN/pulls" class="js-selected-navigation-item reponav-item" data-hotkey="g p" data-selected-links="repo_pulls /justjavac/free-programming-books-zh_CN/pulls" itemprop="url">\u000a      <svg aria-hidden="true" class="octicon octicon-git-pull-request" height="16" version="1.1" viewBox="0 0 12 16" width="12"><path fill-rule="evenodd" d="M11 11.28V5c-.03-.78-.34-1.47-.94-2.06C9.46 2.35 8.78 2.03 8 2H7V0L4 3l3 3V4h1c.27.02.48.11.69.31.21.2.3.42.31.69v6.28A1.993 1.993 0 0 0 10 15a1.993 1.993 0 0 0 1-3.72zm-1 2.92c-.66 0-1.2-.55-1.2-1.2 0-.65.55-1.2 1.2-1.2.65 0 1.2.55 1.2 1.2 0 .65-.55 1.2-1.2 1.2zM4 3c0-1.11-.89-2-2-2a1.993 1.993 0 0 0-1 3.72v6.56A1.993 1.993 0 0 0 2 15a1.993 1.993 0 0 0 1-3.72V4.72c.59-.34 1-.98 1-1.72zm-.8 10c0 .66-.55 1.2-1.2 1.2-.65 0-1.2-.55-1.2-1.2 0-.65.55-1.2 1.2-1.2.65 0 1.2.55 1.2 1.2zM2 4.2C1.34 4.2.8 3.65.8 3c0-.65.55-1.2 1.2-1.2.65 0 1.2.55 1.2 1.2 0 .65-.55 1.2-1.2 1.2z"/></svg>\u000a      <span itemprop="name">Pull requests</span>\u000a      <span class="counter">23</span>\u000a      <meta itemprop="position" content="3">\u000a</a>  </span>\u000a\u000a  <a href="/justjavac/free-programming-books-zh_CN/projects" class="js-selected-navigation-item reponav-item" data-selected-links="repo_projects new_repo_project repo_project /justjavac/free-programming-books-zh_CN/projects">\u000a    <svg aria-hidden="true" class="octicon octicon-project" height="16" version="1.1" viewBox="0 0 15 16" width="15"><path fill-rule="evenodd" d="M10 12h3V2h-3v10zm-4-2h3V2H6v8zm-4 4h3V2H2v12zm-1 1h13V1H1v14zM14 0H1a1 1 0 0 0-1 1v14a1 1 0 0 0 1 1h13a1 1 0 0 0 1-1V1a1 1 0 0 0-1-1z"/></svg>\u000a    Projects\u000a    <span class="counter">0</span>\u000a</a>\u000a\u000a\u000a  <a href="/justjavac/free-programming-books-zh_CN/pulse" class="js-selected-navigation-item reponav-item" data-selected-links="pulse /justjavac/free-programming-books-zh_CN/pulse">\u000a    <svg aria-hidden="true" class="octicon octicon-pulse" height="16" version="1.1" viewBox="0 0 14 16" width="14"><path fill-rule="evenodd" d="M11.5 8L8.8 5.4 6.6 8.5 5.5 1.6 2.38 8H0v2h3.6l.9-1.8.9 5.4L9 8.5l1.6 1.5H14V8z"/></svg>\u000a    Pulse\u000a</a>\u000a  <a href="/justjavac/free-programming-books-zh_CN/graphs" class="js-selected-navigation-item reponav-item" data-selected-links="repo_graphs repo_contributors /justjavac/free-programming-books-zh_CN/graphs">\u000a    <svg aria-hidden="true" class="octicon octicon-graph" height="16" version="1.1" viewBox="0 0 16 16" width="16"><path fill-rule="evenodd" d="M16 14v1H0V0h1v14h15zM5 13H3V8h2v5zm4 0H7V3h2v10zm4 0h-2V6h2v7z"/></svg>\u000a    Graphs\u000a</a>\u000a\u000a</nav>\u000a\u000a  </div>\u000a</div>\u000a\u000a<div class="container new-discussion-timeline experiment-repo-nav">\u000a  <div class="repository-content">\u000a\u000a    \u000a<div class="repository-meta js-details-container">\u000a  <div class="repository-meta-content col-11">\u000a        <span class="col-11 text-gray-dark" itemprop="about">\u000a          \u000a<g-emoji alias="books" fallback-src="https://assets-cdn.github.com/images/icons/emoji/unicode/1f4da.png" ios-version="6.0">\U0001f4da</g-emoji> \u514d\u8d39\u7684\u8ba1\u7b97\u673a\u7f16\u7a0b\u7c7b\u4e2d\u6587\u4e66\u7c4d\uff0c\u6b22\u8fce\u6295\u7a3f\u000a        </span>\u000a        <span itemprop="url"><a href="http://weibo.com/justjavac" rel="nofollow">http://weibo.com/justjavac</a></span>\u000a\u000a  </div>\u000a\u000a</div>\u000a\u000a\u000a\u000a<div class="overall-summary overall-summary-bottomless">\u000a  <div class="stats-switcher-viewport js-stats-switcher-viewport">\u000a    <div class="stats-switcher-wrapper">\u000a    <ul class="numbers-summary">\u000a      <li class="commits">\u000a        <a data-pjax href="/justjavac/free-programming-books-zh_CN/commits/master">\u000a            <svg aria-hidden="true" class="octicon octicon-history" height="16" version="1.1" viewBox="0 0 14 16" width="14"><path fill-rule="evenodd" d="M8 13H6V6h5v2H8v5zM7 1C4.81 1 2.87 2.02 1.59 3.59L0 2v4h4L2.5 4.5C3.55 3.17 5.17 2.3 7 2.3c3.14 0 5.7 2.56 5.7 5.7s-2.56 5.7-5.7 5.7A5.71 5.71 0 0 1 1.3 8c0-.34.03-.67.09-1H.08C.03 7.33 0 7.66 0 8c0 3.86 3.14 7 7 7s7-3.14 7-7-3.14-7-7-7z"/></svg>\u000a            <span class="num text-emphasized">\u000a              839\u000a            </span>\u000a            commits\u000a        </a>\u000a      </li>\u000a      <li>\u000a        <a data-pjax href="/justjavac/free-programming-books-zh_CN/branches">\u000a          <svg aria-hidden="true" class="octicon octicon-git-branch" height="16" version="1.1" viewBox="0 0 10 16" width="10"><path fill-rule="evenodd" d="M10 5c0-1.11-.89-2-2-2a1.993 1.993 0 0 0-1 3.72v.3c-.02.52-.23.98-.63 1.38-.4.4-.86.61-1.38.63-.83.02-1.48.16-2 .45V4.72a1.993 1.993 0 0 0-1-3.72C.88 1 0 1.89 0 3a2 2 0 0 0 1 1.72v6.56c-.59.35-1 .99-1 1.72 0 1.11.89 2 2 2 1.11 0 2-.89 2-2 0-.53-.2-1-.53-1.36.09-.06.48-.41.59-.47.25-.11.56-.17.94-.17 1.05-.05 1.95-.45 2.75-1.25S8.95 7.77 9 6.73h-.02C9.59 6.37 10 5.73 10 5zM2 1.8c.66 0 1.2.55 1.2 1.2 0 .65-.55 1.2-1.2 1.2C1.35 4.2.8 3.65.8 3c0-.65.55-1.2 1.2-1.2zm0 12.41c-.66 0-1.2-.55-1.2-1.2 0-.65.55-1.2 1.2-1.2.65 0 1.2.55 1.2 1.2 0 .65-.55 1.2-1.2 1.2zm6-8c-.66 0-1.2-.55-1.2-1.2 0-.65.55-1.2 1.2-1.2.65 0 1.2.55 1.2 1.2 0 .65-.55 1.2-1.2 1.2z"/></svg>\u000a          <span class="num text-emphasized">\u000a            1\u000a          </span>\u000a          branch\u000a        </a>\u000a      </li>\u000a\u000a      <li>\u000a        <a data-pjax href="/justjavac/free-programming-books-zh_CN/releases">\u000a          <svg aria-hidden="true" class="octicon octicon-tag" height="16" version="1.1" viewBox="0 0 14 16" width="14"><path fill-rule="evenodd" d="M7.73 1.73C7.26 1.26 6.62 1 5.96 1H3.5C2.13 1 1 2.13 1 3.5v2.47c0 .66.27 1.3.73 1.77l6.06 6.06c.39.39 1.02.39 1.41 0l4.59-4.59a.996.996 0 0 0 0-1.41L7.73 1.73zM2.38 7.09c-.31-.3-.47-.7-.47-1.13V3.5c0-.88.72-1.59 1.59-1.59h2.47c.42 0 .83.16 1.13.47l6.14 6.13-4.73 4.73-6.13-6.15zM3.01 3h2v2H3V3h.01z"/></svg>\u000a          <span class="num text-emphasized">\u000a            1\u000a          </span>\u000a          release\u000a        </a>\u000a      </li>\u000a\u000a      <li>\u000a          <a href="/justjavac/free-programming-books-zh_CN/graphs/contributors">\u000a  <svg aria-hidden="true" class="octicon octicon-organization" height="16" version="1.1" viewBox="0 0 16 16" width="16"><path fill-rule="evenodd" d="M16 12.999c0 .439-.45 1-1 1H7.995c-.539 0-.994-.447-.995-.999H1c-.54 0-1-.561-1-1 0-2.634 3-4 3-4s.229-.409 0-1c-.841-.621-1.058-.59-1-3 .058-2.419 1.367-3 2.5-3s2.442.58 2.5 3c.058 2.41-.159 2.379-1 3-.229.59 0 1 0 1s1.549.711 2.42 2.088C9.196 9.369 10 8.999 10 8.999s.229-.409 0-1c-.841-.62-1.058-.59-1-3 .058-2.419 1.367-3 2.5-3s2.437.581 2.495 3c.059 2.41-.158 2.38-1 3-.229.59 0 1 0 1s3.005 1.366 3.005 4"/></svg>\u000a    <span class="num text-emphasized">\u000a      93\u000a    </span>\u000a    contributors\u000a</a>\u000a\u000a      </li>\u000a        <li>\u000a          <a href="https://github.com/justjavac/free-programming-books-zh_CN/blob/master/LICENSE">\u000a            <svg aria-hidden="true" class="octicon octicon-law" height="16" version="1.1" viewBox="0 0 14 16" width="14"><path fill-rule="evenodd" d="M7 4c-.83 0-1.5-.67-1.5-1.5S6.17 1 7 1s1.5.67 1.5 1.5S7.83 4 7 4zm7 6c0 1.11-.89 2-2 2h-1c-1.11 0-2-.89-2-2l2-4h-1c-.55 0-1-.45-1-1H8v8c.42 0 1 .45 1 1h1c.42 0 1 .45 1 1H3c0-.55.58-1 1-1h1c0-.55.58-1 1-1h.03L6 5H5c0 .55-.45 1-1 1H3l2 4c0 1.11-.89 2-2 2H2c-1.11 0-2-.89-2-2l2-4H1V5h3c0-.55.45-1 1-1h4c.55 0 1 .45 1 1h3v1h-1l2 4zM2.5 7L1 10h3L2.5 7zM13 10l-1.5-3-1.5 3h3z"/></svg>\u000a              GPL-3.0\u000a          </a>\u000a        </li>\u000a    </ul>\u000a\u000a      <div class="repository-lang-stats">\u000a        <ol class="repository-lang-stats-numbers">\u000a          <li>\u000a              <a href="/justjavac/free-programming-books-zh_CN/search?l=javascript"  data-ga-click="Repository, language stats search click, location:repo overview">\u000a                <span class="color-block language-color" style="background-color:#f1e05a;"></span>\u000a                <span class="lang">JavaScript</span>\u000a                <span class="percent">100.0%</span>\u000a              </a>\u000a          </li>\u000a        </ol>\u000a      </div>\u000a    </div>\u000a  </div>\u000a</div>\u000a\u000a  <div class="repository-lang-stats-graph js-toggle-lang-stats" title="Click for language details" data-ga-click="Repository, language bar stats toggle, location:repo overview">\u000a    <span class="language-color" aria-label="JavaScript 100.0%" style="width:100.0%; background-color:#f1e05a;" itemprop="keywords">JavaScript</span>\u000a  </div>\u000a\u000a\u000a<div class="file-navigation in-mid-page">\u000a\u000a    <div class="select-menu get-repo-select-menu js-menu-container float-right select-menu-modal-right">\u000a  <button class="btn btn-sm btn-primary select-menu-button js-menu-target"\u000a    title="Clone or download this repository"\u000a    type="button" aria-label="Clone or download this repository" tabindex="0" aria-haspopup="true">\u000a    <span>Clone or download</span>\u000a  </button>\u000a\u000a  <div class="select-menu-modal-holder dropdown-menu-content js-menu-content" aria-hidden="true">\u000a    <div class="get-repo-modal dropdown-menu dropdown-menu-sw pb-0 js-toggler-container ">\u000a      <div class="clone-options https-clone-options">\u000a\u000a        <h4 class="mb-1">\u000a          Clone with HTTPS\u000a          <a class="muted-link" href="https://help.github.com/articles/which-remote-url-should-i-use" target="_blank">\u000a            <svg aria-hidden="true" class="octicon octicon-question" height="16" version="1.1" viewBox="0 0 14 16" width="14"><path fill-rule="evenodd" d="M6 10h2v2H6v-2zm4-3.5C10 8.64 8 9 8 9H6c0-.55.45-1 1-1h.5c.28 0 .5-.22.5-.5v-1c0-.28-.22-.5-.5-.5h-1c-.28 0-.5.22-.5.5V7H4c0-1.5 1.5-3 3-3s3 1 3 2.5zM7 2.3c3.14 0 5.7 2.56 5.7 5.7s-2.56 5.7-5.7 5.7A5.71 5.71 0 0 1 1.3 8c0-3.14 2.56-5.7 5.7-5.7zM7 1C3.14 1 0 4.14 0 8s3.14 7 7 7 7-3.14 7-7-3.14-7-7-7z"/></svg>\u000a          </a>\u000a        </h4>\u000a        <p class="mb-2 get-repo-decription-text">\u000a          Use Git or checkout with SVN using the web URL.\u000a        </p>\u000a\u000a        <div class="input-group js-zeroclipboard-container">\u000a  <input type="text" class="form-control input-monospace input-sm js-zeroclipboard-target js-url-field" value="https://github.com/justjavac/free-programming-books-zh_CN.git" aria-label="Clone this repository at https://github.com/justjavac/free-programming-books-zh_CN.git" readonly>\u000a  <div class="input-group-button">\u000a    <button aria-label="Copy to clipboard" class="js-zeroclipboard btn btn-sm zeroclipboard-button tooltipped tooltipped-s" data-copied-hint="Copied!" type="button"><svg aria-hidden="true" class="octicon octicon-clippy" height="16" version="1.1" viewBox="0 0 14 16" width="14"><path fill-rule="evenodd" d="M2 13h4v1H2v-1zm5-6H2v1h5V7zm2 3V8l-3 3 3 3v-2h5v-2H9zM4.5 9H2v1h2.5V9zM2 12h2.5v-1H2v1zm9 1h1v2c-.02.28-.11.52-.3.7-.19.18-.42.28-.7.3H1c-.55 0-1-.45-1-1V4c0-.55.45-1 1-1h3c0-1.11.89-2 2-2 1.11 0 2 .89 2 2h3c.55 0 1 .45 1 1v5h-1V6H1v9h10v-2zM2 5h8c0-.55-.45-1-1-1H8c-.55 0-1-.45-1-1s-.45-1-1-1-1 .45-1 1-.45 1-1 1H3c-.55 0-1 .45-1 1z"/></svg></button>\u000a  </div>\u000a</div>\u000a\u000a      </div>\u000a\u000a\u000a      <div class="mt-2">\u000a        \u000a<a href="/justjavac/free-programming-books-zh_CN/archive/master.zip"\u000a   class="btn btn-outline get-repo-btn\u000a"\u000a   rel="nofollow"\u000a   data-ga-click="Repository, download zip, location:repo overview">\u000a  Download ZIP\u000a</a>\u000a\u000a      </div>\u000a    </div>\u000a  </div>\u000a</div>\u000a\u000a\u000a  <div class="BtnGroup float-right">\u000a\u000a    <a href="/justjavac/free-programming-books-zh_CN/find/master"\u000a      class="btn btn-sm empty-icon float-right BtnGroup-item"\u000a      data-pjax\u000a      data-hotkey="t"\u000a      data-ga-click="Repository, find file, location:repo overview">\u000a      Find file\u000a    </a>\u000a  </div>\u000a\u000a  \u000a<div class="select-menu branch-select-menu js-menu-container js-select-menu float-left">\u000a  <button class="btn btn-sm select-menu-button js-menu-target css-truncate" data-hotkey="w"\u000a    \u000a    type="button" aria-label="Switch branches or tags" tabindex="0" aria-haspopup="true">\u000a    <i>Branch:</i>\u000a    <span class="js-select-button css-truncate-target">master</span>\u000a  </button>\u000a\u000a  <div class="select-menu-modal-holder js-menu-content js-navigation-container" data-pjax aria-hidden="true">\u000a\u000a    <div class="select-menu-modal">\u000a      <div class="select-menu-header">\u000a        <svg aria-label="Close" class="octicon octicon-x js-menu-close" height="16" role="img" version="1.1" viewBox="0 0 12 16" width="12"><path fill-rule="evenodd" d="M7.48 8l3.75 3.75-1.48 1.48L6 9.48l-3.75 3.75-1.48-1.48L4.52 8 .77 4.25l1.48-1.48L6 6.52l3.75-3.75 1.48 1.48z"/></svg>\u000a        <span class="select-menu-title">Switch branches/tags</span>\u000a      </div>\u000a\u000a      <div class="select-menu-filters">\u000a        <div class="select-menu-text-filter">\u000a          <input type="text" aria-label="Filter branches/tags" id="context-commitish-filter-field" class="form-control js-filterable-field js-navigation-enable" placeholder="Filter branches/tags">\u000a        </div>\u000a        <div class="select-menu-tabs">\u000a          <ul>\u000a            <li class="select-menu-tab">\u000a              <a href="#" data-tab-filter="branches" data-filter-placeholder="Filter branches/tags" class="js-select-menu-tab" role="tab">Branches</a>\u000a            </li>\u000a            <li class="select-menu-tab">\u000a              <a href="#" data-tab-filter="tags" data-filter-placeholder="Find a tag\u2026" class="js-select-menu-tab" role="tab">Tags</a>\u000a            </li>\u000a          </ul>\u000a        </div>\u000a      </div>\u000a\u000a      <div class="select-menu-list select-menu-tab-bucket js-select-menu-tab-bucket" data-tab-filter="branches" role="menu">\u000a\u000a        <div data-filterable-for="context-commitish-filter-field" data-filterable-type="substring">\u000a\u000a\u000a            <a class="select-menu-item js-navigation-item js-navigation-open selected"\u000a               href="/justjavac/free-programming-books-zh_CN/tree/master"\u000a               data-name="master"\u000a               data-skip-pjax="true"\u000a               rel="nofollow">\u000a              <svg aria-hidden="true" class="octicon octicon-check select-menu-item-icon" height="16" version="1.1" viewBox="0 0 12 16" width="12"><path fill-rule="evenodd" d="M12 5l-8 8-4-4 1.5-1.5L4 10l6.5-6.5z"/></svg>\u000a              <span class="select-menu-item-text css-truncate-target js-select-menu-filter-text">\u000a                master\u000a              </span>\u000a            </a>\u000a        </div>\u000a\u000a          <div class="select-menu-no-results">Nothing to show</div>\u000a      </div>\u000a\u000a      <div class="select-menu-list select-menu-tab-bucket js-select-menu-tab-bucket" data-tab-filter="tags">\u000a        <div data-filterable-for="context-commitish-filter-field" data-filterable-type="substring">\u000a\u000a\u000a            <a class="select-menu-item js-navigation-item js-navigation-open "\u000a              href="/justjavac/free-programming-books-zh_CN/tree/v1.0"\u000a              data-name="v1.0"\u000a              data-skip-pjax="true"\u000a              rel="nofollow">\u000a              <svg aria-hidden="true" class="octicon octicon-check select-menu-item-icon" height="16" version="1.1" viewBox="0 0 12 16" width="12"><path fill-rule="evenodd" d="M12 5l-8 8-4-4 1.5-1.5L4 10l6.5-6.5z"/></svg>\u000a              <span class="select-menu-item-text css-truncate-target" title="v1.0">\u000a                v1.0\u000a              </span>\u000a            </a>\u000a        </div>\u000a\u000a        <div class="select-menu-no-results">Nothing to show</div>\u000a      </div>\u000a\u000a    </div>\u000a  </div>\u000a</div>\u000a\u000a\u000a      <button type="button" class="btn btn-sm disabled tooltipped tooltipped-n new-pull-request-btn" aria-label="You must be signed in to create a pull request">\u000a        New pull request\u000a      </button>\u000a\u000a  <div class="breadcrumb">\u000a    \u000a  </div>\u000a</div>\u000a\u000a\u000a\u000a\u000a\u000a  <div class="commit-tease js-details-container">\u000a    <span class="float-right">\u000a      Latest commit\u000a      <a class="commit-tease-sha" href="/justjavac/free-programming-books-zh_CN/commit/91f56cc0e007be7b18d541941ffa8b458655f3bd" data-pjax>\u000a        91f56cc\u000a      </a>\u000a      <span itemprop="dateModified"><relative-time datetime="2016-08-11T16:08:31Z">Aug 11, 2016</relative-time></span>\u000a    </span>\u000a\u000a\u000a    <span class="commit-author-section">\u000a      <img alt="@justjavac" class="avatar" height="20" src="https://avatars1.githubusercontent.com/u/359395?v=3&amp;s=40" width="20" />\u000a      <a href="/justjavac" class="user-mention" rel="author">justjavac</a>\u000a        committed on <strong>GitHub</strong>\u000a    </span>\u000a\u000a        <a href="/justjavac/free-programming-books-zh_CN/commit/91f56cc0e007be7b18d541941ffa8b458655f3bd" class="message" data-pjax="true" title="Update README.md">Update README.md</a>\u000a    </span>\u000a\u000a  </div>\u000a\u000a\u000a<div class="file-wrap">\u000a\u000a  <a href="/justjavac/free-programming-books-zh_CN/tree/91f56cc0e007be7b18d541941ffa8b458655f3bd" class="d-none js-permalink-shortcut" data-hotkey="y">Permalink</a>\u000a\u000a  <table class="files js-navigation-container js-active-navigation-container" data-pjax>\u000a\u000a\u000a    <tbody>\u000a      <tr class="warning include-fragment-error">\u000a        <td class="icon"><svg aria-hidden="true" class="octicon octicon-alert" height="16" version="1.1" viewBox="0 0 16 16" width="16"><path fill-rule="evenodd" d="M8.865 1.52c-.18-.31-.51-.5-.87-.5s-.69.19-.87.5L.275 13.5c-.18.31-.18.69 0 1 .19.31.52.5.87.5h13.7c.36 0 .69-.19.86-.5.17-.31.18-.69.01-1L8.865 1.52zM8.995 13h-2v-2h2v2zm0-3h-2V6h2v4z"/></svg></td>\u000a        <td class="content" colspan="3">Failed to load latest commit information.</td>\u000a      </tr>\u000a\u000a        <tr class="js-navigation-item">\u000a          <td class="icon">\u000a            <svg aria-hidden="true" class="octicon octicon-file-text" height="16" version="1.1" viewBox="0 0 12 16" width="12"><path d="M6 5H2V4h4v1zM2 8h7V7H2v1zm0 2h7V9H2v1zm0 2h7v-1H2v1zm10-7.5V14c0 .55-.45 1-1 1H1c-.55 0-1-.45-1-1V2c0-.55.45-1 1-1h7.5L12 4.5zM11 5L8 2H1v12h10V5z"/></svg>\u000a            <img alt="" class="spinner" height="16" src="https://assets-cdn.github.com/images/spinners/octocat-spinner-32.gif" width="16" />\u000a          </td>\u000a          <td class="content">\u000a            <span class="css-truncate css-truncate-target"><a href="/justjavac/free-programming-books-zh_CN/blob/master/.editorconfig" class="js-navigation-open" id="1e70daafb475c0ce3fef7d2728279182-8d09244890566bb44d48471fb1ab360909829861" title=".editorconfig">.editorconfig</a></span>\u000a          </td>\u000a          <td class="message">\u000a            <span class="css-truncate css-truncate-target">\u000a                  <a href="/justjavac/free-programming-books-zh_CN/commit/20c859f7f981c188deaaeb3f399ab25ec449dc2a" class="message" data-pjax="true" title="Update .editorconfig">Update .editorconfig</a>\u000a            </span>\u000a          </td>\u000a          <td class="age">\u000a            <span class="css-truncate css-truncate-target"><time-ago datetime="2015-10-29T00:21:01Z">Oct 29, 2015</time-ago></span>\u000a          </td>\u000a        </tr>\u000a        <tr class="js-navigation-item">\u000a          <td class="icon">\u000a            <svg aria-hidden="true" class="octicon octicon-file-text" height="16" version="1.1" viewBox="0 0 12 16" width="12"><path d="M6 5H2V4h4v1zM2 8h7V7H2v1zm0 2h7V9H2v1zm0 2h7v-1H2v1zm10-7.5V14c0 .55-.45 1-1 1H1c-.55 0-1-.45-1-1V2c0-.55.45-1 1-1h7.5L12 4.5zM11 5L8 2H1v12h10V5z"/></svg>\u000a            <img alt="" class="spinner" height="16" src="https://assets-cdn.github.com/images/spinners/octocat-spinner-32.gif" width="16" />\u000a          </td>\u000a          <td class="content">\u000a            <span class="css-truncate css-truncate-target"><a href="/justjavac/free-programming-books-zh_CN/blob/master/.travis.yml" class="js-navigation-open" id="354f30a63fb0907d4ad57269548329e3-cd4a652b00443c15c338b96f02170c508d845e84" title=".travis.yml">.travis.yml</a></span>\u000a          </td>\u000a          <td class="message">\u000a            <span class="css-truncate css-truncate-target">\u000a                  <a href="/justjavac/free-programming-books-zh_CN/commit/62e1e828a087c90e09741d05410b1c624c9fa552" class="message" data-pjax="true" title="Update .travis.yml">Update .travis.yml</a>\u000a            </span>\u000a          </td>\u000a          <td class="age">\u000a            <span class="css-truncate css-truncate-target"><time-ago datetime="2016-08-11T15:47:35Z">Aug 11, 2016</time-ago></span>\u000a          </td>\u000a        </tr>\u000a        <tr class="js-navigation-item">\u000a          <td class="icon">\u000a            <svg aria-hidden="true" class="octicon octicon-file-text" height="16" version="1.1" viewBox="0 0 12 16" width="12"><path d="M6 5H2V4h4v1zM2 8h7V7H2v1zm0 2h7V9H2v1zm0 2h7v-1H2v1zm10-7.5V14c0 .55-.45 1-1 1H1c-.55 0-1-.45-1-1V2c0-.55.45-1 1-1h7.5L12 4.5zM11 5L8 2H1v12h10V5z"/></svg>\u000a            <img alt="" class="spinner" height="16" src="https://assets-cdn.github.com/images/spinners/octocat-spinner-32.gif" width="16" />\u000a          </td>\u000a          <td class="content">\u000a            <span class="css-truncate css-truncate-target"><a href="/justjavac/free-programming-books-zh_CN/blob/master/CONTRIBUTING.md" class="js-navigation-open" id="6a3371457528722a734f3c51d9238c13-e5ec7191bc081e4e97b3905d22c0b9210e607242" title="CONTRIBUTING.md">CONTRIBUTING.md</a></span>\u000a          </td>\u000a          <td class="message">\u000a            <span class="css-truncate css-truncate-target">\u000a                  <a href="/justjavac/free-programming-books-zh_CN/commit/ad253e41f5140b9be11e3730c3f89169ace6275f" class="message" data-pjax="true" title="Rename CONTRIBUTING to CONTRIBUTING.md">Rename CONTRIBUTING to CONTRIBUTING.md</a>\u000a            </span>\u000a          </td>\u000a          <td class="age">\u000a            <span class="css-truncate css-truncate-target"><time-ago datetime="2014-11-18T00:46:13Z">Nov 18, 2014</time-ago></span>\u000a          </td>\u000a        </tr>\u000a        <tr class="js-navigation-item">\u000a          <td class="icon">\u000a            <svg aria-hidden="true" class="octicon octicon-file-text" height="16" version="1.1" viewBox="0 0 12 16" width="12"><path d="M6 5H2V4h4v1zM2 8h7V7H2v1zm0 2h7V9H2v1zm0 2h7v-1H2v1zm10-7.5V14c0 .55-.45 1-1 1H1c-.55 0-1-.45-1-1V2c0-.55.45-1 1-1h7.5L12 4.5zM11 5L8 2H1v12h10V5z"/></svg>\u000a            <img alt="" class="spinner" height="16" src="https://assets-cdn.github.com/images/spinners/octocat-spinner-32.gif" width="16" />\u000a          </td>\u000a          <td class="content">\u000a            <span class="css-truncate css-truncate-target"><a href="/justjavac/free-programming-books-zh_CN/blob/master/LICENSE" class="js-navigation-open" id="9879d6db96fd29134fc802214163b95a-ef7e7efc09c9d471c391f05b9567966928085840" itemprop="license" title="LICENSE">LICENSE</a></span>\u000a          </td>\u000a          <td class="message">\u000a            <span class="css-truncate css-truncate-target">\u000a                  <a href="/justjavac/free-programming-books-zh_CN/commit/b3e0319b5fbc6567fb0a605d0a40b7499cd8330b" class="message" data-pjax="true" title="Initial commit">Initial commit</a>\u000a            </span>\u000a          </td>\u000a          <td class="age">\u000a            <span class="css-truncate css-truncate-target"><time-ago datetime="2013-11-04T01:59:19Z">Nov 4, 2013</time-ago></span>\u000a          </td>\u000a        </tr>\u000a        <tr class="js-navigation-item">\u000a          <td class="icon">\u000a            <svg aria-hidden="true" class="octicon octicon-file-text" height="16" version="1.1" viewBox="0 0 12 16" width="12"><path d="M6 5H2V4h4v1zM2 8h7V7H2v1zm0 2h7V9H2v1zm0 2h7v-1H2v1zm10-7.5V14c0 .55-.45 1-1 1H1c-.55 0-1-.45-1-1V2c0-.55.45-1 1-1h7.5L12 4.5zM11 5L8 2H1v12h10V5z"/></svg>\u000a            <img alt="" class="spinner" height="16" src="https://assets-cdn.github.com/images/spinners/octocat-spinner-32.gif" width="16" />\u000a          </td>\u000a          <td class="content">\u000a            <span class="css-truncate css-truncate-target"><a href="/justjavac/free-programming-books-zh_CN/blob/master/README.md" class="js-navigation-open" id="04c6e90faac2675aa89e2176d2eec7d8-9857bf12192b007b0691541168c5dc2d29d03082" title="README.md">README.md</a></span>\u000a          </td>\u000a          <td class="message">\u000a            <span class="css-truncate css-truncate-target">\u000a                  <a href="/justjavac/free-programming-books-zh_CN/commit/91f56cc0e007be7b18d541941ffa8b458655f3bd" class="message" data-pjax="true" title="Update README.md">Update README.md</a>\u000a            </span>\u000a          </td>\u000a          <td class="age">\u000a            <span class="css-truncate css-truncate-target"><time-ago datetime="2016-08-11T16:08:31Z">Aug 11, 2016</time-ago></span>\u000a          </td>\u000a        </tr>\u000a        <tr class="js-navigation-item">\u000a          <td class="icon">\u000a            <svg aria-hidden="true" class="octicon octicon-file-text" height="16" version="1.1" viewBox="0 0 12 16" width="12"><path d="M6 5H2V4h4v1zM2 8h7V7H2v1zm0 2h7V9H2v1zm0 2h7v-1H2v1zm10-7.5V14c0 .55-.45 1-1 1H1c-.55 0-1-.45-1-1V2c0-.55.45-1 1-1h7.5L12 4.5zM11 5L8 2H1v12h10V5z"/></svg>\u000a            <img alt="" class="spinner" height="16" src="https://assets-cdn.github.com/images/spinners/octocat-spinner-32.gif" width="16" />\u000a          </td>\u000a          <td class="content">\u000a            <span class="css-truncate css-truncate-target"><a href="/justjavac/free-programming-books-zh_CN/blob/master/gulpfile.js" class="js-navigation-open" id="b9e12334e9eafd8341a6107dd98510c9-35427ed7cfeb7dc03465f56dd6e89047fe403749" title="gulpfile.js">gulpfile.js</a></span>\u000a          </td>\u000a          <td class="message">\u000a            <span class="css-truncate css-truncate-target">\u000a                  <a href="/justjavac/free-programming-books-zh_CN/commit/b9ba528abcb3e3c957d0881ef85980712d2c283e" class="message" data-pjax="true" title="Update gulpfile.js">Update gulpfile.js</a>\u000a            </span>\u000a          </td>\u000a          <td class="age">\u000a            <span class="css-truncate css-truncate-target"><time-ago datetime="2015-10-29T01:06:37Z">Oct 29, 2015</time-ago></span>\u000a          </td>\u000a        </tr>\u000a        <tr class="js-navigation-item">\u000a          <td class="icon">\u000a            <svg aria-hidden="true" class="octicon octicon-file-text" height="16" version="1.1" viewBox="0 0 12 16" width="12"><path d="M6 5H2V4h4v1zM2 8h7V7H2v1zm0 2h7V9H2v1zm0 2h7v-1H2v1zm10-7.5V14c0 .55-.45 1-1 1H1c-.55 0-1-.45-1-1V2c0-.55.45-1 1-1h7.5L12 4.5zM11 5L8 2H1v12h10V5z"/></svg>\u000a            <img alt="" class="spinner" height="16" src="https://assets-cdn.github.com/images/spinners/octocat-spinner-32.gif" width="16" />\u000a          </td>\u000a          <td class="content">\u000a            <span class="css-truncate css-truncate-target"><a href="/justjavac/free-programming-books-zh_CN/blob/master/what-non-programming-books-should-programmers-read.md" class="js-navigation-open" id="838dd75bb41429b9c6fabc1a63cb4ae2-9ff61114274a1e4fbecd61385b60c2922025cccc" title="what-non-programming-books-should-programmers-read.md">what-non-programming-books-should-programmers-read.md</a></span>\u000a          </td>\u000a          <td class="message">\u000a            <span class="css-truncate css-truncate-target">\u000a                  <a href="/justjavac/free-programming-books-zh_CN/commit/f0ee8cd14c559467f6d760ec25fb6b10fef1ab4b" class="message" data-pjax="true" title="\u6dfb\u52a0\u201c\u7a0b\u5e8f\u5458\u5e94\u8be5\u9605\u8bfb\u7684\u975e\u7f16\u7a0b\u7c7b\u4e66\u7c4d\u6709\u54ea\u4e9b\uff1f\u201d">\u6dfb\u52a0\u201c\u7a0b\u5e8f\u5458\u5e94\u8be5\u9605\u8bfb\u7684\u975e\u7f16\u7a0b\u7c7b\u4e66\u7c4d\u6709\u54ea\u4e9b\uff1f\u201d</a>\u000a            </span>\u000a          </td>\u000a          <td class="age">\u000a            <span class="css-truncate css-truncate-target"><time-ago datetime="2013-11-08T02:22:25Z">Nov 8, 2013</time-ago></span>\u000a          </td>\u000a        </tr>\u000a    </tbody>\u000a  </table>\u000a\u000a</div>\u000a\u000a\u000a\u000a  <div id="readme" class="readme boxed-group clearfix announce instapaper_body md">\u000a    <h3>\u000a      <svg aria-hidden="true" class="octicon octicon-book" height="16" version="1.1" viewBox="0 0 16 16" width="16"><path fill-rule="evenodd" d="M3 5h4v1H3V5zm0 3h4V7H3v1zm0 2h4V9H3v1zm11-5h-4v1h4V5zm0 2h-4v1h4V7zm0 2h-4v1h4V9zm2-6v9c0 .55-.45 1-1 1H9.5l-1 1-1-1H2c-.55 0-1-.45-1-1V3c0-.55.45-1 1-1h5.5l1 1 1-1H15c.55 0 1 .45 1 1zm-8 .5L7.5 3H2v9h6V3.5zm7-.5H9.5l-.5.5V12h6V3z"/></svg>\u000a      README.md\u000a    </h3>\u000a\u000a      <article class="markdown-body entry-content" itemprop="text"><h1><a id="user-content-\u514d\u8d39\u7684\u7f16\u7a0b\u4e2d\u6587\u4e66\u7c4d\u7d22\u5f15" class="anchor" href="#\u514d\u8d39\u7684\u7f16\u7a0b\u4e2d\u6587\u4e66\u7c4d\u7d22\u5f15" aria-hidden="true"><svg aria-hidden="true" class="octicon octicon-link" height="16" version="1.1" viewBox="0 0 16 16" width="16"><path fill-rule="evenodd" d="M4 9h1v1H4c-1.5 0-3-1.69-3-3.5S2.55 3 4 3h4c1.45 0 3 1.69 3 3.5 0 1.41-.91 2.72-2 3.25V8.59c.58-.45 1-1.27 1-2.09C10 5.22 8.98 4 8 4H4c-.98 0-2 1.22-2 2.5S3 9 4 9zm9-3h-1v1h1c1 0 2 1.22 2 2.5S13.98 12 13 12H9c-.98 0-2-1.22-2-2.5 0-.83.42-1.64 1-2.09V6.25c-1.09.53-2 1.84-2 3.25C6 11.31 7.55 13 9 13h4c1.45 0 3-1.69 3-3.5S14.5 6 13 6z"></path></svg></a>\u514d\u8d39\u7684\u7f16\u7a0b\u4e2d\u6587\u4e66\u7c4d\u7d22\u5f15</h1>\u000a\u000a<p><a href="https://github.com/justjavac/free-programming-books-zh_CN/issues"><img src="https://camo.githubusercontent.com/dbb10a35132c60d79bd64eeea5c719d734c84a79/68747470733a2f2f696d672e736869656c64732e696f2f6769746875622f6973737565732f6a7573746a617661632f667265652d70726f6772616d6d696e672d626f6f6b732d7a685f434e2e737667" alt="" data-canonical-src="https://img.shields.io/github/issues/justjavac/free-programming-books-zh_CN.svg" style="max-width:100%;"></a>  <a href="https://github.com/justjavac/free-programming-books-zh_CN/network"><img src="https://camo.githubusercontent.com/63942df7ebdd046864c72ee0ea2d7176b53841ca/68747470733a2f2f696d672e736869656c64732e696f2f6769746875622f666f726b732f6a7573746a617661632f667265652d70726f6772616d6d696e672d626f6f6b732d7a685f434e2e737667" alt="" data-canonical-src="https://img.shields.io/github/forks/justjavac/free-programming-books-zh_CN.svg" style="max-width:100%;"></a> <a href="https://github.com/justjavac/free-programming-books-zh_CN/stargazers"><img src="https://camo.githubusercontent.com/966de54c4db58ab9b51ba03f275a254c19321ab5/68747470733a2f2f696d672e736869656c64732e696f2f6769746875622f73746172732f6a7573746a617661632f667265652d70726f6772616d6d696e672d626f6f6b732d7a685f434e2e737667" alt="" data-canonical-src="https://img.shields.io/github/stars/justjavac/free-programming-books-zh_CN.svg" style="max-width:100%;"></a> <a href="https://travis-ci.org/justjavac/free-programming-books-zh_CN"><img src="https://camo.githubusercontent.com/0a9b8d67c62c0aa15c5d8804248b45a6cae9af5c/68747470733a2f2f7472617669732d63692e6f72672f6a7573746a617661632f667265652d70726f6772616d6d696e672d626f6f6b732d7a685f434e2e7376673f6272616e63683d6d6173746572" alt="" data-canonical-src="https://travis-ci.org/justjavac/free-programming-books-zh_CN.svg?branch=master" style="max-width:100%;"></a> <a href="https://github.com/justjavac/free-programming-books-zh_CN/releases"><img src="https://camo.githubusercontent.com/f6d542c3200b81784bf162a3612bc4c42861c017/68747470733a2f2f696d672e736869656c64732e696f2f6769746875622f72656c656173652f6a7573746a617661632f667265652d70726f6772616d6d696e672d626f6f6b732d7a685f434e2e737667" alt="" data-canonical-src="https://img.shields.io/github/release/justjavac/free-programming-books-zh_CN.svg" style="max-width:100%;"></a></p>\u000a\u000a<p>\u514d\u8d39\u7684\u7f16\u7a0b\u4e2d\u6587\u4e66\u7c4d\u7d22\u5f15\uff0c\u6b22\u8fce\u6295\u7a3f\u3002</p>\u000a\u000a<ul>\u000a<li>\u56fd\u5916\u7a0b\u5e8f\u5458\u5728 <a href="http://stackoverflow.com/questions/1711/what-is-the-single-most-influential-book-every-programmer-should-read/1713%231713">stackoverflow</a> \u63a8\u8350\u7684\u7a0b\u5e8f\u5458\u5fc5\u8bfb\u4e66\u7c4d\uff0c<a href="http://justjavac.com/other/2012/05/15/qualified-programmer-should-read-what-books.html" title="\u4e00\u4e2a\u5408\u683c\u7684\u7a0b\u5e8f\u5458\u5e94\u8be5\u8bfb\u8fc7\u54ea\u4e9b\u4e66">\u4e2d\u6587\u7248</a>\u3002</li>\u000a<li><a href="http://stackoverflow.com/questions/38210/what-non-programming-books-should-programmers-read">stackoverflow</a> \u4e0a\u7684\u7a0b\u5e8f\u5458\u5e94\u8be5\u9605\u8bfb\u7684\u975e\u7f16\u7a0b\u7c7b\u4e66\u7c4d\u6709\u54ea\u4e9b\uff1f <a href="/justjavac/free-programming-books-zh_CN/blob/master/what-non-programming-books-should-programmers-read.md">\u4e2d\u6587\u7248</a></li>\u000a<li><a href="https://github.com/vhf/free-programming-books">github</a> \u4e0a\u7684\u4e00\u4e2a\u6d41\u884c\u7684\u7f16\u7a0b\u4e66\u7c4d\u7d22\u5f15  <a href="https://github.com/vhf/free-programming-books/blob/master/free-programming-books-zh.md">\u4e2d\u6587\u7248</a></li>\u000a</ul>\u000a\u000a<p>\u6b22\u8fce\u8ba2\u9605\u6211\u7684\u5fae\u4fe1\u516c\u4f17\u5e10\u53f7\uff0c\u53ea\u63a8\u9001\u539f\u521b\u6587\u5b57\u3002\u6b22\u8fce\u626b\u63cf\u4e8c\u7ef4\u7801\u8ba2\u9605\uff1a</p>\u000a\u000a<p><a href="https://camo.githubusercontent.com/4dfb439531d42a47d29f4153e3d4b7268802bb9a/687474703a2f2f6a7573746a617661632e636f6d2f6173736574732f696d616765732f77656978696e2d6a7573746a617661632e6a7067" target="_blank"><img src="https://camo.githubusercontent.com/4dfb439531d42a47d29f4153e3d4b7268802bb9a/687474703a2f2f6a7573746a617661632e636f6d2f6173736574732f696d616765732f77656978696e2d6a7573746a617661632e6a7067" alt="justjavac\u5fae\u4fe1\u516c\u4f17\u5e10\u53f7" data-canonical-src="http://justjavac.com/assets/images/weixin-justjavac.jpg" style="max-width:100%;"></a></p>\u000a\u000a<p>\u611f\u8c22 <a href="https://github.com/siberiawolf">@siberiawolf</a> \u4f7f\u7528 Bootstrap \u5f00\u53d1\u4e86\u7f51\u9875\u7248\uff0c\u5730\u5740\uff1a<a href="http://siberiawolf.com/free_programming/index.html">http://siberiawolf.com/free_programming/index.html</a></p>\u000a\u000a<h2><a id="user-content-\u53c2\u4e0e\u4ea4\u6d41" class="anchor" href="#\u53c2\u4e0e\u4ea4\u6d41" aria-hidden="true"><svg aria-hidden="true" class="octicon octicon-link" height="16" version="1.1" viewBox="0 0 16 16" width="16"><path fill-rule="evenodd" d="M4 9h1v1H4c-1.5 0-3-1.69-3-3.5S2.55 3 4 3h4c1.45 0 3 1.69 3 3.5 0 1.41-.91 2.72-2 3.25V8.59c.58-.45 1-1.27 1-2.09C10 5.22 8.98 4 8 4H4c-.98 0-2 1.22-2 2.5S3 9 4 9zm9-3h-1v1h1c1 0 2 1.22 2 2.5S13.98 12 13 12H9c-.98 0-2-1.22-2-2.5 0-.83.42-1.64 1-2.09V6.25c-1.09.53-2 1.84-2 3.25C6 11.31 7.55 13 9 13h4c1.45 0 3-1.69 3-3.5S14.5 6 13 6z"></path></svg></a>\u53c2\u4e0e\u4ea4\u6d41</h2>\u000a\u000a<p>\u6b22\u8fce\u5927\u5bb6\u5c06\u73cd\u85cf\u5df2\u4e45\u7684\u7ecf\u5178\u514d\u8d39\u4e66\u7c4d\u5171\u4eab\u51fa\u6765\uff0c\u60a8\u53ef\u4ee5\uff1a</p>\u000a\u000a<ul>\u000a<li>\u4f7f\u7528 <a href="https://github.com/justjavac/free-programming-books-zh_CN/issues">Issues</a> \u4ee5\u53ca Pull Request</li>\u000a</ul>\u000a\u000a<p>\u8d21\u732e\u8005\u540d\u5355: <a href="https://github.com/justjavac/free-programming-books-zh_CN/graphs/contributors">https://github.com/justjavac/free-programming-books-zh_CN/graphs/contributors</a></p>\u000a\u000a<h2><a id="user-content-\u76ee\u5f55" class="anchor" href="#\u76ee\u5f55" aria-hidden="true"><svg aria-hidden="true" class="octicon octicon-link" height="16" version="1.1" viewBox="0 0 16 16" width="16"><path fill-rule="evenodd" d="M4 9h1v1H4c-1.5 0-3-1.69-3-3.5S2.55 3 4 3h4c1.45 0 3 1.69 3 3.5 0 1.41-.91 2.72-2 3.25V8.59c.58-.45 1-1.27 1-2.09C10 5.22 8.98 4 8 4H4c-.98 0-2 1.22-2 2.5S3 9 4 9zm9-3h-1v1h1c1 0 2 1.22 2 2.5S13.98 12 13 12H9c-.98 0-2-1.22-2-2.5 0-.83.42-1.64 1-2.09V6.25c-1.09.53-2 1.84-2 3.25C6 11.31 7.55 13 9 13h4c1.45 0 3-1.69 3-3.5S14.5 6 13 6z"></path></svg></a>\u76ee\u5f55</h2>\u000a\u000a<ul>\u000a<li><p><a href="#%E8%AF%AD%E8%A8%80%E6%97%A0%E5%85%B3%E7%B1%BB">\u8bed\u8a00\u65e0\u5173\u7c7b</a></p>\u000a\u000a<ul>\u000a<li><a href="#%E6%93%8D%E4%BD%9C%E7%B3%BB%E7%BB%9F">\u64cd\u4f5c\u7cfb\u7edf</a></li>\u000a<li><a href="#%E6%99%BA%E8%83%BD%E7%B3%BB%E7%BB%9F">\u667a\u80fd\u7cfb\u7edf</a></li>\u000a<li><a href="#%E5%88%86%E5%B8%83%E5%BC%8F%E7%B3%BB%E7%BB%9F">\u5206\u5e03\u5f0f\u7cfb\u7edf</a></li>\u000a<li><a href="#%E7%BC%96%E8%AF%91%E5%8E%9F%E7%90%86">\u7f16\u8bd1\u539f\u7406</a></li>\u000a<li><a href="#%E5%87%BD%E6%95%B0%E5%BC%8F%E6%A6%82%E5%BF%B5">\u51fd\u6570\u5f0f\u6982\u5ff5</a></li>\u000a<li><a href="#%E8%AE%A1%E7%AE%97%E6%9C%BA%E5%9B%BE%E5%BD%A2%E5%AD%A6">\u8ba1\u7b97\u673a\u56fe\u5f62\u5b66</a></li>\u000a<li><a href="#web%E6%9C%8D%E5%8A%A1%E5%99%A8">WEB\u670d\u52a1\u5668</a></li>\u000a<li><a href="#%E7%89%88%E6%9C%AC%E6%8E%A7%E5%88%B6">\u7248\u672c\u63a7\u5236</a></li>\u000a<li><a href="#%E7%BC%96%E8%BE%91%E5%99%A8">\u7f16\u8f91\u5668</a></li>\u000a<li><a href="#nosql">NoSQL</a></li>\u000a<li><a href="#postgresql">PostgreSQL</a></li>\u000a<li><a href="#mysql">MySQL</a></li>\u000a<li><a href="#%E7%AE%A1%E7%90%86%E5%92%8C%E7%9B%91%E6%8E%A7">\u7ba1\u7406\u548c\u76d1\u63a7</a></li>\u000a<li><a href="#%E9%A1%B9%E7%9B%AE%E7%9B%B8%E5%85%B3">\u9879\u76ee\u76f8\u5173</a></li>\u000a<li><a href="#%E8%AE%BE%E8%AE%A1%E6%A8%A1%E5%BC%8F">\u8bbe\u8ba1\u6a21\u5f0f</a></li>\u000a<li><a href="#web">Web</a></li>\u000a<li><a href="#%E5%A4%A7%E6%95%B0%E6%8D%AE">\u5927\u6570\u636e</a></li>\u000a<li><a href="#%E7%BC%96%E7%A8%8B%E8%89%BA%E6%9C%AF">\u7f16\u7a0b\u827a\u672f</a></li>\u000a<li><a href="#%E5%85%B6%E5%AE%83">\u5176\u5b83</a></li>\u000a</ul></li>\u000a<li><p><a href="#%E8%AF%AD%E8%A8%80%E7%9B%B8%E5%85%B3%E7%B1%BB">\u8bed\u8a00\u76f8\u5173\u7c7b</a></p>\u000a\u000a<ul>\u000a<li><a href="#android">Android</a></li>\u000a<li><a href="#app">APP</a></li>\u000a<li><a href="#awk">AWK</a></li>\u000a<li><a href="#cc">C/C++</a></li>\u000a<li><a href="#c">C#</a></li>\u000a<li><a href="#clojure">Clojure</a></li>\u000a<li><a href="#csshtml">CSS/HTML</a></li>\u000a<li><a href="#dart">Dart</a></li>\u000a<li><a href="#elixir">Elixir</a></li>\u000a<li><a href="#erlang">Erlang</a></li>\u000a<li><a href="#fortran">Fortran</a></li>\u000a<li><a href="#go">Go</a></li>\u000a<li><a href="#groovy">Groovy</a></li>\u000a<li><a href="#haskell">Haskell</a></li>\u000a<li><a href="#ios">iOS</a></li>\u000a<li><a href="#java">Java</a></li>\u000a<li><a href="#javascript">JavaScript</a></li>\u000a<li><a href="#latex">LaTeX</a></li>\u000a<li><a href="#lisp">LISP</a></li>\u000a<li><a href="#lua">Lua</a></li>\u000a<li><a href="#OCaml">OCaml</a></li>\u000a<li><a href="#perl">Perl</a></li>\u000a<li><a href="#php">PHP</a></li>\u000a<li><a href="#prolog">Prolog</a></li>\u000a<li><a href="#python">Python</a></li>\u000a<li><a href="#r">R</a></li>\u000a<li><a href="#ruby">Ruby</a></li>\u000a<li><a href="#rust">Rust</a></li>\u000a<li><a href="#scala">Scala</a></li>\u000a<li><a href="#shell">Shell</a></li>\u000a<li><a href="#swift">Swift</a></li>\u000a</ul></li>\u000a<li><p><a href="#%E8%AF%BB%E4%B9%A6%E7%AC%94%E8%AE%B0%E5%8F%8A%E5%85%B6%E5%AE%83">\u8bfb\u4e66\u7b14\u8bb0\u53ca\u5176\u5b83</a></p></li>\u000a<li><a href="#%E6%B5%8B%E8%AF%95%E7%9B%B8%E5%85%B3">\u6d4b\u8bd5\u76f8\u5173</a></li>\u000a</ul>\u000a\u000a<h2><a id="user-content-\u8bed\u8a00\u65e0\u5173\u7c7b" class="anchor" href="#\u8bed\u8a00\u65e0\u5173\u7c7b" aria-hidden="true"><svg aria-hidden="true" class="octicon octicon-link" height="16" version="1.1" viewBox="0 0 16 16" width="16"><path fill-rule="evenodd" d="M4 9h1v1H4c-1.5 0-3-1.69-3-3.5S2.55 3 4 3h4c1.45 0 3 1.69 3 3.5 0 1.41-.91 2.72-2 3.25V8.59c.58-.45 1-1.27 1-2.09C10 5.22 8.98 4 8 4H4c-.98 0-2 1.22-2 2.5S3 9 4 9zm9-3h-1v1h1c1 0 2 1.22 2 2.5S13.98 12 13 12H9c-.98 0-2-1.22-2-2.5 0-.83.42-1.64 1-2.09V6.25c-1.09.53-2 1.84-2 3.25C6 11.31 7.55 13 9 13h4c1.45 0 3-1.69 3-3.5S14.5 6 13 6z"></path></svg></a>\u8bed\u8a00\u65e0\u5173\u7c7b</h2>\u000a\u000a<h3><a id="user-content-\u64cd\u4f5c\u7cfb\u7edf" class="anchor" href="#\u64cd\u4f5c\u7cfb\u7edf" aria-hidden="true"><svg aria-hidden="true" class="octicon octicon-link" height="16" version="1.1" viewBox="0 0 16 16" width="16"><path fill-rule="evenodd" d="M4 9h1v1H4c-1.5 0-3-1.69-3-3.5S2.55 3 4 3h4c1.45 0 3 1.69 3 3.5 0 1.41-.91 2.72-2 3.25V8.59c.58-.45 1-1.27 1-2.09C10 5.22 8.98 4 8 4H4c-.98 0-2 1.22-2 2.5S3 9 4 9zm9-3h-1v1h1c1 0 2 1.22 2 2.5S13.98 12 13 12H9c-.98 0-2-1.22-2-2.5 0-.83.42-1.64 1-2.09V6.25c-1.09.53-2 1.84-2 3.25C6 11.31 7.55 13 9 13h4c1.45 0 3-1.69 3-3.5S14.5 6 13 6z"></path></svg></a>\u64cd\u4f5c\u7cfb\u7edf</h3>\u000a\u000a<ul>\u000a<li><a href="http://i.linuxtoy.org/docs/guide/index.html">\u5f00\u6e90\u4e16\u754c\u65c5\u884c\u624b\u518c</a></li>\u000a<li><a href="http://vbird.dic.ksu.edu.tw/">\u9e1f\u54e5\u7684Linux\u79c1\u623f\u83dc</a></li>\u000a<li><a href="http://billie66.github.io/TLCL/index.html">The Linux Command Line</a> (\u4e2d\u82f1\u6587\u7248)</li>\u000a<li><a href="http://oss.org.cn/kernel-book/ldd3/index.html">Linux \u8bbe\u5907\u9a71\u52a8</a> (\u7b2c\u4e09\u7248)</li>\u000a<li><a href="http://www.kerneltravel.net/kernel-book/%E6%B7%B1%E5%85%A5%E5%88%86%E6%9E%90Linux%E5%86%85%E6%A0%B8%E6%BA%90%E7%A0%81.html">\u6df1\u5165\u5206\u6790Linux\u5185\u6838\u6e90\u7801</a></li>\u000a<li><a href="http://cb.vu/unixtoolbox_zh_CN.xhtml">UNIX TOOLBOX</a></li>\u000a<li><a href="https://github.com/widuu/chinese_docker">Docker\u4e2d\u6587\u6307\u5357</a></li>\u000a<li><a href="https://github.com/yeasy/docker_practice">Docker \u2014\u2014 \u4ece\u5165\u95e8\u5230\u5b9e\u8df5</a></li>\u000a<li><a href="http://yuedu.baidu.com/ebook/d817967416fc700abb68fca1">Docker\u5165\u95e8\u5b9e\u6218</a></li>\u000a<li><a href="https://github.com/wsargent/docker-cheat-sheet/tree/master/zh-cn#docker-cheat-sheet">Docker Cheat Sheet</a></li>\u000a<li><a href="http://freeradius.akagi201.org">FreeRADIUS\u65b0\u624b\u5165\u95e8</a></li>\u000a<li><a href="https://aaaaaashu.gitbooks.io/mac-dev-setup/content/">Mac \u5f00\u53d1\u914d\u7f6e\u624b\u518c</a></li>\u000a<li><a href="https://www.freebsd.org/doc/zh_CN/books/handbook/index.html">FreeBSD \u4f7f\u7528\u624b\u518c</a></li>\u000a<li><a href="http://billie66.github.io/TLCL/book/">Linux \u547d\u4ee4\u884c(\u4e2d\u6587\u7248)</a></li>\u000a<li><a href="http://works.jinbuguo.com/lfs/lfs62/index.html">Linux \u6784\u5efa\u6307\u5357</a></li>\u000a<li><a href="https://github.com/me115/linuxtools_rst">Linux\u5de5\u5177\u5feb\u901f\u6559\u7a0b</a></li>\u000a<li><a href="https://www.gitbook.com/book/tinylab/linux-doc/details">Linux Documentation (\u4e2d\u6587\u7248)</a></li>\u000a<li><a href="https://www.gitbook.com/book/tinylab/elinux/details">\u5d4c\u5165\u5f0f Linux \u77e5\u8bc6\u5e93 (eLinux.org \u4e2d\u6587\u7248)</a></li>\u000a<li><a href="https://github.com/tobegit3hub/understand_linux_process">\u7406\u89e3Linux\u8fdb\u7a0b</a></li>\u000a<li><a href="https://github.com/jlevy/the-art-of-command-line/blob/master/README-zh.md">\u547d\u4ee4\u884c\u7684\u827a\u672f</a></li>\u000a<li><a href="https://spacewander.gitbooks.io/systemtapbeginnersguide_zh/content/index.html">SystemTap\u65b0\u624b\u6307\u5357</a></li>\u000a<li><a href="https://github.com/wizardforcel/think-os-zh">\u64cd\u4f5c\u7cfb\u7edf\u601d\u8003</a></li>\u000a</ul>\u000a\u000a<h4><a id="user-content-\u667a\u80fd\u7cfb\u7edf" class="anchor" href="#\u667a\u80fd\u7cfb\u7edf" aria-hidden="true"><svg aria-hidden="true" class="octicon octicon-link" height="16" version="1.1" viewBox="0 0 16 16" width="16"><path fill-rule="evenodd" d="M4 9h1v1H4c-1.5 0-3-1.69-3-3.5S2.55 3 4 3h4c1.45 0 3 1.69 3 3.5 0 1.41-.91 2.72-2 3.25V8.59c.58-.45 1-1.27 1-2.09C10 5.22 8.98 4 8 4H4c-.98 0-2 1.22-2 2.5S3 9 4 9zm9-3h-1v1h1c1 0 2 1.22 2 2.5S13.98 12 13 12H9c-.98 0-2-1.22-2-2.5 0-.83.42-1.64 1-2.09V6.25c-1.09.53-2 1.84-2 3.25C6 11.31 7.55 13 9 13h4c1.45 0 3-1.69 3-3.5S14.5 6 13 6z"></path></svg></a>\u667a\u80fd\u7cfb\u7edf</h4>\u000a\u000a<ul>\u000a<li><a href="https://github.com/phodal/designiot">\u4e00\u6b65\u6b65\u642d\u5efa\u7269\u8054\u7f51\u7cfb\u7edf</a></li>\u000a</ul>\u000a\u000a<h3><a id="user-content-\u5206\u5e03\u5f0f\u7cfb\u7edf" class="anchor" href="#\u5206\u5e03\u5f0f\u7cfb\u7edf" aria-hidden="true"><svg aria-hidden="true" class="octicon octicon-link" height="16" version="1.1" viewBox="0 0 16 16" width="16"><path fill-rule="evenodd" d="M4 9h1v1H4c-1.5 0-3-1.69-3-3.5S2.55 3 4 3h4c1.45 0 3 1.69 3 3.5 0 1.41-.91 2.72-2 3.25V8.59c.58-.45 1-1.27 1-2.09C10 5.22 8.98 4 8 4H4c-.98 0-2 1.22-2 2.5S3 9 4 9zm9-3h-1v1h1c1 0 2 1.22 2 2.5S13.98 12 13 12H9c-.98 0-2-1.22-2-2.5 0-.83.42-1.64 1-2.09V6.25c-1.09.53-2 1.84-2 3.25C6 11.31 7.55 13 9 13h4c1.45 0 3-1.69 3-3.5S14.5 6 13 6z"></path></svg></a>\u5206\u5e03\u5f0f\u7cfb\u7edf</h3>\u000a\u000a<ul>\u000a<li><a href="http://dcaoyuan.github.io/papers/pdfs/Scalability.pdf">\u8d70\u5411\u5206\u5e03\u5f0f</a></li>\u000a</ul>\u000a\u000a<h3><a id="user-content-\u7f16\u8bd1\u539f\u7406" class="anchor" href="#\u7f16\u8bd1\u539f\u7406" aria-hidden="true"><svg aria-hidden="true" class="octicon octicon-link" height="16" version="1.1" viewBox="0 0 16 16" width="16"><path fill-rule="evenodd" d="M4 9h1v1H4c-1.5 0-3-1.69-3-3.5S2.55 3 4 3h4c1.45 0 3 1.69 3 3.5 0 1.41-.91 2.72-2 3.25V8.59c.58-.45 1-1.27 1-2.09C10 5.22 8.98 4 8 4H4c-.98 0-2 1.22-2 2.5S3 9 4 9zm9-3h-1v1h1c1 0 2 1.22 2 2.5S13.98 12 13 12H9c-.98 0-2-1.22-2-2.5 0-.83.42-1.64 1-2.09V6.25c-1.09.53-2 1.84-2 3.25C6 11.31 7.55 13 9 13h4c1.45 0 3-1.69 3-3.5S14.5 6 13 6z"></path></svg></a>\u7f16\u8bd1\u539f\u7406</h3>\u000a\u000a<ul>\u000a<li><a href="https://github.com/DeathKing/Learning-SICP">\u300a\u8ba1\u7b97\u673a\u7a0b\u5e8f\u7684\u7ed3\u6784\u548c\u89e3\u91ca\u300b\u516c\u5f00\u8bfe \u7ffb\u8bd1\u9879\u76ee</a></li>\u000a</ul>\u000a\u000a<h3><a id="user-content-\u51fd\u6570\u5f0f\u6982\u5ff5" class="anchor" href="#\u51fd\u6570\u5f0f\u6982\u5ff5" aria-hidden="true"><svg aria-hidden="true" class="octicon octicon-link" height="16" version="1.1" viewBox="0 0 16 16" width="16"><path fill-rule="evenodd" d="M4 9h1v1H4c-1.5 0-3-1.69-3-3.5S2.55 3 4 3h4c1.45 0 3 1.69 3 3.5 0 1.41-.91 2.72-2 3.25V8.59c.58-.45 1-1.27 1-2.09C10 5.22 8.98 4 8 4H4c-.98 0-2 1.22-2 2.5S3 9 4 9zm9-3h-1v1h1c1 0 2 1.22 2 2.5S13.98 12 13 12H9c-.98 0-2-1.22-2-2.5 0-.83.42-1.64 1-2.09V6.25c-1.09.53-2 1.84-2 3.25C6 11.31 7.55 13 9 13h4c1.45 0 3-1.69 3-3.5S14.5 6 13 6z"></path></svg></a>\u51fd\u6570\u5f0f\u6982\u5ff5</h3>\u000a\u000a<ul>\u000a<li><a href="https://github.com/justinyhuang/Functional-Programming-For-The-Rest-of-Us-Cn">\u50bb\u74dc\u51fd\u6570\u7f16\u7a0b</a></li>\u000a</ul>\u000a\u000a<h3><a id="user-content-\u8ba1\u7b97\u673a\u56fe\u5f62\u5b66" class="anchor" href="#\u8ba1\u7b97\u673a\u56fe\u5f62\u5b66" aria-hidden="true"><svg aria-hidden="true" class="octicon octicon-link" height="16" version="1.1" viewBox="0 0 16 16" width="16"><path fill-rule="evenodd" d="M4 9h1v1H4c-1.5 0-3-1.69-3-3.5S2.55 3 4 3h4c1.45 0 3 1.69 3 3.5 0 1.41-.91 2.72-2 3.25V8.59c.58-.45 1-1.27 1-2.09C10 5.22 8.98 4 8 4H4c-.98 0-2 1.22-2 2.5S3 9 4 9zm9-3h-1v1h1c1 0 2 1.22 2 2.5S13.98 12 13 12H9c-.98 0-2-1.22-2-2.5 0-.83.42-1.64 1-2.09V6.25c-1.09.53-2 1.84-2 3.25C6 11.31 7.55 13 9 13h4c1.45 0 3-1.69 3-3.5S14.5 6 13 6z"></path></svg></a>\u8ba1\u7b97\u673a\u56fe\u5f62\u5b66</h3>\u000a\u000a<ul>\u000a<li><a href="https://github.com/zilongshanren/opengl-tutorials">OpenGL \u6559\u7a0b</a></li>\u000a<li><a href="http://html5.iii.org.tw/course/webgl/">WebGL\u81ea\u5b66\u7f51</a></li>\u000a</ul>\u000a\u000a<h3><a id="user-content-web\u670d\u52a1\u5668" class="anchor" href="#web\u670d\u52a1\u5668" aria-hidden="true"><svg aria-hidden="true" class="octicon octicon-link" height="16" version="1.1" viewBox="0 0 16 16" width="16"><path fill-rule="evenodd" d="M4 9h1v1H4c-1.5 0-3-1.69-3-3.5S2.55 3 4 3h4c1.45 0 3 1.69 3 3.5 0 1.41-.91 2.72-2 3.25V8.59c.58-.45 1-1.27 1-2.09C10 5.22 8.98 4 8 4H4c-.98 0-2 1.22-2 2.5S3 9 4 9zm9-3h-1v1h1c1 0 2 1.22 2 2.5S13.98 12 13 12H9c-.98 0-2-1.22-2-2.5 0-.83.42-1.64 1-2.09V6.25c-1.09.53-2 1.84-2 3.25C6 11.31 7.55 13 9 13h4c1.45 0 3-1.69 3-3.5S14.5 6 13 6z"></path></svg></a>WEB\u670d\u52a1\u5668</h3>\u000a\u000a<ul>\u000a<li><a href="http://tengine.taobao.org/book/index.html">Nginx\u5f00\u53d1\u4ece\u5165\u95e8\u5230\u7cbe\u901a</a> (\u6dd8\u5b9d\u56e2\u961f\u51fa\u54c1)</li>\u000a<li><a href="http://www.ttlsa.com/nginx/nginx-stu-pdf/">Nginx\u6559\u7a0b\u4ece\u5165\u95e8\u5230\u7cbe\u901a</a>(PDF\u7248\u672c\uff0c\u8fd0\u7ef4\u751f\u5b58\u65f6\u95f4\u51fa\u54c1)</li>\u000a<li><a href="https://www.gitbook.com/book/moonbingbing/openresty-best-practices/details">OpenResty\u6700\u4f73\u5b9e\u8df5</a></li>\u000a<li><a href="http://works.jinbuguo.com/apache/menu22/index.html">Apache \u4e2d\u6587\u624b\u518c</a></li>\u000a</ul>\u000a\u000a<h3><a id="user-content-\u7248\u672c\u63a7\u5236" class="anchor" href="#\u7248\u672c\u63a7\u5236" aria-hidden="true"><svg aria-hidden="true" class="octicon octicon-link" height="16" version="1.1" viewBox="0 0 16 16" width="16"><path fill-rule="evenodd" d="M4 9h1v1H4c-1.5 0-3-1.69-3-3.5S2.55 3 4 3h4c1.45 0 3 1.69 3 3.5 0 1.41-.91 2.72-2 3.25V8.59c.58-.45 1-1.27 1-2.09C10 5.22 8.98 4 8 4H4c-.98 0-2 1.22-2 2.5S3 9 4 9zm9-3h-1v1h1c1 0 2 1.22 2 2.5S13.98 12 13 12H9c-.98 0-2-1.22-2-2.5 0-.83.42-1.64 1-2.09V6.25c-1.09.53-2 1.84-2 3.25C6 11.31 7.55 13 9 13h4c1.45 0 3-1.69 3-3.5S14.5 6 13 6z"></path></svg></a>\u7248\u672c\u63a7\u5236</h3>\u000a\u000a<ul>\u000a<li><a href="http://www.liaoxuefeng.com/wiki/0013739516305929606dd18361248578c67b8067c8c017b000">Git\u6559\u7a0b</a> \uff08\u672c\u6587\u7531 <a href="http://www.liaoxuefeng.com">\u5ed6\u96ea\u5cf0</a> \u521b\u4f5c\uff0c\u5982\u679c\u89c9\u5f97\u672c\u6559\u7a0b\u5bf9\u60a8\u6709\u5e2e\u52a9\uff0c\u53ef\u4ee5\u53bb <a href="https://itunes.apple.com/cn/app/git-jiao-cheng/id876420437">iTunes</a> \u8d2d\u4e70\uff09</li>\u000a<li><a href="http://rogerdudler.github.io/git-guide/index.zh.html">git - \u7b80\u6613\u6307\u5357</a></li>\u000a<li><a href="http://backlogtool.com/git-guide/cn/">\u7334\u5b50\u90fd\u80fd\u61c2\u7684GIT\u5165\u95e8</a></li>\u000a<li><a href="http://gitref.justjavac.com">Git \u53c2\u8003\u624b\u518c</a></li>\u000a<li><a href="http://git-scm.com/book/zh/v2">Pro Git</a></li>\u000a<li><a href="https://www.gitbook.com/book/0532/progit/details">Pro Git \u4e2d\u6587\u7248</a> (\u6574\u7406\u5728gitbook\u4e0a)</li>\u000a<li><a href="http://www-cs-students.stanford.edu/%7Eblynn/gitmagic/intl/zh_cn/">Git Magic</a></li>\u000a<li><a href="http://www.worldhello.net/gotgithub/index.html">GotGitHub</a></li>\u000a<li><a href="http://www.worldhello.net/gotgit/">Git\u6743\u5a01\u6307\u5357</a></li>\u000a<li><a href="http://gitbook.liuhui998.com/index.html">Git Community Book \u4e2d\u6587\u7248</a></li>\u000a<li><a href="https://www.mercurial-scm.org/wiki/ChineseTutorial">Mercurial \u4f7f\u7528\u6559\u7a0b</a></li>\u000a<li><a href="http://bucunzai.net/hginit/">HgInit (\u4e2d\u6587\u7248)</a></li>\u000a<li><a href="http://igit.linuxtoy.org">\u6c89\u6d78\u5f0f\u5b66 Git</a></li>\u000a<li><a href="https://github.com/flyhigher139/Git-Cheat-Sheet">Git-Cheat-Sheet</a> \uff08\u611f\u8c22 @flyhigher139 \u7ffb\u8bd1\u4e86\u4e2d\u6587\u7248\uff09</li>\u000a<li><a href="https://snowdream86.gitbooks.io/github-cheat-sheet/content/zh/index.html">GitHub\u79d8\u7c4d</a></li>\u000a<li><a href="https://github.com/waylau/github-help">GitHub\u5e2e\u52a9\u6587\u6863</a></li>\u000a<li><a href="http://danielkummer.github.io/git-flow-cheatsheet/index.zh_CN.html">git-flow \u5907\u5fd8\u6e05\u5355</a></li>\u000a<li><a href="http://svnbook.red-bean.com/nightly/zh/index.html">svn \u624b\u518c</a></li>\u000a<li><a href="https://github.com/phodal/github-roam">GitHub\u6f2b\u6e38\u6307\u5357</a></li>\u000a</ul>\u000a\u000a<h3><a id="user-content-\u7f16\u8f91\u5668" class="anchor" href="#\u7f16\u8f91\u5668" aria-hidden="true"><svg aria-hidden="true" class="octicon octicon-link" height="16" version="1.1" viewBox="0 0 16 16" width="16"><path fill-rule="evenodd" d="M4 9h1v1H4c-1.5 0-3-1.69-3-3.5S2.55 3 4 3h4c1.45 0 3 1.69 3 3.5 0 1.41-.91 2.72-2 3.25V8.59c.58-.45 1-1.27 1-2.09C10 5.22 8.98 4 8 4H4c-.98 0-2 1.22-2 2.5S3 9 4 9zm9-3h-1v1h1c1 0 2 1.22 2 2.5S13.98 12 13 12H9c-.98 0-2-1.22-2-2.5 0-.83.42-1.64 1-2.09V6.25c-1.09.53-2 1.84-2 3.25C6 11.31 7.55 13 9 13h4c1.45 0 3-1.69 3-3.5S14.5 6 13 6z"></path></svg></a>\u7f16\u8f91\u5668</h3>\u000a\u000a<ul>\u000a<li><a href="http://exvim.github.io/docs-zh/intro/">exvim--vim \u6539\u826f\u6210IDE\u9879\u76ee</a></li>\u000a<li><a href="http://learnvimscriptthehardway.onefloweroneworld.com/">\u7b28\u65b9\u6cd5\u5b66Vimscript \u4e2d\u8bd1\u672c</a></li>\u000a<li><a href="https://github.com/vimcn/vimcdoc">Vim\u4e2d\u6587\u6587\u6863</a></li>\u000a<li><a href="https://github.com/yangyangwithgnu/use_vim_as_ide">\u6240\u9700\u5373\u6240\u83b7\uff1a\u50cf IDE \u4e00\u6837\u4f7f\u7528 vim</a></li>\u000a<li><a href="https://github.com/wizardforcel/atom-flight-manual-zh-cn">Atom\u98de\u884c\u624b\u518c\u4e2d\u6587\u7248</a></li>\u000a<li><a href="https://github.com/wizardforcel/markdown-simple-world">Markdown\u7b80\u5355\u7684\u4e16\u754c</a></li>\u000a<li><a href="https://github.com/redguardtoo/mastering-emacs-in-one-year-guide/blob/master/guide-zh.org">\u4e00\u5e74\u6210\u4e3a Emacs \u9ad8\u624b</a></li>\u000a<li><a href="http://lifegoo.pluskid.org/upload/blog/152/Survive.in.Emacs.pdf">Emacs \u751f\u5b58\u6307\u5357</a></li>\u000a<li><a href="https://atom-china.org/t/atom/62">Atom\u5b98\u65b9\u624b\u518c</a></li>\u000a</ul>\u000a\u000a<h3><a id="user-content-nosql" class="anchor" href="#nosql" aria-hidden="true"><svg aria-hidden="true" class="octicon octicon-link" height="16" version="1.1" viewBox="0 0 16 16" width="16"><path fill-rule="evenodd" d="M4 9h1v1H4c-1.5 0-3-1.69-3-3.5S2.55 3 4 3h4c1.45 0 3 1.69 3 3.5 0 1.41-.91 2.72-2 3.25V8.59c.58-.45 1-1.27 1-2.09C10 5.22 8.98 4 8 4H4c-.98 0-2 1.22-2 2.5S3 9 4 9zm9-3h-1v1h1c1 0 2 1.22 2 2.5S13.98 12 13 12H9c-.98 0-2-1.22-2-2.5 0-.83.42-1.64 1-2.09V6.25c-1.09.53-2 1.84-2 3.25C6 11.31 7.55 13 9 13h4c1.45 0 3-1.69 3-3.5S14.5 6 13 6z"></path></svg></a>NoSQL</h3>\u000a\u000a<ul>\u000a<li><a href="http://old.sebug.net/paper/databases/nosql/Nosql.html">NoSQL\u6570\u636e\u5e93\u7b14\u8c08</a></li>\u000a<li><a href="http://redisbook.com/">Redis \u8bbe\u8ba1\u4e0e\u5b9e\u73b0</a></li>\u000a<li><a href="http://redisdoc.com/">Redis \u547d\u4ee4\u53c2\u8003</a></li>\u000a<li><a href="https://github.com/huangz1990/redis-3.0-annotated">\u5e26\u6709\u8be6\u7ec6\u6ce8\u91ca\u7684 Redis 3.0 \u4ee3\u7801</a></li>\u000a<li><a href="https://github.com/huangz1990/annotated_redis_source">\u5e26\u6709\u8be6\u7ec6\u6ce8\u91ca\u7684 Redis 2.6 \u4ee3\u7801</a></li>\u000a<li><a href="https://github.com/justinyhuang/the-little-mongodb-book-cn/blob/master/mongodb.md">The Little MongoDB Book</a></li>\u000a<li><a href="https://github.com/JasonLai256/the-little-redis-book/blob/master/cn/redis.md">The Little Redis Book</a></li>\u000a<li><a href="http://docs.neo4j.org.cn/">Neo4j \u7b80\u4f53\u4e2d\u6587\u624b\u518c v1.8</a></li>\u000a<li><a href="http://neo4j.tw/">Neo4j .rb \u4e2d\u6587\u8cc7\u6e90</a></li>\u000a<li><a href="http://disquebook.com">Disque \u4f7f\u7528\u6559\u7a0b</a></li>\u000a<li><a href="https://github.com/JerryLead/SparkInternals/tree/master/markdown">Apache Spark \u8bbe\u8ba1\u4e0e\u5b9e\u73b0</a></li>\u000a</ul>\u000a\u000a<h3><a id="user-content-postgresql" class="anchor" href="#postgresql" aria-hidden="true"><svg aria-hidden="true" class="octicon octicon-link" height="16" version="1.1" viewBox="0 0 16 16" width="16"><path fill-rule="evenodd" d="M4 9h1v1H4c-1.5 0-3-1.69-3-3.5S2.55 3 4 3h4c1.45 0 3 1.69 3 3.5 0 1.41-.91 2.72-2 3.25V8.59c.58-.45 1-1.27 1-2.09C10 5.22 8.98 4 8 4H4c-.98 0-2 1.22-2 2.5S3 9 4 9zm9-3h-1v1h1c1 0 2 1.22 2 2.5S13.98 12 13 12H9c-.98 0-2-1.22-2-2.5 0-.83.42-1.64 1-2.09V6.25c-1.09.53-2 1.84-2 3.25C6 11.31 7.55 13 9 13h4c1.45 0 3-1.69 3-3.5S14.5 6 13 6z"></path></svg></a>PostgreSQL</h3>\u000a\u000a<ul>\u000a<li><a href="http://works.jinbuguo.com/postgresql/menu823/index.html">PostgreSQL 8.2.3 \u4e2d\u6587\u6587\u6863</a></li>\u000a<li><a href="http://www.postgres.cn/docs/9.3/index.html">PostgreSQL 9.3.1 \u4e2d\u6587\u6587\u6863</a></li>\u000a<li><a href="http://www.postgres.cn/docs/9.5/index.html">PostgreSQL 9.5.3 \u4e2d\u6587\u6587\u6863</a></li>\u000a</ul>\u000a\u000a<h3><a id="user-content-mysql" class="anchor" href="#mysql" aria-hidden="true"><svg aria-hidden="true" class="octicon octicon-link" height="16" version="1.1" viewBox="0 0 16 16" width="16"><path fill-rule="evenodd" d="M4 9h1v1H4c-1.5 0-3-1.69-3-3.5S2.55 3 4 3h4c1.45 0 3 1.69 3 3.5 0 1.41-.91 2.72-2 3.25V8.59c.58-.45 1-1.27 1-2.09C10 5.22 8.98 4 8 4H4c-.98 0-2 1.22-2 2.5S3 9 4 9zm9-3h-1v1h1c1 0 2 1.22 2 2.5S13.98 12 13 12H9c-.98 0-2-1.22-2-2.5 0-.83.42-1.64 1-2.09V6.25c-1.09.53-2 1.84-2 3.25C6 11.31 7.55 13 9 13h4c1.45 0 3-1.69 3-3.5S14.5 6 13 6z"></path></svg></a>MySQL</h3>\u000a\u000a<ul>\u000a<li><a href="http://blog.codinglabs.org/articles/theory-of-mysql-index.html">MySQL\u7d22\u5f15\u80cc\u540e\u7684\u6570\u636e\u7ed3\u6784\u53ca\u7b97\u6cd5\u539f\u7406</a></li>\u000a<li><a href="http://www.cnblogs.com/mr-wid/archive/2013/05/09/3068229.html">21\u5206\u949fMySQL\u5165\u95e8\u6559\u7a0b</a></li>\u000a</ul>\u000a\u000a<h3><a id="user-content-\u7ba1\u7406\u548c\u76d1\u63a7" class="anchor" href="#\u7ba1\u7406\u548c\u76d1\u63a7" aria-hidden="true"><svg aria-hidden="true" class="octicon octicon-link" height="16" version="1.1" viewBox="0 0 16 16" width="16"><path fill-rule="evenodd" d="M4 9h1v1H4c-1.5 0-3-1.69-3-3.5S2.55 3 4 3h4c1.45 0 3 1.69 3 3.5 0 1.41-.91 2.72-2 3.25V8.59c.58-.45 1-1.27 1-2.09C10 5.22 8.98 4 8 4H4c-.98 0-2 1.22-2 2.5S3 9 4 9zm9-3h-1v1h1c1 0 2 1.22 2 2.5S13.98 12 13 12H9c-.98 0-2-1.22-2-2.5 0-.83.42-1.64 1-2.09V6.25c-1.09.53-2 1.84-2 3.25C6 11.31 7.55 13 9 13h4c1.45 0 3-1.69 3-3.5S14.5 6 13 6z"></path></svg></a>\u7ba1\u7406\u548c\u76d1\u63a7</h3>\u000a\u000a<ul>\u000a<li><a href="http://kibana.logstash.es">ELKstack \u4e2d\u6587\u6307\u5357</a></li>\u000a<li><a href="http://udn.yyuap.com/doc/mastering-elasticsearch/">Mastering Elasticsearch(\u4e2d\u6587\u7248)</a></li>\u000a<li><a href="https://www.gitbook.com/book/fuxiaopang/learnelasticsearch/details">ElasticSearch \u6743\u5a01\u6307\u5357</a></li>\u000a<li><a href="http://es.xiaoleilu.com">Elasticsearch \u6743\u5a01\u6307\u5357\uff08\u4e2d\u6587\u7248\uff09</a></li>\u000a<li><a href="https://github.com/chenryn/logstash-best-practice-cn">Logstash \u6700\u4f73\u5b9e\u8df5</a></li>\u000a<li><a href="http://bbs.konotes.org/workdoc/puppet-27/">Puppet 2.7 Cookbook \u4e2d\u6587\u7248</a></li>\u000a</ul>\u000a\u000a<h3><a id="user-content-\u9879\u76ee\u76f8\u5173" class="anchor" href="#\u9879\u76ee\u76f8\u5173" aria-hidden="true"><svg aria-hidden="true" class="octicon octicon-link" height="16" version="1.1" viewBox="0 0 16 16" width="16"><path fill-rule="evenodd" d="M4 9h1v1H4c-1.5 0-3-1.69-3-3.5S2.55 3 4 3h4c1.45 0 3 1.69 3 3.5 0 1.41-.91 2.72-2 3.25V8.59c.58-.45 1-1.27 1-2.09C10 5.22 8.98 4 8 4H4c-.98 0-2 1.22-2 2.5S3 9 4 9zm9-3h-1v1h1c1 0 2 1.22 2 2.5S13.98 12 13 12H9c-.98 0-2-1.22-2-2.5 0-.83.42-1.64 1-2.09V6.25c-1.09.53-2 1.84-2 3.25C6 11.31 7.55 13 9 13h4c1.45 0 3-1.69 3-3.5S14.5 6 13 6z"></path></svg></a>\u9879\u76ee\u76f8\u5173</h3>\u000a\u000a<ul>\u000a<li><a href="http://article.yeeyan.org/view/2251/94882">\u6301\u7eed\u96c6\u6210\uff08\u7b2c\u4e8c\u7248\uff09</a> (\u8bd1\u8a00\u7f51)</li>\u000a<li><a href="http://www.ibm.com/developerworks/cn/java/j-ap/">\u8ba9\u5f00\u53d1\u81ea\u52a8\u5316\u7cfb\u5217\u4e13\u680f</a></li>\u000a<li><a href="http://www.ibm.com/developerworks/cn/java/j-cq/">\u8ffd\u6c42\u4ee3\u7801\u8d28\u91cf</a></li>\u000a<li><a href="https://github.com/fool2fish/selenium-doc">selenium \u4e2d\u6587\u6587\u6863</a></li>\u000a<li><a href="http://it-ebooks.flygon.net/selenium-simple-tutorial/">Selenium Webdriver \u7b80\u6613\u6559\u7a0b</a></li>\u000a<li><a href="http://local.joelonsoftware.com/wiki/Chinese_(Simplified)">Joel\u8c08\u8f6f\u4ef6</a></li>\u000a<li><a href="http://local.joelonsoftware.com/wiki/%E9%A6%96%E9%A0%81">\u7d04\u8033\u8ac7\u8edf\u9ad4(Joel on Software)</a></li>\u000a<li><a href="https://github.com/waylau/Gradle-2-User-Guide">Gradle 2 \u7528\u6237\u6307\u5357</a></li>\u000a<li><a href="http://yuedu.baidu.com/ebook/f23af265998fcc22bcd10da2">Gradle \u4e2d\u6587\u4f7f\u7528\u6587\u6863</a></li>\u000a<li><a href="https://github.com/ecomfe/spec">\u7f16\u7801\u89c4\u8303</a></li>\u000a<li><a href="http://www.ituring.com.cn/book/1143">\u5f00\u6e90\u8f6f\u4ef6\u67b6\u6784</a></li>\u000a<li><a href="http://docs.huihoo.com/gnu/linux/gmake.html">GNU make \u6307\u5357</a></li>\u000a<li><a href="http://www.yayu.org/book/gnu_make/">GNU make \u4e2d\u6587\u624b\u518c</a></li>\u000a<li><a href="http://12factor.net/zh_cn/">The Twelve-Factor App</a></li>\u000a</ul>\u000a\u000a<h3><a id="user-content-\u8bbe\u8ba1\u6a21\u5f0f" class="anchor" href="#\u8bbe\u8ba1\u6a21\u5f0f" aria-hidden="true"><svg aria-hidden="true" class="octicon octicon-link" height="16" version="1.1" viewBox="0 0 16 16" width="16"><path fill-rule="evenodd" d="M4 9h1v1H4c-1.5 0-3-1.69-3-3.5S2.55 3 4 3h4c1.45 0 3 1.69 3 3.5 0 1.41-.91 2.72-2 3.25V8.59c.58-.45 1-1.27 1-2.09C10 5.22 8.98 4 8 4H4c-.98 0-2 1.22-2 2.5S3 9 4 9zm9-3h-1v1h1c1 0 2 1.22 2 2.5S13.98 12 13 12H9c-.98 0-2-1.22-2-2.5 0-.83.42-1.64 1-2.09V6.25c-1.09.53-2 1.84-2 3.25C6 11.31 7.55 13 9 13h4c1.45 0 3-1.69 3-3.5S14.5 6 13 6z"></path></svg></a>\u8bbe\u8ba1\u6a21\u5f0f</h3>\u000a\u000a<ul>\u000a<li><a href="https://github.com/me115/design_patterns">\u56fe\u8bf4\u8bbe\u8ba1\u6a21\u5f0f</a></li>\u000a<li><a href="http://blog.csdn.net/lovelion/article/details/17517213">\u53f2\u4e0a\u6700\u5168\u8bbe\u8ba1\u6a21\u5f0f\u5bfc\u5b66\u76ee\u5f55</a></li>\u000a<li><a href="https://github.com/AlfredTheBest/Design-Pattern">design pattern \u5305\u6559\u4e0d\u5305\u4f1a</a></li>\u000a<li><a href="https://quanke.gitbooks.io/design-pattern-java/content/">\u8bbe\u8ba1\u6a21\u5f0f Java \u7248</a></li>\u000a</ul>\u000a\u000a<h3><a id="user-content-web" class="anchor" href="#web" aria-hidden="true"><svg aria-hidden="true" class="octicon octicon-link" height="16" version="1.1" viewBox="0 0 16 16" width="16"><path fill-rule="evenodd" d="M4 9h1v1H4c-1.5 0-3-1.69-3-3.5S2.55 3 4 3h4c1.45 0 3 1.69 3 3.5 0 1.41-.91 2.72-2 3.25V8.59c.58-.45 1-1.27 1-2.09C10 5.22 8.98 4 8 4H4c-.98 0-2 1.22-2 2.5S3 9 4 9zm9-3h-1v1h1c1 0 2 1.22 2 2.5S13.98 12 13 12H9c-.98 0-2-1.22-2-2.5 0-.83.42-1.64 1-2.09V6.25c-1.09.53-2 1.84-2 3.25C6 11.31 7.55 13 9 13h4c1.45 0 3-1.69 3-3.5S14.5 6 13 6z"></path></svg></a>Web</h3>\u000a\u000a<ul>\u000a<li><a href="http://www.20thingsilearned.com/zh-CN/home">\u5173\u4e8e\u6d4f\u89c8\u5668\u548c\u7f51\u7edc\u7684 20 \u9879\u987b\u77e5</a></li>\u000a<li><a href="http://jinlong.github.io/2013/08/29/devtoolsecrets/">\u6d4f\u89c8\u5668\u5f00\u53d1\u5de5\u5177\u7684\u79d8\u5bc6</a></li>\u000a<li><a href="https://github.com/CN-Chrome-DevTools/CN-Chrome-DevTools">Chrome \u5f00\u53d1\u8005\u5de5\u5177\u4e2d\u6587\u624b\u518c</a></li>\u000a<li><a href="http://open.chrome.360.cn/extension_dev/overview.html">Chrome\u6269\u5c55\u5f00\u53d1\u6587\u6863</a></li>\u000a<li><a href="http://www.gruntjs.net/">Grunt\u4e2d\u6587\u6587\u6863</a></li>\u000a<li><a href="http://www.gulpjs.com.cn/docs/">gulp\u4e2d\u6587\u6587\u6863</a></li>\u000a<li><a href="https://github.com/nimojs/gulp-book">Gulp \u5165\u95e8\u6307\u5357</a></li>\u000a<li><a href="https://github.com/AlloyTeam/Mars">\u79fb\u52a8Web\u524d\u7aef\u77e5\u8bc6\u5e93</a></li>\u000a<li><a href="http://deerchao.net/tutorials/regex/regex.htm">\u6b63\u5219\u8868\u8fbe\u5f0f30\u5206\u949f\u5165\u95e8\u6559\u7a0b</a></li>\u000a<li><a href="https://github.com/fouber/blog/issues/2">\u524d\u7aef\u5f00\u53d1\u4f53\u7cfb\u5efa\u8bbe\u65e5\u8bb0</a></li>\u000a<li><a href="https://github.com/hoosin/mobile-web-favorites">\u79fb\u52a8\u524d\u7aef\u5f00\u53d1\u6536\u85cf\u5939</a></li>\u000a<li><a href="https://github.com/darcyliu/google-styleguide/blob/master/JSONStyleGuide.md">JSON\u98ce\u683c\u6307\u5357</a></li>\u000a<li><a href="https://github.com/bolasblack/http-api-guide">HTTP \u63a5\u53e3\u8bbe\u8ba1\u6307\u5317</a></li>\u000a<li><a href="https://github.com/hacke2/hacke2.github.io/issues/1">\u524d\u7aef\u8d44\u6e90\u5206\u4eab\uff08\u4e00\uff09</a></li>\u000a<li><a href="https://github.com/hacke2/hacke2.github.io/issues/3">\u524d\u7aef\u8d44\u6e90\u5206\u4eab\uff08\u4e8c\uff09</a></li>\u000a<li><a href="http://coderlmn.github.io/code-standards/">\u524d\u7aef\u4ee3\u7801\u89c4\u8303 \u53ca \u6700\u4f73\u5b9e\u8df5</a></li>\u000a<li><a href="https://www.gitbook.com/book/dwqs/frontenddevhandbook/details">\u524d\u7aef\u5f00\u53d1\u8005\u624b\u518c</a></li>\u000a<li><a href="https://www.gitbook.com/book/leohxj/front-end-database/details">\u524d\u7aef\u5de5\u7a0b\u5e08\u624b\u518c</a></li>\u000a<li><a href="https://github.com/wizardforcel/w3school">w3school\u6559\u7a0b\u6574\u7406</a></li>\u000a<li><a href="http://man.lupaworld.com/content/network/wireshark/index.html">Wireshark\u7528\u6237\u624b\u518c</a></li>\u000a<li><a href="https://community.emc.com/thread/194901">\u4e00\u7ad9\u5f0f\u5b66\u4e60Wireshark</a></li>\u000a<li><a href="http://happypeter.github.io/tealeaf-http/">HTTP \u4e0b\u5348\u8336</a></li>\u000a<li><a href="http://yuedu.baidu.com/ebook/478d1a62376baf1ffc4fad99?pn=1">HTTP/2.0 \u4e2d\u6587\u7ffb\u8bd1</a></li>\u000a<li><a href="https://github.com/abbshr/rfc7540-translation-zh_cn">RFC 7540 - HTTP/2 \u4e2d\u6587\u7ffb\u8bd1\u7248</a></li>\u000a<li><a href="https://www.gitbook.com/book/ye11ow/http2-explained/details">http2\u8bb2\u89e3</a></li>\u000a<li><a href="https://www.gitbook.com/book/juntao/3-web-designs-in-3-weeks/details">3 Web Designs in 3 Weeks</a></li>\u000a<li><a href="https://github.com/hellorocky/Site-Reliability-Engineering">\u7ad9\u70b9\u53ef\u9760\u6027\u5de5\u7a0b</a></li>\u000a</ul>\u000a\u000a<h3><a id="user-content-\u5927\u6570\u636e" class="anchor" href="#\u5927\u6570\u636e" aria-hidden="true"><svg aria-hidden="true" class="octicon octicon-link" height="16" version="1.1" viewBox="0 0 16 16" width="16"><path fill-rule="evenodd" d="M4 9h1v1H4c-1.5 0-3-1.69-3-3.5S2.55 3 4 3h4c1.45 0 3 1.69 3 3.5 0 1.41-.91 2.72-2 3.25V8.59c.58-.45 1-1.27 1-2.09C10 5.22 8.98 4 8 4H4c-.98 0-2 1.22-2 2.5S3 9 4 9zm9-3h-1v1h1c1 0 2 1.22 2 2.5S13.98 12 13 12H9c-.98 0-2-1.22-2-2.5 0-.83.42-1.64 1-2.09V6.25c-1.09.53-2 1.84-2 3.25C6 11.31 7.55 13 9 13h4c1.45 0 3-1.69 3-3.5S14.5 6 13 6z"></path></svg></a>\u5927\u6570\u636e</h3>\u000a\u000a<ul>\u000a<li><a href="https://github.com/Flowerowl/Big-Data-Resources">\u5927\u6570\u636e/\u6570\u636e\u6316\u6398/\u63a8\u8350\u7cfb\u7edf/\u673a\u5668\u5b66\u4e60\u76f8\u5173\u8d44\u6e90</a></li>\u000a<li><a href="https://github.com/egrcc/guidetodatamining">\u9762\u5411\u7a0b\u5e8f\u5458\u7684\u6570\u636e\u6316\u6398\u6307\u5357</a></li>\u000a<li><a href="https://code.csdn.net/CODE_Translation/spark_matei_phd">\u5927\u578b\u96c6\u7fa4\u4e0a\u7684\u5feb\u901f\u548c\u901a\u7528\u6570\u636e\u5904\u7406\u67b6\u6784</a></li>\u000a<li><a href="https://github.com/linyiqun/DataMiningAlgorithm">\u6570\u636e\u6316\u6398\u4e2d\u7ecf\u5178\u7684\u7b97\u6cd5\u5b9e\u73b0\u548c\u8be6\u7ec6\u7684\u6ce8\u91ca</a></li>\u000a<li><a href="https://aiyanbo.gitbooks.io/spark-programming-guide-zh-cn/content/">Spark \u7f16\u7a0b\u6307\u5357\u7b80\u4f53\u4e2d\u6587\u7248</a></li>\u000a</ul>\u000a\u000a<h2><a id="user-content-\u7f16\u7a0b\u827a\u672f" class="anchor" href="#\u7f16\u7a0b\u827a\u672f" aria-hidden="true"><svg aria-hidden="true" class="octicon octicon-link" height="16" version="1.1" viewBox="0 0 16 16" width="16"><path fill-rule="evenodd" d="M4 9h1v1H4c-1.5 0-3-1.69-3-3.5S2.55 3 4 3h4c1.45 0 3 1.69 3 3.5 0 1.41-.91 2.72-2 3.25V8.59c.58-.45 1-1.27 1-2.09C10 5.22 8.98 4 8 4H4c-.98 0-2 1.22-2 2.5S3 9 4 9zm9-3h-1v1h1c1 0 2 1.22 2 2.5S13.98 12 13 12H9c-.98 0-2-1.22-2-2.5 0-.83.42-1.64 1-2.09V6.25c-1.09.53-2 1.84-2 3.25C6 11.31 7.55 13 9 13h4c1.45 0 3-1.69 3-3.5S14.5 6 13 6z"></path></svg></a>\u7f16\u7a0b\u827a\u672f</h2>\u000a\u000a<ul>\u000a<li><a href="https://github.com/julycoding/The-Art-Of-Programming-by-July">\u7a0b\u5e8f\u5458\u7f16\u7a0b\u827a\u672f</a></li>\u000a<li><a href="http://www.oschina.net/translate/what-every-programmer-should-know-about-memory-part1?print">\u6bcf\u4e2a\u7a0b\u5e8f\u5458\u90fd\u5e94\u8be5\u4e86\u89e3\u7684\u5185\u5b58\u77e5\u8bc6(\u8bd1)</a>\u3010\u7b2c\u4e00\u90e8\u5206\u3011</li>\u000a<li><a href="http://read.douban.com/ebook/4972883/">\u53d6\u60a6\u7684\u5de5\u5e8f\uff1a\u5982\u4f55\u7406\u89e3\u6e38\u620f</a> (\u8c46\u74e3\u9605\u8bfb\uff0c\u514d\u8d39\u4e66\u7c4d)</li>\u000a</ul>\u000a\u000a<h2><a id="user-content-\u5176\u5b83" class="anchor" href="#\u5176\u5b83" aria-hidden="true"><svg aria-hidden="true" class="octicon octicon-link" height="16" version="1.1" viewBox="0 0 16 16" width="16"><path fill-rule="evenodd" d="M4 9h1v1H4c-1.5 0-3-1.69-3-3.5S2.55 3 4 3h4c1.45 0 3 1.69 3 3.5 0 1.41-.91 2.72-2 3.25V8.59c.58-.45 1-1.27 1-2.09C10 5.22 8.98 4 8 4H4c-.98 0-2 1.22-2 2.5S3 9 4 9zm9-3h-1v1h1c1 0 2 1.22 2 2.5S13.98 12 13 12H9c-.98 0-2-1.22-2-2.5 0-.83.42-1.64 1-2.09V6.25c-1.09.53-2 1.84-2 3.25C6 11.31 7.55 13 9 13h4c1.45 0 3-1.69 3-3.5S14.5 6 13 6z"></path></svg></a>\u5176\u5b83</h2>\u000a\u000a<ul>\u000a<li><a href="https://www.gitbook.com/book/softwaredownload/openwrt-fanqiang/details">OpenWrt\u667a\u80fd\u3001\u81ea\u52a8\u3001\u900f\u660e\u7ffb\u5899\u8def\u7531\u5668\u6559\u7a0b</a></li>\u000a<li><a href="https://community.emc.com/docs/DOC-16067">SAN \u7ba1\u7406\u5165\u95e8\u7cfb\u5217</a></li>\u000a<li><a href="http://sketchcn.com/sketch-chinese-user-manual.html#introduce">Sketch \u4e2d\u6587\u624b\u518c</a></li>\u000a<li><a href="http://ifeve.com/perfbook/">\u6df1\u5165\u7406\u89e3\u5e76\u884c\u7f16\u7a0b</a></li>\u000a<li><a href="http://www.kancloud.cn/kancloud/a-programmer-prepares">\u7a0b\u5e8f\u5458\u7684\u81ea\u6211\u4fee\u517b</a></li>\u000a<li><a href="https://github.com/phodal/growth-ebook">Growth: \u5168\u6808\u589e\u957f\u5de5\u7a0b\u5e08\u6307\u5357</a></li>\u000a</ul>\u000a\u000a<h2><a id="user-content-\u8bed\u8a00\u76f8\u5173\u7c7b" class="anchor" href="#\u8bed\u8a00\u76f8\u5173\u7c7b" aria-hidden="true"><svg aria-hidden="true" class="octicon octicon-link" height="16" version="1.1" viewBox="0 0 16 16" width="16"><path fill-rule="evenodd" d="M4 9h1v1H4c-1.5 0-3-1.69-3-3.5S2.55 3 4 3h4c1.45 0 3 1.69 3 3.5 0 1.41-.91 2.72-2 3.25V8.59c.58-.45 1-1.27 1-2.09C10 5.22 8.98 4 8 4H4c-.98 0-2 1.22-2 2.5S3 9 4 9zm9-3h-1v1h1c1 0 2 1.22 2 2.5S13.98 12 13 12H9c-.98 0-2-1.22-2-2.5 0-.83.42-1.64 1-2.09V6.25c-1.09.53-2 1.84-2 3.25C6 11.31 7.55 13 9 13h4c1.45 0 3-1.69 3-3.5S14.5 6 13 6z"></path></svg></a>\u8bed\u8a00\u76f8\u5173\u7c7b</h2>\u000a\u000a<h3><a id="user-content-android" class="anchor" href="#android" aria-hidden="true"><svg aria-hidden="true" class="octicon octicon-link" height="16" version="1.1" viewBox="0 0 16 16" width="16"><path fill-rule="evenodd" d="M4 9h1v1H4c-1.5 0-3-1.69-3-3.5S2.55 3 4 3h4c1.45 0 3 1.69 3 3.5 0 1.41-.91 2.72-2 3.25V8.59c.58-.45 1-1.27 1-2.09C10 5.22 8.98 4 8 4H4c-.98 0-2 1.22-2 2.5S3 9 4 9zm9-3h-1v1h1c1 0 2 1.22 2 2.5S13.98 12 13 12H9c-.98 0-2-1.22-2-2.5 0-.83.42-1.64 1-2.09V6.25c-1.09.53-2 1.84-2 3.25C6 11.31 7.55 13 9 13h4c1.45 0 3-1.69 3-3.5S14.5 6 13 6z"></path></svg></a>Android</h3>\u000a\u000a<ul>\u000a<li><a href="http://www.apkbus.com/design/index.html">Android Design(\u4e2d\u6587\u7248)</a></li>\u000a<li>Google Material Design \u6b63\u9ad4\u4e2d\u6587\u7248 (<a href="https://wcc723.gitbooks.io/google_design_translate/content/style-icons.html">\u8bd1\u672c\u4e00</a> <a href="https://github.com/1sters/material_design_zh">\u8bd1\u672c\u4e8c</a>)</li>\u000a<li><a href="http://wiki.jikexueyuan.com/project/material-design/">Material Design \u4e2d\u6587\u7248</a></li>\u000a<li><a href="http://hukai.me/android-training-course-in-chinese/index.html">Google Android\u5b98\u65b9\u57f9\u8bad\u8bfe\u7a0b\u4e2d\u6587\u7248</a></li>\u000a<li><a href="http://www.stormzhang.com/android/2014/07/07/learn-android-from-rookie/">Android\u5b66\u4e60\u4e4b\u8def</a></li>\u000a<li><a href="https://github.com/bboyfeiyu/android-tech-frontier">Android\u5f00\u53d1\u6280\u672f\u524d\u7ebf(android-tech-frontier)</a></li>\u000a<li><a href="https://github.com/FX-Max/Point-of-Android">Point-of-Android</a> Android \u4e00\u4e9b\u91cd\u8981\u77e5\u8bc6\u70b9\u89e3\u6790\u6574\u7406</li>\u000a<li><a href="http://leanote.com/blog/post/561658f938f41126b2000298?hmsr=toutiao.io&amp;utm_medium=toutiao.io&amp;utm_source=toutiao.io">Android6.0\u65b0\u7279\u6027\u8be6\u89e3</a></li>\u000a</ul>\u000a\u000a<h3><a id="user-content-app" class="anchor" href="#app" aria-hidden="true"><svg aria-hidden="true" class="octicon octicon-link" height="16" version="1.1" viewBox="0 0 16 16" width="16"><path fill-rule="evenodd" d="M4 9h1v1H4c-1.5 0-3-1.69-3-3.5S2.55 3 4 3h4c1.45 0 3 1.69 3 3.5 0 1.41-.91 2.72-2 3.25V8.59c.58-.45 1-1.27 1-2.09C10 5.22 8.98 4 8 4H4c-.98 0-2 1.22-2 2.5S3 9 4 9zm9-3h-1v1h1c1 0 2 1.22 2 2.5S13.98 12 13 12H9c-.98 0-2-1.22-2-2.5 0-.83.42-1.64 1-2.09V6.25c-1.09.53-2 1.84-2 3.25C6 11.31 7.55 13 9 13h4c1.45 0 3-1.69 3-3.5S14.5 6 13 6z"></path></svg></a>APP</h3>\u000a\u000a<ul>\u000a<li><a href="https://github.com/waylau/cordova-dev-guide">Apache Cordova \u5f00\u53d1\u6307\u5357</a></li>\u000a</ul>\u000a\u000a<h3><a id="user-content-awk" class="anchor" href="#awk" aria-hidden="true"><svg aria-hidden="true" class="octicon octicon-link" height="16" version="1.1" viewBox="0 0 16 16" width="16"><path fill-rule="evenodd" d="M4 9h1v1H4c-1.5 0-3-1.69-3-3.5S2.55 3 4 3h4c1.45 0 3 1.69 3 3.5 0 1.41-.91 2.72-2 3.25V8.59c.58-.45 1-1.27 1-2.09C10 5.22 8.98 4 8 4H4c-.98 0-2 1.22-2 2.5S3 9 4 9zm9-3h-1v1h1c1 0 2 1.22 2 2.5S13.98 12 13 12H9c-.98 0-2-1.22-2-2.5 0-.83.42-1.64 1-2.09V6.25c-1.09.53-2 1.84-2 3.25C6 11.31 7.55 13 9 13h4c1.45 0 3-1.69 3-3.5S14.5 6 13 6z"></path></svg></a>AWK</h3>\u000a\u000a<ul>\u000a<li><a href="https://github.com/wuzhouhui/awk">awk\u7a0b\u5e8f\u8bbe\u8ba1\u8bed\u8a00</a></li>\u000a<li><a href="http://awk.readthedocs.org/en/latest/index.html">awk\u4e2d\u6587\u6307\u5357</a></li>\u000a</ul>\u000a\u000a<h3><a id="user-content-cc" class="anchor" href="#cc" aria-hidden="true"><svg aria-hidden="true" class="octicon octicon-link" height="16" version="1.1" viewBox="0 0 16 16" width="16"><path fill-rule="evenodd" d="M4 9h1v1H4c-1.5 0-3-1.69-3-3.5S2.55 3 4 3h4c1.45 0 3 1.69 3 3.5 0 1.41-.91 2.72-2 3.25V8.59c.58-.45 1-1.27 1-2.09C10 5.22 8.98 4 8 4H4c-.98 0-2 1.22-2 2.5S3 9 4 9zm9-3h-1v1h1c1 0 2 1.22 2 2.5S13.98 12 13 12H9c-.98 0-2-1.22-2-2.5 0-.83.42-1.64 1-2.09V6.25c-1.09.53-2 1.84-2 3.25C6 11.31 7.55 13 9 13h4c1.45 0 3-1.69 3-3.5S14.5 6 13 6z"></path></svg></a>C/C++</h3>\u000a\u000a<ul>\u000a<li><a href="http://zh.cppreference.com/">C/C++ \u4e2d\u6587\u53c2\u8003\u624b\u518c</a> (\u6b22\u8fce\u5927\u5bb6\u53c2\u4e0e\u5728\u7ebf\u7ffb\u8bd1\u548c\u6821\u5bf9)</li>\u000a<li><a href="https://www.gitbook.com/book/tinylab/cbook/details">C \u8bed\u8a00\u7f16\u7a0b\u900f\u89c6</a></li>\u000a<li><a href="https://github.com/forhappy/Cplusplus-Concurrency-In-Practice">C++ \u5e76\u53d1\u7f16\u7a0b\u6307\u5357</a></li>\u000a<li><a href="http://akaedu.github.io/book/">Linux C\u7f16\u7a0b\u4e00\u7ad9\u5f0f\u5b66\u4e60</a> (\u5b8b\u52b2\u6749, \u5317\u4eac\u4e9a\u5d4c\u6559\u80b2\u7814\u7a76\u4e2d\u5fc3)</li>\u000a<li><a href="https://github.com/leeyiw/cgdb-manual-in-chinese">CGDB\u4e2d\u6587\u624b\u518c</a></li>\u000a<li><a href="https://github.com/hellogcc/100-gdb-tips/blob/master/src/index.md">100\u4e2agdb\u5c0f\u6280\u5de7</a></li>\u000a<li><a href="https://github.com/hellogcc/100-gcc-tips/blob/master/src/index.md">100\u4e2agcc\u5c0f\u6280\u5de7</a></li>\u000a<li><a href="https://github.com/anjuke/zguide-cn">ZMQ \u6307\u5357</a></li>\u000a<li><a href="http://www.ituring.com.cn/book/1203">How to Think Like a Computer Scientist</a> (\u4e2d\u82f1\u6587\u7248)</li>\u000a<li><a href="http://scc.qibebt.cas.cn/docs/linux/base/%B8%FA%CE%D2%D2%BB%C6%F0%D0%B4Makefile-%B3%C2%F0%A9.pdf">\u8ddf\u6211\u4e00\u8d77\u5199Makefile(PDF)</a></li>\u000a<li><a href="http://www.yayu.org/book/gnu_make/">GNU make\u4e2d\u6587\u624b\u518c</a></li>\u000a<li><a href="http://docs.huihoo.com/gnu/linux/gmake.html">GNU make \u6307\u5357</a></li>\u000a<li><a href="http://zh-google-styleguide.readthedocs.org/en/latest/google-cpp-styleguide/contents/">Google C++ \u98ce\u683c\u6307\u5357</a></li>\u000a<li><a href="https://github.com/andycai/cprimer">C/C++ Primer</a> (by @andycai)</li>\u000a<li><a href="http://www.nowamagic.net/librarys/books/contents/c">\u7b80\u5355\u6613\u61c2\u7684C\u9b54\u6cd5</a></li>\u000a<li><a href="http://sewm.pku.edu.cn/src/paradise/reference/CMake%20Practice.pdf">Cmake \u5b9e\u8df5</a> (PDF\u7248)</li>\u000a<li><a href="http://www.sunistudio.com/cppfaq/">C++ FAQ LITE(\u4e2d\u6587\u7248)</a></li>\u000a<li><a href="https://github.com/Mooophy/Cpp-Primer">C++ Primer 5th Answers</a></li>\u000a<li><a href="https://www.gitbook.com/book/chenxiaowei/cpp_concurrency_in_action/details">C++ \u5e76\u53d1\u7f16\u7a0b(\u57fa\u4e8eC++11)</a></li>\u000a<li><a href="http://www.kuqin.com/qtdocument/tutorial.html">QT \u6559\u7a0b</a></li>\u000a<li><a href="http://www.devbean.net/category/qt-study-road-2/">DevBean\u7684\u300aQt\u5b66\u4e60\u4e4b\u8def2\u300b(Qt5)</a></li>\u000a<li><a href="https://github.com/wuye9036/CppTemplateTutorial">C++ Template \u8fdb\u9636\u6307\u5357</a></li>\u000a<li><a href="https://github.com/luohaha/Chinese-uvbook">libuv\u4e2d\u6587\u6559\u7a0b</a></li>\u000a<li><a href="http://zh.highscore.de/cpp/boost/">Boost \u5e93\u4e2d\u6587\u6559\u7a0b</a></li>\u000a<li><a href="https://github.com/wizardforcel/lcthw-zh">\u7b28\u529e\u6cd5\u5b66C</a></li>\u000a</ul>\u000a\u000a<h3><a id="user-content-c" class="anchor" href="#c" aria-hidden="true"><svg aria-hidden="true" class="octicon octicon-link" height="16" version="1.1" viewBox="0 0 16 16" width="16"><path fill-rule="evenodd" d="M4 9h1v1H4c-1.5 0-3-1.69-3-3.5S2.55 3 4 3h4c1.45 0 3 1.69 3 3.5 0 1.41-.91 2.72-2 3.25V8.59c.58-.45 1-1.27 1-2.09C10 5.22 8.98 4 8 4H4c-.98 0-2 1.22-2 2.5S3 9 4 9zm9-3h-1v1h1c1 0 2 1.22 2 2.5S13.98 12 13 12H9c-.98 0-2-1.22-2-2.5 0-.83.42-1.64 1-2.09V6.25c-1.09.53-2 1.84-2 3.25C6 11.31 7.55 13 9 13h4c1.45 0 3-1.69 3-3.5S14.5 6 13 6z"></path></svg></a>C#</h3>\u000a\u000a<ul>\u000a<li><a href="https://msdn.microsoft.com/zh-cn/library/kx37x362.aspx">MSDN C# \u4e2d\u6587\u6587\u6863</a></li>\u000a<li><a href="https://msdn.microsoft.com/zh-cn/library/gg145045.aspx">.NET \u7c7b\u5e93\u53c2\u8003</a></li>\u000a<li><a href="http://www.cnblogs.com/powertoolsteam/p/aspnetmvc5-tutorials-grapecity.html">ASP.NET MVC 5 \u5165\u95e8\u6307\u5357</a></li>\u000a<li><a href="http://www.cnblogs.com/LonelyShadow/p/4162318.html">\u8d85\u5168\u9762\u7684 .NET GDI+ \u56fe\u5f62\u56fe\u50cf\u7f16\u7a0b\u6559\u7a0b</a></li>\u000a<li><a href="https://github.com/JackWangCUMT/customcontrol">.NET\u63a7\u4ef6\u5f00\u53d1\u57fa\u7840</a></li>\u000a<li><a href="https://github.com/sherlockchou86/-free-ebook-.NET-">.NET\u5f00\u53d1\u8981\u70b9\u7cbe\u8bb2\uff08\u521d\u7a3f\uff09</a></li>\u000a</ul>\u000a\u000a<h3><a id="user-content-clojure" class="anchor" href="#clojure" aria-hidden="true"><svg aria-hidden="true" class="octicon octicon-link" height="16" version="1.1" viewBox="0 0 16 16" width="16"><path fill-rule="evenodd" d="M4 9h1v1H4c-1.5 0-3-1.69-3-3.5S2.55 3 4 3h4c1.45 0 3 1.69 3 3.5 0 1.41-.91 2.72-2 3.25V8.59c.58-.45 1-1.27 1-2.09C10 5.22 8.98 4 8 4H4c-.98 0-2 1.22-2 2.5S3 9 4 9zm9-3h-1v1h1c1 0 2 1.22 2 2.5S13.98 12 13 12H9c-.98 0-2-1.22-2-2.5 0-.83.42-1.64 1-2.09V6.25c-1.09.53-2 1.84-2 3.25C6 11.31 7.55 13 9 13h4c1.45 0 3-1.69 3-3.5S14.5 6 13 6z"></path></svg></a>Clojure</h3>\u000a\u000a<ul>\u000a<li><a href="http://xumingming.sinaapp.com/302/clojure-functional-programming-for-the-jvm-clojure-tutorial/">Clojure\u5165\u95e8\u6559\u7a0b</a></li>\u000a</ul>\u000a\u000a<h3 id="user-content-csshtml"><a id="user-content-csshtml" class="anchor" href="#csshtml" aria-hidden="true"><svg aria-hidden="true" class="octicon octicon-link" height="16" version="1.1" viewBox="0 0 16 16" width="16"><path fill-rule="evenodd" d="M4 9h1v1H4c-1.5 0-3-1.69-3-3.5S2.55 3 4 3h4c1.45 0 3 1.69 3 3.5 0 1.41-.91 2.72-2 3.25V8.59c.58-.45 1-1.27 1-2.09C10 5.22 8.98 4 8 4H4c-.98 0-2 1.22-2 2.5S3 9 4 9zm9-3h-1v1h1c1 0 2 1.22 2 2.5S13.98 12 13 12H9c-.98 0-2-1.22-2-2.5 0-.83.42-1.64 1-2.09V6.25c-1.09.53-2 1.84-2 3.25C6 11.31 7.55 13 9 13h4c1.45 0 3-1.69 3-3.5S14.5 6 13 6z"></path></svg></a>CSS/HTML</h3>\u000a\u000a<ul>\u000a<li><a href="http://zh.learnlayout.com/">\u5b66\u4e60CSS\u5e03\u5c40</a></li>\u000a<li><a href="https://github.com/chadluo/CSS-Guidelines/blob/master/README.md">\u901a\u7528 CSS \u7b14\u8bb0\u3001\u5efa\u8bae\u4e0e\u6307\u5bfc</a></li>\u000a<li><a href="http://css.doyoe.com/">CSS\u53c2\u8003\u624b\u518c</a></li>\u000a<li><a href="http://yanxyz.github.io/emmet-docs/">Emmet \u6587\u6863</a></li>\u000a<li><a href="http://alloyteam.github.io/CodeGuide/">\u524d\u7aef\u4ee3\u7801\u89c4\u8303</a> (\u817e\u8baf AlloyTeam \u56e2\u961f)</li>\u000a<li><a href="http://codeguide.bootcss.com/">HTML\u548cCSS\u7f16\u7801\u89c4\u8303</a></li>\u000a<li><a href="http://sass-guidelin.es/zh/">Sass Guidelines \u4e2d\u6587</a></li>\u000a<li><a href="https://github.com/waylau/css3-tutorial">CSS3 Tutorial \u300aCSS3 \u6559\u7a0b\u300b</a></li>\u000a<li><a href="https://developer.mozilla.org/zh-CN/docs/Web/HTML">MDN HTML \u4e2d\u6587\u6587\u6863</a></li>\u000a<li><a href="https://developer.mozilla.org/zh-CN/docs/Web/CSS">MDN CSS \u4e2d\u6587\u6587\u6863</a></li>\u000a</ul>\u000a\u000a<h3><a id="user-content-dart" class="anchor" href="#dart" aria-hidden="true"><svg aria-hidden="true" class="octicon octicon-link" height="16" version="1.1" viewBox="0 0 16 16" width="16"><path fill-rule="evenodd" d="M4 9h1v1H4c-1.5 0-3-1.69-3-3.5S2.55 3 4 3h4c1.45 0 3 1.69 3 3.5 0 1.41-.91 2.72-2 3.25V8.59c.58-.45 1-1.27 1-2.09C10 5.22 8.98 4 8 4H4c-.98 0-2 1.22-2 2.5S3 9 4 9zm9-3h-1v1h1c1 0 2 1.22 2 2.5S13.98 12 13 12H9c-.98 0-2-1.22-2-2.5 0-.83.42-1.64 1-2.09V6.25c-1.09.53-2 1.84-2 3.25C6 11.31 7.55 13 9 13h4c1.45 0 3-1.69 3-3.5S14.5 6 13 6z"></path></svg></a>Dart</h3>\u000a\u000a<ul>\u000a<li><a href="http://dart.lidian.info/wiki/Language_Tour">Dart \u8bed\u8a00\u5bfc\u89c8</a></li>\u000a</ul>\u000a\u000a<h3><a id="user-content-elixir" class="anchor" href="#elixir" aria-hidden="true"><svg aria-hidden="true" class="octicon octicon-link" height="16" version="1.1" viewBox="0 0 16 16" width="16"><path fill-rule="evenodd" d="M4 9h1v1H4c-1.5 0-3-1.69-3-3.5S2.55 3 4 3h4c1.45 0 3 1.69 3 3.5 0 1.41-.91 2.72-2 3.25V8.59c.58-.45 1-1.27 1-2.09C10 5.22 8.98 4 8 4H4c-.98 0-2 1.22-2 2.5S3 9 4 9zm9-3h-1v1h1c1 0 2 1.22 2 2.5S13.98 12 13 12H9c-.98 0-2-1.22-2-2.5 0-.83.42-1.64 1-2.09V6.25c-1.09.53-2 1.84-2 3.25C6 11.31 7.55 13 9 13h4c1.45 0 3-1.69 3-3.5S14.5 6 13 6z"></path></svg></a>Elixir</h3>\u000a\u000a<ul>\u000a<li><a href="https://github.com/straightdave/programming_elixir">Elixir\u7f16\u7a0b\u5165\u95e8</a></li>\u000a</ul>\u000a\u000a<h3><a id="user-content-erlang" class="anchor" href="#erlang" aria-hidden="true"><svg aria-hidden="true" class="octicon octicon-link" height="16" version="1.1" viewBox="0 0 16 16" width="16"><path fill-rule="evenodd" d="M4 9h1v1H4c-1.5 0-3-1.69-3-3.5S2.55 3 4 3h4c1.45 0 3 1.69 3 3.5 0 1.41-.91 2.72-2 3.25V8.59c.58-.45 1-1.27 1-2.09C10 5.22 8.98 4 8 4H4c-.98 0-2 1.22-2 2.5S3 9 4 9zm9-3h-1v1h1c1 0 2 1.22 2 2.5S13.98 12 13 12H9c-.98 0-2-1.22-2-2.5 0-.83.42-1.64 1-2.09V6.25c-1.09.53-2 1.84-2 3.25C6 11.31 7.55 13 9 13h4c1.45 0 3-1.69 3-3.5S14.5 6 13 6z"></path></svg></a>Erlang</h3>\u000a\u000a<ul>\u000a<li><a href="http://xn--21erlang-p00o82pmp3o.github.io/">21\u5929\u5b66\u901aErlang</a></li>\u000a</ul>\u000a\u000a<h3><a id="user-content-fortran" class="anchor" href="#fortran" aria-hidden="true"><svg aria-hidden="true" class="octicon octicon-link" height="16" version="1.1" viewBox="0 0 16 16" width="16"><path fill-rule="evenodd" d="M4 9h1v1H4c-1.5 0-3-1.69-3-3.5S2.55 3 4 3h4c1.45 0 3 1.69 3 3.5 0 1.41-.91 2.72-2 3.25V8.59c.58-.45 1-1.27 1-2.09C10 5.22 8.98 4 8 4H4c-.98 0-2 1.22-2 2.5S3 9 4 9zm9-3h-1v1h1c1 0 2 1.22 2 2.5S13.98 12 13 12H9c-.98 0-2-1.22-2-2.5 0-.83.42-1.64 1-2.09V6.25c-1.09.53-2 1.84-2 3.25C6 11.31 7.55 13 9 13h4c1.45 0 3-1.69 3-3.5S14.5 6 13 6z"></path></svg></a>Fortran</h3>\u000a\u000a<ul>\u000a<li><a href="http://micro.ustc.edu.cn/Fortran/ZJDing/">Fortran77\u548c90/95\u7f16\u7a0b\u5165\u95e8</a></li>\u000a</ul>\u000a\u000a<h3><a id="user-content-go" class="anchor" href="#go" aria-hidden="true"><svg aria-hidden="true" class="octicon octicon-link" height="16" version="1.1" viewBox="0 0 16 16" width="16"><path fill-rule="evenodd" d="M4 9h1v1H4c-1.5 0-3-1.69-3-3.5S2.55 3 4 3h4c1.45 0 3 1.69 3 3.5 0 1.41-.91 2.72-2 3.25V8.59c.58-.45 1-1.27 1-2.09C10 5.22 8.98 4 8 4H4c-.98 0-2 1.22-2 2.5S3 9 4 9zm9-3h-1v1h1c1 0 2 1.22 2 2.5S13.98 12 13 12H9c-.98 0-2-1.22-2-2.5 0-.83.42-1.64 1-2.09V6.25c-1.09.53-2 1.84-2 3.25C6 11.31 7.55 13 9 13h4c1.45 0 3-1.69 3-3.5S14.5 6 13 6z"></path></svg></a>Go</h3>\u000a\u000a<ul>\u000a<li><a href="https://github.com/Unknwon/go-fundamental-programming">Go\u7f16\u7a0b\u57fa\u7840</a></li>\u000a<li><a href="https://github.com/Unknwon/the-way-to-go_ZH_CN">Go\u5165\u95e8\u6307\u5357</a></li>\u000a<li><a href="http://mikespook.com/learning-go/">\u5b66\u4e60Go\u8bed\u8a00</a></li>\u000a<li><a href="https://github.com/astaxie/build-web-application-with-golang">Go Web \u7f16\u7a0b</a> (\u6b64\u4e66\u5df2\u7ecf\u51fa\u7248\uff0c\u5e0c\u671b\u5f00\u53d1\u8005\u4eec\u53bb\u8d2d\u4e70\uff0c\u652f\u6301\u4f5c\u8005\u7684\u521b\u4f5c)</li>\u000a<li><a href="https://github.com/astaxie/Go-in-Action">Go\u5b9e\u6218\u5f00\u53d1</a> (\u5f53\u6211\u6536\u5f55\u6b64\u9879\u76ee\u65f6\uff0c\u4f5c\u8005\u5df2\u7ecf\u5199\u5b8c\u7b2c\u4e09\u7ae0\uff0c\u5982\u679c\u8bfb\u5b8c\u524d\u9762\u7ae0\u8282\u89c9\u5f97\u6709\u5e2e\u52a9\uff0c\u53ef\u4ee5\u7ed9\u4f5c\u8005<a href="https://me.alipay.com/astaxie">\u6350\u8d60</a>\uff0c\u4ee5\u9f13\u52b1\u4f5c\u8005\u7684\u7ee7\u7eed\u521b\u4f5c)</li>\u000a<li><a href="https://github.com/astaxie/NPWG_zh">Network programming with Go \u4e2d\u6587\u7ffb\u8bd1\u7248\u672c</a></li>\u000a<li><a href="http://www.hellogcc.org/effective_go.html">Effective Go</a></li>\u000a<li><a href="https://github.com/polaris1119/The-Golang-Standard-Library-by-Example">Go \u8bed\u8a00\u6807\u51c6\u5e93</a></li>\u000a<li><a href="http://godoc.ml/">Golang\u6807\u51c6\u5e93\u6587\u6863</a></li>\u000a<li><a href="http://gorevel.cn/docs/manual/index.html">Revel \u6846\u67b6\u624b\u518c</a></li>\u000a<li><a href="http://blog.csdn.net/dc_726/article/details/46565241">Java\u7a0b\u5e8f\u5458\u7684Golang\u5165\u95e8\u6307\u5357</a></li>\u000a<li><a href="https://github.com/hyper-carrot/go_command_tutorial">Go\u547d\u4ee4\u6559\u7a0b</a></li>\u000a<li><a href="https://github.com/achun/Go-Blog-In-Action">Go\u8bed\u8a00\u535a\u5ba2\u5b9e\u8df5</a></li>\u000a<li><a href="https://github.com/golang-china/golangdoc.translations">Go \u5b98\u65b9\u6587\u6863\u7ffb\u8bd1</a></li>\u000a<li><a href="https://github.com/tiancaiamao/go-internals">\u6df1\u5165\u89e3\u6790Go</a></li>\u000a<li><a href="https://bitbucket.org/golang-china/gopl-zh/wiki/Home">Go\u8bed\u8a00\u5723\u7ecf(\u4e2d\u6587\u7248)</a> (<a href="https://www.gitbook.com/book/wizardforcel/gopl-zh/details">GitBook</a>)</li>\u000a</ul>\u000a\u000a<h3><a id="user-content-groovy" class="anchor" href="#groovy" aria-hidden="true"><svg aria-hidden="true" class="octicon octicon-link" height="16" version="1.1" viewBox="0 0 16 16" width="16"><path fill-rule="evenodd" d="M4 9h1v1H4c-1.5 0-3-1.69-3-3.5S2.55 3 4 3h4c1.45 0 3 1.69 3 3.5 0 1.41-.91 2.72-2 3.25V8.59c.58-.45 1-1.27 1-2.09C10 5.22 8.98 4 8 4H4c-.98 0-2 1.22-2 2.5S3 9 4 9zm9-3h-1v1h1c1 0 2 1.22 2 2.5S13.98 12 13 12H9c-.98 0-2-1.22-2-2.5 0-.83.42-1.64 1-2.09V6.25c-1.09.53-2 1.84-2 3.25C6 11.31 7.55 13 9 13h4c1.45 0 3-1.69 3-3.5S14.5 6 13 6z"></path></svg></a>Groovy</h3>\u000a\u000a<ul>\u000a<li><a href="http://www.ibm.com/developerworks/cn/java/j-pg/">\u5b9e\u6218 Groovy \u7cfb\u5217</a></li>\u000a</ul>\u000a\u000a<h3><a id="user-content-haskell" class="anchor" href="#haskell" aria-hidden="true"><svg aria-hidden="true" class="octicon octicon-link" height="16" version="1.1" viewBox="0 0 16 16" width="16"><path fill-rule="evenodd" d="M4 9h1v1H4c-1.5 0-3-1.69-3-3.5S2.55 3 4 3h4c1.45 0 3 1.69 3 3.5 0 1.41-.91 2.72-2 3.25V8.59c.58-.45 1-1.27 1-2.09C10 5.22 8.98 4 8 4H4c-.98 0-2 1.22-2 2.5S3 9 4 9zm9-3h-1v1h1c1 0 2 1.22 2 2.5S13.98 12 13 12H9c-.98 0-2-1.22-2-2.5 0-.83.42-1.64 1-2.09V6.25c-1.09.53-2 1.84-2 3.25C6 11.31 7.55 13 9 13h4c1.45 0 3-1.69 3-3.5S14.5 6 13 6z"></path></svg></a>Haskell</h3>\u000a\u000a<ul>\u000a<li><a href="http://rwh.readthedocs.org/en/latest/">Real World Haskell \u4e2d\u6587\u7248</a></li>\u000a<li><a href="http://fleurer-lee.com/lyah/">Haskell\u8da3\u5b66\u6307\u5357</a></li>\u000a</ul>\u000a\u000a<h3><a id="user-content-ios" class="anchor" href="#ios" aria-hidden="true"><svg aria-hidden="true" class="octicon octicon-link" height="16" version="1.1" viewBox="0 0 16 16" width="16"><path fill-rule="evenodd" d="M4 9h1v1H4c-1.5 0-3-1.69-3-3.5S2.55 3 4 3h4c1.45 0 3 1.69 3 3.5 0 1.41-.91 2.72-2 3.25V8.59c.58-.45 1-1.27 1-2.09C10 5.22 8.98 4 8 4H4c-.98 0-2 1.22-2 2.5S3 9 4 9zm9-3h-1v1h1c1 0 2 1.22 2 2.5S13.98 12 13 12H9c-.98 0-2-1.22-2-2.5 0-.83.42-1.64 1-2.09V6.25c-1.09.53-2 1.84-2 3.25C6 11.31 7.55 13 9 13h4c1.45 0 3-1.69 3-3.5S14.5 6 13 6z"></path></svg></a>iOS</h3>\u000a\u000a<ul>\u000a<li><a href="https://github.com/qinjx/30min_guides/blob/master/ios.md">iOS\u5f00\u53d160\u5206\u949f\u5165\u95e8</a></li>\u000a<li><a href="http://isux.tencent.com/ios-human-interface-guidelines-ui-design-basics-ios7.html">iOS7\u4eba\u673a\u754c\u9762\u6307\u5357</a></li>\u000a<li><a href="http://zh-google-styleguide.readthedocs.org/en/latest/google-objc-styleguide/">Google Objective-C Style Guide \u4e2d\u6587\u7248</a></li>\u000a<li><a href="http://wileam.com/iphone-6-screen-cn/">iPhone 6 \u5c4f\u5e55\u63ed\u79d8</a></li>\u000a<li><a href="http://nilsun.github.io/apple-watch/">Apple Watch\u5f00\u53d1\u521d\u63a2</a></li>\u000a<li><a href="https://developer.apple.com/library/ios/referencelibrary/GettingStarted/RoadMapiOSCh/index.html">\u9a6c\u4e0a\u7740\u624b\u5f00\u53d1 iOS \u5e94\u7528\u7a0b\u5e8f</a></li>\u000a<li><a href="https://github.com/jkyin/Subtitle">\u7f51\u6613\u65af\u5766\u798f\u5927\u5b66\u516c\u5f00\u8bfe\uff1aiOS 7\u5e94\u7528\u5f00\u53d1\u5b57\u5e55\u6587\u4ef6</a></li>\u000a</ul>\u000a\u000a<h3><a id="user-content-java" class="anchor" href="#java" aria-hidden="true"><svg aria-hidden="true" class="octicon octicon-link" height="16" version="1.1" viewBox="0 0 16 16" width="16"><path fill-rule="evenodd" d="M4 9h1v1H4c-1.5 0-3-1.69-3-3.5S2.55 3 4 3h4c1.45 0 3 1.69 3 3.5 0 1.41-.91 2.72-2 3.25V8.59c.58-.45 1-1.27 1-2.09C10 5.22 8.98 4 8 4H4c-.98 0-2 1.22-2 2.5S3 9 4 9zm9-3h-1v1h1c1 0 2 1.22 2 2.5S13.98 12 13 12H9c-.98 0-2-1.22-2-2.5 0-.83.42-1.64 1-2.09V6.25c-1.09.53-2 1.84-2 3.25C6 11.31 7.55 13 9 13h4c1.45 0 3-1.69 3-3.5S14.5 6 13 6z"></path></svg></a>Java</h3>\u000a\u000a<ul>\u000a<li><a href="https://github.com/waylau/apache-shiro-1.2.x-reference">Apache Shiro \u7528\u6237\u6307\u5357</a></li>\u000a<li><a href="https://github.com/waylau/Jersey-2.x-User-Guide">Jersey 2.x \u7528\u6237\u6307\u5357</a></li>\u000a<li><a href="https://github.com/waylau/spring-framework-4-reference">Spring Framework 4.x\u53c2\u8003\u6587\u6863</a></li>\u000a<li><a href="https://github.com/qibaoguang/Spring-Boot-Reference-Guide">Spring Boot\u53c2\u8003\u6307\u5357</a> (\u7ffb\u8bd1\u4e2d)</li>\u000a<li><a href="http://mybatis.org/mybatis-3/zh/index.html">MyBatis\u4e2d\u6587\u6587\u6863</a></li>\u000a<li><a href="http://mbg.cndocs.tk/">MyBatis Generator \u4e2d\u6587\u6587\u6863</a></li>\u000a<li><a href="https://github.com/waylau/RestDemo">\u7528jersey\u6784\u5efaREST\u670d\u52a1</a></li>\u000a<li><a href="https://github.com/waylau/activiti-5.x-user-guide">Activiti 5.x \u7528\u6237\u6307\u5357</a></li>\u000a<li><a href="http://www.hawstein.com/posts/google-java-style.html">Google Java\u7f16\u7a0b\u98ce\u683c\u6307\u5357</a></li>\u000a<li><a href="https://github.com/waylau/netty-4-user-guide">Netty 4.x \u7528\u6237\u6307\u5357</a></li>\u000a<li><a href="https://github.com/waylau/essential-netty-in-action">Netty \u5b9e\u6218(\u7cbe\u9ad3)</a></li>\u000a<li><a href="https://github.com/waylau/rest-in-action">REST \u5b9e\u6218</a></li>\u000a<li><a href="https://github.com/waylau/java-code-conventions">Java \u7f16\u7801\u89c4\u8303</a></li>\u000a<li><a href="https://github.com/waylau/apache-mina-2.x-user-guide">Apache MINA 2 \u7528\u6237\u6307\u5357</a></li>\u000a<li><a href="https://github.com/waylau/h2-database-doc">H2 Database \u6559\u7a0b</a></li>\u000a<li><a href="https://github.com/waylau/servlet-3.1-specification">Java Servlet 3.1 \u89c4\u8303</a></li>\u000a<li><a href="https://github.com/waylau/jsse-reference-guide">JSSE \u53c2\u8003\u6307\u5357</a></li>\u000a<li><a href="https://github.com/biezhi/jb">Java\u5f00\u6e90\u5b9e\u73b0\u53ca\u6700\u4f73\u5b9e\u8df5</a></li>\u000a<li><a href="https://github.com/waylau/essential-java">Java \u7f16\u7a0b\u8981\u70b9</a></li>\u000a<li><a href="http://www.ituring.com.cn/minibook/69">Think Java</a></li>\u000a<li><a href="https://github.com/wizardforcel/modern-java-zh">Java 8 \u7b80\u660e\u6559\u7a0b</a></li>\u000a</ul>\u000a\u000a<h3><a id="user-content-javascript" class="anchor" href="#javascript" aria-hidden="true"><svg aria-hidden="true" class="octicon octicon-link" height="16" version="1.1" viewBox="0 0 16 16" width="16"><path fill-rule="evenodd" d="M4 9h1v1H4c-1.5 0-3-1.69-3-3.5S2.55 3 4 3h4c1.45 0 3 1.69 3 3.5 0 1.41-.91 2.72-2 3.25V8.59c.58-.45 1-1.27 1-2.09C10 5.22 8.98 4 8 4H4c-.98 0-2 1.22-2 2.5S3 9 4 9zm9-3h-1v1h1c1 0 2 1.22 2 2.5S13.98 12 13 12H9c-.98 0-2-1.22-2-2.5 0-.83.42-1.64 1-2.09V6.25c-1.09.53-2 1.84-2 3.25C6 11.31 7.55 13 9 13h4c1.45 0 3-1.69 3-3.5S14.5 6 13 6z"></path></svg></a>JavaScript</h3>\u000a\u000a<ul>\u000a<li><a href="http://bq69.com/blog/articles/script/868/google-javascript-style-guide.html">Google JavaScript \u4ee3\u7801\u98ce\u683c\u6307\u5357</a></li>\u000a<li><a href="https://github.com/darcyliu/google-styleguide/blob/master/JSONStyleGuide.md">Google JSON \u98ce\u683c\u6307\u5357</a></li>\u000a<li><a href="https://github.com/adamlu/javascript-style-guide">Airbnb JavaScript \u89c4\u8303</a></li>\u000a<li><a href="http://javascript.ruanyifeng.com/">JavaScript \u6807\u51c6\u53c2\u8003\u6559\u7a0b\uff08alpha\uff09</a></li>\u000a<li><a href="http://pij.robinqu.me/">Javascript\u7f16\u7a0b\u6307\u5357</a> (<a href="https://github.com/RobinQu/Programing-In-Javascript">\u6e90\u7801</a>)</li>\u000a<li><a href="https://github.com/justjavac/12-javascript-quirks">javascript \u7684 12 \u4e2a\u602a\u7656</a></li>\u000a<li><a href="http://bonsaiden.github.io/JavaScript-Garden/zh/">JavaScript \u79d8\u5bc6\u82b1\u56ed</a></li>\u000a<li><a href="http://icodeit.org/jsccp/">JavaScript\u6838\u5fc3\u6982\u5ff5\u53ca\u5b9e\u8df5</a> (PDF) (\u6b64\u4e66\u5df2\u7531\u4eba\u6c11\u90ae\u7535\u51fa\u7248\u793e\u51fa\u7248\u53d1\u884c\uff0c\u4f46\u4f5c\u8005\u4f9d\u7136\u514d\u8d39\u63d0\u4f9bPDF\u7248\u672c\uff0c\u5e0c\u671b\u5f00\u53d1\u8005\u4eec\u53bb\u8d2d\u4e70\uff0c\u652f\u6301\u4f5c\u8005)</li>\u000a<li><a href="https://github.com/jayli/javascript-patterns">\u300aJavaScript \u6a21\u5f0f\u300b</a> \u201cJavaScript patterns\u201d\u4e2d\u8bd1\u672c</li>\u000a<li><a href="http://justjavac.com/named-function-expressions-demystified.html">\u547d\u540d\u51fd\u6570\u8868\u8fbe\u5f0f\u63a2\u79d8</a>  (\u6ce8:\u539f\u6587\u7531<a href="http://www.cn-cuckoo.com">\u4e3a\u4e4b\u6f2b\u7b14</a>\u7ffb\u8bd1\uff0c\u539f\u59cb\u5730\u5740\u65e0\u6cd5\u6253\u5f00\uff0c\u6240\u4ee5\u6b64\u5904\u5730\u5740\u4e3a\u6211\u535a\u5ba2\u4e0a\u7684\u5907\u4efd)</li>\u000a<li><a href="http://www.oschina.net/translate/learning-javascript-design-patterns">\u5b66\u7528 JavaScript \u8bbe\u8ba1\u6a21\u5f0f</a> (\u5f00\u6e90\u4e2d\u56fd)</li>\u000a<li><a href="http://www.cnblogs.com/TomXu/archive/2011/12/15/2288411.html">\u6df1\u5165\u7406\u89e3JavaScript\u7cfb\u5217</a><br></li>\u000a<li><a href="http://yanhaijing.com/es5">ECMAScript 5.1 \u4e2d\u6587\u7248</a><br></li>\u000a<li><a href="http://es6.ruanyifeng.com/">ECMAScript 6 \u5165\u95e8</a> (\u4f5c\u8005\uff1a\u962e\u4e00\u5cf0)</li>\u000a<li><a href="http://liubin.github.io/promises-book/">JavaScript Promise\u8ff7\u4f60\u4e66</a></li>\u000a<li><a href="https://github.com/getify/You-Dont-Know-JS">You-Dont-Know-JS</a> (\u6df1\u5165JavaScript\u8bed\u8a00\u6838\u5fc3\u673a\u5236\u7684\u7cfb\u5217\u56fe\u4e66)</li>\u000a<li><a href="http://www.liaoxuefeng.com/wiki/001434446689867b27157e896e74d51a89c25cc8b43bdb3000">JavaScript \u6559\u7a0b</a> \u5ed6\u96ea\u5cf0</li>\u000a<li><a href="https://developer.mozilla.org/zh-CN/docs/Web/JavaScript">MDN JavaScript \u4e2d\u6587\u6587\u6863</a></li>\u000a<li>jQuery\u000a\u000a<ul>\u000a<li><a href="http://www.cn-cuckoo.com/deconstructed/jquery.html">jQuery \u89e3\u6784</a></li>\u000a<li><a href="http://www.nowamagic.net/librarys/books/contents/jquery">\u7b80\u5355\u6613\u61c2\u7684JQuery\u9b54\u6cd5</a></li>\u000a<li><a href="http://i5ting.github.io/How-to-write-jQuery-plugin/build/jquery.plugin.html">How to write jQuery plugin</a></li>\u000a<li><a href="https://github.com/oneuijs/You-Dont-Need-jQuery/blob/master/README.zh-CN.md">You Don't Need jQuery</a></li>\u000a<li><a href="https://github.com/MeCKodo/forchange">\u5982\u4f55\u5b9e\u73b0\u4e00\u4e2a\u7c7bjQuery\uff1f</a></li>\u000a</ul></li>\u000a<li>Node.js\u000a\u000a<ul>\u000a<li><a href="http://www.nodebeginner.org/index-zh-cn.html">Node\u5165\u95e8</a></li>\u000a<li><a href="http://nqdeng.github.io/7-days-nodejs/">\u4e03\u5929\u5b66\u4f1aNodeJS</a></li>\u000a<li><a href="https://github.com/nodejs-tw/nodejs-wiki-book">Nodejs Wiki Book</a> (\u7e41\u4f53\u4e2d\u6587)</li>\u000a<li><a href="http://expressjs.jser.us/">express.js \u4e2d\u6587\u6587\u6863</a></li>\u000a<li><a href="https://github.com/guo-yu/koa-guide">koa \u4e2d\u6587\u6587\u6863</a></li>\u000a<li><a href="http://base-n.github.io/koa-generator-examples/">\u4e00\u8d77\u5b66koa</a></li>\u000a<li><a href="https://github.com/nswbmw/N-blog">\u4f7f\u7528 Express + MongoDB \u642d\u5efa\u591a\u4eba\u535a\u5ba2</a></li>\u000a<li><a href="http://javascript.ruanyifeng.com/nodejs/express.html">Express\u6846\u67b6</a></li>\u000a<li><a href="https://github.com/alsotang/node-lessons">Node.js \u5305\u6559\u4e0d\u5305\u4f1a</a></li>\u000a<li><a href="https://www.npmjs.com/package/learnyounode-zh-cn">Learn You The Node.js For Much Win! (\u4e2d\u6587\u7248)</a></li>\u000a<li><a href="http://i5ting.github.io/node-debug-tutorial/">Node debug \u4e09\u6cd5\u4e09\u4f8b</a></li>\u000a<li><a href="https://www.gitbook.com/book/0532/nodejs/details">nodejs\u4e2d\u6587\u6587\u6863</a></li>\u000a<li><a href="https://github.com/wizardforcel/orm2-doc-zh-cn">orm2 \u4e2d\u6587\u6587\u6863</a></li>\u000a</ul></li>\u000a<li>underscore.js\u000a\u000a<ul>\u000a<li><a href="http://learningcn.com/underscore/">Underscore.js\u4e2d\u6587\u6587\u6863</a></li>\u000a</ul></li>\u000a<li>backbone.js\u000a\u000a<ul>\u000a<li><a href="http://www.css88.com/doc/backbone/">backbone.js\u4e2d\u6587\u6587\u6863</a></li>\u000a<li><a href="http://www.the5fire.com/backbone-js-tutorials-pdf-download.html">backbone.js\u5165\u95e8\u6559\u7a0b</a> (PDF)</li>\u000a<li><a href="https://github.com/the5fire/backbonejs-learning-note">Backbone.js\u5165\u95e8\u6559\u7a0b\u7b2c\u4e8c\u7248</a></li>\u000a<li><a href="http://feliving.github.io/developing-backbone-applications/">Developing Backbone.js Applications(\u4e2d\u6587\u7248)</a></li>\u000a</ul></li>\u000a<li>AngularJS\u000a\u000a<ul>\u000a<li><a href="https://github.com/mgechev/angularjs-style-guide/blob/master/README-zh-cn.md">AngularJS\u6700\u4f73\u5b9e\u8df5\u548c\u98ce\u683c\u6307\u5357</a></li>\u000a<li><a href="https://github.com/peiransun/angularjs-cn">AngularJS\u4e2d\u8bd1\u672c</a></li>\u000a<li><a href="https://github.com/zensh/AngularjsTutorial_cn">AngularJS\u5165\u95e8\u6559\u7a0b</a></li>\u000a<li><a href="https://github.com/xufei/Make-Your-Own-AngularJS/blob/master/01.md">\u6784\u5efa\u81ea\u5df1\u7684AngularJS</a></li>\u000a<li><a href="http://www.waylau.com/build-angularjs-app-with-yeoman-in-windows/">\u5728Windows\u73af\u5883\u4e0b\u7528Yeoman\u6784\u5efaAngularJS\u9879\u76ee</a></li>\u000a</ul></li>\u000a<li>Zepto.js\u000a\u000a<ul>\u000a<li><a href="http://mweb.baidu.com/zeptoapi/">Zepto.js \u4e2d\u6587\u6587\u6863</a></li>\u000a</ul></li>\u000a<li>Sea.js\u000a\u000a<ul>\u000a<li><a href="http://island205.com/HelloSea.js/">Hello Sea.js</a></li>\u000a</ul></li>\u000a<li>React.js\u000a\u000a<ul>\u000a<li><a href="http://reactjs.cn/">React.js \u4e2d\u6587\u6587\u6863</a></li>\u000a<li><a href="https://github.com/fakefish/react-webpack-cookbook">React webpack-cookbook</a></li>\u000a<li><a href="http://fraserxu.me/intro-to-react/">React \u5165\u95e8\u6559\u7a0b</a></li>\u000a<li><a href="http://wiki.jikexueyuan.com/project/react-native/">React Native \u4e2d\u6587\u6587\u6863(\u542b\u6700\u65b0Android\u5185\u5bb9)</a></li>\u000a<li><a href="https://github.com/theJian/build-a-hn-front-page">Learn React &amp; Webpack by building the Hacker News front page</a></li>\u000a</ul></li>\u000a<li>impress.js\u000a\u000a<ul>\u000a<li><a href="https://github.com/kokdemo/impress.js-tutorial-in-Chinese">impress.js\u7684\u4e2d\u6587\u6559\u7a0b</a></li>\u000a</ul></li>\u000a<li>CoffeeScript\u000a\u000a<ul>\u000a<li><a href="http://island205.com/coffeescript-cookbook.github.com/">CoffeeScript Cookbook</a></li>\u000a<li><a href="http://island205.com/tlboc/">The Little Book on CoffeeScript\u4e2d\u6587\u7248</a></li>\u000a<li><a href="https://github.com/geekplux/coffeescript-style-guide">CoffeeScript \u7f16\u7801\u98ce\u683c\u6307\u5357</a></li>\u000a</ul></li>\u000a<li>TypeScipt\u000a\u000a<ul>\u000a<li><a href="https://zhongsp.gitbooks.io/typescript-handbook/content/">TypeScript Handbook</a></li>\u000a</ul></li>\u000a<li>ExtJS\u000a\u000a<ul>\u000a<li><a href="http://extjs-doc-cn.github.io/ext4api/">Ext4.1.0 \u4e2d\u6587\u6587\u6863</a></li>\u000a</ul></li>\u000a<li>Meteor\u000a\u000a<ul>\u000a<li><a href="http://zh.discovermeteor.com/">Discover Meteor</a></li>\u000a<li><a href="http://docs.meteorhub.org/#/basic/">Meteor \u4e2d\u6587\u6587\u6863</a></li>\u000a<li><a href="http://angular.meteorhub.org/">Angular-Meteor \u4e2d\u6587\u6559\u7a0b</a></li>\u000a</ul></li>\u000a<li><a href="http://www.ituring.com.cn/minibook/950">Chrome\u6269\u5c55\u53ca\u5e94\u7528\u5f00\u53d1</a></li>\u000a</ul>\u000a\u000a<h3><a id="user-content-latex" class="anchor" href="#latex" aria-hidden="true"><svg aria-hidden="true" class="octicon octicon-link" height="16" version="1.1" viewBox="0 0 16 16" width="16"><path fill-rule="evenodd" d="M4 9h1v1H4c-1.5 0-3-1.69-3-3.5S2.55 3 4 3h4c1.45 0 3 1.69 3 3.5 0 1.41-.91 2.72-2 3.25V8.59c.58-.45 1-1.27 1-2.09C10 5.22 8.98 4 8 4H4c-.98 0-2 1.22-2 2.5S3 9 4 9zm9-3h-1v1h1c1 0 2 1.22 2 2.5S13.98 12 13 12H9c-.98 0-2-1.22-2-2.5 0-.83.42-1.64 1-2.09V6.25c-1.09.53-2 1.84-2 3.25C6 11.31 7.55 13 9 13h4c1.45 0 3-1.69 3-3.5S14.5 6 13 6z"></path></svg></a>LaTeX</h3>\u000a\u000a<ul>\u000a<li><a href="http://liam0205.me/2014/09/08/latex-introduction/">\u4e00\u4efd\u5176\u5b9e\u5f88\u77ed\u7684 LaTeX \u5165\u95e8\u6587\u6863</a></li>\u000a<li><a href="http://www.mohu.org/info/lshort-cn.pdf">\u4e00\u4efd\u4e0d\u592a\u7b80\u77ed\u7684 LATEX 2\u03b5 \u4ecb\u7ecd</a> \uff08PDF\u7248\uff09</li>\u000a</ul>\u000a\u000a<h3><a id="user-content-lisp" class="anchor" href="#lisp" aria-hidden="true"><svg aria-hidden="true" class="octicon octicon-link" height="16" version="1.1" viewBox="0 0 16 16" width="16"><path fill-rule="evenodd" d="M4 9h1v1H4c-1.5 0-3-1.69-3-3.5S2.55 3 4 3h4c1.45 0 3 1.69 3 3.5 0 1.41-.91 2.72-2 3.25V8.59c.58-.45 1-1.27 1-2.09C10 5.22 8.98 4 8 4H4c-.98 0-2 1.22-2 2.5S3 9 4 9zm9-3h-1v1h1c1 0 2 1.22 2 2.5S13.98 12 13 12H9c-.98 0-2-1.22-2-2.5 0-.83.42-1.64 1-2.09V6.25c-1.09.53-2 1.84-2 3.25C6 11.31 7.55 13 9 13h4c1.45 0 3-1.69 3-3.5S14.5 6 13 6z"></path></svg></a>LISP</h3>\u000a\u000a<ul>\u000a<li>Common Lisp\u000a\u000a<ul>\u000a<li><a href="http://acl.readthedocs.org/en/latest/">ANSI Common Lisp \u4e2d\u6587\u7ffb\u8b6f\u7248</a></li>\u000a<li><a href="http://www.ituring.com.cn/minibook/862">On Lisp \u4e2d\u6587\u7ffb\u8bd1\u7248\u672c</a></li>\u000a</ul></li>\u000a<li>Scheme\u000a\u000a<ul>\u000a<li><a href="http://deathking.github.io/yast-cn/">Yet Another Scheme Tutorial Scheme\u5165\u95e8\u6559\u7a0b</a></li>\u000a<li><a href="http://songjinghe.github.io/TYS-zh-translation/">Scheme\u8bed\u8a00\u7b80\u660e\u6559\u7a0b</a></li>\u000a<li>Racket\u000a\u000a<ul>\u000a<li><a href="https://github.com/tyrchen/racket-book">Racket book</a></li>\u000a</ul></li>\u000a</ul></li>\u000a</ul>\u000a\u000a<h3><a id="user-content-lua" class="anchor" href="#lua" aria-hidden="true"><svg aria-hidden="true" class="octicon octicon-link" height="16" version="1.1" viewBox="0 0 16 16" width="16"><path fill-rule="evenodd" d="M4 9h1v1H4c-1.5 0-3-1.69-3-3.5S2.55 3 4 3h4c1.45 0 3 1.69 3 3.5 0 1.41-.91 2.72-2 3.25V8.59c.58-.45 1-1.27 1-2.09C10 5.22 8.98 4 8 4H4c-.98 0-2 1.22-2 2.5S3 9 4 9zm9-3h-1v1h1c1 0 2 1.22 2 2.5S13.98 12 13 12H9c-.98 0-2-1.22-2-2.5 0-.83.42-1.64 1-2.09V6.25c-1.09.53-2 1.84-2 3.25C6 11.31 7.55 13 9 13h4c1.45 0 3-1.69 3-3.5S14.5 6 13 6z"></path></svg></a>Lua</h3>\u000a\u000a<ul>\u000a<li><a href="https://github.com/andycai/luaprimer">Lua\u7f16\u7a0b\u5165\u95e8</a></li>\u000a<li><a href="http://www.codingnow.com/2000/download/lua_manual.html">Lua 5.1 \u53c2\u8003\u624b\u518c \u4e2d\u6587\u7ffb\u8bd1</a></li>\u000a<li><a href="http://cloudwu.github.io/lua53doc/">Lua 5.3 \u53c2\u8003\u624b\u518c \u4e2d\u6587\u7ffb\u8bd1</a></li>\u000a<li><a href="http://www.codingnow.com/temp/readinglua.pdf">Lua\u6e90\u7801\u6b23\u8d4f</a></li>\u000a</ul>\u000a\u000a<h3><a id="user-content-ocaml" class="anchor" href="#ocaml" aria-hidden="true"><svg aria-hidden="true" class="octicon octicon-link" height="16" version="1.1" viewBox="0 0 16 16" width="16"><path fill-rule="evenodd" d="M4 9h1v1H4c-1.5 0-3-1.69-3-3.5S2.55 3 4 3h4c1.45 0 3 1.69 3 3.5 0 1.41-.91 2.72-2 3.25V8.59c.58-.45 1-1.27 1-2.09C10 5.22 8.98 4 8 4H4c-.98 0-2 1.22-2 2.5S3 9 4 9zm9-3h-1v1h1c1 0 2 1.22 2 2.5S13.98 12 13 12H9c-.98 0-2-1.22-2-2.5 0-.83.42-1.64 1-2.09V6.25c-1.09.53-2 1.84-2 3.25C6 11.31 7.55 13 9 13h4c1.45 0 3-1.69 3-3.5S14.5 6 13 6z"></path></svg></a>OCaml</h3>\u000a\u000a<ul>\u000a<li><a href="https://github.com/zforget/translation/tree/master/real_world_ocaml">Real World OCaml</a></li>\u000a</ul>\u000a\u000a<h3><a id="user-content-perl" class="anchor" href="#perl" aria-hidden="true"><svg aria-hidden="true" class="octicon octicon-link" height="16" version="1.1" viewBox="0 0 16 16" width="16"><path fill-rule="evenodd" d="M4 9h1v1H4c-1.5 0-3-1.69-3-3.5S2.55 3 4 3h4c1.45 0 3 1.69 3 3.5 0 1.41-.91 2.72-2 3.25V8.59c.58-.45 1-1.27 1-2.09C10 5.22 8.98 4 8 4H4c-.98 0-2 1.22-2 2.5S3 9 4 9zm9-3h-1v1h1c1 0 2 1.22 2 2.5S13.98 12 13 12H9c-.98 0-2-1.22-2-2.5 0-.83.42-1.64 1-2.09V6.25c-1.09.53-2 1.84-2 3.25C6 11.31 7.55 13 9 13h4c1.45 0 3-1.69 3-3.5S14.5 6 13 6z"></path></svg></a>Perl</h3>\u000a\u000a<ul>\u000a<li><a href="https://github.com/horus/modern_perl_book">Modern Perl \u4e2d\u6587\u7248</a></li>\u000a<li><a href="http://perl.linuxtoy.org/">Perl \u7a0b\u5e8f\u5458\u5e94\u8be5\u77e5\u9053\u7684\u4e8b</a></li>\u000a</ul>\u000a\u000a<h3><a id="user-content-php" class="anchor" href="#php" aria-hidden="true"><svg aria-hidden="true" class="octicon octicon-link" height="16" version="1.1" viewBox="0 0 16 16" width="16"><path fill-rule="evenodd" d="M4 9h1v1H4c-1.5 0-3-1.69-3-3.5S2.55 3 4 3h4c1.45 0 3 1.69 3 3.5 0 1.41-.91 2.72-2 3.25V8.59c.58-.45 1-1.27 1-2.09C10 5.22 8.98 4 8 4H4c-.98 0-2 1.22-2 2.5S3 9 4 9zm9-3h-1v1h1c1 0 2 1.22 2 2.5S13.98 12 13 12H9c-.98 0-2-1.22-2-2.5 0-.83.42-1.64 1-2.09V6.25c-1.09.53-2 1.84-2 3.25C6 11.31 7.55 13 9 13h4c1.45 0 3-1.69 3-3.5S14.5 6 13 6z"></path></svg></a>PHP</h3>\u000a\u000a<ul>\u000a<li><a href="http://php.net/manual/zh/">PHP \u5b98\u65b9\u624b\u518c</a></li>\u000a<li><a href="http://www.laruence.com/2010/06/21/1608.html">PHP\u8c03\u8bd5\u6280\u672f\u624b\u518c</a>(PDF)</li>\u000a<li>PHP\u4e4b\u9053\uff1aphp-the-right-way (<a href="http://wulijun.github.io/php-the-right-way/">@wulijun\u7248</a> <a href="http://laravel-china.github.io/php-the-right-way/">PHPHub\u7248</a>)</li>\u000a<li><a href="https://github.com/justjavac/PHP-Best-Practices-zh_CN">PHP \u6700\u4f73\u5b9e\u8df5</a></li>\u000a<li><a href="https://ryancao.gitbooks.io/php-developer-prepares/content/">PHP \u5f00\u53d1\u8005\u5b9e\u8df5</a></li>\u000a<li><a href="https://github.com/reeze/tipi">\u6df1\u5165\u7406\u89e3PHP\u5185\u6838</a></li>\u000a<li><a href="http://www.walu.cc/phpbook/">PHP\u6269\u5c55\u5f00\u53d1\u53ca\u5185\u6838\u5e94\u7528</a></li>\u000a<li><a href="http://laravel-china.org/docs/5.1">Laravel5.1 \u4e2d\u6587\u6587\u6863</a></li>\u000a<li><a href="https://cs.phphub.org/">Laravel 5.1 LTS \u901f\u67e5\u8868</a></li>\u000a<li><a href="http://wiki.jikexueyuan.com/project/symfony-cookbook/">Symfony2 Cookbook \u4e2d\u6587\u7248</a>(\u7248\u672c 2.7.0 LTS)</li>\u000a<li><a href="http://symfony-docs-chs.readthedocs.org/en/latest/">Symfony2\u4e2d\u6587\u6587\u6863</a> (\u672a\u8bd1\u5b8c)</li>\u000a<li><a href="http://yiibook.com//doc">YiiBook\u51e0\u672cYii\u6846\u67b6\u7684\u5728\u7ebf\u6559\u7a0b</a></li>\u000a<li><a href="http://www.digpage.com/">\u6df1\u5165\u7406\u89e3 Yii 2.0</a></li>\u000a<li><a href="http://www.yiichina.com/">Yii \u6846\u67b6\u4e2d\u6587\u6587\u6a94</a></li>\u000a<li><a href="http://www.nowamagic.net/librarys/books/contents/php">\u7b80\u5355\u6613\u61c2\u7684PHP\u9b54\u6cd5</a></li>\u000a<li><a href="https://github.com/LinkedDestiny/swoole-doc">swoole\u6587\u6863\u53ca\u5165\u95e8\u6559\u7a0b</a></li>\u000a<li><a href="http://www.phpcomposer.com">Composer \u4e2d\u6587\u7f51</a></li>\u000a<li><a href="http://ww1.minimee.org/php/slim">Slim \u4e2d\u6587\u6587\u6863</a></li>\u000a<li><a href="http://lumen.laravel-china.org/">Lumen \u4e2d\u6587\u6587\u6863</a></li>\u000a<li><a href="https://phpunit.de/manual/current/zh_cn/installation.html">PHPUnit \u4e2d\u6587\u6587\u6863</a></li>\u000a</ul>\u000a\u000a<h3><a id="user-content-prolog" class="anchor" href="#prolog" aria-hidden="true"><svg aria-hidden="true" class="octicon octicon-link" height="16" version="1.1" viewBox="0 0 16 16" width="16"><path fill-rule="evenodd" d="M4 9h1v1H4c-1.5 0-3-1.69-3-3.5S2.55 3 4 3h4c1.45 0 3 1.69 3 3.5 0 1.41-.91 2.72-2 3.25V8.59c.58-.45 1-1.27 1-2.09C10 5.22 8.98 4 8 4H4c-.98 0-2 1.22-2 2.5S3 9 4 9zm9-3h-1v1h1c1 0 2 1.22 2 2.5S13.98 12 13 12H9c-.98 0-2-1.22-2-2.5 0-.83.42-1.64 1-2.09V6.25c-1.09.53-2 1.84-2 3.25C6 11.31 7.55 13 9 13h4c1.45 0 3-1.69 3-3.5S14.5 6 13 6z"></path></svg></a>Prolog</h3>\u000a\u000a<ul>\u000a<li><a href="http://fengdidi.github.io/blog/2011/11/15/qian-yan/">\u7b28\u529e\u6cd5\u5b66Prolog</a></li>\u000a</ul>\u000a\u000a<h3><a id="user-content-python" class="anchor" href="#python" aria-hidden="true"><svg aria-hidden="true" class="octicon octicon-link" height="16" version="1.1" viewBox="0 0 16 16" width="16"><path fill-rule="evenodd" d="M4 9h1v1H4c-1.5 0-3-1.69-3-3.5S2.55 3 4 3h4c1.45 0 3 1.69 3 3.5 0 1.41-.91 2.72-2 3.25V8.59c.58-.45 1-1.27 1-2.09C10 5.22 8.98 4 8 4H4c-.98 0-2 1.22-2 2.5S3 9 4 9zm9-3h-1v1h1c1 0 2 1.22 2 2.5S13.98 12 13 12H9c-.98 0-2-1.22-2-2.5 0-.83.42-1.64 1-2.09V6.25c-1.09.53-2 1.84-2 3.25C6 11.31 7.55 13 9 13h4c1.45 0 3-1.69 3-3.5S14.5 6 13 6z"></path></svg></a>Python</h3>\u000a\u000a<ul>\u000a<li><a href="http://www.liaoxuefeng.com/wiki/001374738125095c955c1e6d8bb493182103fac9270762a000">\u5ed6\u96ea\u5cf0 Python 2.7 \u4e2d\u6587\u6559\u7a0b</a></li>\u000a<li><a href="http://www.liaoxuefeng.com/wiki/0014316089557264a6b348958f449949df42a6d3a2e542c000">\u5ed6\u96ea\u5cf0 Python 3 \u4e2d\u6587\u6559\u7a0b</a></li>\u000a<li><a href="http://www.kuqin.com/abyteofpython_cn/">\u7b80\u660ePython\u6559\u7a0b</a></li>\u000a<li><a href="http://www.kancloud.cn/kancloud/python-basic">\u96f6\u57fa\u7840\u5b66 Python \u7b2c\u4e00\u7248</a></li>\u000a<li><a href="http://www.kancloud.cn/kancloud/starter-learning-python">\u96f6\u57fa\u7840\u5b66 Python \u7b2c\u4e8c\u7248</a></li>\u000a<li><a href="http://lovelypython.readthedocs.org/en/latest/">\u53ef\u7231\u7684 Python</a></li>\u000a<li><a href="http://www.pythondoc.com/pythontutorial27/index.html">Python 2.7 \u5b98\u65b9\u6559\u7a0b\u4e2d\u6587\u7248</a></li>\u000a<li><a href="http://www.pythondoc.com/pythontutorial3/index.html">Python 3.3 \u5b98\u65b9\u6559\u7a0b\u4e2d\u6587\u7248</a></li>\u000a<li><a href="http://www.kancloud.cn/thinkphp/python-cookbook">Python Cookbook \u4e2d\u6587\u7248</a></li>\u000a<li><a href="https://github.com/yidao620c/python3-cookbook">Python3 Cookbook \u4e2d\u6587\u7248</a></li>\u000a<li><a href="http://www.kuqin.com/docs/diveintopythonzh-cn-5.4b/html/toc/">\u6df1\u5165 Python</a></li>\u000a<li><a href="http://old.sebug.net/paper/books/dive-into-python3/">\u6df1\u5165 Python 3</a></li>\u000a<li><a href="https://code.google.com/p/zhong-wiki/wiki/PEP8">PEP8 Python\u4ee3\u7801\u98ce\u683c\u89c4\u8303</a></li>\u000a<li><a href="http://zh-google-styleguide.readthedocs.org/en/latest/google-python-styleguide/">Google Python \u98ce\u683c\u6307\u5357 \u4e2d\u6587\u7248</a></li>\u000a<li><a href="http://liam0205.me/2013/11/02/Python-tutorial-zh_cn/">Python\u5165\u95e8\u6559\u7a0b</a> (<a href="http://liam0205.me/attachment/Python/The_Python_Tutorial_zh-cn.pdf">PDF</a>)</li>\u000a<li><a href="http://old.sebug.net/paper/books/LearnPythonTheHardWay/">\u7b28\u529e\u6cd5\u5b66 Python</a> (<a href="http://liam0205.me/attachment/Python/PyHardWay/Learn_Python_The_Hard_Way_zh-cn.pdf">PDF</a> <a href="https://www.gitbook.com/download/epub/book/wizardforcel/lpthw">EPUB</a>)</li>\u000a<li><a href="http://pan.baidu.com/s/1qW4pvnY">Python\u81ea\u7136\u8bed\u8a00\u5904\u7406\u4e2d\u6587\u7248</a> \uff08\u611f\u8c22\u9648\u6d9b\u540c\u5b66\u7684\u7ffb\u8bd1\uff0c\u4e5f\u8c22\u8c22 <a href="https://github.com/shwley">@shwley</a> \u8054\u7cfb\u4e86\u4f5c\u8005\uff09</li>\u000a<li><a href="http://liam0205.me/2014/09/11/matplotlib-tutorial-zh-cn/">Python \u7ed8\u56fe\u5e93 matplotlib \u5b98\u65b9\u6307\u5357\u4e2d\u6587\u7ffb\u8bd1</a></li>\u000a<li><a href="http://scrapy-chs.readthedocs.org/zh_CN/latest/">Scrapy 0.25 \u6587\u6863</a></li>\u000a<li><a href="https://github.com/carfly/thinkpython-cn">ThinkPython</a></li>\u000a<li><a href="https://github.com/bingjin/ThinkPython2-CN">ThinkPython 2ed</a></li>\u000a<li><a href="http://www.cnblogs.com/vamei/archive/2012/09/13/2682778.html">Python\u5feb\u901f\u6559\u7a0b</a></li>\u000a<li><a href="http://wiki.ubuntu.org.cn/Python%E6%AD%A3%E5%88%99%E8%A1%A8%E8%BE%BE%E5%BC%8F%E6%93%8D%E4%BD%9C%E6%8C%87%E5%8D%97">Python \u6b63\u5219\u8868\u8fbe\u5f0f\u64cd\u4f5c\u6307\u5357</a></li>\u000a<li><a href="http://www.crifan.com/files/doc/docbook/python_beginner_tutorial/release/html/python_beginner_tutorial.html">python\u521d\u7ea7\u6559\u7a0b\uff1a\u5165\u95e8\u8be6\u89e3</a></li>\u000a<li><a href="https://www.gitbook.com/book/likebeta/twisted-intro-cn/details">Twisted \u4e0e\u5f02\u6b65\u7f16\u7a0b\u5165\u95e8</a></li>\u000a<li><a href="http://textgrocery.readthedocs.org/zh/latest/index.html">TextGrocery \u4e2d\u6587 API</a> ( \u57fa\u4e8esvm\u7b97\u6cd5\u7684\u4e00\u4e2a\u77ed\u6587\u672c\u5206\u7c7b Python \u5e93 )</li>\u000a<li><a href="http://requests-docs-cn.readthedocs.org/zh_CN/latest/">Requests: HTTP for Humans</a></li>\u000a<li><a href="http://pillow-cn.readthedocs.org/en/latest/#">Pillow \u4e2d\u6587\u6587\u6863</a></li>\u000a<li><a href="http://pymotwcn.readthedocs.org/en/latest/index.html">PyMOTW \u4e2d\u6587\u7248</a></li>\u000a<li><a href="http://data.digitser.net/zh-CN/python_index.html">Python \u5b98\u65b9\u6587\u6863\u4e2d\u6587\u7248</a></li>\u000a<li><a href="http://fabric-chs.readthedocs.org">Fabric \u4e2d\u6587\u6587\u6863</a></li>\u000a<li><a href="http://beautifulsoup.readthedocs.org/zh_CN/latest/">Beautiful Soup 4.2.0 \u4e2d\u6587\u6587\u6863</a></li>\u000a<li><a href="http://old.sebug.net/paper/books/scipydoc">\u7528Python\u505a\u79d1\u5b66\u8ba1\u7b97</a></li>\u000a<li><a href="http://www.pythondoc.com/sphinx/index.html">Sphinx \u4e2d\u6587\u6587\u6863</a></li>\u000a<li><a href="https://github.com/cundi/Mastering.Python.Design.Patterns">\u7cbe\u901a Python \u8bbe\u8ba1\u6a21\u5f0f</a></li>\u000a<li><a href="https://github.com/smartFlash/pySecurity">python \u5b89\u5168\u7f16\u7a0b\u6559\u7a0b</a></li>\u000a<li><a href="https://www.gitbook.com/book/wizardforcel/sjtu-cs902-courseware/details">\u7a0b\u5e8f\u8bbe\u8ba1\u601d\u60f3\u4e0e\u65b9\u6cd5</a></li>\u000a<li><a href="https://read.douban.com/ebook/16691849/">\u77e5\u4e4e\u5468\u520a\u7f16\u7a0b\u5c0f\u767d\u5b66Python</a></li>\u000a<li><a href="https://github.com/cloga/scipy-lecture-notes_cn">Scipy \u8bb2\u4e49</a></li>\u000a<li><a href="http://www.kuqin.com/docs/pythonbasic.html">Python \u5b66\u4e60\u7b14\u8bb0 \u57fa\u7840\u7bc7</a></li>\u000a<li><a href="http://www.kuqin.com/docs/pythonmodule.html">Python \u5b66\u4e60\u7b14\u8bb0 \u6a21\u5757\u7bc7</a></li>\u000a<li><a href="http://old.sebug.net/paper/books/python/%E3%80%8APython%E6%A0%87%E5%87%86%E5%BA%93%E3%80%8B%E4%B8%AD%E6%96%87%E7%89%88.pdf">Python \u6807\u51c6\u5e93 \u4e2d\u6587\u7248</a></li>\u000a<li><a href="https://www.gitbook.com/book/eastlakeside/interpy-zh/details">Python\u8fdb\u9636</a></li>\u000a<li><a href="https://wizardforcel.gitbooks.io/core-python-2e/content/">Python \u6838\u5fc3\u7f16\u7a0b \u7b2c\u4e8c\u7248</a> CPyUG\u8bd1</li>\u000a<li><a href="http://pythonguidecn.readthedocs.io/zh/latest/">Python\u6700\u4f73\u5b9e\u8df5\u6307\u5357</a></li>\u000a<li><a href="https://www.gitbook.com/book/wizardforcel/python-essential-tutorial/details">Python \u7cbe\u8981\u6559\u7a0b</a></li>\u000a<li><a href="https://www.gitbook.com/book/wizardforcel/python-quant-uqer/details">Python \u91cf\u5316\u4ea4\u6613\u6559\u7a0b</a></li>\u000a<li>Django\u000a\u000a<ul>\u000a<li><a href="http://django-chinese-docs.readthedocs.org/en/latest/">Django 1.5 \u6587\u6863\u4e2d\u6587\u7248</a> \u6b63\u5728\u7ffb\u8bd1\u4e2d</li>\u000a<li><a href="http://django-1-7-doc.coding.io/">Diango 1.7 \u6587\u6863\u4e2d\u6587\u7248</a>  \u6b63\u5728\u7ffb\u8bd1\u4e2d\uff0c\u76ee\u524d\u53ea\u7ffb\u8bd1\u4e86\u76ee\u5f55</li>\u000a<li><a href="http://python.usyiyi.cn/django/index.html">Django 1.8.2 \u6587\u6863\u4e2d\u6587\u7248</a>\u000a\u6b63\u5728\u7ffb\u8bd1\u4e2d</li>\u000a<li><a href="https://github.com/yangyubo/zh-django-best-practices">Django \u6700\u4f73\u5b9e\u8df5</a></li>\u000a<li><a href="https://www.gitbook.com/book/andrew-liu/django-blog/details">Django\u642d\u5efa\u7b80\u6613\u535a\u5ba2\u6559\u7a0b</a></li>\u000a<li><a href="http://djangobook.py3k.cn/2.0/">The Django Book \u4e2d\u6587\u7248</a></li>\u000a<li><a href="https://github.com/cundi/Django-Design-Patterns-and-Best-Practices">Django \u8bbe\u8ba1\u6a21\u5f0f\u4e0e\u6700\u4f73\u5b9e\u8df5</a></li>\u000a<li><a href="https://github.com/cundi/Web.Development.with.Django.Cookbook">Django \u7f51\u7ad9\u5f00\u53d1 Cookbook</a></li>\u000a<li><a href="https://www.gitbook.com/book/djangogirlstaipei/django-girls-taipei-tutorial/details">Django Girls \u5b78\u7fd2\u6307\u5357</a></li>\u000a</ul></li>\u000a<li>Flask\u000a\u000a<ul>\u000a<li><a href="http://docs.jinkan.org/docs/flask/">Flask \u6587\u6863\u4e2d\u6587\u7248</a></li>\u000a<li><a href="http://docs.jinkan.org/docs/jinja2/">Jinja2 \u6587\u6863\u4e2d\u6587\u7248</a></li>\u000a<li><a href="http://werkzeug-docs-cn.readthedocs.org/zh_CN/latest/">Werkzeug \u6587\u6863\u4e2d\u6587\u7248</a></li>\u000a<li><a href="http://spacewander.github.io/explore-flask-zh/">Flask\u4e4b\u65c5</a></li>\u000a<li><a href="https://www.gitbook.com/book/wizardforcel/flask-extension-docs/details">Flask \u6269\u5c55\u6587\u6863\u6c47\u603b</a></li>\u000a<li><a href="http://www.pythondoc.com/flask-mega-tutorial/index.html">Flask \u5927\u578b\u6559\u7a0b</a></li>\u000a<li><a href="https://github.com/sixu05202004/sqlalchemy-docs-cn">SQLAlchemy \u4e2d\u6587\u6587\u6863</a></li>\u000a</ul></li>\u000a<li>web.py\u000a\u000a<ul>\u000a<li><a href="http://webpy.org/tutorial3.zh-cn">web.py 0.3 \u65b0\u624b\u6307\u5357</a></li>\u000a<li><a href="http://webpy.org/cookbook/index.zh-cn">Web.py Cookbook \u7b80\u4f53\u4e2d\u6587\u7248</a></li>\u000a</ul></li>\u000a<li>Tornado\u000a\u000a<ul>\u000a<li><a href="http://demo.pythoner.com/itt2zh/index.html">Introduction to Tornado \u4e2d\u6587\u7ffb\u8bd1</a></li>\u000a<li><a href="http://www.nowamagic.net/academy/detail/13321002">Tornado\u6e90\u7801\u89e3\u6790</a></li>\u000a<li><a href="https://tornado-zh.readthedocs.org/zh/latest/">Tornado 4.3 \u6587\u6863\u4e2d\u6587\u7248</a></li>\u000a</ul></li>\u000a</ul>\u000a\u000a<h3><a id="user-content-r" class="anchor" href="#r" aria-hidden="true"><svg aria-hidden="true" class="octicon octicon-link" height="16" version="1.1" viewBox="0 0 16 16" width="16"><path fill-rule="evenodd" d="M4 9h1v1H4c-1.5 0-3-1.69-3-3.5S2.55 3 4 3h4c1.45 0 3 1.69 3 3.5 0 1.41-.91 2.72-2 3.25V8.59c.58-.45 1-1.27 1-2.09C10 5.22 8.98 4 8 4H4c-.98 0-2 1.22-2 2.5S3 9 4 9zm9-3h-1v1h1c1 0 2 1.22 2 2.5S13.98 12 13 12H9c-.98 0-2-1.22-2-2.5 0-.83.42-1.64 1-2.09V6.25c-1.09.53-2 1.84-2 3.25C6 11.31 7.55 13 9 13h4c1.45 0 3-1.69 3-3.5S14.5 6 13 6z"></path></svg></a>R</h3>\u000a\u000a<ul>\u000a<li><a href="https://github.com/yihui/r-ninja">R\u8bed\u8a00\u5fcd\u8005\u79d8\u7b08</a></li>\u000a</ul>\u000a\u000a<h3><a id="user-content-ruby" class="anchor" href="#ruby" aria-hidden="true"><svg aria-hidden="true" class="octicon octicon-link" height="16" version="1.1" viewBox="0 0 16 16" width="16"><path fill-rule="evenodd" d="M4 9h1v1H4c-1.5 0-3-1.69-3-3.5S2.55 3 4 3h4c1.45 0 3 1.69 3 3.5 0 1.41-.91 2.72-2 3.25V8.59c.58-.45 1-1.27 1-2.09C10 5.22 8.98 4 8 4H4c-.98 0-2 1.22-2 2.5S3 9 4 9zm9-3h-1v1h1c1 0 2 1.22 2 2.5S13.98 12 13 12H9c-.98 0-2-1.22-2-2.5 0-.83.42-1.64 1-2.09V6.25c-1.09.53-2 1.84-2 3.25C6 11.31 7.55 13 9 13h4c1.45 0 3-1.69 3-3.5S14.5 6 13 6z"></path></svg></a>Ruby</h3>\u000a\u000a<ul>\u000a<li><a href="https://github.com/JuanitoFatas/ruby-style-guide/blob/master/README-zhCN.md">Ruby \u98ce\u683c\u6307\u5357</a></li>\u000a<li><a href="https://github.com/JuanitoFatas/rails-style-guide/blob/master/README-zhCN.md">Rails \u98ce\u683c\u6307\u5357</a></li>\u000a<li><a href="http://lrthw.github.io/">\u7b28\u65b9\u6cd5\u5b78 Ruby</a></li>\u000a<li><a href="http://guides.ruby-china.org/">Ruby on Rails \u6307\u5357</a></li>\u000a<li><a href="https://ihower.tw/rails4/index.html">Ruby on Rails \u5be6\u6230\u8056\u7d93</a></li>\u000a<li><a href="http://railstutorial-china.org/">Ruby on Rails Tutorial \u539f\u4e66\u7b2c 3 \u7248</a> (\u672c\u4e66\u7f51\u9875\u7248\u514d\u8d39\u63d0\u4f9b\uff0c\u7535\u5b50\u7248\u4ee5 PDF\u3001EPub \u548c Mobi \u683c\u5f0f\u63d0\u4f9b\u8d2d\u4e70\uff0c\u4ec5\u552e 9.9 \u7f8e\u5143)</li>\u000a<li><a href="http://rails-practice.com/content/index.html">Rails \u5b9e\u8df5</a></li>\u000a<li><a href="https://www.gitbook.com/book/kelby/rails-beginner-s-guide/details">Rails 5 \u5f00\u53d1\u8fdb\u9636(Beta)</a></li>\u000a<li><a href="https://www.gitbook.com/book/rocodev/rails-102/details">Rails 102</a></li>\u000a<li><a href="https://wusuopu.gitbooks.io/write-ruby-extension-with-c/content/">\u7f16\u5199Ruby\u7684C\u62d3\u5c55</a></li>\u000a<li><a href="https://ruby-china.org/topics/22386">Ruby \u6e90\u7801\u89e3\u8bfb</a></li>\u000a<li><a href="http://deathking.github.io/metaprogramming-in-ruby/">Ruby\u4e2d\u7684\u5143\u7f16\u7a0b</a></li>\u000a</ul>\u000a\u000a<h3><a id="user-content-rust" class="anchor" href="#rust" aria-hidden="true"><svg aria-hidden="true" class="octicon octicon-link" height="16" version="1.1" viewBox="0 0 16 16" width="16"><path fill-rule="evenodd" d="M4 9h1v1H4c-1.5 0-3-1.69-3-3.5S2.55 3 4 3h4c1.45 0 3 1.69 3 3.5 0 1.41-.91 2.72-2 3.25V8.59c.58-.45 1-1.27 1-2.09C10 5.22 8.98 4 8 4H4c-.98 0-2 1.22-2 2.5S3 9 4 9zm9-3h-1v1h1c1 0 2 1.22 2 2.5S13.98 12 13 12H9c-.98 0-2-1.22-2-2.5 0-.83.42-1.64 1-2.09V6.25c-1.09.53-2 1.84-2 3.25C6 11.31 7.55 13 9 13h4c1.45 0 3-1.69 3-3.5S14.5 6 13 6z"></path></svg></a>Rust</h3>\u000a\u000a<ul>\u000a<li><a href="https://www.gitbook.com/book/kaisery/rust-book-chinese/details">rust book \u4e2d\u6587\u7ffb\u8bd1</a></li>\u000a<li><a href="https://github.com/rustcc/RustPrimer">rust primer</a></li>\u000a</ul>\u000a\u000a<h3><a id="user-content-scala" class="anchor" href="#scala" aria-hidden="true"><svg aria-hidden="true" class="octicon octicon-link" height="16" version="1.1" viewBox="0 0 16 16" width="16"><path fill-rule="evenodd" d="M4 9h1v1H4c-1.5 0-3-1.69-3-3.5S2.55 3 4 3h4c1.45 0 3 1.69 3 3.5 0 1.41-.91 2.72-2 3.25V8.59c.58-.45 1-1.27 1-2.09C10 5.22 8.98 4 8 4H4c-.98 0-2 1.22-2 2.5S3 9 4 9zm9-3h-1v1h1c1 0 2 1.22 2 2.5S13.98 12 13 12H9c-.98 0-2-1.22-2-2.5 0-.83.42-1.64 1-2.09V6.25c-1.09.53-2 1.84-2 3.25C6 11.31 7.55 13 9 13h4c1.45 0 3-1.69 3-3.5S14.5 6 13 6z"></path></svg></a>Scala</h3>\u000a\u000a<ul>\u000a<li><a href="http://twitter.github.io/scala_school/zh_cn/index.html">Scala\u8bfe\u5802</a> (Twitter\u7684Scala\u4e2d\u6587\u6559\u7a0b)</li>\u000a<li><a href="http://twitter.github.io/effectivescala/index-cn.html">Effective Scala</a>(Twitter\u7684Scala\u6700\u4f73\u5b9e\u8df5\u7684\u4e2d\u6587\u7ffb\u8bd1)</li>\u000a<li><a href="http://zh.scala-tour.com/">Scala\u6307\u5357</a></li>\u000a</ul>\u000a\u000a<h3><a id="user-content-shell" class="anchor" href="#shell" aria-hidden="true"><svg aria-hidden="true" class="octicon octicon-link" height="16" version="1.1" viewBox="0 0 16 16" width="16"><path fill-rule="evenodd" d="M4 9h1v1H4c-1.5 0-3-1.69-3-3.5S2.55 3 4 3h4c1.45 0 3 1.69 3 3.5 0 1.41-.91 2.72-2 3.25V8.59c.58-.45 1-1.27 1-2.09C10 5.22 8.98 4 8 4H4c-.98 0-2 1.22-2 2.5S3 9 4 9zm9-3h-1v1h1c1 0 2 1.22 2 2.5S13.98 12 13 12H9c-.98 0-2-1.22-2-2.5 0-.83.42-1.64 1-2.09V6.25c-1.09.53-2 1.84-2 3.25C6 11.31 7.55 13 9 13h4c1.45 0 3-1.69 3-3.5S14.5 6 13 6z"></path></svg></a>Shell</h3>\u000a\u000a<ul>\u000a<li><a href="https://github.com/qinjx/30min_guides/blob/master/shell.md">Shell\u811a\u672c\u7f16\u7a0b30\u5206\u949f\u5165\u95e8</a></li>\u000a<li><a href="http://blog.sae.sina.com.cn/archives/3606">Bash\u811a\u672c15\u5206\u949f\u8fdb\u9636\u6559\u7a0b</a></li>\u000a<li><a href="https://github.com/me115/linuxtools_rst">Linux\u5de5\u5177\u5feb\u901f\u6559\u7a0b</a></li>\u000a<li><a href="https://github.com/wzb56/13_questions_of_shell">shell\u5341\u4e09\u95ee</a></li>\u000a<li><a href="https://www.gitbook.com/book/tinylab/shellbook/details">Shell\u7f16\u7a0b\u8303\u4f8b</a></li>\u000a</ul>\u000a\u000a<h3><a id="user-content-swift" class="anchor" href="#swift" aria-hidden="true"><svg aria-hidden="true" class="octicon octicon-link" height="16" version="1.1" viewBox="0 0 16 16" width="16"><path fill-rule="evenodd" d="M4 9h1v1H4c-1.5 0-3-1.69-3-3.5S2.55 3 4 3h4c1.45 0 3 1.69 3 3.5 0 1.41-.91 2.72-2 3.25V8.59c.58-.45 1-1.27 1-2.09C10 5.22 8.98 4 8 4H4c-.98 0-2 1.22-2 2.5S3 9 4 9zm9-3h-1v1h1c1 0 2 1.22 2 2.5S13.98 12 13 12H9c-.98 0-2-1.22-2-2.5 0-.83.42-1.64 1-2.09V6.25c-1.09.53-2 1.84-2 3.25C6 11.31 7.55 13 9 13h4c1.45 0 3-1.69 3-3.5S14.5 6 13 6z"></path></svg></a>Swift</h3>\u000a\u000a<ul>\u000a<li><a href="http://numbbbbb.github.io/the-swift-programming-language-in-chinese/">The Swift Programming Language \u4e2d\u6587\u7248</a></li>\u000a<li><a href="http://dev.swiftguide.cn">Swift \u8bed\u8a00\u6307\u5357</a></li>\u000a<li><a href="https://github.com/x140yu/Developing_iOS_8_Apps_With_Swift">Stanford \u516c\u5f00\u8bfe\uff0cDeveloping iOS 8 Apps with Swift \u5b57\u5e55\u7ffb\u8bd1\u6587\u4ef6</a><br></li>\u000a<li><a href="http://c4ios.swift.gg">C4iOS - COSMOS</a><br></li>\u000a</ul>\u000a\u000a<h3><a id="user-content-\u8bfb\u4e66\u7b14\u8bb0\u53ca\u5176\u5b83" class="anchor" href="#\u8bfb\u4e66\u7b14\u8bb0\u53ca\u5176\u5b83" aria-hidden="true"><svg aria-hidden="true" class="octicon octicon-link" height="16" version="1.1" viewBox="0 0 16 16" width="16"><path fill-rule="evenodd" d="M4 9h1v1H4c-1.5 0-3-1.69-3-3.5S2.55 3 4 3h4c1.45 0 3 1.69 3 3.5 0 1.41-.91 2.72-2 3.25V8.59c.58-.45 1-1.27 1-2.09C10 5.22 8.98 4 8 4H4c-.98 0-2 1.22-2 2.5S3 9 4 9zm9-3h-1v1h1c1 0 2 1.22 2 2.5S13.98 12 13 12H9c-.98 0-2-1.22-2-2.5 0-.83.42-1.64 1-2.09V6.25c-1.09.53-2 1.84-2 3.25C6 11.31 7.55 13 9 13h4c1.45 0 3-1.69 3-3.5S14.5 6 13 6z"></path></svg></a>\u8bfb\u4e66\u7b14\u8bb0\u53ca\u5176\u5b83</h3>\u000a\u000a<ul>\u000a<li><a href="https://github.com/fool2fish/dragon-book-exercise-answers">\u7f16\u8bd1\u539f\u7406\uff08\u7d2b\u9f99\u4e66\uff09\u4e2d\u6587\u7b2c2\u7248\u4e60\u9898\u7b54\u6848</a></li>\u000a<li><a href="http://www.hawstein.com/posts/make-thiner-programming-pearls.html">\u628a\u300a\u7f16\u7a0b\u73e0\u7391\u300b\u8bfb\u8584</a></li>\u000a<li><a href="https://github.com/XiaolongJason/ReadingNote/blob/master/Effective%20C%2B%2B/Effective%20C%2B%2B.md">Effective C++\u8bfb\u4e66\u7b14\u8bb0</a></li>\u000a<li><a href="https://github.com/qyuhen/book">Golang \u5b66\u4e60\u7b14\u8bb0\u3001Python \u5b66\u4e60\u7b14\u8bb0\u3001C \u5b66\u4e60\u7b14\u8bb0</a> (PDF)</li>\u000a<li><a href="https://github.com/code4craft/jsoup-learning">Jsoup \u5b66\u4e60\u7b14\u8bb0</a></li>\u000a<li><a href="https://github.com/lzjun567/note">\u5b66\u4e60\u7b14\u8bb0: Vim\u3001Python\u3001memcached</a></li>\u000a<li><a href="http://www.ituring.com.cn/activity/details/2004">\u56fe\u7075\u5f00\u653e\u4e66\u7ffb\u8bd1\u8ba1\u5212--C++\u3001Python\u3001Java\u7b49</a></li>\u000a<li><a href="http://g.yeeyan.org/books/2095">\u8482\u59c6\u5965\u83b1\u5229\u968f\u7b14</a> \uff08\u7531\u8bd1\u8a00\u7f51\u7ffb\u8bd1\uff0c\u7535\u5b50\u7248\u514d\u8d39\uff09</li>\u000a<li><a href="http://sicp.readthedocs.org/en/latest/">SICP \u89e3\u9898\u96c6</a></li>\u000a<li><a href="https://github.com/hacke2/hacke2.github.io/issues/2">\u7cbe\u5f69\u535a\u5ba2\u96c6\u5408</a></li>\u000a<li><a href="https://github.com/sparanoid/chinese-copywriting-guidelines">\u4e2d\u6587\u6587\u6848\u6392\u7248\u6307\u5317</a></li>\u000a<li><a href="http://ganquan.info/standard-c/">Standard C \u8bed\u8a00\u6807\u51c6\u51fd\u6570\u5e93\u901f\u67e5 (Cheat Sheet)</a></li>\u000a<li><a href="http://gh.amio.us/git-cheatsheet-chs/">Git Cheatsheet Chs</a></li>\u000a<li><a href="http://www.chengweiyang.cn/gitbook/index.html">GitBook\u7b80\u660e\u6559\u7a0b</a></li>\u000a<li><a href="https://github.com/qibaoguang/Study-Step-by-Step/blob/master/%E8%AF%BB%E4%B9%A6%E7%AC%94%E8%AE%B0/javascript_the_good_parts.md">JavaScript\u8bed\u8a00\u7cbe\u7cb9</a></li>\u000a<li><a href="http://producingoss.com/zh/">\u5236\u9020\u5f00\u6e90\u8f6f\u4ef6</a></li>\u000a<li><a href="http://www.dianbo.org/9238/stone/tiwendezhihui.htm">\u63d0\u95ee\u7684\u667a\u6167</a></li>\u000a<li><a href="https://github.com/LearnShare/Learning-Markdown">Markdown \u5165\u95e8\u53c2\u8003</a></li>\u000a<li><a href="https://github.com/stanzgy/wiki/blob/master/markup/asciidoc-guide.asciidoc">AsciiDoc\u7b80\u660e\u6307\u5357</a></li>\u000a<li><a href="http://love-oriented.com/pack/">\u80cc\u5305\u95ee\u9898\u4e5d\u8bb2</a></li>\u000a<li><a href="https://github.com/qiwsir/ITArticles">\u8001\u9f50\u7684\u6280\u672f\u8d44\u6599</a></li>\u000a<li><a href="https://github.com/JacksonTian/fks">\u524d\u7aef\u6280\u80fd\u6c47\u603b</a></li>\u000a<li><a href="https://github.com/zhuangbiaowei/learn-with-open-source">\u501f\u52a9\u5f00\u6e90\u9879\u76ee\uff0c\u5b66\u4e60\u8f6f\u4ef6\u5f00\u53d1</a></li>\u000a<li><a href="https://github.com/h5bp/Front-end-Developer-Interview-Questions/tree/master/Translations/Chinese">\u524d\u7aef\u5de5\u4f5c\u9762\u8bd5\u95ee\u9898</a></li>\u000a<li><a href="https://www.gitbook.com/book/yuanbin/algorithm/details">leetcode/lintcode\u9898\u89e3/\u7b97\u6cd5\u5b66\u4e60\u7b14\u8bb0</a></li>\u000a<li><a href="https://github.com/li-xinyang/FEND_Note">\u524d\u7aef\u5f00\u53d1\u7b14\u8bb0\u672c</a></li>\u000a</ul>\u000a\u000a<h3><a id="user-content-\u6d4b\u8bd5\u76f8\u5173" class="anchor" href="#\u6d4b\u8bd5\u76f8\u5173" aria-hidden="true"><svg aria-hidden="true" class="octicon octicon-link" height="16" version="1.1" viewBox="0 0 16 16" width="16"><path fill-rule="evenodd" d="M4 9h1v1H4c-1.5 0-3-1.69-3-3.5S2.55 3 4 3h4c1.45 0 3 1.69 3 3.5 0 1.41-.91 2.72-2 3.25V8.59c.58-.45 1-1.27 1-2.09C10 5.22 8.98 4 8 4H4c-.98 0-2 1.22-2 2.5S3 9 4 9zm9-3h-1v1h1c1 0 2 1.22 2 2.5S13.98 12 13 12H9c-.98 0-2-1.22-2-2.5 0-.83.42-1.64 1-2.09V6.25c-1.09.53-2 1.84-2 3.25C6 11.31 7.55 13 9 13h4c1.45 0 3-1.69 3-3.5S14.5 6 13 6z"></path></svg></a>\u6d4b\u8bd5\u76f8\u5173</h3>\u000a\u000a<ul>\u000a<li><a href="http://appium.io/slate/cn/v1.2.0/">\u79fb\u52a8APP\u81ea\u52a8\u5316\u6d4b\u8bd5\u4f18\u79c0\u6846\u67b6Appium API Reference V1.2.0 CN</a></li>\u000a</ul>\u000a</article>\u000a  </div>\u000a\u000a\u000a  </div>\u000a  <div class="modal-backdrop js-touch-events"></div>\u000a</div>\u000a\u000a\u000a    </div>\u000a  </div>\u000a\u000a    </div>\u000a\u000a        <div class="container site-footer-container">\u000a  <div class="site-footer" role="contentinfo">\u000a    <ul class="site-footer-links float-right">\u000a        <li><a href="https://github.com/contact" data-ga-click="Footer, go to contact, text:contact">Contact GitHub</a></li>\u000a      <li><a href="https://developer.github.com" data-ga-click="Footer, go to api, text:api">API</a></li>\u000a      <li><a href="https://training.github.com" data-ga-click="Footer, go to training, text:training">Training</a></li>\u000a      <li><a href="https://shop.github.com" data-ga-click="Footer, go to shop, text:shop">Shop</a></li>\u000a        <li><a href="https://github.com/blog" data-ga-click="Footer, go to blog, text:blog">Blog</a></li>\u000a        <li><a href="https://github.com/about" data-ga-click="Footer, go to about, text:about">About</a></li>\u000a\u000a    </ul>\u000a\u000a    <a href="https://github.com" aria-label="Homepage" class="site-footer-mark" title="GitHub">\u000a      <svg aria-hidden="true" class="octicon octicon-mark-github" height="24" version="1.1" viewBox="0 0 16 16" width="24"><path fill-rule="evenodd" d="M8 0C3.58 0 0 3.58 0 8c0 3.54 2.29 6.53 5.47 7.59.4.07.55-.17.55-.38 0-.19-.01-.82-.01-1.49-2.01.37-2.53-.49-2.69-.94-.09-.23-.48-.94-.82-1.13-.28-.15-.68-.52-.01-.53.63-.01 1.08.58 1.23.82.72 1.21 1.87.87 2.33.66.07-.52.28-.87.51-1.07-1.78-.2-3.64-.89-3.64-3.95 0-.87.31-1.59.82-2.15-.08-.2-.36-1.02.08-2.12 0 0 .67-.21 2.2.82.64-.18 1.32-.27 2-.27.68 0 1.36.09 2 .27 1.53-1.04 2.2-.82 2.2-.82.44 1.1.16 1.92.08 2.12.51.56.82 1.27.82 2.15 0 3.07-1.87 3.75-3.65 3.95.29.25.54.73.54 1.48 0 1.07-.01 1.93-.01 2.2 0 .21.15.46.55.38A8.013 8.013 0 0 0 16 8c0-4.42-3.58-8-8-8z"/></svg>\u000a</a>\u000a    <ul class="site-footer-links">\u000a      <li>&copy; 2016 <span title="0.12091s from github-fe-9d6fe79.cp1-iad.github.net">GitHub</span>, Inc.</li>\u000a        <li><a href="https://github.com/site/terms" data-ga-click="Footer, go to terms, text:terms">Terms</a></li>\u000a        <li><a href="https://github.com/site/privacy" data-ga-click="Footer, go to privacy, text:privacy">Privacy</a></li>\u000a        <li><a href="https://github.com/security" data-ga-click="Footer, go to security, text:security">Security</a></li>\u000a        <li><a href="https://status.github.com/" data-ga-click="Footer, go to status, text:status">Status</a></li>\u000a        <li><a href="https://help.github.com" data-ga-click="Footer, go to help, text:help">Help</a></li>\u000a    </ul>\u000a  </div>\u000a</div>\u000a\u000a\u000a\u000a    \u000a\u000a    <div id="ajax-error-message" class="ajax-error-message flash flash-error">\u000a      <svg aria-hidden="true" class="octicon octicon-alert" height="16" version="1.1" viewBox="0 0 16 16" width="16"><path fill-rule="evenodd" d="M8.865 1.52c-.18-.31-.51-.5-.87-.5s-.69.19-.87.5L.275 13.5c-.18.31-.18.69 0 1 .19.31.52.5.87.5h13.7c.36 0 .69-.19.86-.5.17-.31.18-.69.01-1L8.865 1.52zM8.995 13h-2v-2h2v2zm0-3h-2V6h2v4z"/></svg>\u000a      <button type="button" class="flash-close js-flash-close js-ajax-error-dismiss" aria-label="Dismiss error">\u000a        <svg aria-hidden="true" class="octicon octicon-x" height="16" version="1.1" viewBox="0 0 12 16" width="12"><path fill-rule="evenodd" d="M7.48 8l3.75 3.75-1.48 1.48L6 9.48l-3.75 3.75-1.48-1.48L4.52 8 .77 4.25l1.48-1.48L6 6.52l3.75-3.75 1.48 1.48z"/></svg>\u000a      </button>\u000a      You can't perform that action at this time.\u000a    </div>\u000a\u000a\u000a      \u000a      <script crossorigin="anonymous" integrity="sha256-qGcOKOeLPwGU3+T/SVUz+lI+fnAAbb9axOapfoqVer0=" src="https://assets-cdn.github.com/assets/frameworks-a8670e28e78b3f0194dfe4ff495533fa523e7e70006dbf5ac4e6a97e8a957abd.js"></script>\u000a      <script async="async" crossorigin="anonymous" integrity="sha256-i28Sf4dlo1o0664ifALHi3SQSHK/WAdbTtwTTU6ywhg=" src="https://assets-cdn.github.com/assets/github-8b6f127f8765a35a34ebae227c02c78b74904872bf58075b4edc134d4eb2c218.js"></script>\u000a      \u000a      \u000a      \u000a      \u000a    <div class="js-stale-session-flash stale-session-flash flash flash-warn flash-banner d-none">\u000a      <svg aria-hidden="true" class="octicon octicon-alert" height="16" version="1.1" viewBox="0 0 16 16" width="16"><path fill-rule="evenodd" d="M8.865 1.52c-.18-.31-.51-.5-.87-.5s-.69.19-.87.5L.275 13.5c-.18.31-.18.69 0 1 .19.31.52.5.87.5h13.7c.36 0 .69-.19.86-.5.17-.31.18-.69.01-1L8.865 1.52zM8.995 13h-2v-2h2v2zm0-3h-2V6h2v4z"/></svg>\u000a      <span class="signed-in-tab-flash">You signed in with another tab or window. <a href="">Reload</a> to refresh your session.</span>\u000a      <span class="signed-out-tab-flash">You signed out in another tab or window. <a href="">Reload</a> to refresh your session.</span>\u000a    </div>\u000a    <div class="facebox" id="facebox" style="display:none;">\u000a  <div class="facebox-popup">\u000a    <div class="facebox-content" role="dialog" aria-labelledby="facebox-header" aria-describedby="facebox-description">\u000a    </div>\u000a    <button type="button" class="facebox-close js-facebox-close" aria-label="Close modal">\u000a      <svg aria-hidden="true" class="octicon octicon-x" height="16" version="1.1" viewBox="0 0 12 16" width="12"><path fill-rule="evenodd" d="M7.48 8l3.75 3.75-1.48 1.48L6 9.48l-3.75 3.75-1.48-1.48L4.52 8 .77 4.25l1.48-1.48L6 6.52l3.75-3.75 1.48 1.48z"/></svg>\u000a    </button>\u000a  </div>\u000a</div>\u000a\u000a  </body>\u000a</html>\u000a\u000a
p3
a.