(lp0
S'https://www.google.com/url?sa=t&rct=j&q=&esrc=s&source=web&cd=1&ved=0CCYQFjAA&url=%68%74%74%70%3a%2f%2f%62%61%73%68%64%62%2e%73%6f%75%72%63%65%66%6f%72%67%65%2e%6e%65%74%2f%70%79%64%62%2f&ei=kwcTU_z0Ic3tiAechoDoDg&usg=AFQjCNFY5Ew4NJOqmmH8K4MwMh0toUQreA&sig2=8kMzSIE2xHgxKwwC7e9HJw&bvm=bv.62286460,d.dGI&cad=rjt'
p1
aS'https://www.google.com/url?sa=t&amp;rct=j&amp;q=&amp;esrc=s&amp;source=web&amp;cd=1&amp;ved=0CCYQFjAA&amp;url=http%3a%2f%2fbashdb%2esourceforge%2enet%2fpydb%2f&amp;ei=kwcTU_z0Ic3tiAechoDoDg&amp;usg=AFQjCNFY5Ew4NJOqmmH8K4MwMh0toUQreA&amp;sig2=8kMzSIE2xHgxKwwC7e9HJw&amp;bvm=bv.62286460,d.dGI&amp;cad=rjt'
p2
aI0
aV<script>window.googleJavaScriptRedirect=1</script><META name="referrer" content="origin"><script>var n={navigateTo:function(b,a,d){if(b!=a&&b.google){if(b.google.r){b.google.r=0;b.location.href=d;a.location.replace("about:blank");}}else{a.location.replace(d);}}};n.navigateTo(window.parent,window,"http://bashdb.sourceforge.net/pydb/");\u000a</script><noscript><META http-equiv="refresh" content="0;URL='http://bashdb.sourceforge.net/pydb/'"></noscript>
p3
a.