(lp0
S'http://www.lyblog.net/2013/402.html'
p1
aS''
p2
aI0
aV<!doctype html><html lang="zh-cn"><head><meta charset="UTF-8"><meta http-equiv="x-dns-prefetch-control" content="on"><link rel="dns-prefetch" href="//www.lyblog.net"><link rel="dns-prefetch" href="//cdn.lyblog.net"><link rel="dns-prefetch" href="//img.lyblog.net"><title ng-bind="title+'\u5c0f\u5929\u5730\uff0c\u5927\u4e16\u754c\uff0c\u662f\u4e00\u4e2a\u524d\u7aef\u4ea4\u6d41\u535a\u5ba2'">\u5c0f\u5929\u5730\uff0c\u5927\u4e16\u754c\uff0c\u524d\u7aef\u535a\u5ba2</title><meta name="viewport" content="width=device-width,initial-scale=1,maximum-scale=1,minimum-scale=1,user-scalable=no"><meta name="renderer" content="webkit"><meta name="full-screen" content="yes"><meta name="x5-fullscreen" content="true"><meta name="author" content="Liu Yang"><base href="/"><meta name="keywords" content="\u5c0f\u5929\u5730,\u5927\u4e16\u754c,web\u524d\u7aef,html5,div+css,Javascript,Jquery,css hack,\u5218\u6d0b\u535a\u5ba2"><meta name="description" content="\u5c0f\u5929\u5730\uff0c\u5927\u4e16\u754c\u662f\u4e00\u4e2a\u96c6\u524d\u7aef\uff08html,div+css,javascript\uff09\u4ee5\u53ca\u540e\u7aef\u7a0b\u5e8f\u8bbe\u8ba1\u7684\u6280\u672f\u4ea4\u6d41\u535a\u5ba2\u3002\u65e8\u5728\u65e5\u5e38\u5de5\u4f5c\u7ecf\u9a8c\uff0c\u5b66\u4e60\u7b14\u8bb0\u7684\u6574\u7406\u3002\u5e76\u4e14\u5e0c\u671b\u5171\u5efa\u4e00\u4e2a\u524d\u7aef\u540c\u884c\u4eec\u7684\u5c0f\u5929\u5730\uff0c\u5171\u540c\u4ea4\u6d41\u60f3\u6cd5\u3002\u6709\u4e86\u4f60\u4eec\uff0c\u8fd9\u91cc\u4f1a\u662f\u4e00\u4e2a\u5927\u4e16\u754c\u3002"><style>/*! normalize.css v3.0.2 | MIT License | git.io/normalize */img,legend{border:0}legend,td,th{padding:0}#myshare:after,.clearfix:after,.widget_list:after{clear:both}body{margin:0;color:#444;font-size:14px}article,aside,details,figcaption,figure,footer,header,hgroup,main,menu,nav,section,summary{display:block}audio,canvas,progress,video{display:inline-block;vertical-align:baseline}.hidden,[hidden],template{display:none}audio:not([controls]){display:none;height:0}a{background-color:transparent;color:#494949;text-decoration:none}a:active,a:hover{outline:0}abbr[title]{border-bottom:1px dotted}b,optgroup,strong{font-weight:700}dfn{font-style:italic}h1{font-size:2em;margin:.67em 0}mark{background:#ff0;color:#000}small{font-size:80%}sub,sup{font-size:75%;line-height:0;position:relative;vertical-align:baseline}sup{top:-.5em}sub{bottom:-.25em}svg:not(:root){overflow:hidden}figure{margin:1em 40px}hr{-moz-box-sizing:content-box;box-sizing:content-box;height:0}pre,textarea{overflow:auto}code,kbd,pre,samp{font-family:Monaco,Menlo,Consolas,'Courier New',monospace;font-size:1em}button,input,optgroup,select,textarea{color:inherit;font:inherit;margin:0}button{overflow:visible}button,select{text-transform:none}button,html input[type=button],input[type=reset],input[type=submit]{-webkit-appearance:button;cursor:pointer}button[disabled],html input[disabled]{cursor:default}button::-moz-focus-inner,input::-moz-focus-inner{border:0;padding:0}input{line-height:normal}input[type=checkbox],input[type=radio]{box-sizing:border-box;padding:0}input[type=number]::-webkit-inner-spin-button,input[type=number]::-webkit-outer-spin-button{height:auto}input[type=search]::-webkit-search-cancel-button,input[type=search]::-webkit-search-decoration{-webkit-appearance:none}fieldset{border:1px solid silver;margin:0 2px;padding:.35em .625em .75em}table{border-collapse:collapse;border-spacing:0}body{font-family:Monaco,Menlo,Consolas,'Courier New',monospace}a:link{color:#4C4C4C}a:visited{color:#766E82}a:hover{color:#09C;-moz-transition:color .3s linear;-webkit-transition:color .3s linear;transition:color .3s linear}a:active{color:#1257A2}.fl{float:left}#myshare li,.fr{float:right}.hr{border:none;border-bottom:1px solid #ccc;box-shadow:2px 0 2px #ccc;width:100%}.clearfix:after,.clearfix:before{content:'';line-height:0;display:table}.dotted{border-style:dashed;border-width:1px;border-bottom:none}::selection{color:#fff;background-color:#08c}::-moz-selection{color:#fff;background-color:#08c}.uneditable-input:focus,input[type=password]:focus,input[type=datetime]:focus,input[type=datetime-local]:focus,input[type=date]:focus,input[type=month]:focus,input[type=time]:focus,input[type=week]:focus,input[type=email]:focus,input[type=url]:focus,input[type=tel]:focus,input[type=color]:focus,input[type=number]:focus,input[type=search]:focus,input[type=text]:focus,textarea:focus{border-color:rgba(82,168,236,.8);outline:0;outline:dotted thin\u005c9;-webkit-box-shadow:inset 0 1px 1px rgba(0,0,0,.075),0 0 8px rgba(82,168,236,.6);-moz-box-shadow:inset 0 1px 1px rgba(0,0,0,.075),0 0 8px rgba(82,168,236,.6);box-shadow:inset 0 1px 1px rgba(0,0,0,.075),0 0 8px rgba(82,168,236,.6)}.uneditable-input,input[type=password],input[type=datetime],input[type=datetime-local],input[type=date],input[type=month],input[type=time],input[type=week],input[type=email],input[type=url],input[type=tel],input[type=color],input[type=number],input[type=search],input[type=text],textarea{background-color:#FFF;border:1px solid #CCC;-webkit-box-shadow:inset 0 1px 1px rgba(0,0,0,.075);-moz-box-shadow:inset 0 1px 1px rgba(0,0,0,.075);box-shadow:inset 0 1px 1px rgba(0,0,0,.075);-webkit-transition:border linear .2s,box-shadow linear .2s;-moz-transition:border linear .2s,box-shadow linear .2s;-o-transition:border linear .2s,box-shadow linear .2s;transition:border linear .2s,box-shadow linear .2s}.animate,.fri-link li:before{-webkit-transition:all .3s ease;-moz-transition:all .3s ease;-ms-transition:all .3s ease;-o-transition:all .3s ease}.uneditable-input,input[type=password],input[type=datetime],input[type=datetime-local],input[type=date],input[type=month],input[type=time],input[type=week],input[type=email],input[type=url],input[type=tel],input[type=color],input[type=number],input[type=search],input[type=text],select,textarea{display:inline-block;height:20px;padding:4px 6px;margin-bottom:9px;font-size:14px;line-height:20px;color:#555;-webkit-border-radius:3px;-moz-border-radius:3px;border-radius:3px}input[type=search]{-webkit-box-sizing:content-box;-moz-box-sizing:content-box;box-sizing:content-box;-webkit-appearance:textfield}.uneditable-input:focus.red,input[type=password]:focus.red,input[type=datetime]:focus.red,input[type=datetime-local]:focus.red,input[type=date]:focus.red,input[type=month]:focus.red,input[type=time]:focus.red,input[type=week]:focus.red,input[type=email]:focus.red,input[type=url]:focus.red,input[type=tel]:focus.red,input[type=color]:focus.red,input[type=number]:focus.red,input[type=search]:focus.red,input[type=text]:focus.red,textarea:focus.red{border-color:rgba(236,17,0,.62);outline:0;outline:dotted thin\u005c9;-webkit-box-shadow:inset 0 1px 1px rgba(0,0,0,.075),0 0 8px rgba(236,60,52,.6);-moz-box-shadow:inset 0 1px 1px rgba(0,0,0,.075),0 0 8px rgba(236,60,52,.6);box-shadow:inset 0 1px 1px rgba(0,0,0,.075),0 0 8px rgba(236,60,52,.6)}.btn{display:inline-block;padding:4px 14px;margin-bottom:0;font-size:14px;line-height:20px;color:#333;text-align:center;text-shadow:0 1px 1px rgba(255,255,255,.75);vertical-align:middle;cursor:pointer;background-color:#F5F5F5;background-image:-webkit-gradient(linear,0 0,0 100%,from(#fff),to(#e6e6e6));background-image:-webkit-linear-gradient(top,#fff,#e6e6e6);background-image:-o-linear-gradient(top,#fff,#e6e6e6);background-image:linear-gradient(to bottom,#fff,#e6e6e6);background-image:-moz-linear-gradient(top,#fff,#e6e6e6);background-repeat:repeat-x;border:1px solid #BBB;border-color:rgba(0,0,0,.1) rgba(0,0,0,.1) rgba(0,0,0,.25);border-color:#E6E6E6 #E6E6E6 #BFBFBF;border-bottom-color:#A2A2A2;-webkit-border-radius:4px;-moz-border-radius:4px;border-radius:4px;filter:progid:dximagetransform.microsoft.gradient(startColorstr='#ffffffff', endColorstr='#ffe6e6e6', GradientType=0);filter:progid:dximagetransform.microsoft.gradient(enabled=false);-webkit-box-shadow:inset 0 1px 0 rgba(255,255,255,.2),0 1px 2px rgba(0,0,0,.05);-moz-box-shadow:inset 0 1px 0 rgba(255,255,255,.2),0 1px 2px rgba(0,0,0,.05);box-shadow:inset 0 1px 0 rgba(255,255,255,.2),0 1px 2px rgba(0,0,0,.05)}.animate{transition:all .3s ease}.animate-spin{-moz-animation:spin 2s infinite linear;-o-animation:spin 2s infinite linear;-webkit-animation:spin 2s infinite linear;animation:spin 2s infinite linear;display:inline-block}.fadeIn,img[data-src].loaded{-webkit-animation-name:fadeIn}@-moz-keyframes spin{0%{-moz-transform:rotate(0);-o-transform:rotate(0);-webkit-transform:rotate(0);transform:rotate(0)}100%{-moz-transform:rotate(359deg);-o-transform:rotate(359deg);-webkit-transform:rotate(359deg);transform:rotate(359deg)}}@-webkit-keyframes spin{0%{-moz-transform:rotate(0);-o-transform:rotate(0);-webkit-transform:rotate(0);transform:rotate(0)}100%{-moz-transform:rotate(359deg);-o-transform:rotate(359deg);-webkit-transform:rotate(359deg);transform:rotate(359deg)}}@-o-keyframes spin{0%{-moz-transform:rotate(0);-o-transform:rotate(0);-webkit-transform:rotate(0);transform:rotate(0)}100%{-moz-transform:rotate(359deg);-o-transform:rotate(359deg);-webkit-transform:rotate(359deg);transform:rotate(359deg)}}@-ms-keyframes spin{0%{-moz-transform:rotate(0);-o-transform:rotate(0);-webkit-transform:rotate(0);transform:rotate(0)}100%{-moz-transform:rotate(359deg);-o-transform:rotate(359deg);-webkit-transform:rotate(359deg);transform:rotate(359deg)}}@keyframes spin{0%{-moz-transform:rotate(0);-o-transform:rotate(0);-webkit-transform:rotate(0);transform:rotate(0)}100%{-moz-transform:rotate(359deg);-o-transform:rotate(359deg);-webkit-transform:rotate(359deg);transform:rotate(359deg)}}@-webkit-keyframes fadeIn{0%{opacity:0}100%{opacity:1}}@keyframes fadeIn{0%{opacity:0}100%{opacity:1}}.fadeIn{animation-name:fadeIn}.fade{opacity:1;-webkit-transition:opacity .3s linear;-moz-transition:opacity .3s linear;-ms-transition:opacity .3s linear;-o-transition:opacity .3s linear;transition:opacity .3s linear}.fade.ng-hide,.tooltip{opacity:0}.slideInAndOut{list-style:none;box-sizing:border-box}.slideInAndOut.ng-enter,.slideInAndOut.ng-leave,.slideInAndOut.ng-move{-webkit-transition:all linear .5s;transition:all linear .5s}.slideInAndOut.ng-enter,.slideInAndOut.ng-leave.ng-leave-active,.slideInAndOut.ng-move{opacity:0;max-height:0;-webkit-transform:translateX(-300px);-moz-transform:translateX(-300px);-ms-transform:translateX(-300px);-o-transform:translateX(-300px);transform:translateX(-300px)}.slideInAndOut.ng-enter.ng-enter-active,.slideInAndOut.ng-leave,.slideInAndOut.ng-move.ng-move-active{opacity:1;max-height:28px;-webkit-transform:translateX(0);-moz-transform:translateX(0);-ms-transform:translateX(0);-o-transform:translateX(0);transform:translateX(0)}@font-face{font-family:fontello;src:url(usr/themes/readme/font/fontello.eot?58116972);src:url(usr/themes/readme/font/fontello.eot?58116972#iefix) format('embedded-opentype'),url(usr/themes/readme/font/fontello.woff?58116972) format('woff'),url(usr/themes/readme/font/fontello.ttf?58116972) format('truetype'),url(usr/themes/readme/font/fontello.svg?58116972#fontello) format('svg');font-weight:400;font-style:normal}[class*=" icon-"]:before,[class^=icon-]:before{font-family:fontello;font-style:normal;font-weight:400;speak:none;display:inline-block;text-decoration:inherit;width:1em;margin-right:.2em;text-align:center;font-variant:normal;text-transform:none;line-height:1em;margin-left:.2em}.icon-spin2:before{content:'\u005ce800'}.icon-unlink:before{content:'\u005ce801'}.icon-link-ext:before{content:'\u005ce802'}.icon-attach:before{content:'\u005ce803'}.icon-comment-empty:before{content:'\u005ce804'}.icon-chat-empty:before{content:'\u005ce805'}.icon-angle-left:before{content:'\u005ce806'}.icon-angle-right:before{content:'\u005ce807'}.icon-angle-up:before{content:'\u005ce808'}.icon-angle-down:before{content:'\u005ce809'}.icon-tags:before{content:'\u005ce80a'}.icon-bookmark:before{content:'\u005ce80b'}.icon-edit:before{content:'\u005ce80c'}.icon-doc-inv:before{content:'\u005ce80d'}.icon-doc-text-inv:before{content:'\u005ce80e'}.icon-doc-text:before{content:'\u005ce80f'}.icon-move:before{content:'\u005ce810'}.icon-zoom-out:before{content:'\u005ce811'}.icon-zoom-in:before{content:'\u005ce812'}.icon-mail:before{content:'\u005ce813'}.icon-picture:before{content:'\u005ce814'}.icon-camera:before{content:'\u005ce815'}.icon-mail-alt:before{content:'\u005ce816'}.icon-eye:before{content:'\u005ce817'}.icon-eye-off:before{content:'\u005ce818'}.icon-user:before{content:'\u005ce819'}.icon-rss:before{content:'\u005ce81a'}.icon-rss-squared:before{content:'\u005ce81b'}.icon-calendar:before{content:'\u005ce81c'}.icon-firefox:before{content:'\u005ce81d'}.icon-chrome:before{content:'\u005ce81e'}.icon-opera:before{content:'\u005ce81f'}.icon-ie:before{content:'\u005ce820'}.icon-folder-open-empty:before{content:'\u005ce821'}.icon-volume-off:before{content:'\u005ce822'}.icon-volume-down:before{content:'\u005ce823'}.icon-volume-up:before{content:'\u005ce824'}.icon-to-end:before{content:'\u005ce825'}.icon-stop:before{content:'\u005ce826'}.icon-pause:before{content:'\u005ce827'}.icon-to-end-alt:before{content:'\u005ce828'}.icon-to-start:before{content:'\u005ce829'}.icon-to-start-alt:before{content:'\u005ce82a'}.icon-fast-fw:before{content:'\u005ce82b'}.icon-fast-bw:before{content:'\u005ce82c'}.icon-play:before{content:'\u005ce82d'}.icon-book:before{content:'\u005ce82e'}.icon-home:before{content:'\u005ce82f'}.icon-user-female:before{content:'\u005ce830'}.icon-cog:before{content:'\u005ce831'}.icon-angle-double-left:before{content:'\u005ce832'}.icon-angle-double-right:before{content:'\u005ce833'}.icon-angle-double-up:before{content:'\u005ce834'}.icon-angle-double-down:before{content:'\u005ce835'}.icon-attach-1:before{content:'\u005ce836'}.icon-email:before{content:'\u005ce837'}.icon-videocam:before{content:'\u005ce838'}.icon-video:before{content:'\u005ce839'}.icon-share-squared:before{content:'\u005ce83a'}.icon-print:before{content:'\u005ce83b'}.icon-shuffle:before{content:'\u005ce83c'}.icon-exchange:before{content:'\u005ce83d'}.icon-reply-all:before{content:'\u005ce83e'}.icon-forward:before{content:'\u005ce83f'}.icon-menu:before{content:'\u005ce840'}.icon-resize-full-alt:before{content:'\u005ce841'}.icon-quote-left:before{content:'\u005ce842'}.icon-quote-right:before{content:'\u005ce843'}.icon-music:before{content:'\u005ce844'}.icon-trash:before{content:'\u005ce845'}.icon-resize-small:before{content:'\u005ce846'}.com{color:#93a1a1}.lit{color:#195f91}.clo,.opn,.pun{color:#93a1a1}.fun{color:#dc322f}.atv,.str{color:#D14}.kwd,.prettyprint .tag{color:#1e347b}.atn,.dec,.typ,.var{color:teal}.pln{color:#48484c}.prettyprint{padding:8px;margin-top:0;background-color:#f7f7f9;border:1px solid #e1e1e8;font-size:13px;max-height:800px;-webkit-transform:-webkit-translateZ(0);transform:translateZ(0)}#s,.btn-clipboard,.tooltip{font-size:12px}.prettyprint.linenums{-webkit-box-shadow:inset 40px 0 0 #fbfbfc,inset 41px 0 0 #ececf0;-moz-box-shadow:inset 40px 0 0 #fbfbfc,inset 41px 0 0 #ececf0;box-shadow:inset 40px 0 0 #fbfbfc,inset 41px 0 0 #ececf0}ol.linenums{margin:0 0 0 33px;padding-left:0}ol.linenums li{padding-left:12px;color:#bebec5;line-height:25px;text-shadow:0 1px 0 #fff;word-break:break-word}.zero-clipboard{position:relative;display:block}.btn-clipboard{position:absolute;top:0;right:0;z-index:10;display:block;padding:5px 8px;color:#767676;cursor:pointer;background-color:rgba(255,255,255,.5);border:1px solid #e1e1e8;border-radius:0 4px;line-height:1.42em}.global-zeroclipboard-container:after,.tooltip-arrow{width:0;height:0;border-style:solid;position:absolute}.btn-clipboard-hover{color:#fff;background-color:rgba(86,61,124,.85);border-color:#563d7c}.global-zeroclipboard-container:before{content:attr(title);color:#fff;display:block;text-align:center;position:absolute;top:-35px;left:50%;white-space:nowrap;-webkit-transform:translateX(-50%);-moz-transform:translateX(-50%);-ms-transform:translateX(-50%);-o-transform:translateX(-50%);transform:translateX(-50%);-webkit-border-radius:3px;-moz-border-radius:3px;border-radius:3px;padding:6px 10px;background-color:rgba(18,18,18,.75)}.global-zeroclipboard-container:after{content:'';-webkit-transform:translateX(-50%);-moz-transform:translateX(-50%);-ms-transform:translateX(-50%);-o-transform:translateX(-50%);transform:translateX(-50%);top:-6px;left:50%;border-width:6px;border-color:rgba(18,18,18,.75) transparent transparent}.tooltip.top .tooltip-arrow,.tooltip.top-left .tooltip-arrow,.tooltip.top-right .tooltip-arrow{border-width:5px 5px 0;border-top-color:#000;bottom:0}.tooltip{position:absolute;z-index:1070;display:block;visibility:visible;font-family:"Helvetica Neue",Helvetica,Arial,sans-serif;font-weight:400;line-height:1.4;filter:alpha(opacity=0)}#logo span,.header-menu{display:none}.a_t time,table.table .fontweight,table.table th{font-weight:700}.tooltip.in{opacity:.9;filter:alpha(opacity=90)}.tooltip.top{margin-top:-3px;padding:5px 0}.tooltip.right{margin-left:3px;padding:0 5px}.tooltip.bottom{margin-top:3px;padding:5px 0}.tooltip.left{margin-left:-3px;padding:0 5px}.tooltip-inner{max-width:200px;padding:3px 8px;color:#fff;text-align:center;text-decoration:none;background-color:#000;border-radius:4px}.tooltip-arrow{border-color:transparent}.tooltip.top .tooltip-arrow{left:50%;margin-left:-5px}.tooltip.top-left .tooltip-arrow{right:5px;margin-bottom:-5px}.tooltip.top-right .tooltip-arrow{left:5px;margin-bottom:-5px}.tooltip.right .tooltip-arrow{top:50%;left:0;margin-top:-5px;border-width:5px 5px 5px 0;border-right-color:#000}.tooltip.left .tooltip-arrow{top:50%;right:0;margin-top:-5px;border-width:5px 0 5px 5px;border-left-color:#000}.tooltip.bottom .tooltip-arrow,.tooltip.bottom-left .tooltip-arrow,.tooltip.bottom-right .tooltip-arrow{border-width:0 5px 5px;border-bottom-color:#000;top:0}.tooltip.bottom .tooltip-arrow{left:50%;margin-left:-5px}.tooltip.bottom-left .tooltip-arrow{right:5px;margin-top:-5px}.tooltip.bottom-right .tooltip-arrow{left:5px;margin-top:-5px}html{-ms-text-size-adjust:100%;-webkit-text-size-adjust:100%;height:100%;min-height:100%}::-webkit-scrollbar{width:8px;height:8px;background-color:rgba(92,131,239,.77);-webkit-border-radius:4px;-moz-border-radius:4px;border-radius:4px}::-webkit-scrollbar-thumb{background-color:rgba(235,87,86,.73);-webkit-border-radius:4px;-moz-border-radius:4px;border-radius:4px}#hd{width:100%;padding-top:35px;height:auto;background-color:#F2F2F2;-webkit-box-shadow:0 5px 5px #CCC;-moz-box-shadow:0 5px 5px #CCC;box-shadow:0 5px 5px #CCC;margin-bottom:15px}#hd_info{position:fixed;top:0;left:0;width:100%;overflow:hidden;background-color:rgba(160,179,214,.8);z-index:9999999}#hd_con,#hd_info_con{width:85%;min-width:320px;margin:0 auto}#hd_info_con div.fl{width:33.3%;line-height:30px;text-align:center}#hd_pg,#inner_main,#inner_main_con{width:100%}#hd_pg{min-width:1px;height:5px;background-color:#08c}#hd_history ul{margin:0;padding:0;position:absolute}#logo{line-height:0;margin:0}#myshare,.widget_list{list-style:none;margin:0;padding:0}#myshare:after,#myshare:before,.widget_list:after,.widget_list:before{content:'';line-height:0;display:table}#myshare{padding-top:20px;padding-bottom:20px;line-height:25px}#myshare a{padding:0 8px}.widget_list li.category-level-0{float:left;position:relative;overflow:hidden}.widget_list li.category-level-0>a{padding:0 1em;display:inline-block;line-height:35px}.widget_list li.category-level-0.category-active>a{border:1px solid #ccc;border-bottom:none;border-top-left-radius:4px;border-top-right-radius:4px;background-color:#fff}.widget_list .widget_list{position:absolute;top:35px;left:0;right:0;background:rgba(252,252,252,.82);line-height:28px;border:1px solid #ccc;border-top:none;border-bottom-left-radius:4px;border-bottom-right-radius:4px;text-align:center}#main{padding-left:12px;padding-right:12px}#main.opened #main_con_left,#main.opened #main_con_right{display:none}#main.opened #inner_main_c{padding-left:20px}#main.opened #main_con_center{padding-right:20px}#main_con_left{width:205px;margin-right:-205px}#inner_main_c{padding-left:220px}#main_con_right{width:330px;margin-left:-330px}.a_t h2,.about_site h3{margin:0}#main_con_center{padding-right:345px;overflow:hidden}#cur_pos{line-height:40px;font-size:14px}.about_site{border:1px solid #ca9;padding:15px}.post_archive{padding-bottom:10px}.a_t{padding-top:15px;padding-bottom:8px;line-height:1.8em;border-bottom:1px dashed #e74c3c}.a_t h2{padding:3px 0;font-size:18px}.a_t h2 a{color:#e74c3c}.a_t h2 a:hover{color:#428bd1}.a_t time{display:block;width:60px;height:40px;line-height:20px;padding:8px 0;margin-right:16px;margin-top:2px;text-align:center;background-color:#08c;color:#fff;float:left}.tags{color:#464646}.tags span{padding-right:15px}.tags i[class*=icon-]{color:#e74c3c}main.article{position:relative;line-height:1.8em}main.article .more{float:right;margin:0;padding:0 4px;right:10px;opacity:.6;text-align:right;background-color:#ccc}img[data-src]{padding:8px;border-radius:4px;border:2px solid #ccc;min-height:100px;background-image:url(data:image/svg+xml;base64,PD94bWwgdmVyc2lvbj0iMS4wIiBlbmNvZGluZz0idXRmLTgiPz4KPHN2ZyB3aWR0aD0nMTIwcHgnIGhlaWdodD0nMTIwcHgnIHhtbG5zPSJodHRwOi8vd3d3LnczLm9yZy8yMDAwL3N2ZyIgdmlld0JveD0iMCAwIDEwMCAxMDAiIHByZXNlcnZlQXNwZWN0UmF0aW89InhNaWRZTWlkIiBjbGFzcz0idWlsLWhvdXJnbGFzcyI+CiAgPHJlY3QgeD0iMCIgeT0iMCIgd2lkdGg9IjEwMCIgaGVpZ2h0PSIxMDAiIGZpbGw9Im5vbmUiIGNsYXNzPSJiayI+PC9yZWN0PgogIDxnPgogICAgPHBhdGggZmlsbD0ibm9uZSIgc3Ryb2tlPSIjMDA3MjgyIiBzdHJva2Utd2lkdGg9IjUiIHN0cm9rZS1taXRlcmxpbWl0PSIxMCIgZD0iTTU4LjQsNTEuN2MtMC45LTAuOS0xLjQtMi0xLjQtMi4zczAuNS0wLjQsMS40LTEuNCBDNzAuOCw0My44LDc5LjgsMzAuNSw4MCwxNS41SDcwSDMwSDIwYzAuMiwxNSw5LjIsMjguMSwyMS42LDMyLjNjMC45LDAuOSwxLjQsMS4yLDEuNCwxLjVzLTAuNSwxLjYtMS40LDIuNSBDMjkuMiw1Ni4xLDIwLjIsNjkuNSwyMCw4NS41aDEwaDQwaDEwQzc5LjgsNjkuNSw3MC44LDU1LjksNTguNCw1MS43eiIgY2xhc3M9ImdsYXNzIj48L3BhdGg+CiAgICA8Y2xpcFBhdGggaWQ9InVpbC1ob3VyZ2xhc3MtY2xpcDEiPgogICAgICA8cmVjdCB4PSIxNSIgeT0iMjAiIHdpZHRoPSI3MCIgaGVpZ2h0PSIyNSIgY2xhc3M9ImNsaXAiPgogICAgICAgIDxhbmltYXRlIGF0dHJpYnV0ZU5hbWU9ImhlaWdodCIgZnJvbT0iMjUiIHRvPSIwIiBkdXI9IjFzIiByZXBlYXRDb3VudD0iaW5kZWZpbml0ZSIgdmxhdWVzPSIyNTswOzAiIGtleVRpbWVzPSIwOzAuNTsxIj48L2FuaW1hdGU+CiAgICAgICAgPGFuaW1hdGUgYXR0cmlidXRlTmFtZT0ieSIgZnJvbT0iMjAiIHRvPSI0NSIgZHVyPSIxcyIgcmVwZWF0Q291bnQ9ImluZGVmaW5pdGUiIHZsYXVlcz0iMjA7NDU7NDUiIGtleVRpbWVzPSIwOzAuNTsxIj48L2FuaW1hdGU+CiAgICAgIDwvcmVjdD4KICAgIDwvY2xpcFBhdGg+CiAgICA8Y2xpcFBhdGggaWQ9InVpbC1ob3VyZ2xhc3MtY2xpcDIiPgogICAgICA8cmVjdCB4PSIxNSIgeT0iNTUiIHdpZHRoPSI3MCIgaGVpZ2h0PSIyNSIgY2xhc3M9ImNsaXAiPgogICAgICAgIDxhbmltYXRlIGF0dHJpYnV0ZU5hbWU9ImhlaWdodCIgZnJvbT0iMCIgdG89IjI1IiBkdXI9IjFzIiByZXBlYXRDb3VudD0iaW5kZWZpbml0ZSIgdmxhdWVzPSIwOzI1OzI1IiBrZXlUaW1lcz0iMDswLjU7MSI+PC9hbmltYXRlPgogICAgICAgIDxhbmltYXRlIGF0dHJpYnV0ZU5hbWU9InkiIGZyb209IjgwIiB0bz0iNTUiIGR1cj0iMXMiIHJlcGVhdENvdW50PSJpbmRlZmluaXRlIiB2bGF1ZXM9IjgwOzU1OzU1IiBrZXlUaW1lcz0iMDswLjU7MSI+PC9hbmltYXRlPgogICAgICA8L3JlY3Q+CiAgICA8L2NsaXBQYXRoPgogICAgPHBhdGggZD0iTTI5LDIzYzMuMSwxMS40LDExLjMsMTkuNSwyMSwxOS41UzY3LjksMzQuNCw3MSwyM0gyOXoiIGNsaXAtcGF0aD0idXJsKCN1aWwtaG91cmdsYXNzLWNsaXAxKSIgZmlsbD0iI2ZmYWIwMCIgY2xhc3M9InNhbmQiPjwvcGF0aD4KICAgIDxwYXRoIGQ9Ik03MS42LDc4Yy0zLTExLjYtMTEuNS0yMC0yMS41LTIwcy0xOC41LDguNC0yMS41LDIwSDcxLjZ6IiBjbGlwLXBhdGg9InVybCgjdWlsLWhvdXJnbGFzcy1jbGlwMikiIGZpbGw9IiNmZmFiMDAiIGNsYXNzPSJzYW5kIj48L3BhdGg+CiAgICA8YW5pbWF0ZVRyYW5zZm9ybSBhdHRyaWJ1dGVOYW1lPSJ0cmFuc2Zvcm0iIHR5cGU9InJvdGF0ZSIgZnJvbT0iMCA1MCA1MCIgdG89IjE4MCA1MCA1MCIgcmVwZWF0Q291bnQ9ImluZGVmaW5pdGUiIGR1cj0iMXMiIHZhbHVlcz0iMCA1MCA1MDswIDUwIDUwOzE4MCA1MCA1MCIga2V5VGltZXM9IjA7MC43OzEiPjwvYW5pbWF0ZVRyYW5zZm9ybT4KICA8L2c+Cjwvc3ZnPg==);background-position:center center;background-repeat:no-repeat;-webkit-box-sizing:border-box;-moz-box-sizing:border-box;box-sizing:border-box}img[data-src].loaded{background:0 0;max-width:100%;height:auto;opacity:1;animation-name:fadeIn;-webkit-animation-delay:0s;animation-delay:0s;-webkit-animation-duration:.3s;animation-duration:.3s;-webkit-animation-timing-function:ease-in;animation-timing-function:ease-in}.entry_meta_footer{padding-bottom:10px}.pagination{margin:20px 0}.pagination ul{display:inline-block;margin-bottom:0;margin-left:0;-webkit-border-radius:4px;-moz-border-radius:4px;border-radius:4px;-webkit-box-shadow:0 1px 2px rgba(0,0,0,.05);-moz-box-shadow:0 1px 2px rgba(0,0,0,.05);box-shadow:0 1px 2px rgba(0,0,0,.05);padding-left:0;list-style:none}.pagination ul>li{display:inline}.pagination ul>li:first-child>a,.pagination ul>li:first-child>span{border-left-width:1px;-webkit-border-bottom-left-radius:4px;border-bottom-left-radius:4px;-webkit-border-top-left-radius:4px;border-top-left-radius:4px;-moz-border-radius-bottomleft:4px;-moz-border-radius-topleft:4px}.pagination ul>li>a,.pagination ul>li>span{float:left;padding:4px 12px;line-height:20px;text-decoration:none;background-color:#fff;border:1px solid #ddd;border-left-width:0}.pagination ul>.current>a,.pagination ul>.current>span{color:#999;cursor:default}#close_nav,.editor_tools span,.open-or-close,.opened .open-or-close{cursor:pointer}.pagination ul>li:last-child>a,.pagination ul>li:last-child>span{-webkit-border-top-right-radius:4px;border-top-right-radius:4px;-webkit-border-bottom-right-radius:4px;border-bottom-right-radius:4px;-moz-border-radius-topright:4px;-moz-border-radius-bottomright:4px}.pagination-centered{text-align:center}.side_box{margin-bottom:15px}.side_box h4{line-height:28px;margin:0}.ad,.side_left{margin-bottom:15px}.side_box.closed #left-tag{max-height:28px}.ad h4{display:none}.side_left{padding:2px 3px;width:197px;max-height:520px;overflow:hidden;border:1px solid #ccc}.side_left h4{line-height:28px;margin:0;background-color:#ccc;text-indent:.2em}.side_left.closed #left-tag{max-height:28px}.side_left:hover{border-color:#ccc}#tag_cloud_con a span,#tag_cloud_con a:hover{border:1px solid #f66}.side_left:hover h4{background-color:#ccc;color:#fff}.side_left.ng-hide-add-active,.side_left.ng-hide-remove{max-height:0}#qrcode{min-height:205px}#tag_cloud_con a{height:26px;line-height:24px;padding:0 9px 0 8px;margin:2px 3px;font-size:12px;color:#555;display:inline-block;text-decoration:none;text-shadow:0 1px #fff;background:#fafafa;border-width:1px 0 1px 1px;border-style:solid;border-color:#dadada;position:relative}#tag_cloud_con a:hover span{padding:0 7px 0 6px;max-width:40px}#tag_cloud_con a span{display:block;background-color:#f66;position:absolute;height:26px;line-height:24px;top:-1px;left:100%;z-index:2;overflow:hidden;max-width:0;padding:0 0 0 2px;color:#fff;text-shadow:0 -1px rgba(0,0,0,.3);opacity:.95;-webkit-transition:.3s ease-out;-moz-transition:.3s ease-out;-o-transition:.3s ease-out;transition:.3s ease-out;-webkit-transition-property:padding,max-width;-moz-transition-property:padding,max-width;-o-transition-property:padding,max-width;transition-property:padding,max-width}.img_wrapper img,table.table{max-width:100%}#copyright{width:100%;min-height:80px;background:#A0B3D6;border-bottom:5px solid #06C;border-top:1px solid #34538B}#ajax_load dt a.current,.list-archive h4.head{color:#fff;background-color:#51aded}#cp-left,#cp-right{width:45%;line-height:30px}#cp-left{padding-left:5%;text-align:left}#cp-right{padding-right:5%;text-align:right}.search{height:40px;line-height:40px}.search .btn{margin-bottom:2px;margin-top:2px;vertical-align:0}#s{margin-bottom:0;margin-top:2px;width:230px}.list-archive{margin-bottom:10px;padding:5px}.list-archive h4.head{margin:0;padding:0;font-size:16px;line-height:1.8em;width:80px;text-align:center;font-weight:700}.list-archive .list-content{margin-top:0;padding-top:6px;border-top:4px solid #51aded}#me{float:left;margin-right:10px}#me-info{line-height:1.5em}#me-info p{margin-top:0}#ajax_load{margin:0}#ajax_load dt{height:28px;line-height:28px}#ajax_load dt a{display:block;float:left;padding:0 10px;line-height:27px;height:28px}#ajax_load dd{margin-left:0;min-height:304px}#ajax_load dd ul{list-style:none;margin:0;padding:7px 2px;line-height:2em}#ajax_load dd li{list-style:none;white-space:nowrap;padding-left:10px;overflow:hidden;text-overflow:ellipsis}.list-archive-left,.list-archive-right{width:50%}.list-archive-left h4,.list-archive-right h4{line-height:28px;text-align:center}.list-archive-left ul,.list-archive-right ul{margin:0;padding:0;list-style:none}table.table,table.table1{width:90%;margin:5px auto 15px;text-align:center}.list-archive-left li,.list-archive-right li{line-height:1.7em}.post{line-height:1.8em}.post .title{line-height:1.5em}.post>p{text-indent:2em}.post .clearfix,.post .reprint{text-indent:0}.post *{word-break:break-all;word-wrap:break-word}.open-or-close i.icon-resize-small{display:none}.opened .open-or-close i.icon-resize-small{display:inline-block}.opened .open-or-close i.icon-resize-full-alt{display:none}.reprint{border:2px dashed #ccc;padding:6px 8px}table.table{table-layout:fixed;border-right:none;border-left:none;background:#F1F6F6}table.table td,table.table th{border:1px solid #706DFF;padding:.5em}table.table th{background:#D7D8FF;line-height:20px}table.table td{line-height:18px;word-break:break-all}table.table .hover{background:#D1D3EA}table.table1{background:#EEDCB7;border-collapse:separate}table.table1 td,table.table1 th{border-color:#FEF9C0}table.table1 td.support{background:#AEE4B3}table.table1 td.n-support{background:#FF8E93}table.table1 tr.hover{background:#EEE2D2}table.table1 tr.hover .support{background:#76E480}table.table1 tr.hover .n-support{background:#FF6B6B}.post code{padding:2px 4px;color:#d14;background-color:#f7f7f9;border:1px solid #e1e1e8;border-radius:2px}.download-tip{line-height:40px;text-align:center;margin:10px;background:#D7D8FF;border:1px solid #8E88CC;border-radius:5px}.download-tip a{margin:0 5%}.input-append,.input-prepend{display:inline-block;margin-bottom:10px;font-size:0;white-space:nowrap;vertical-align:middle}.input-append .add-on,.input-prepend .add-on{display:inline-block;width:auto;height:20px;min-width:16px;padding:4px 5px;font-size:14px;font-weight:400;line-height:20px;text-align:center;text-shadow:0 1px 0 #fff;background-color:#eee;border:1px solid #ccc}.input-prepend .add-on:first-child,.input-prepend .btn:first-child{-webkit-border-radius:4px 0 0 4px;-moz-border-radius:4px 0 0 4px;border-radius:4px 0 0 4px}.input-prepend .add-on,.input-prepend .btn{margin-right:-1px}.necessary{background:url(usr/themes/readme/img/comment-input-bg.gif) right 2px no-repeat}.necessary.red{background-position:right -31px}.textarea-wrap{position:relative}.textarea-wrap textarea{width:100%;min-height:80px;box-sizing:border-box;resize:vertical}.textarea-wrap .is-necessary{position:absolute;display:block;width:30px;height:30px;top:0;right:0}.submit-wrap{text-align:right;margin:0}#article_navi_con{margin:0;padding:0}#article_navi h4{position:relative}#close_nav{position:absolute;top:0;right:0;-webkit-transform:rotate(0);transform:rotate(0);transform-origin:center center;transition:all .5s ease-in}#close_nav:hover{-webkit-transform:rotate(360deg);transform:rotate(360deg)}.toc-nav{list-style-type:none;margin:0;padding:2px 0 2px 10px}.toc-nav li{line-height:1.5em;white-space:nowrap;text-overflow:ellipsis;overflow:hidden;padding:2px 4px}.toc-nav ul{padding-left:10px;margin-left:0}.toc-h2{font-weight:700}.toc-depth-1,.toc-depth-2{list-style:none;padding-left:1em;background-color:#fff;font-weight:400}.toc-active>a{color:#6388cc}.toc-h3{font-size:.9em}.comment-level-0 .comment-list{list-style-type:none;padding-left:0}.comment-body,.comment-body .respond{padding:8px;border:1px solid #ccc}.comment-body{margin-bottom:8px}.comment-author{line-height:1.8em}.comment-author span{float:right;width:40px;height:40px}.comment-author img{border-radius:50%;cursor:pointer;transition:all .3s ease}.comment-author img:hover{-webkit-transform:rotate(360deg);-moz-transform:rotate(360deg);-ms-transform:rotate(360deg);-o-transform:rotate(360deg);transform:rotate(360deg)}.comment-reply{text-align:right;padding-bottom:8px}.deck,.error-page-left,.img_container,.piston .block{text-align:center}.comment-reply .reply{padding:0 1em}.comment-level-1,.comment-level-3,.comment-level-5{background-color:#f7f7f8}.comment-level-0,.comment-level-2,.comment-level-4{background-color:#fff}.fn a{font-style:normal}@media screen and (max-width:1100px){#main_con_left{display:none}#inner_main_c{padding-left:0}}@media screen and (max-width:750px){#main_con_right,#myshare,.sub .open-or-close{display:none}#main_con_center{padding-right:0}}@-webkit-keyframes piston{0%,100%{margin-top:0}50%{margin-top:50px}}@keyframes piston{0%,100%{margin-top:0}50%{margin-top:50px}}@-webkit-keyframes arm{0%,100%,50%{-webkit-transform:rotate(0)}25%{-webkit-transform:rotate(-20deg)}75%{-webkit-transform:rotate(20deg)}}@keyframes arm{0%,100%,50%{transform:rotate(0)}25%{transform:rotate(-20deg)}75%{transform:rotate(20deg)}}#loading,#loading-layer{position:fixed;top:50%;left:50%;width:270px;height:148px;margin-top:-74px;margin-left:-135px;font-family:Oswald,sans-serif;font-size:30px;font-weight:700;color:#fff;text-shadow:0 -1px 1px rgba(0,0,0,.7),0 1px 1px rgba(255,255,255,.4);z-index:999999999}#loading-layer{width:100%;height:100%;left:0;top:0;bottom:0;right:0;margin:0;background:-webkit-gradient(linear,left top,left bottom,from(#d8f8ff),to(#d8f8ff),color-stop(.5,#8fadff)) #9b9fff;background:-moz-linear-gradient(to bottom,#d8f8ff,#8fadff,#d8f8ff) #9b9fff;background:-ms-linear-gradient(to bottom,#d8f8ff,#8fadff,#d8f8ff) #9b9fff;background:linear-gradient(to bottom,#d8f8ff,#8fadff,#d8f8ff) #9b9fff}.piston{float:left;margin-right:10px;width:60px;height:150px;background:rgba(0,0,0,.1);border-radius:10px 10px 50px 50px;box-shadow:0 -4px 0 rgba(0,0,0,.2),0 4px 0 rgba(255,255,255,.2)}.piston:last-child{margin:0}.piston .block{position:relative;width:60px;height:36px;line-height:36px;background:#476dd2;border-radius:3px;-webkit-animation:piston 1.2s cubic-bezier(.5,0,.5,1) infinite;animation:piston 1.2s cubic-bezier(.5,0,.5,1) infinite;-webkit-transform:translate3d(0,0,0);-moz-transform:translate3d(0,0,0);-ms-transform:translate3d(0,0,0);-o-transform:translate3d(0,0,0);transform:translate3d(0,0,0);box-shadow:inset 0 -4px 0 rgba(0,0,0,.2),inset 0 4px 0 rgba(255,255,255,.2)}.piston:nth-child(1) .block{-webkit-animation-delay:0s;animation-delay:0s}.piston:nth-child(2) .block{-webkit-animation-delay:.1s;animation-delay:.1s}.piston:nth-child(3) .block{-webkit-animation-delay:.2s;animation-delay:.2s}.piston:nth-child(4) .block{-webkit-animation-delay:.3s;animation-delay:.3s}.piston:nth-child(5) .block{-webkit-animation-delay:.4s;animation-delay:.4s}.piston .arm{position:absolute;top:50%;left:50%;margin:-5px 0 0 -5px;width:10px;height:86px;background:#476dd2;border-radius:5px;box-shadow:inset 0 -11px 0 rgba(0,0,0,.2);z-index:-1;-webkit-transform-origin:center 10px;-webkit-animation:arm 1.2s linear infinite;-webkit-animation-delay:inherit;transform-origin:center 10px;animation:arm 1.2s linear infinite;animation-delay:inherit}.piston .arm:after,.piston .arm:before{content:'';position:absolute;right:0;left:0;height:6px;background:#eee;border-radius:50%;margin:2px}.piston .arm:before{top:0}.piston .arm:after{bottom:0}.piston .rotator{position:absolute;bottom:0;width:60px;height:60px;border-radius:10px;border-radius:50%;border:10px solid rgba(0,0,0,.1);box-sizing:border-box;z-index:-1}@media screen and (max-width:500px){#hd{padding-top:10px}#hd_info_con,.widget_list{display:none}#hd_con{margin-left:8px;margin-right:8px;width:auto;position:relative}#logo img{width:220px;height:73px}.header-menu{display:block;padding:10px;font-size:24px;margin-top:8px}.widget_list_show{display:block;position:absolute;left:0;right:0;top:80px;background-color:#fff}.widget_list_show li.category-level-0{float:none}.widget_list_show li.category-level-0.category-active a{border:none}}.fri-link{line-height:1.5em;list-style:none;counter-reset:add 0;padding-left:0}.fri-link li{padding:2px 0 2px 28px;position:relative}.fri-link li:before{counter-increment:add;content:counter(add);display:block;position:absolute;left:0;top:50%;width:18px;height:18px;border-radius:50%;line-height:18px;margin-top:-9px;text-align:center;background-color:#51aded;color:#fff;transition:all .3s ease}.fri-link li:hover:before{background-color:#a3c9ff}.on-error{display:none}.editor_tools{position:relative;border:1px solid #ccc;border-radius:3px 3px 0 0;background-color:#e9e9e9;background-image:-ms-linear-gradient(bottom,#ddd,#e9e9e9);background-image:-moz-linear-gradient(bottom,#ddd,#e9e9e9);background-image:-o-linear-gradient(bottom,#ddd,#e9e9e9);background-image:-webkit-linear-gradient(bottom,#ddd,#e9e9e9);background-image:linear-gradient(bottom,#ddd,#e9e9e9)}.editor_tools a{margin:2px;line-height:20px;width:20px;height:20px;float:left;overflow:hidden;background-image:url(usr/themes/readme/img/editor.gif);background-repeat:no-repeat}.editor_tools a.et_strong{background-position:-57px -7px}.editor_tools a.et_em{background-position:-80px -7px}.editor_tools a.et_underline{background-position:-236px -7px}.editor_tools a.et_del{background-position:-103px -7px}.editor_tools a.et_ahref{background-position:-130px -7px}.editor_tools a.et_img{background-position:-157px -7px}.editor_tools a.et_code{background-position:-33px -7px}.editor_tools a.et_quote{background-position:-183px -7px}.editor_tools a.et_private{background-position:-8px -7px}.editor_tools a.et_smilies{background-position:-211px -8px}.editor_tools span{margin:4px 0 4px 8px;color:#464646;border:1px solid #c3c3c3;-webkit-border-radius:3px;border-radius:3px;background-color:#eee;background-image:-ms-linear-gradient(bottom,#e3e3e3,#fff);background-image:-moz-linear-gradient(bottom,#e3e3e3,#fff);background-image:-o-linear-gradient(bottom,#e3e3e3,#fff);background-image:-webkit-linear-gradient(bottom,#e3e3e3,#fff);background-image:linear-gradient(bottom,#e3e3e3,#fff);float:left;overflow:hidden}.editor_tools span:hover{border-color:#aaa;background:#ddd}.editor_tools span[class^=et_] a{text-indent:-2000px}.editor_tools span.splitter{padding-right:5px;margin-right:15px;border-right:1px solid #c3d8eb}.wp_smilies a{margin-left:4px;margin-top:4px}.smilies-container{position:absolute;background-color:#FFF;border-color:rgba(0,0,0,.2);border-style:solid;border-width:1px;box-shadow:0 5px 10px rgba(0,0,0,.2);z-index:99;cursor:default!important;-moz-border-radius:3px;border-radius:3px;left:346px;top:-29px;width:0;max-height:0;overflow:hidden;-webkit-transition:all .3s ease;-moz-transition:all .3s ease;-ms-transition:all .3s ease;-o-transition:all .3s ease;transition:all .3s ease}.smilies-container span{margin:5px!important;width:24px;height:24px;cursor:pointer;text-indent:0}.smilies-container a{background:0 0}.smilies-container.show{display:block;width:288px;padding:10px;max-height:250px}li.comment #comment-form-info p{float:none;padding-left:0}.content{width:100%;table-layout:fixed}.img_wrapper{display:inline-block}.error-page-content{display:-webkit-box;display:-moz-box;display:-ms-flex;display:flex}.error-page-left{width:200px;position:relative}.error-page-left span{position:absolute;top:50%;left:50%;-webkit-transform:translate(-50%,-50%);-moz-transform:translate(-50%,-50%);-ms-transform:translate(-50%,-50%);-o-transform:translate(-50%,-50%);transform:translate(-50%,-50%);font-size:34px;color:#08c}.error-page-right{-webkit-box-flex:1;-moz-box-flex:1;-ms-box-flex:1;box-flex:1}.error-list-item{list-style-type:none}.error-list-item li{position:relative}.error-list-item li:before{content:">>";font-size:10px;position:absolute;left:-20px;margin-top:1px}.error-list-item a{color:#09C}.decks{list-style-type:none;margin:0;padding:0;min-height:600px}.deck{width:14.5em;height:12em;padding:1em;margin:1.5em;font-family:'Segoe UI Light','Segoe UI','Helvetica Neue Light','Microsoft Jhenghei','Microsoft Yahei',sans-serif}.deck:nth-child(5n+1){background-color:#09c}.deck:nth-child(5n+2){background-color:#93c}.deck:nth-child(5n+3){background-color:#690}.deck:nth-child(5n+4){background-color:#f80}.deck:nth-child(5n){background-color:#c00}.deck a{color:rgba(255,255,255,.701961)}.deck a:hover{color:#fff}.deck h3{font-size:1.8em;font-weight:400}@media screen and (max-width:650px){.smilies-container{left:0;top:auto;bottom:-133px}}</style></head><body><div top-menu></div><div class="main clearfix" id="main"><div id="inner_main" class="fr"><div id="inner_main_c" class="clearfix"><div id="inner_main_con" class="fl"><div id="main_con_center"><div crumbs></div><div ui-view></div></div></div><div ng-if="needRight" id="main_con_right" class="fl" ui-view="side_right"></div></div></div><div ng-if="needLeft" id="main_con_left" class="fl" ui-view="side_left"></div></div><div footer-copyright></div><div id="loading-layer" class="fade" ng-show="loading"></div><div id="loading" class="fade" ng-show="loading"><div class="piston"><div class="rotator"></div><div class="block">l<div class="arm"></div></div></div><div class="piston"><div class="rotator"></div><div class="block">o<div class="arm"></div></div></div><div class="piston"><div class="rotator"></div><div class="block">a<div class="arm"></div></div></div><div class="piston"><div class="rotator"></div><div class="block">d<div class="arm"></div></div></div></div><div class="on-error"><p>\u5982\u679c\u4f60\u770b\u5230\u8fd9\u4e0b\u9762\u7684\u63d0\u793a\u4fe1\u606f\u53ef\u80fd\u662f\u7531\u4e8e\u7f51\u7edc\u539f\u56e0\u5bfc\u81f4\u52a0\u8f7d\u6587\u4ef6\u52a0\u8f7d\u5931\u8d25\uff0c\u4f60\u53ef\u4ee5\u5237\u65b0\u672c\u9875\u9762\uff0c\u91cd\u65b0\u8bf7\u6c42\uff0c\u5982\u679c\u591a\u6b21\u5237\u65b0\u4ecd\u7136\u65e0\u6cd5\u6b63\u5e38\u8bbf\u95ee\uff0c\u4f60\u53ef\u4ee5\u70b9\u51fb\u8bbf\u95ee\u65e7\u7248\uff0c\u6765\u8bbf\u95ee\u672c\u7ad9\u3002</p><p><a href="javascript:refresh();">\u5237\u65b0\u672c\u7ad9</a><a href="javascript:refresh()">\u8bbf\u95ee\u65e7\u7248</a></p></div></body><script>function refresh(){var e=new Date;-1===document.cookie.indexOf("visitmobile=1")?(e.setTime(e.getTime()+2592e6),document.cookie="visitmobile=1;expires="+e.toGMTString()+";path=/"):(e.setTime(e.getTime()-100),document.cookie="visitmobile=1;expires="+e.toGMTString()+";path=/")}var require={skipDataMain:!0};</script><script>var requirejs,require,define;!function(global){function isFunction(e){return"[object Function]"===ostring.call(e)}function isArray(e){return"[object Array]"===ostring.call(e)}function each(e,t){if(e){var i;for(i=0;i<e.length&&(!e[i]||!t(e[i],i,e));i+=1);}}function eachReverse(e,t){if(e){var i;for(i=e.length-1;i>-1&&(!e[i]||!t(e[i],i,e));i-=1);}}function hasProp(e,t){return hasOwn.call(e,t)}function getOwn(e,t){return hasProp(e,t)&&e[t]}function eachProp(e,t){var i;for(i in e)if(hasProp(e,i)&&t(e[i],i))break}function mixin(e,t,i,r){return t&&eachProp(t,function(t,n){(i||!hasProp(e,n))&&(!r||"object"!=typeof t||!t||isArray(t)||isFunction(t)||t instanceof RegExp?e[n]=t:(e[n]||(e[n]={}),mixin(e[n],t,i,r)))}),e}function bind(e,t){return function(){return t.apply(e,arguments)}}function scripts(){return document.getElementsByTagName("script")}function defaultOnError(e){throw e}function getGlobal(e){if(!e)return e;var t=global;return each(e.split("."),function(e){t=t[e]}),t}function makeError(e,t,i,r){var n=new Error(t+"\u005cnhttp://requirejs.org/docs/errors.html#"+e);return n.requireType=e,n.requireModules=r,i&&(n.originalError=i),n}function newContext(e){function t(e){var t,i,r=e.length;for(t=0;r>t;t++)if(i=e[t],"."===i)e.splice(t,1),t-=1;else if(".."===i){if(1===t&&(".."===e[2]||".."===e[0]))break;t>0&&(e.splice(t-1,2),t-=2)}}function i(e,i,r){var n,a,o,s,c,u,p,d,f,l,h,m=i&&i.split("/"),g=m,v=y.map,x=v&&v["*"];if(e&&"."===e.charAt(0)&&(i?(g=m.slice(0,m.length-1),e=e.split("/"),p=e.length-1,y.nodeIdCompat&&jsSuffixRegExp.test(e[p])&&(e[p]=e[p].replace(jsSuffixRegExp,"")),e=g.concat(e),t(e),e=e.join("/")):0===e.indexOf("./")&&(e=e.substring(2))),r&&v&&(m||x)){o=e.split("/");e:for(s=o.length;s>0;s-=1){if(u=o.slice(0,s).join("/"),m)for(c=m.length;c>0;c-=1)if(a=getOwn(v,m.slice(0,c).join("/")),a&&(a=getOwn(a,u))){d=a,f=s;break e}!l&&x&&getOwn(x,u)&&(l=getOwn(x,u),h=s)}!d&&l&&(d=l,f=h),d&&(o.splice(0,f,d),e=o.join("/"))}return n=getOwn(y.pkgs,e),n?n:e}function r(e){isBrowser&&each(scripts(),function(t){return t.getAttribute("data-requiremodule")===e&&t.getAttribute("data-requirecontext")===q.contextName?(t.parentNode.removeChild(t),!0):void 0})}function n(e){var t=getOwn(y.paths,e);return t&&isArray(t)&&t.length>1?(t.shift(),q.require.undef(e),q.require([e]),!0):void 0}function a(e){var t,i=e?e.indexOf("!"):-1;return i>-1&&(t=e.substring(0,i),e=e.substring(i+1,e.length)),[t,e]}function o(e,t,r,n){var o,s,c,u,p=null,d=t?t.name:null,f=e,l=!0,h="";return e||(l=!1,e="_@r"+(A+=1)),u=a(e),p=u[0],e=u[1],p&&(p=i(p,d,n),s=getOwn(j,p)),e&&(p?h=s&&s.normalize?s.normalize(e,function(e){return i(e,d,n)}):i(e,d,n):(h=i(e,d,n),u=a(h),p=u[0],h=u[1],r=!0,o=q.nameToUrl(h))),c=!p||s||r?"":"_unnormalized"+(T+=1),{prefix:p,name:h,parentMap:t,unnormalized:!!c,url:o,originalName:f,isDefine:l,id:(p?p+"!"+h:h)+c}}function s(e){var t=e.id,i=getOwn(S,t);return i||(i=S[t]=new q.Module(e)),i}function c(e,t,i){var r=e.id,n=getOwn(S,r);!hasProp(j,r)||n&&!n.defineEmitComplete?(n=s(e),n.error&&"error"===t?i(n.error):n.on(t,i)):"defined"===t&&i(j[r])}function u(e,t){var i=e.requireModules,r=!1;t?t(e):(each(i,function(t){var i=getOwn(S,t);i&&(i.error=e,i.events.error&&(r=!0,i.emit("error",e)))}),r||req.onError(e))}function p(){globalDefQueue.length&&(apsp.apply(M,[M.length,0].concat(globalDefQueue)),globalDefQueue=[])}function d(e){delete S[e],delete k[e]}function f(e,t,i){var r=e.map.id;e.error?e.emit("error",e.error):(t[r]=!0,each(e.depMaps,function(r,n){var a=r.id,o=getOwn(S,a);!o||e.depMatched[n]||i[a]||(getOwn(t,a)?(e.defineDep(n,j[a]),e.check()):f(o,t,i))}),i[r]=!0)}function l(){var e,t,i=1e3*y.waitSeconds,a=i&&q.startTime+i<(new Date).getTime(),o=[],s=[],c=!1,p=!0;if(!x){if(x=!0,eachProp(k,function(e){var i=e.map,u=i.id;if(e.enabled&&(i.isDefine||s.push(e),!e.error))if(!e.inited&&a)n(u)?(t=!0,c=!0):(o.push(u),r(u));else if(!e.inited&&e.fetched&&i.isDefine&&(c=!0,!i.prefix))return p=!1}),a&&o.length)return e=makeError("timeout","Load timeout for modules: "+o,null,o),e.contextName=q.contextName,u(e);p&&each(s,function(e){f(e,{},{})}),a&&!t||!c||!isBrowser&&!isWebWorker||w||(w=setTimeout(function(){w=0,l()},50)),x=!1}}function h(e){hasProp(j,e[0])||s(o(e[0],null,!0)).init(e[1],e[2])}function m(e,t,i,r){e.detachEvent&&!isOpera?r&&e.detachEvent(r,t):e.removeEventListener(i,t,!1)}function g(e){var t=e.currentTarget||e.srcElement;return m(t,q.onScriptLoad,"load","onreadystatechange"),m(t,q.onScriptError,"error"),{node:t,id:t&&t.getAttribute("data-requiremodule")}}function v(){var e;for(p();M.length;){if(e=M.shift(),null===e[0])return u(makeError("mismatch","Mismatched anonymous define() module: "+e[e.length-1]));h(e)}}var x,b,q,E,w,y={waitSeconds:7,baseUrl:"./",paths:{},bundles:{},pkgs:{},shim:{},config:{}},S={},k={},O={},M=[],j={},P={},R={},A=1,T=1;return E={require:function(e){return e.require?e.require:e.require=q.makeRequire(e.map)},exports:function(e){return e.usingExports=!0,e.map.isDefine?e.exports?j[e.map.id]=e.exports:e.exports=j[e.map.id]={}:void 0},module:function(e){return e.module?e.module:e.module={id:e.map.id,uri:e.map.url,config:function(){return getOwn(y.config,e.map.id)||{}},exports:e.exports||(e.exports={})}}},b=function(e){this.events=getOwn(O,e.id)||{},this.map=e,this.shim=getOwn(y.shim,e.id),this.depExports=[],this.depMaps=[],this.depMatched=[],this.pluginMaps={},this.depCount=0},b.prototype={init:function(e,t,i,r){r=r||{},this.inited||(this.factory=t,i?this.on("error",i):this.events.error&&(i=bind(this,function(e){this.emit("error",e)})),this.depMaps=e&&e.slice(0),this.errback=i,this.inited=!0,this.ignore=r.ignore,r.enabled||this.enabled?this.enable():this.check())},defineDep:function(e,t){this.depMatched[e]||(this.depMatched[e]=!0,this.depCount-=1,this.depExports[e]=t)},fetch:function(){if(!this.fetched){this.fetched=!0,q.startTime=(new Date).getTime();var e=this.map;return this.shim?(q.makeRequire(this.map,{enableBuildCallback:!0})(this.shim.deps||[],bind(this,function(){return e.prefix?this.callPlugin():this.load()})),void 0):e.prefix?this.callPlugin():this.load()}},load:function(){var e=this.map.url;P[e]||(P[e]=!0,q.load(this.map.id,e))},check:function(){if(this.enabled&&!this.enabling){var e,t,i=this.map.id,r=this.depExports,n=this.exports,a=this.factory;if(this.inited){if(this.error)this.emit("error",this.error);else if(!this.defining){if(this.defining=!0,this.depCount<1&&!this.defined){if(isFunction(a)){if(this.events.error&&this.map.isDefine||req.onError!==defaultOnError)try{n=q.execCb(i,a,r,n)}catch(o){e=o}else n=q.execCb(i,a,r,n);if(this.map.isDefine&&void 0===n&&(t=this.module,t?n=t.exports:this.usingExports&&(n=this.exports)),e)return e.requireMap=this.map,e.requireModules=this.map.isDefine?[this.map.id]:null,e.requireType=this.map.isDefine?"define":"require",u(this.error=e)}else n=a;this.exports=n,this.map.isDefine&&!this.ignore&&(j[i]=n,req.onResourceLoad&&req.onResourceLoad(q,this.map,this.depMaps)),d(i),this.defined=!0}this.defining=!1,this.defined&&!this.defineEmitted&&(this.defineEmitted=!0,this.emit("defined",this.exports),this.defineEmitComplete=!0)}}else this.fetch()}},callPlugin:function(){var e=this.map,t=e.id,r=o(e.prefix);this.depMaps.push(r),c(r,"defined",bind(this,function(r){var n,a,p,f=getOwn(R,this.map.id),l=this.map.name,h=this.map.parentMap?this.map.parentMap.name:null,m=q.makeRequire(e.parentMap,{enableBuildCallback:!0});return this.map.unnormalized?(r.normalize&&(l=r.normalize(l,function(e){return i(e,h,!0)})||""),a=o(e.prefix+"!"+l,this.map.parentMap),c(a,"defined",bind(this,function(e){this.init([],function(){return e},null,{enabled:!0,ignore:!0})})),p=getOwn(S,a.id),p&&(this.depMaps.push(a),this.events.error&&p.on("error",bind(this,function(e){this.emit("error",e)})),p.enable()),void 0):f?(this.map.url=q.nameToUrl(f),this.load(),void 0):(n=bind(this,function(e){this.init([],function(){return e},null,{enabled:!0})}),n.error=bind(this,function(e){this.inited=!0,this.error=e,e.requireModules=[t],eachProp(S,function(e){0===e.map.id.indexOf(t+"_unnormalized")&&d(e.map.id)}),u(e)}),n.fromText=bind(this,function(i,r){var a=e.name,c=o(a),p=useInteractive;r&&(i=r),p&&(useInteractive=!1),s(c),hasProp(y.config,t)&&(y.config[a]=y.config[t]);try{req.exec(i)}catch(d){return u(makeError("fromtexteval","fromText eval for "+t+" failed: "+d,d,[t]))}p&&(useInteractive=!0),this.depMaps.push(c),q.completeLoad(a),m([a],n)}),r.load(e.name,m,n,y),void 0)})),q.enable(r,this),this.pluginMaps[r.id]=r},enable:function(){k[this.map.id]=this,this.enabled=!0,this.enabling=!0,each(this.depMaps,bind(this,function(e,t){var i,r,n;if("string"==typeof e){if(e=o(e,this.map.isDefine?this.map:this.map.parentMap,!1,!this.skipMap),this.depMaps[t]=e,n=getOwn(E,e.id))return this.depExports[t]=n(this),void 0;this.depCount+=1,c(e,"defined",bind(this,function(e){this.defineDep(t,e),this.check()})),this.errback&&c(e,"error",bind(this,this.errback))}i=e.id,r=S[i],hasProp(E,i)||!r||r.enabled||q.enable(e,this)})),eachProp(this.pluginMaps,bind(this,function(e){var t=getOwn(S,e.id);t&&!t.enabled&&q.enable(e,this)})),this.enabling=!1,this.check()},on:function(e,t){var i=this.events[e];i||(i=this.events[e]=[]),i.push(t)},emit:function(e,t){each(this.events[e],function(e){e(t)}),"error"===e&&delete this.events[e]}},q={config:y,contextName:e,registry:S,defined:j,urlFetched:P,defQueue:M,Module:b,makeModuleMap:o,nextTick:req.nextTick,onError:u,configure:function(e){e.baseUrl&&"/"!==e.baseUrl.charAt(e.baseUrl.length-1)&&(e.baseUrl+="/");var t=y.shim,i={paths:!0,bundles:!0,config:!0,map:!0};eachProp(e,function(e,t){i[t]?(y[t]||(y[t]={}),mixin(y[t],e,!0,!0)):y[t]=e}),e.bundles&&eachProp(e.bundles,function(e,t){each(e,function(e){e!==t&&(R[e]=t)})}),e.shim&&(eachProp(e.shim,function(e,i){isArray(e)&&(e={deps:e}),!e.exports&&!e.init||e.exportsFn||(e.exportsFn=q.makeShimExports(e)),t[i]=e}),y.shim=t),e.packages&&each(e.packages,function(e){var t,i;e="string"==typeof e?{name:e}:e,i=e.name,t=e.location,t&&(y.paths[i]=e.location),y.pkgs[i]=e.name+"/"+(e.main||"main").replace(currDirRegExp,"").replace(jsSuffixRegExp,"")}),eachProp(S,function(e,t){e.inited||e.map.unnormalized||(e.map=o(t))}),(e.deps||e.callback)&&q.require(e.deps||[],e.callback)},makeShimExports:function(e){function t(){var t;return e.init&&(t=e.init.apply(global,arguments)),t||e.exports&&getGlobal(e.exports)}return t},makeRequire:function(t,n){function a(i,r,c){var p,d,f;return n.enableBuildCallback&&r&&isFunction(r)&&(r.__requireJsBuild=!0),"string"==typeof i?isFunction(r)?u(makeError("requireargs","Invalid require call"),c):t&&hasProp(E,i)?E[i](S[t.id]):req.get?req.get(q,i,t,a):(d=o(i,t,!1,!0),p=d.id,hasProp(j,p)?j[p]:u(makeError("notloaded",'Module name "'+p+'" has not been loaded yet for context: '+e+(t?"":". Use require([])")))):(v(),q.nextTick(function(){v(),f=s(o(null,t)),f.skipMap=n.skipMap,f.init(i,r,c,{enabled:!0}),l()}),a)}return n=n||{},mixin(a,{isBrowser:isBrowser,toUrl:function(e){var r,n=e.lastIndexOf("."),a=e.split("/")[0],o="."===a||".."===a;return-1!==n&&(!o||n>1)&&(r=e.substring(n,e.length),e=e.substring(0,n)),q.nameToUrl(i(e,t&&t.id,!0),r,!0)},defined:function(e){return hasProp(j,o(e,t,!1,!0).id)},specified:function(e){return e=o(e,t,!1,!0).id,hasProp(j,e)||hasProp(S,e)}}),t||(a.undef=function(e){p();var i=o(e,t,!0),n=getOwn(S,e);r(e),delete j[e],delete P[i.url],delete O[e],eachReverse(M,function(t,i){t[0]===e&&M.splice(i,1)}),n&&(n.events.defined&&(O[e]=n.events),d(e))}),a},enable:function(e){var t=getOwn(S,e.id);t&&s(e).enable()},completeLoad:function(e){var t,i,r,a=getOwn(y.shim,e)||{},o=a.exports;for(p();M.length;){if(i=M.shift(),null===i[0]){if(i[0]=e,t)break;t=!0}else i[0]===e&&(t=!0);h(i)}if(r=getOwn(S,e),!t&&!hasProp(j,e)&&r&&!r.inited){if(!(!y.enforceDefine||o&&getGlobal(o)))return n(e)?void 0:u(makeError("nodefine","No define call for "+e,null,[e]));h([e,a.deps||[],a.exportsFn])}l()},nameToUrl:function(e,t,i){var r,n,a,o,s,c,u,p=getOwn(y.pkgs,e);if(p&&(e=p),u=getOwn(R,e))return q.nameToUrl(u,t,i);if(req.jsExtRegExp.test(e))s=e+(t||"");else{for(r=y.paths,n=e.split("/"),a=n.length;a>0;a-=1)if(o=n.slice(0,a).join("/"),c=getOwn(r,o)){isArray(c)&&(c=c[0]),n.splice(0,a,c);break}s=n.join("/"),s+=t||(/^data\u005c:|\u005c?/.test(s)||i?"":".js"),s=("/"===s.charAt(0)||s.match(/^[\u005cw\u005c+\u005c.\u005c-]+:/)?"":y.baseUrl)+s}return y.urlArgs?s+((-1===s.indexOf("?")?"?":"&")+y.urlArgs):s},load:function(e,t){req.load(q,e,t)},execCb:function(e,t,i,r){return t.apply(r,i)},onScriptLoad:function(e){if("load"===e.type||readyRegExp.test((e.currentTarget||e.srcElement).readyState)){interactiveScript=null;var t=g(e);q.completeLoad(t.id)}},onScriptError:function(e){var t=g(e);return n(t.id)?void 0:u(makeError("scripterror","Script error for: "+t.id,e,[t.id]))}},q.require=q.makeRequire(),q}function getInteractiveScript(){return interactiveScript&&"interactive"===interactiveScript.readyState?interactiveScript:(eachReverse(scripts(),function(e){return"interactive"===e.readyState?interactiveScript=e:void 0}),interactiveScript)}var req,s,head,baseElement,dataMain,src,interactiveScript,currentlyAddingScript,mainScript,subPath,version="2.1.11",commentRegExp=/(\u005c/\u005c*([\u005cs\u005cS]*?)\u005c*\u005c/|([^:]|^)\u005c/\u005c/(.*)$)/gm,cjsRequireRegExp=/[^.]\u005cs*require\u005cs*\u005c(\u005cs*["']([^'"\u005cs]+)["']\u005cs*\u005c)/g,jsSuffixRegExp=/\u005c.js$/,currDirRegExp=/^\u005c.\u005c//,op=Object.prototype,ostring=op.toString,hasOwn=op.hasOwnProperty,ap=Array.prototype,apsp=ap.splice,isBrowser=!("undefined"==typeof window||"undefined"==typeof navigator||!window.document),isWebWorker=!isBrowser&&"undefined"!=typeof importScripts,readyRegExp=isBrowser&&"PLAYSTATION 3"===navigator.platform?/^complete$/:/^(complete|loaded)$/,defContextName="_",isOpera="undefined"!=typeof opera&&"[object Opera]"===opera.toString(),contexts={},cfg={},globalDefQueue=[],useInteractive=!1;if("undefined"==typeof define){if("undefined"!=typeof requirejs){if(isFunction(requirejs))return;cfg=requirejs,requirejs=void 0}"undefined"==typeof require||isFunction(require)||(cfg=require,require=void 0),req=requirejs=function(e,t,i,r){var n,a,o=defContextName;return isArray(e)||"string"==typeof e||(a=e,isArray(t)?(e=t,t=i,i=r):e=[]),a&&a.context&&(o=a.context),n=getOwn(contexts,o),n||(n=contexts[o]=req.s.newContext(o)),a&&n.configure(a),n.require(e,t,i)},req.config=function(e){return req(e)},req.nextTick="undefined"!=typeof setTimeout?function(e){setTimeout(e,4)}:function(e){e()},require||(require=req),req.version=version,req.jsExtRegExp=/^\u005c/|:|\u005c?|\u005c.js$/,req.isBrowser=isBrowser,s=req.s={contexts:contexts,newContext:newContext},req({}),each(["toUrl","undef","defined","specified"],function(e){req[e]=function(){var t=contexts[defContextName];return t.require[e].apply(t,arguments)}}),isBrowser&&(head=s.head=document.getElementsByTagName("head")[0],baseElement=document.getElementsByTagName("base")[0],baseElement&&(head=s.head=baseElement.parentNode)),req.onError=defaultOnError,req.createNode=function(e){var t=e.xhtml?document.createElementNS("http://www.w3.org/1999/xhtml","html:script"):document.createElement("script");return t.type=e.scriptType||"text/javascript",t.charset="utf-8",t.async=!0,t},req.load=function(e,t,i){var r,n=e&&e.config||{};if(isBrowser)return r=req.createNode(n,t,i),r.setAttribute("data-requirecontext",e.contextName),r.setAttribute("data-requiremodule",t),!r.attachEvent||r.attachEvent.toString&&r.attachEvent.toString().indexOf("[native code")<0||isOpera?(r.addEventListener("load",e.onScriptLoad,!1),r.addEventListener("error",e.onScriptError,!1)):(useInteractive=!0,r.attachEvent("onreadystatechange",e.onScriptLoad)),r.src=i,currentlyAddingScript=r,baseElement?head.insertBefore(r,baseElement):head.appendChild(r),currentlyAddingScript=null,r;if(isWebWorker)try{importScripts(i),e.completeLoad(t)}catch(a){e.onError(makeError("importscripts","importScripts failed for "+t+" at "+i,a,[t]))}},isBrowser&&!cfg.skipDataMain&&eachReverse(scripts(),function(e){return head||(head=e.parentNode),dataMain=e.getAttribute("data-main"),dataMain?(mainScript=dataMain,cfg.baseUrl||(src=mainScript.split("/"),mainScript=src.pop(),subPath=src.length?src.join("/")+"/":"./",cfg.baseUrl=subPath),mainScript=mainScript.replace(jsSuffixRegExp,""),req.jsExtRegExp.test(mainScript)&&(mainScript=dataMain),cfg.deps=cfg.deps?cfg.deps.concat(mainScript):[mainScript],!0):void 0}),define=function(e,t,i){var r,n;"string"!=typeof e&&(i=t,t=e,e=null),isArray(t)||(i=t,t=null),!t&&isFunction(i)&&(t=[],i.length&&(i.toString().replace(commentRegExp,"").replace(cjsRequireRegExp,function(e,i){t.push(i)}),t=(1===i.length?["require"]:["require","exports","module"]).concat(t))),useInteractive&&(r=currentlyAddingScript||getInteractiveScript(),r&&(e||(e=r.getAttribute("data-requiremodule")),n=contexts[r.getAttribute("data-requirecontext")])),(n?n.defQueue:globalDefQueue).push([e,t,i])},define.amd={jQuery:!0},req.exec=function(text){return eval(text)},req(cfg)}}(this);</script><script>define("../view/tpl",["Angular"],function(e){return e.module("TPL",[]).run(["$templateCache",function(e){"use strict";e.put("404.html",'<div class="error-page"><h2>404 ERROR</h2><div class="error-page-content"><div class="error-page-left"><span>404</span></div><div class="error-page-right"><h3>Page Not Found!</h3><p>We\u005c're sorry, but we can\u005c't find the page you were looking for. It\u005c's probably some thing we\u005c've done wrong but now we know about it and we\u005c'll try to fix it. In the meantime, try one of these options:</p><ul class="error-list-item"><li><a href="#">Go to Previous Page</a></li><li><a href="/">Go to Homepage</a></li></ul></div></div></div>'),e.put("comment_form.html",'<div class="respond" ng-controller="commentForm"><div class="cancel-comment-reply"><a id="cancel-comment-reply-link" href="http://www.lyblog.net/2015/586.html#respond-post-586" rel="nofollow" style="display:none" onclick="return TypechoComment.cancelReply()">\u53d6\u6d88\u56de\u590d</a></div><h3 id="response">\u6dfb\u52a0\u65b0\u8bc4\u8bba</h3><form method="post" id="comment_form" name="comment_form" ng-submit="submit()" role="form" novalidate><p class="comment-notes">\u7535\u5b50\u90ae\u4ef6\u5730\u5740\u4e0d\u4f1a\u88ab\u516c\u5f00\u3002 \u5fc5\u586b\u9879\u5df2\u7528<span class="required">*</span>\u6807\u6ce8</p><div class="clearfix" ng-if="isNeedShow"><p class="input-prepend"><label for="author" class="add-on"><i class="icon-user"></i></label><input class="span2 necessary" ng-class="{false:\u005c'red\u005c'}[comment_form.author.$pristine || comment_form.author.$valid]" type="text" name="author" id="author" ng-model="comments.author" placeholder="\u79f0\u547c" size="22" tabindex="1" required></p>&nbsp;<p class="input-prepend"><label for="mail" class="add-on"><i class="icon-mail-alt"></i></label><input class="span2 necessary" ng-class="{false:\u005c'red\u005c'}[comment_form.mail.$pristine || comment_form.mail.$valid]" id="mail" ng-model="comments.mail" name="mail" type="email" tabindex="2" size="30" placeholder="Email" required></p>&nbsp;<p class="input-prepend"><label for="url" class="add-on"><i class="icon-home"></i></label><input tabindex="3" class="span2" url-complete ng-class="{false:\u005c'red necessary\u005c'}[comment_form.url.$pristine || comment_form.url.$valid]" id="url" name="url" type="url" ng-model="comments.url" placeholder="\u7f51\u7ad9" size="30"></p></div><div class="textarea-wrap"><textarea id="commentform" rows="10" tabindex="4" cols="50" name="text" ng-model="comments.text" editor required></textarea><span class="necessary is-necessary"></span></div><p class="submit-wrap"><span class="fl" ng-show="isSubmit"><i class="icon-spin2 animate-spin"></i>{{comment_form.$valid ? \u005c'\u6570\u636e\u6b63\u5728\u63d0\u4ea4\u4e2d\u005c' : \u005c'\u8868\u5355\u9a8c\u8bc1\u5931\u8d25\u005c'}}</span> <button type="submit" class="submit btn" tabindex="5">\u63d0\u4ea4\u8bc4\u8bba</button></p></form></div>'),e.put("comment_list.html",'<div ng-controller="commentList"><h3>\u5df2\u6709 {{pageInfo.count}} \u6761\u8bc4\u8bba</h3><div comment-recursion="commentsList" ng-click="reply($event)"></div><div pagenav="loadnext(num,click)" autocheck="mobile" pagesize="15" currentpage="0" pagecount="{{pageInfo.count}}" showpage="10"></div></div>'),e.put("comment_list_directive.html",'<ol class="comment-list"><li class="comment-body comment-level-0" ng-repeat="comment in commentRecursion"><div class="comment-author"><span itemprop="image"><img class="avatar" ng-src="{{comment.imgUrl}}" alt="{{comment.author}}" width="40" height="40"></span> <cite class="fn" itemprop="name"><a ng-href="{{comment.url}}" target="_blank" rel="external nofollow">{{comment.author}}</a></cite></div><div class="comment-meta"><a rel="nofollow" href="http://www.lyblog.net/2015/586.html#comment-486"><time itemprop="commentTime" datetime="{{comment.created|d:\u005c'yyyy-mm-dd\u005c'}}">{{comment.created|d:\u005c'yyyy-MM-dd\u005c'}}</time></a></div><div class="comment-content" itemprop="commentText"><div ng-bind-html="comment.text|commentToHtml:comment.author|toHtml:true"></div></div><div ng-if="depth != 5" class="comment-reply"><a class="reply" data-parentid="{{comment.coid}}" href="#respond-post-586" rel="nofollow"><i class="icon-reply-all"></i></a></div><div ng-if="comment.child" class="comment-children" comment-recursion="comment.child"></div></li></ol>'),e.put("crumbs.html",'<div id="cur_pos"><span>\u5f53\u524d\u4f4d\u7f6e\uff1a</span> <span ng-repeat="item in crumbs"><a ng-href="{{item.permalink}}" ubt-log="CLICK_BREAD_NAV">{{item.name}}</a> {{ $last ? \u005c'\u005c':\u005c'&raquo;\u005c'}}</span><div ng-if="crumbs.length == 2" class="about_site"><h3>\u5173\u4e8e\u201c\u5c0f\u5929\u5730\uff0c\u5927\u4e16\u754c\u201d</h3><p>\u5c0f\u5929\u5730\uff0c\u5927\u4e16\u754c\u662f\u4e00\u4e2a\u5173\u4e8eWeb\u5f00\u53d1\u6280\u672f\u4ea4\u6d41\u7684\u535a\u5ba2\u3002</p></div></div>'),e.put("detail.html",'<div class="post"><h1 class="title"><a ng-href="{{detail.pathinfo}}">{{detail.title}}</a></h1><div class="sub tags"><span class="sub-inner"><i class="icon-folder-open-empty"></i> <a ng-href="category/{{i.slug}}.html" ng-repeat="i in detail.categories">{{i.name}}{{$last ? \u005c'\u005c': \u005c'\u3001\u005c'}}</a> <a href="javascript:void(0)" ng-if="!detail.categories.length">\u672a\u5206\u7c7b</a></span> <span class="sub-inner"><i class="icon-tags"></i> <a href="tag/{{t.name}}" ng-repeat="t in item.tag">{{t.name}}{{$last ? \u005c'\u005c' : \u005c'\u3001\u005c'}}</a> <a href="javascript:void(0)" ng-if="!item.tag.length">\u6682\u65e0\u6807\u7b7e</a></span> <span class="sub-inner"><i class="icon-calendar"></i><time datetime="{{detail.created | d}}" pubdate>{{detail.created | d}}</time></span> <span class="sub-inner"><i class="icon-chat-empty"></i> <a href="{{$$locationURL}}#comments">{{detail.commentCount | toView:\u005c'comment\u005c'}}</a></span> <span class="sub-inner"><i class="icon-eye icon-large"></i> {{detail.views | toView}}</span> <span class="sub-inner open-or-close" toggle-full ubt-log="CLICK_TOGGLE_FULL_SIDE"><i class="icon-resize-full-alt"></i> <i class="icon-resize-small"></i></span></div><div class="hr dotted clearfix"></div><table id="js_content_detail" class="content"><tr><td ng-bind-html="detail.text | toHtml" no-click></td></tr></table><p class="reprint">\u539f\u521b\u6587\u7ae0\uff0c\u8f6c\u8f7d\u8bf7\u6ce8\u660e\u51fa\u5904\uff1a<a href="http://www.lyblog.net">\u5c0f\u5929\u5730\uff0c\u5927\u4e16\u754c</a>[<a href="http://www.lyblog.net">http://www.lyblog.net</a>]<br>\u6587\u7ae0\u5730\u5740\uff1a<a href="{{detail.pathinfo}}">http://www.lyblog.net/{{detail.pathinfo}}</a></p><p class="clearfix reprint">\u4e0a\u4e00\u7bc7\uff1a<a ubt-log="CLICK_LAST_ARTICLE" href="{{detail.thePrev.pathinfo || \u005c'javascript:;\u005c'}}">{{detail.thePrev.title || \u005c'\u4e0a\u4e00\u7bc7\u6728\u6709\u4e86\u005c'}}</a><br>\u4e0b\u4e00\u7bc7\uff1a<a ubt-log="CLICK_NEXT_ARTICLE" href="{{detail.theNext.pathinfo || \u005c'javascript:;\u005c'}}">{{detail.theNext.title || \u005c'\u4e0b\u4e00\u7bc7\u6728\u6709\u4e86\u005c'}}</a></p><div id="comments">{{comments}}<div ng-include="\u005c'comment_form.html\u005c'"></div><div ng-include="\u005c'comment_list.html\u005c'"></div></div></div>'),e.put("footer.html",'<footer id="copyright" class="clearfix"><div id="cp-left" class="fl">\u5907\u6848\u4fe1\u606f\uff1a<a href="http://www.miitbeian.gov.cn/" target="_blank" rel="nofollow">\u9102ICP\u590714002063\u53f7</a>&nbsp;&nbsp;&nbsp;&nbsp;<a href="/sitemap.xml" target="_blank">\u7ad9\u70b9\u5730\u56fe</a><br>\u7ad9\u70b9\u7edf\u8ba1\uff1a<a href="http://www.cnzz.com/stat/website.php?web_id=5162003" target="_blank">\u7f51\u7ad9\u7edf\u8ba1</a></div><div id="cp-right" class="fl">\u7248\u6743\u6240\u6709\uff1a<a href="http://www.lyblog.net/">@LIUYANG</a><br>\u7ad9\u957f\u90ae\u7bb1:<a href="mail::LiuYang@lyblog.net">LiuYang@lyblog.net</a></div></footer>'),e.put("header.html",'<header id="hd"><div id="hd_info"><div class="progress progress_striped active" id="hd_pg"><div class="bar" id="top-progress"></div><div class="bar" id="top-progress-right"></div></div><div id="hd_info_con" class="clearfix"><div id="hd_info_l" class="fl"><a href="admin" ubt-log="USER_LOGIN">\u767b\u5f55</a> <a href="action/logout" ubt-log="USER_LOGIN_OUT">\u9000\u51fa</a> <a ng-if="false" href="http://www.lyblog.net/admin/login.php">\u767b\u5f55</a></div><div id="hd_info_c" class="fl"><a href="feed/" target="_blank" ubt-log="ARTICLE_RSS">\u6587\u7ae0RSS</a> <a href="feed/comments/" target="_blank" ubt-log="ARTICLE_COMMENT_RSS">\u8bc4\u8bbaRSS</a></div><div id="hd_info_r" class="fl"><div id="hd_history"><a href="javascript:void(0)">\u60a8\u8fd8\u6d4f\u89c8\u8fc7\uff1a</a><ul></ul></div></div></div></div><div id="hd_con" class="clearfix"><h1 id="logo" class="fl" ubt-log="HOME_BTN"><span>\u5c0f\u5929\u5730\uff0c\u5927\u4e16\u754c\u662f\u4e00\u4e2a\u524d\u7aef\u4ea4\u6d41\u535a\u5ba2</span> <a href="./" title="\u70b9\u51fb\u8fd4\u56de\u5230\u005c'\u5c0f\u5929\u5730\uff0c\u5927\u4e16\u754c\u005c'"><img width="300" height="100" ng-src="http://www.lyblog.net/usr/themes/readme/img/logo.gif" title="{{options.title}}" alt="{{options.title}}"></a></h1><div class="fr" id="hd_nav"><span class="header-menu icon-menu fr" ng-click="toggleMenu()"></span><ul id="myshare"><li class="menu-item"><a href="./detail/331.html" ubt-log="ABOUT_ME">\u5173\u4e8e &amp; \u7559\u8a00</a></li><li class="menu-item"><a title="\u767e\u5ea6\u7f51\u76d8\u5171\u4eab\u6587\u4ef6" href="http://pan.baidu.com/share/home?uk=2234575249" target="_blank" ubt-log="BAIDU_PAN_SHARE">\u6211\u7684\u5171\u4eab</a></li><li class="menu-item"><a href="./share.html" ubt-log="MY_SHARE">\u6211\u7684\u5206\u4eab</a></li></ul><ul class="widget_list" ng-click="toggleMenu()"><li class="category-level-0 category-parent" ng-class="{\u005c'category-active\u005c':item.id == checked}" ng-repeat="item in cate"><a ng-href="{{item.permalink}}" ubt-log="TOP_NAV_BAR">{{item.name}}</a></li></ul></div></div><div class="ie-repaire"></div></header>'),e.put("home-list.html",'<article class="post_archive" ng-repeat="item in pageList"><header class="a_t"><time class="fl" datetime="{{item.created | d:\u005c'yy-MM-dd\u005c'}}" pubdate>{{item.created | d:\u005c'yyyy\u005c'}}<br>{{item.created | d:\u005c'MM-dd\u005c'}}</time><h2><a ng-href="{{item.pathinfo}}" ubt-log="GO_TO_DETAIL" ubt-value="{title: item.title}" title="{{item.title}}">{{item.title}}</a></h2><aside class="tags"><span><a href="author/1.html" ubt-log="LIST_ITEM_USER"><i class="icon-user"></i> <span>\u5218\u6d0b</span></a></span> <span><i class="icon-folder-open-empty"></i> <a ng-href="category/{{i.slug}}.html" ng-repeat="i in item.categories" ubt-log="ARTICLE_BREAD">{{i.name}}{{ (item.categories.length-1 == $index) ? \u005c'\u005c': \u005c'\u3001\u005c'}}</a> <a href="javascript:void(0)" ng-if="!item.categories.length">\u672a\u5206\u7c7b</a></span> <span><i class="icon-eye icon-large"></i> {{item.views | toView}}</span></aside></header><main class="article"><div ng-bind-html="item.excerpt | toHtml" no-click></div><p class="more animate"><a ng-href="{{item.pathinfo}}" ubt-log="READ_MORE">\u9605\u8bfb\u5168\u6587...<i class="icon-angle-right"></i></a></p></main><footer class="entry_meta_footer tags"><span class="tag"><i class="icon-tags"></i> <a href="tag/{{t.slug}}.html" ubt-log="ARTICLE_FOOTER_TAGS" ng-repeat="t in item.tag">{{t.name}}{{$last ? \u005c'\u005c' : \u005c'\u3001\u005c'}}</a> <a href="javascript:void(0)" ng-if="!item.tag.length">\u6682\u65e0\u6807\u7b7e</a></span> <span class="tag"><i class="icon-chat-empty"></i> <a href="{{item.pathinfo + \u005c'#comments\u005c'}}" ubt-log="GO_TO_DETAIL_ANCHOR">{{item.commentsCount | toView:\u005c'comment\u005c'}}</a></span> <span ng-if="$parent.isLogin" class="tag"><i class="icon-edit"></i> <a class="post-edit-link" href="">\u7f16\u8f91</a></span></footer></article><article ng-if="!pagelist.length" class="post_archive"><p>\u6682\u65e0\u5185\u5bb9</p></article><div pagenav="loadnext(num, click)" pagesize="{{pagesize}}" currentpage="{{page}}" pagecount="{{count}}" showpage="10"></div>'),e.put("pagenav.html",'<div class="pagination pagination-centered"><ul ng-click="changePage($event)"><li ng-repeat="item in list track by $index" ng-class="{true: \u005c'current\u005c'}[item == currentpage || (item == \u005c'\u005c')]"><a href="{{item}}">{{item}}</a></li></ul></div>'),e.put("share.html",'<ul class="decks clearfix"><li class="fl deck"><a href=""><h3>\u57fa\u4e8eHTML5\u5b9e\u73b0\u56fe\u7247\u538b\u7f29\u4e0a\u4f20</h3><time datetime="">\u5f85\u5b9a</time></a></li><li class="fl deck"><a href=""><h3>\u5f85\u5b9a</h3><time datetime="">\u5f85\u5b9a</time></a></li><li class="fl deck"><a href=""><h3>\u5f85\u5b9a</h3><time datetime="">\u5f85\u5b9a</time></a></li><li class="fl deck"><a href=""><h3>\u5f85\u5b9a</h3><time datetime="">\u5f85\u5b9a</time></a></li><li class="fl deck"><a href=""><h3>\u5f85\u5b9a</h3><time datetime="">\u5f85\u5b9a</time></a></li></ul>'),e.put("side_left.html",'<div class="ad side_box"><h4>\u7fa4</h4><div class="textwidget" ubt-log="GROUP_CLICK"><img src="//img.lyblog.net/uploads/self-img/share-1.jpg" width="205" height="205"></div></div><div id="left_fix" class="fix side_box" fixed="40"><div class="ad"><h4>\u626b\u4e00\u626b</h4><div id="qrcode" class="textwidget" title="http://www.lyblog.net/" qrcode ubt-log="CLICK_SIDE_LEFT_QRCODE"></div></div><aside ng-hide="isDetailPage" id="left-tag" class="side_box side_left animate"><h4>\u70ed\u95e8\u6807\u7b7e</h4><div id="tag_cloud_con"><a rel="tag" ng-href="tag/{{i.slug}}.html" title="{{i.count}} \u4e2a\u8bdd\u9898" ng-repeat="i in tagCloud" ubt-log="SIDE_LEFT_TAG" ubt-data="{{({index: i, key: i.name})}}">{{i.name}} <span>{{i.count}}</span></a></div></aside><aside ng-show="isDetailPage" class="side_box side_left animate"><h4>\u76ee\u5f55\u5bfc\u822a</h4><div id="article_navi_con"><ul navigation class="toc-nav"><li ng-repeat="item in nav"><a href="#{{item.id}}" ubt-log="SIDE_LEFT_NAVI_LEVEL_1">{{item.text}}</a><ul ng-if="item.child"><li ng-repeat="i in item.child"><a href="#{{i.id}}" ubt-log="SIDE_LEFT_NAVI_LEVEL_2">{{i.text}}</a></li></ul></li><li ng-if="!nav.length">\u6682\u65e0\u5bfc\u822a\u5185\u5bb9</li></ul></div></aside></div>'),e.put("side_right.html",'<form role="search" method="get" ng-submit="search()"><label for="s" class="hidden">\u641c\u7d22\uff1a</label><div class="search"><input type="search" name="s" placeholder="\u8bf7\u8f93\u5165\u5173\u952e\u5b57" ng-model="keywords" id="s" x-webkit-speech=""><button type="submit" class="btn" ubt-log="SEARCH_BTN">Search</button></div></form><aside class="list-archive"><h4 class="head">ABOUT ME</h4><div id="about-me" class="clearfix list-archive list-content"><a href="#" ubt-log="CLICK_MY_FAVATOR_ICON"><img id="me" width="100" height="133" src="http://img.lyblog.net/theme/img/me.jpg" alt=""></a><article id="me-info"><p>\u5218\u6d0b<sup><a href="#" ubt-log="CLICK_MY_FAVATOR">more</a></sup>\uff0c2014\u5e74\u6bd5\u4e1a\u4e8e\u957f\u6c5f\u5927\u5b66\u5e94\u7528\u7269\u7406\u7cfb\u3002\u73b0\u5c31\u804c\u4e8e\u4e0a\u6d77<a href="http://www.ctrip.com" target="_blank">\u643a\u7a0b\u65c5\u884c\u7f51</a>\u3002</p><p>\u90ae\u7bb1\uff1a<span><a href="mailto:LiuYang@lyblog.net" class="emailencoder" ubt-log="CLICK_MY_EMAIL">LiuYang@lyblog.net</a></span></p><p>\u5fae\u535a\uff1a<span><a href="http://weibo.com/888yangliu" class="emailencoder" ubt-log="CLICK_MY_WEIBO" target="_blank">\u65b0\u6d6a</a></span></p></article></div><aside class="list-archive"><div><a href="http://www.wormholess.xyz" target="_blank" ubt-log="AD_SS_LINK"><img src="//img.lyblog.net/uploads/self-img/ads.jpg" alt=""></a></div></aside><aside class="list-archive"><dl id="ajax_load"><dt class="clearfix head"><a href="javascript:;" class="current" ng-click="tabsToggle(\u005c'views\u005c', $event)">\u6d4f\u89c8\u6700\u591a</a> <a href="javascript:;" ng-click="tabsToggle(\u005c'rand\u005c', $event)">\u968f\u673a\u6587\u7ae0</a> <a href="javascript:;" ng-click="tabsToggle(\u005c'comments\u005c', $event)">\u70ed\u8bc4\u6587\u7ae0</a></dt><dd class="list-content"><ul><li class="slideInAndOut animate" ng-repeat="item in tabsContent"><a href="{{item.pathinfo}}" ubt-log="CLICK_SIDE_RIGHT_ARTICLE">{{item.title}}</a></li></ul></dd></dl></aside><aside class="list-archive clearfix"><div class="list-archive-left fl"><h4 class="head">\u6587\u7ae0\u5f52\u6863</h4><ul class="list-content"><li ng-repeat="i in archive"><a ng-href="{{i.year + \u005c'/\u005c' + i.month + \u005c'.html\u005c'}}" title="{{i.year}}\u5e74{{i.month}}\u6708\u6709{{i.count}}\u7bc7\u6587\u7ae0">{{i.year}}\u5e74{{i.month}}\u6708</a> <span>({{i.count}})</span></li></ul></div><div class="list-archive-right fl"><h4 class="head">\u5206\u7c7b\u76ee\u5f55</h4><ul class="list-content widget-list"><li ng-repeat="item in category"><a ng-href="{{\u005c'category/\u005c'+item.slug + \u005c'.html\u005c'}}">{{item.name}}</a> <span>({{item.count}})</span><ul class="widget-list" ng-if="item.child.length"><li ng-repeat="i in item.child"><a ng-href="{{\u005c'category/\u005c'+i.slug + \u005c'.html\u005c'}}">{{i.name}}</a> <span>{{i.count}}</span></li></ul></li></ul></div></aside><aside class="list-archive fix" fixed="40"><h4 class="head">\u5de6\u90bb\u53f3\u820d</h4><ul class="list-content fri-link"><li ng-repeat="item in link" data-href="{{item.url}}/favicon.ico"><a ubt-log="CLICK_OTHER_LINK" ng-href="{{item.url}}" title="{{item.description}}" target="_blank">{{item.name}}</a></li></ul></aside></aside>')}])}),define("App",["Angular","require","../view/tpl","Angular-ui-route","Angular-animate","Angular-resource"],function(e,t){var a=e.module("App",["ui.router","ngAnimate","ngResource","TPL"]),n=window,i="http://cdn.lyblog.net/bootstrap/v2/js/",r=e.forEach,o=e.element,l=t("CONFIG"),c=l.loadTransLog;return a.config(["$stateProvider","$urlRouterProvider","$locationProvider","$httpProvider",function(t,a,n,i){n.html5Mode(!0).hashPrefix("!"),a.when("/page/1.html","/").when("/page/","/").when("/page/{page:[0-9]+}","/page/{page}.html").when("/category/{cate:[-a-zA-Z_]+}","/category/{cate}.html").when("/category/{cate:[-a-zA-Z_]+}.html/","/category/{cate}.html").when("/category/{cate:[-a-zA-Z_]+}/{page:[0-9]+}","/category/{cate}/{page}.html").when("/category/{cate:[-a-zA-Z_]+}.html/{page:[0-9]+}","/category/{cate}/{page}.html").otherwise(function(e,t){var a=e.get("$state");return a.go("error"),t.path()});var r={templateUrl:'home-list.html',controller:"IndexCtrl",resolve:{pageData:["pagelist","$q","$stateParams","$filter","cate","$http",function(e,t,a,n,i,r){var o=t.defer(),l=a.page<1?1:a.page,c="index.php/api/posts";a.year&&a.month&&(c="index.php/api/archive"),a.cid&&(c="index.php/api/post"),a.keywords&&(c="index.php/api/search");var s={page:l,category:a.cate,tag:n("decode")(a.tag)||void 0,author:a.authorId,year:a.year,month:a.month,cid:a.cid,keywords:a.keywords&&a.keywords.replace("+"," ")};e(c,s).success(function(e){200===e.status?(e.data.queryParam={url:c,params:s},o.resolve(e.data)):o.reject(e)}).error(function(){o.reject()});var u=!i.length&&t.defer();return u&&r.get("index.php/api/categoryList").success(function(e){200===e.status&&(i.push.apply(i,e.data),u.resolve())}),u?t.all([o.promise,u.promise]):o.promise}]}};t.state("blog",{views:{"":{template:"<div ui-view></div>"},side_left:{templateUrl:'side_left.html',controller:"LeftCtrl"},side_right:{templateUrl:'side_right.html',controller:"RightCtrl"}}}).state("blog.home",e.extend({url:"/"},r)).state("blog.homeList",e.extend({url:"/page/{page:[0-9]+}.html"},r)).state("blog.category",e.extend({url:"/category/{cate:[-a-zA-Z_]+}.html"},r)).state("blog.categoryList",e.extend({url:"/category/{cate:[-a-zA-Z_]+}/{page:[0-9]+}.html"},r)).state("blog.tag",e.extend({url:"/tag/{tag}.html"},r)).state("blog.tagList",e.extend({url:"/tag/{tag}/{page:[0-9]+}.html"},r)).state("blog.author",e.extend({url:"/author/{authorId:[0-9]+}.html"},r)).state("blog.archive",e.extend({url:"/{year:[0-9]{4,4}}/{month:[^2-9][0-9]}.html"},r)).state("blog.search",e.extend({url:"/search/:keywords"},r)).state("blog.detail",e.extend(r,{url:"/detail/{cid:[0-9]+}.html",templateUrl:'detail.html',controller:"DetailCtrl"})).state("error",{templateUrl:'404.html'}).state("share",{url:"/share.html",templateUrl:'share.html'}),i.defaults.headers.post["Content-Type"]="application/x-www-form-urlencoded;charset=utf-8";var o=function(e){var t,a,n,i,r,l,c,s="";for(t in e)if(a=e[t],a instanceof Array)for(c=0;c<a.length;++c)r=a[c],n=t+"["+c+"]",l={},l[n]=r,s+=o(l)+"&";else if(a instanceof Object)for(i in a)r=a[i],n=t+"["+i+"]",l={},l[n]=r,s+=o(l)+"&";else void 0!==a&&null!==a&&(s+=encodeURIComponent(t)+"="+encodeURIComponent(a)+"&");return s.length?s.substr(0,s.length-1):s};i.defaults.transformRequest=[function(t){return e.isObject(t)&&"[object File]"!==String(t)?o(t):t}]}]),a.run(["$rootScope","$timeout","crumbs","$anchorScroll","$location","$log",function(a,s,u,d,m,p){a.$on("$stateChangeStart",function(){a.loading=!0});var g="";a.$on("$stateChangeSuccess",function(e,h){a.loading=!1,s(function(){d(),a.$$locationURL=m.url().replace(/^\u005c/|#.*/g,""),t([i+"google-code-prettify/prettify.js",i+"ZeroClipboard.Core.js"],function(e,t){r(document.querySelectorAll("pre.prettyprint.linenums"),function(e){o(e.previousSibling).after('<div class="zero-clipboard"><span class="btn-clipboard">\u590d\u5236</span></div>')});var a=r(document.querySelectorAll("span.btn-clipboard"),function(e){o(e).data("text",o(e).parent().next().text())});n.prettyPrint&&n.prettyPrint(),t.config({moviePath:i+"ZeroClipboard.swf",hoverClass:"btn-clipboard-hover"});var l=new t(a),c=o(document.querySelector("#global-zeroclipboard-html-bridge"));l.on("load",function(){c.data("placement","top").attr("title","\u590d\u5236\u5230\u526a\u8d34\u677f")}),l.on("dataRequested",function(e){var t=o(this).data("text");e.setText(t)}),l.on("complete",function(){c.attr("title","\u590d\u5236\u5b8c\u6210\uff01")}),l.on("noflash wrongflash",function(){c.attr("title","\u60a8\u7684\u6d4f\u89c8\u5668\u9700\u8981\u5b89\u88c5 Flash \u63d2\u4ef6")}),l.on("error",function(){l.destroy()}),l.on("mouseout",function(){c.attr("title","\u590d\u5236\u5230\u526a\u8d34\u677f")})}),u.updateCrumbs(),"www.lyblog.net"===m.$$host&&c(function(e){var t=m.url();if(g)e.push(["_trackPageview",t]);else try{var a=l.getPerformanceTiming()||{},n=window.performance,i=n.timing,r=Date.now()-i.navigationStart;e.push(["_trackOrder",{orderId:Date.parse(new Date),orderTotal:a.request,item:[{skuId:t,skuName:a.ttfb,category:window.JSON.stringify(a),Price:r,Quantity:a.loadPage}]}])}catch(o){}if(p.log("cnzz lastUrl "+g,"currentUrl "+t,"absoluteUrl "+m.absUrl()),"error"===h.name){var c={lastUrl:g||document.referrer,curl:t};try{e.push(["_trackEvent","404ERROR","404page",window.JSON.stringify(c)])}catch(o){}}g=t})})}),a.$on("$stateChangeError",function(){a.loading=!1,c(function(e){var t={lastUrl:"",curl:m.absUrl()};try{e.push(["_trackEvent","STATE_ERROR","STATE_ERROR",window.JSON.stringify(t)])}catch(a){}})}),a.needRight=!1,a.needLeft=!1,e.element(n).on("resize",function(){var e=document.documentElement.clientWidth;e>750&&s(function(){a.needRight=!0},1200),e>1100&&s(function(){a.needLeft=!0},1200)}),e.element(n).triggerHandler("resize")}]),a}),define("service/services",["App","Angular"],function(e,t){return e.service("APP_DEFAULT_CONFIG",["comment",function(e){return{editorConf:{baseUrl:"http://cdn.lyblog.net/blog-theme/smilies/",editorToolBar:[{title:"\u7c97\u4f53",className:"et_strong",todo:"strong"},{title:"\u659c\u4f53",className:"et_em",todo:"st"},{title:"\u4e0b\u5212\u7ebf",className:"et_underline",todo:"underline"},{title:"\u5220\u9664\u7ebf",className:"et_del",todo:"del"},{title:"\u94fe\u63a5",className:"et_ahref",todo:"ahref"},{title:"\u56fe\u7247",className:"et_img",todo:"img"},{title:"\u4ee3\u7801",className:"et_code",todo:"code"},{title:"\u5f15\u7528",className:"et_quote",todo:"quote"},{title:"\u9690\u85cf\u5185\u5bb9\u4ec5\u7ba1\u7406\u5458\u53ef\u89c1",className:"et_private",todo:"private"},{title:"\u8868\u60c5",className:"et_smilies",todo:"smilies",child:[{alt:"icon_wink.gif",value:" ;-) "},{alt:"icon_neutral.gif",value:"  :| "},{alt:"icon_mad.gif",value:" :x "},{alt:"icon_twisted.gif",value:" :twisted: "},{alt:"icon_smile.gif",value:" :smile: "},{alt:"icon_eek.gif",value:" :shock: "},{alt:"icon_sad.gif",value:" :sad: "},{alt:"icon_rolleyes.gif",value:" :roll: "},{alt:"icon_razz.gif",value:" :razz: "},{alt:"icon_redface.gif",value:" :oops: "},{alt:"icon_surprised.gif",value:" :o "},{alt:"icon_mrgreen.gif",value:" :mrgreen: "},{alt:"icon_lol.gif",value:" :lol: "},{alt:"icon_idea.gif",value:" :idea: "},{alt:"icon_biggrin.gif",value:" :grin: "},{alt:"icon_evil.gif",value:" :evil: "},{alt:"icon_cry.gif",value:" :cry: "},{alt:"icon_cool.gif",value:" :cool: "},{alt:"icon_arrow.gif",value:" :arrow: "},{alt:"icon_confused.gif",value:" :???: "},{alt:"icon_question.gif",value:" :?: "},{alt:"icon_exclaim.gif",value:" :!: "}]}]},userInfo:{author:e("__typecho_remember_author"),url:e("__typecho_remember_url"),mail:e("__typecho_remember_mail")},nav:{selector:"h2,h3"}}}]).value("cate",[]).factory("pagelist",["$http",function(e){return function(){return e.get(arguments[0],{params:arguments[1]})}}]).factory("comment",function(){return function(e){for(var t=(document.cookie||" ").split("; "),a="",n=0,i=t.length;i>n;n++)if(a=t[n],a=a.split("="),-1!=a[0].indexOf(e))return decodeURIComponent(a[1]);return""}}).factory("cateGory",function(){return{sortHierarchy:function(e,a){a=a||0;for(var n=null,i=[],r=null,o=0,l=e.length;l>o;o++)n=e[o],n.pid===a&&(n=t.copy(n),r=this.sortHierarchy(e,n.id),r.length&&(n.child=r),i.push(n));return i},cateCrumbs:function(e,a){for(var n=[],i=null,r=0,o=e.length;o>r;r++)i=e[r],i.id===a&&(i=t.copy(i),n.unshift(i),Array.prototype.unshift.apply(n,this.cateCrumbs(e,i.pid)));return n},getCate:function(e,t){for(var a=0,n=e.length;n>a;a++)if(e[a].slug===t)return e[a];return""}}}).factory("crumbs",["$stateParams","cateGory","cate","$rootScope","$location",function(e,t,a,n,i){return{data:[{name:"home",permalink:"./"}],sliceCate:function(e,t){this.data.splice(1),t&&e.push(t),e&&this.data.push.apply(this.data,e)},updateCrumbs:function(r){if(e.cate){this.sliceCate(t.cateCrumbs(a,t.getCate(a,e.cate).id),{name:"\u5217\u8868"}),n.$broadcast("updateMenu",this.data[1]&&this.data[1].id);var o=this.data.length;return o=this.data[o-2>0?o-2:0],n.title="\u5f53\u524d\u5206\u7c7b:"+(o&&o.name),void 0}return e.tag?(this.sliceCate([{name:e.tag},{name:"\u6807\u7b7e\u5217\u8868"}]),n.title="\u5f53\u524d\u6807\u7b7e:"+e.tag,n.$broadcast("updateMenu",-1),void 0):e.authorId?(this.sliceCate([{name:"\u5218\u6d0b"},{name:"\u5217\u8868"}]),n.title="\u5f53\u524d\u4f5c\u8005\uff1a\u5218\u6d0b",n.$broadcast("updateMenu",-1),void 0):e.keywords?(this.sliceCate([{name:e.keywords&&e.keywords.replace("+"," ")},{name:"\u641c\u7d22\u7ed3\u679c\u5217\u8868"}]),n.title="\u641c\u7d22\u7ed3\u679c\u9875\u9762",n.$broadcast("updateMenu",-1),void 0):e.year&&e.month?(this.sliceCate([{name:e.year+"\u5e74"+e.month+"\u6708"},{name:"\u5f52\u6863"}]),n.title="\u5f52\u6863\uff1a"+e.year+"\u5e74"+e.month+"\u6708",n.$broadcast("updateMenu",-1),void 0):e.cid&&r?(this.sliceCate(t.cateCrumbs(a,r),{name:"\u8be6\u60c5"}),n.$broadcast("updateMenu",this.data[1]&&this.data[1].id),void 0):"/share.html"===i.path()?(this.sliceCate([{name:"\u6211\u7684\u5206\u4eab"},{name:"\u5217\u8868"}]),n.title="\u6211\u7684\u5206\u4eab",n.$broadcast("updateMenu",-1),void 0):(this.sliceCate([{name:"\u5217\u8868"}]),n.$broadcast("updateMenu",-1),void 0)}}}]).service("commentEditor",["APP_DEFAULT_CONFIG",function(e){function a(e,t,a){if(document.selection){e.focus();var n=document.selection.createRange();n.text=a?t+n.text+a:t,e.focus()}else if(e.selectionStart||"0"==e.selectionStart){var i=e.selectionStart,r=e.selectionEnd,o=r;e.value=a?e.value.substring(0,i)+t+e.value.substring(i,r)+a+e.value.substring(r,e.value.length):e.value.substring(0,i)+t+e.value.substring(r,e.value.length),o+=a?t.length+a.length:t.length-r+i,i==r&&a&&(o-=a.length),e.focus(),e.selectionStart=o,e.selectionEnd=o}else e.value+=t+a,e.focus()}function n(e){return String.prototype.trim?e.trim():void 0}function i(e){return e.replace(/(?=[-.\u005c/\u005c\u005c\u005c*\u005c+\u005c{\u005c}\u005c[\u005c]\u005c?\u005c(\u005c)\u005c|])/gim,"\u005c\u005c")}var r,o=e.editorConf,l=o.editorToolBar,c=o.baseUrl;return{fn:{strong:function(e){a(e,"<strong>","</strong>")},em:function(e){a(e,"<em>","</em>")},del:function(e){a(e,"<del>","</del>")},underline:function(e){a(e,"<u>","</u>")},quote:function(e){a(e,"<blockquote>","</blockquote>")},"private":function(e){a(e,"[private]","[/private]")},ahref:function(e){var t=prompt("\u8bf7\u8f93\u5165\u94fe\u63a5\u5730\u5740","http://"),n=prompt("\u8bf7\u8f93\u5165\u94fe\u63a5\u63cf\u8ff0","");t&&a(e,'<a target="_blank" href=\u201d'+t+'" rel="external\u201d>'+n+"</a>","")},img:function(e){var t=prompt("\u8bf7\u8f93\u5165\u56fe\u7247\u5730\u5740","http://");t&&a(e,'<img src="'+t+'" alt="" />',"")},code:function(e){a(e,"<code>","</code>")},smilies:function(e){t.element(e).toggleClass("show")}},buildWrap:function(){for(var e,t,a='<div class="editor_tools clearfix">',n=0,i=l.length;i>n;n++)e=l[n],a+='<span class="'+e.className+'">',a+='<a href="#commentform" title="'+e.title+'" class="',a+=e.className+'">',a+=e.title,a+="</a></span>";for(t=l[i-1].child,a+='<div class="smilies-container"><div class="wp_smilies">',n=0,i=t.length;i>n;n++)e=t[n],a+='<span class="'+e.className+'" value="'+e.value+'">',a+='<a href="#commentform" title="',a+=e.alt+'">',a+='<img src="'+c+e.alt+'" alt="'+e.alt+'"/>',a+="</a></span>";return a+="</div></div></div>"},getEditorConf:function(){if(r)return r;var e,t,a=l,o=0,s=a.length,a=a[s-1].child;for(s=a.length,r={key_value:{},reg:""};s>o;o++)e=a[o],t=n(e.value),r.key_value[t]=c+e.alt,r.reg+="("+i(t)+")|";return r.reg=r.reg.slice(0,-1),r.reg=new RegExp(r.reg,"g"),r}}}]).service("DOM",function(){function e(e,a,n){for(var i=0;e&&(e.parentNode||e.parentElement);){if(n&&i>n)return null;if(t(e,a))return e;e=e.parentNode||e.parentElement,i++}return null}function t(e,t){if(e.matches)return e.matches(t);if(e.matchesSelector)return e.matchesSelector(t);if(e.webkitMatchesSelector)return e.webkitMatchesSelector(t);if(e.msMatchesSelector)return e.msMatchesSelector(t);if(e.mozMatchesSelector)return e.mozMatchesSelector(t);if(e.oMatchesSelector)return e.oMatchesSelector(t);if(e.querySelectorAll){for(var a=(e.document||e.ownerDocument).querySelectorAll(t),n=0;a[n]&&a[n]!==e;)n++;return a[n]?!0:!1}throw new Error("Your browser version is too old,please upgrade your browser")}return{getParent:e,matchesSelector:t}}).service("navigation",["$document","APP_DEFAULT_CONFIG",function(e,a){function n(){var e;return(e=document.querySelector("#js_content_detail"))?e.querySelectorAll(a.nav.selector):[]}function i(e){var t,a,n=[];return o(e,function(e,i){var r=e.getAttribute("id");switch(r||(r="toc-"+i,e.setAttribute("id",r)),e.tagName.toLowerCase()){case"h2":t={text:e.innerHTML,id:r},n.push(t);break;case"h3":a={text:e.innerHTML,id:r},t.child=t.child||[],t.child.push(a)}}),n}function r(){var e=n();return i(e)}var o=t.forEach;return{updateNavi:r}}]),e}),define("directive/directive",["Angular","App","service/services"],function(e,t){function a(e,t){var a=window.pageYOffset||r.scrollTop,n=r.scrollHeight,o=r.clientHeight;return t?e>n-o-a:a>i?(i=a,e>n-o-a):!1}var n=e.element,i=0,r=document.documentElement||document.body;return t.directive("topMenu",["cate","cateGory",function(e,t){return{restrict:"EA",replace:!0,templateUrl:'header.html',scope:{},link:function(a,i){a.temp=e;var r=a.$watchCollection("temp",function(n){n.length&&(a.cate=t.sortHierarchy(e),a.temp=null,r())}),o=n(i[0].querySelector(".widget_list"));a.toggleMenu=function(){o.toggleClass("widget_list_show")},a.$on("updateMenu",function(e,t){a.checked=t})}}}]).directive("footerCopyright",[function(){return{restrict:"EA",replace:!0,templateUrl:'footer.html',scope:!0,link:function(){}}}]).directive("pagenav",["$timeout",function(e){function t(e,t,a,n){var i,o=[""],l=Math.ceil(a/t),e=e>0?l>e?e:l:1,c=e-Math.ceil(n/2);c=c>0?c:1,i=c+n,i=l>i?i:l,c=i-n,c=c>0?c:1;for(var s=c;i>=c;c++)s===c&&c>5&&Array.prototype.push.apply(o,[1,2,3,"..."]),o.push(c),c===i&&l-i>5&&Array.prototype.push.apply(o,["...",l-2,l-1,l]);return o.push(""),r(o,e,l)}function r(e,t,a){for(var n,i,r=document.createDocumentFragment(),o=0;o<e.length;o++)n=document.createElement("li"),i=document.createElement("a"),i.href=e[o],i.innerHTML=e[o],n.appendChild(i),e[o]===t&&n.setAttribute("class","current"),""===e[o]&&1===t&&n.setAttribute("class","current"),""===e[o]&&t===a&&n.setAttribute("class","current"),r.appendChild(n);return r}function o(){var e=window.document.documentElement;return e.clientWidth>800?!1:!0}return{restrict:"A",replace:!0,templateUrl:'pagenav.html',scope:{pagesize:"@",currentpage:"@",pagecount:"@",showpage:"@",autocheck:"@",pagenav:"&"},link:function(r,l,c){function s(){var e=parseInt(r.pagesize||10),a=parseInt(~~r.currentpage||1),n=parseInt(r.pagecount),i=parseInt(r.showpage||10);if(!n)throw new Error("\u603b\u9875\u7801\u4e0d\u5b58\u5728\uff0c\u8bf7\u68c0\u6d4b\u8f93\u5165\u53c2\u6570");l.find("ul").empty().append(t(a,e,n,i))}if(o()&&void 0===r.autocheck||"mobile"===r.autocheck){l.addClass("loading").html('<i class="icon-spin2 animate-spin"></i>\u6b63\u5728\u52a0\u8f7d\u4e2d');var u=null,d=function(){var t=Math.ceil(r.pagecount/r.pagesize);a(~~c.disb||360)&&(e.cancel(u),u=e(function(){if(r.currentpage<=t&&"function"==typeof r.pagenav){if(r.currentpage++,r.currentpage>t)return l.addClass("finished").html("\u6ca1\u6709\u4e86\u66f4\u591a\u4e86\uff01\uff01\uff01"),!1;r.pagenav({num:r.currentpage})}},200,!1))},m=n(window).on("scroll",d);return r.$on("$destroy",function(){i=0,m.off("scroll",d)}),void 0}r.changePage=function(e){e.preventDefault();var t=n(e.target);if(!t.hasClass("current")&&!t.parent().hasClass("current")){var a=e.target.innerHTML;isNaN(parseInt(a))||(r.currentpage=a),""===a&&r.currentpage--,""===a&&r.currentpage++,r.pagenav({num:r.currentpage,click:!0})}},e(s),r.$watch("currentpage",function(t,a){t!==a&&e(s)})}}}]).directive("qrcode",function(){return function(e,t){var a=null;require(["//cdn.lyblog.net/lib/qrcode/qrcode.min.js"],function(){a=new QRCode(t[0],{width:205,height:205,text:location.href,colorDark:"#000000",colorLight:"#ffffff",correctLevel:QRCode.CorrectLevel.H})}),e.$on("$stateChangeSuccess",function(){a&&a.makeCode&&a.makeCode(window.location.href)})}}).directive("fixed",["$timeout",function(e){function t(){l.length&&(i(),o(l,window.pageYOffset||document.documentElement.scrollTop||document.body.scrollTop))}function i(){if(!s){for(var t,a,i=window.pageYOffset||document.documentElement.scrollTop||document.body.scrollTop,o=window.pageXOffset||document.documentElement.scrollLeft||document.body.scrollLeft,u=null,d=0,m=l.length;m>d;d++)a=l[d],u=a.ele.parentNode||a.ele.parentElement,n(u).css({width:r(a.ele,"width"),height:r(a.ele,"height")}),t=u.getBoundingClientRect(),a.top=i+t.top,a.left=o+t.left;\u000as=!0}e.cancel(c),c=e(function(){s=!1},100,!1)}function r(e,t){return window.getComputedStyle?getComputedStyle(e,null)[t]:e.currentStyle[t]}function o(e,t){if(e.length)for(var i=null,r=a(360,!0),o=0,l=e.length;l>o;o++)i=e[o],!i.isFixed&&i.top<t+i.fixedTop&&(i.ele.style.cssText="position:fixed;top:"+i.fixedTop+"px;left:"+i.left+"px;width:"+i.width,i.isFixed=!0),i.isFixed&&i.top>t+i.fixedTop&&(i.ele.style.cssText="",i.isFixed=!1),r?n(i.ele).addClass("closed"):n(i.ele).removeClass("closed")}var l=[],c=null,s=!1;return{restrict:"A",link:function(a,i,o){var c={ele:i[0],width:r(i[0],"width"),position:r(i[0],"position"),fixedTop:parseInt(o.fixed||40)};n(window).off("scroll",t).on("scroll",t),i.css("width",c.width),l.push(c),a.$on("$destroy",function(){var e=l.indexOf(c);-1!==e&&l.splice(e,1)});var s=a.$on("$viewContentLoaded",function(){e(function(){i.wrap("<div/>").parent().css({width:r(i[0],"width"),height:r(i[0],"height")}),s()},1e3,!1)})}}}]).directive("toggleFull",function(){return function(e,t){var a=n;t.on("click",function(){a(document.querySelector("#main")).toggleClass("opened")})}}).directive("commentRecursion",["$compile",function(t){return{restrict:"A",scope:{commentRecursion:"="},templateUrl:'comment_list_directive.html',compile:function(a){return function(a,n){e.isFunction(n)&&(n={post:n});var i,r=a.contents().remove();return{pre:n&&n.pre?n.pre:null,post:function(e,a){i||(i=t(r)),e.depth=e.$parent.depth?e.$parent.depth+1:1,i(e,function(e){a.append(e)}),n&&n.post&&n.post.apply(null,arguments)}}}(a)}}}]).directive("crumbs",["crumbs",function(e){return{restrict:"A",replace:!0,templateUrl:'crumbs.html',scope:{},link:function(t){t.crumbs=e.data}}}]).directive("urlComplete",function(){return{require:"?ngModel",link:function(e,t,a,n){t.on("focus",function(){""===n.$viewValue&&t.val("http://")}).on("blur",function(){var e=(t.val()||"").replace(/^(\u005cs|\u005cu00A0)+/,"").replace(/(\u005cs|\u005cu00A0)+$/,"");"http://"===e&&t.val("")})}}}).directive("editor",["$timeout","commentEditor","DOM",function(t,a,i){return{require:"?ngModel",link:function(r,o,l,c){var s=null,u=n(a.buildWrap());o.parent().prepend(u);var d=null;o.parent().on("click",function(r){var l,u=i.getParent(r.target,'span[class^="et_"],span[value]',3),m=this;if(u){if(r.preventDefault(),i.matchesSelector(u,'span[class^="et_"]')){var p=u.className.replace("et_",""),g=o[0];(l="smilies"===p)&&(g=u.nextElementSibling||u.nextSibling,d=g),(a.fn[p]||e.noop)(g)}if(i.matchesSelector(u,"span[value]")){var h=o.val()+n(u).attr("value");o.val(h)}t.cancel(s),s=t(function(){l||n(m.querySelector(".smilies-container")).removeClass("show"),c.$setViewValue(o.val())},600,!1)}}),r.$on("$destroy",function(){o.parent().off("click")})}}}]).directive("navigation",["$timeout","navigation","DOM","$document",function(e,t,a,n){return function(e,i){e.nav=t.updateNavi(),i.on("click",function(e){if(a.matchesSelector(e.target,"a")){e.preventDefault();var t=e.target.getAttribute("href");n[0].querySelector(t).scrollIntoView()}}),e.$on("updateSideNavi",function(t,a){e.nav=a})}}]).directive("ubtLog",["$timeout","navigation","DOM","$document",function(){return function(e,t,a){t.on("click",function(){var e={targetUrl:a.href||"",baseUrl:location.href||"",data:a.ubtData||""};(window._hmt||[]).push(["_trackEvent","__click__",a.ubtLog,JSON.stringify(e),1])})}}]).directive("noClick",["$timeout","navigation","DOM","$document",function(){return function(e,t){t.on("click",function(e){"img"===e.target.tagName.toLowerCase()&&(e.preventDefault(),e.stopPropagation())})}}]),t}),define("filter/filter",["App","Angular"],function(e,t){return e.filter("toHtml",["$sce",function(e){return function(a,n){return t.isString(a)&&(n||(a=a.replace(/<img ([^>]*)src=['"]([^'"]+)([^>]*)>/gim,'<img $1 data-src="$2" $3/>')),a=a.replace(/\u005c[caption [^\u005c]]*\u005c]/gi,""),a=a.replace(/\u005c[\u005c/caption\u005c]/gi,""),a=a.replace(/<pre><code>/gim,'<pre class="prettyprint linenums">'),a=a.replace(/<\u005c/code><\u005c/pre>/gim,"</pre>")),e.trustAsHtml(a)}}]).filter("toView",function(){return function(e,t){return e=~~e,t?e+" \u6761\u8bc4\u8bba":"\u56f4\u89c2 "+e+" \u6b21"}}).filter("d",["$filter",function(e){return function(t,a){return 10===t.toString().length&&(t=t.toString()+"000"),e("date")(t,a)}}]).filter("encode",function(){return function(e){return t.isString(e)?e.replace(/\u005cs+/gi,"%20").replace("=","%3D").replace("&","%26").replace("#","%20").replace("%","%25").replace("?","%3F"):""}}).filter("decode",function(){return function(e){return t.isString(e)?e.replace("%20"," ").replace(/%3D/gi,"=").replace("%26","&").replace("%20","#").replace("%25","%").replace(/%3f/gi,"?"):""}}).filter("commentToHtml",["commentEditor","APP_DEFAULT_CONFIG",function(e,t){var a=e.getEditorConf(),n=t.userInfo,i=n.mail&&n.author;return function(e,t){return e=(e||"").replace(/\u005c[private\u005c](.*)\u005c[\u005c/private\u005c]/gim,function(e,a){return i&&n.author===t?a:"***\u6b64\u5185\u5bb9\u4ec5\u7ba1\u7406\u5458\u53ca\u8bc4\u8bba\u8005\u672c\u4eba\u53ef\u89c1***"}),(e||"").replace(a.reg,function(e){return a.key_value[e]?'<img src="'+a.key_value[e]+'" />':e})}}])}),define("controller/RightCtrl",["App","service/services"],function(e){return e.controller("RightCtrl",["$scope","$http","cate","$timeout","$location","$window",function(e,t,a,n,i){t.get("index.php/api/archive",{params:{limit:12}}).success(function(t){200===t.status&&(e.archive=t.data)}),t.get("index.php/api/sideTabs").success(function(t){200===t.status&&(e.tabsContent=t.data)});var r={},o=angular.element,l=null,c=!1;e.tabsToggle=function(a,n){if(!c){if(c=!0,window.clearTimeout(l),l=window.setTimeout(function(){c=!1},500),n){n.preventDefault();var i=o(n.target),s=i.parent().find("a");s.removeClass("current"),i.addClass("current")}return r[a]?(e.tabsContent=r[a],void 0):(t.get("index.php/api/sideTabs",{params:{type:a}}).success(function(t){e.tabsContent=r[a]=t.data}),void 0)}},e.tabsToggle(),n(function(){e.category=a}),e.keywords="",e.search=function(){""!==e.keywords&&i.path("/search/"+e.keywords.replace(/\u005cs+/,"+"))},t.get("index.php/api/link").success(function(t){200===t.status&&(e.link=t.data)})}])}),define("controller/LeftCtrl",["App","service/services"],function(e){return e.controller("LeftCtrl",["$scope","$http","$stateParams","$timeout","$state",function(e,t,a,n,i){function r(){return i.is("blog.detail")?!0:!1}t.get("index.php/api/tagCloud",{params:{sort:"rand()",limit:30}}).success(function(t){200===t.status&&(e.tagCloud=t.data)}),e.isDetailPage=r(),e.$on("$stateChangeSuccess",function(){n(function(){e.isDetailPage=r()},1e3)})}])}),define("controller/IndexCtrl",["App"],function(e){return e.controller("IndexCtrl",["$scope","pageData","$location","$timeout","pagelist","$state",function(e,t,a,n,i,r){var o=t.length?t[0]:t;e.pageList=o.data,e.count=o.count,e.page=o.page,e.pagesize=10;var l=null;e.$on("$viewContentLoaded",function(){n(function(){var e=document.querySelectorAll("#main_con_center img[data-src]");l&&l.destroy(),e.length&&require(["http://cdn.lyblog.net/lib/lazyload/v1/lazyload.min.js"],function(){l=new window.LazyLoad({elements_selector:"#main_con_center img[data-src]",data_src:"src",show_while_loading:!1,threshold:100})})},500,!1)}),e.$on("$destroy",function(){l&&l.destroy()}),e.loadnext=function(t,n){if(n){var l="";return"blog.category"===r.current.name||"blog.categoryList"===r.current.name?(l="/category/",l+=1==t?r.params.cate+".html":r.params.cate+"/"+t+".html"):"blog.tag"===r.current.name||"blog.tagList"===r.current.name?(l="/tag/",l+=1==t?r.params.cate+".html":r.params.cate+"/"+t+".html"):l=1==t?"/":"/page/"+t+".html",a.path(l),void 0}var c=o.queryParam;c.params.page=t,i(c.url,c.params).success(function(t){200===t.status&&e.pageList.push.apply(e.pageList,t.data.data)})}}]),e}),define("controller/CateCtrl",["App","service/services"],function(e){return e.controller("CateCtrl",["$scope","$http","$stateParams",function(e,t,a){console.log(a)}]),e}),define("controller/DetailCtrl",["App","service/services","require","Angular","CONFIG"],function(e,t,a,n){var i=n.forEach,r=n.element;return e.controller("DetailCtrl",["$scope","$http","$stateParams","pageData","crumbs","$timeout","$rootScope","navigation","DOM",function(e,t,n,o,l,c,s,u,d){var m=o.length?o[0]:o;e.detail=m,s.title=m.title,c(function(){l.updateCrumbs(~~(m.categories&&m.categories.length&&m.categories[0].mid))});var p=null;e.$on("$viewContentLoaded",function(){c(function(){var e=document.querySelectorAll("#main_con_center img[data-src]");i(e,function(e){var t=d.getParent(e,"a",1),a=d.getParent(t||e,"p");a?""===(a=r(a)).text().replace(/[ ]*/g,"")?a.replaceWith('<div class="img_container"><div class="img_wrapper">'+a.html()+"</div>"):(r(a).after(e),r(e).wrap('<div class="img_container"></div>').wrap('<div class="img_wrapper"></div>')):r(t||e).wrap('<div class="img_container"></div>').wrap('<div class="img_wrapper"></div>')}),p&&p.destroy(),e.length&&a(["http://cdn.lyblog.net/lib/lazyload/v1/lazyload.min.js"],function(){p=new window.LazyLoad({elements_selector:"#main_con_center img[data-src]",data_src:"src",show_while_loading:!1})}),s.$broadcast("updateSideNavi",u.updateNavi())},500,!1)}),e.$on("$destroy",function(){p&&p.destroy()})}]).controller("commentForm",["$scope","$http","$timeout","$stateParams","APP_DEFAULT_CONFIG","$rootScope",function(e,t,a,i,r,o){e.comments=r.userInfo,e.isNeedShow=!(e.comments.url&&e.comments.mail),e.parentCommentId&&(e.comments.parent=e.parentCommentId),e.isSubmit=!1,e.submit=function(){return e.comment_form.$invalid?(a(function(){e.isSubmit=!1},1e3),void 0):(e.isSubmit||(e.isSubmit=!0,t.post("detail/"+i.cid+".html/comment",n.extend({_:function(){for(var t=e;t.$parent;){if(t.$parent.detail&&t.$parent.detail._)return t.$parent.detail._;t=t.$parent}return""}()},e.comments)).success(function(){o.$broadcast("updatecomment")}).finally(function(){e.isSubmit=!1})),void 0)}}]).controller("commentList",["$scope","$http","$stateParams","$compile","DOM",function(e,t,a,i,r){function o(a,n){e.pageInfo.page=a||e.pageInfo.page,t.get("index.php/api/comments",{params:e.pageInfo}).success(function(t){if(200===t.status){var a=t.data;e.pageInfo.count=a.count,e.pageInfo.page=a.page,n?e.commentsList=a.data:e.commentsList.push.apply(e.commentsList,a.data)}})}var l=n.element,c=r.getParent;e.pageInfo={pagesize:15,count:1,cid:a.cid,page:0},e.commentsList=[],e.$on("updatecomment",function(){o(0)});var s=null,u=null,d=null;e.reply=function(t){if(c(t.target,"a.reply")){t.preventDefault();var a="<div ng-include=\u005c"'comment_form.html'\u005c"></div>",r=n.element(a);if(u&&u.next().remove(),s&&s.$destroy(),d&&d===c(t.target,"a.reply"))return u=null,s=null,d=null,void 0;d=c(t.target,"a.reply"),s=e.$new(),s.parentCommentId=~~l(d).attr("data-parentid"),u=l(c(t.target,"div.comment-reply")).after(i(r)(s))}},e.$on("$destroy",function(){}),e.loadnext=function(e,t){o(e,t)}}]),e}),function(e,t,a){var n="//cdn.lyblog.net/angular/v1.2.28/",i="www.lyblog.net"===a.location.hostname,r={Angular:n+"angular","Angular-ui-route":"//cdn.lyblog.net/angular-ui-route/v0.2.13/angular-ui-route","Angular-animate":n+"angular-animate","Angular-resource":n+"angular-resource","Angular-cookies":n+"angular-cookies"};if(i)for(var o in r)r[o]+=".min";t("CONFIG",[],function(){var e="www.lyblog.net"===a.location.hostname,t=a.document.documentElement,n=!0,i="//hm.baidu.com/hm.js?7a4bab4637ad635825376455ce22920c";return t.clientWidth>800&&(n=!1),{isProduct:e,isMobile:n,loadTransLog:function(e){a.require({urlArgs:"",context:"cnz"},[i],function(){e(a._hmt=a._hmt||[])})},getPerformanceTiming:function(){var e=a.performance;if(!e)return console.log("\u4f60\u7684\u6d4f\u89c8\u5668\u4e0d\u652f\u6301 performance \u63a5\u53e3"),void 0;var t=e.timing,n={};return n.loadPage=t.loadEventEnd-t.navigationStart,n.domReady=t.domComplete-t.responseEnd,n.redirect=t.redirectEnd-t.redirectStart,n.lookupDomain=t.domainLookupEnd-t.domainLookupStart,n.ttfb=t.responseStart-t.navigationStart,n.request=t.responseEnd-t.requestStart,n.loadEvent=t.loadEventEnd-t.loadEventStart,n.appcache=t.domainLookupStart-t.fetchStart,n.unloadEvent=t.unloadEventEnd-t.unloadEventStart,n.connect=t.connectEnd-t.connectStart,n}}}),e.config({baseUrl:"usr/themes/readme-ng/tmp/script",shim:{Angular:{exports:"angular"},"Angular-ui-route":{deps:["Angular"]},"Angular-animate":{deps:["Angular"]},"Angular-resource":{deps:["Angular"]},"Angular-cookies":{deps:["Angular"]}},paths:r,urlArgs:"v=20161203172808"}),e(["Angular","App","service/services","directive/directive","filter/filter","controller/RightCtrl","controller/LeftCtrl","controller/IndexCtrl","controller/CateCtrl","controller/DetailCtrl"],function(e){e.element(document).ready(function(){e.bootstrap(document,["App"])})}),e.onError=function(t){var a=e("CONFIG");a.loadTransLog(function(e){e.push(["_trackEvent","REQUIRE_LOAD_ERROR","REQUIREJS_ERROR",t.toString()])}),"scripterror"!=t.requireType&&(document.querySelector(".on-error").style.display="block")}}(window.require,window.define,window),define("../main.tmp.js",function(){});</script></html>
p3
a.