(lp0
S'https://github.com/josdejong/jsoneditor/'
p1
aS'josdejong/jsoneditor'
p2
aI0
aV\u000a\u000a\u000a\u000a<!DOCTYPE html>\u000a<html lang="en" class=" is-copy-enabled is-u2f-enabled">\u000a  <head prefix="og: http://ogp.me/ns# fb: http://ogp.me/ns/fb# object: http://ogp.me/ns/object# article: http://ogp.me/ns/article# profile: http://ogp.me/ns/profile#">\u000a    <meta charset='utf-8'>\u000a    \u000a\u000a    <link crossorigin="anonymous" href="https://assets-cdn.github.com/assets/frameworks-b94ec35a696398c8a00f27343992e597c93faadce7783164f7f8967248cc818f.css" integrity="sha256-uU7DWmljmMigDyc0OZLll8k/qtzneDFk9/iWckjMgY8=" media="all" rel="stylesheet" />\u000a    <link crossorigin="anonymous" href="https://assets-cdn.github.com/assets/github-aebd420532800f9cce20cd765d8312a057d4628ae7bc626c8535e671d7767037.css" integrity="sha256-rr1CBTKAD5zOIM12XYMSoFfUYornvGJshTXmcdd2cDc=" media="all" rel="stylesheet" />\u000a    \u000a    \u000a    <link crossorigin="anonymous" href="https://assets-cdn.github.com/assets/site-9e0f35305336555b58884b07a160747fc1f6dbd79e13e18820a598a9abcb2662.css" integrity="sha256-ng81MFM2VVtYiEsHoWB0f8H229eeE+GIIKWYqavLJmI=" media="all" rel="stylesheet" />\u000a    \u000a\u000a    <meta http-equiv="X-UA-Compatible" content="IE=edge">\u000a    <meta http-equiv="Content-Language" content="en">\u000a    <meta name="viewport" content="width=device-width">\u000a    \u000a    <title>GitHub - josdejong/jsoneditor: A web-based tool to view, edit, format, and validate JSON</title>\u000a    <link rel="search" type="application/opensearchdescription+xml" href="/opensearch.xml" title="GitHub">\u000a    <link rel="fluid-icon" href="https://github.com/fluidicon.png" title="GitHub">\u000a    <link rel="apple-touch-icon" href="/apple-touch-icon.png">\u000a    <link rel="apple-touch-icon" sizes="57x57" href="/apple-touch-icon-57x57.png">\u000a    <link rel="apple-touch-icon" sizes="60x60" href="/apple-touch-icon-60x60.png">\u000a    <link rel="apple-touch-icon" sizes="72x72" href="/apple-touch-icon-72x72.png">\u000a    <link rel="apple-touch-icon" sizes="76x76" href="/apple-touch-icon-76x76.png">\u000a    <link rel="apple-touch-icon" sizes="114x114" href="/apple-touch-icon-114x114.png">\u000a    <link rel="apple-touch-icon" sizes="120x120" href="/apple-touch-icon-120x120.png">\u000a    <link rel="apple-touch-icon" sizes="144x144" href="/apple-touch-icon-144x144.png">\u000a    <link rel="apple-touch-icon" sizes="152x152" href="/apple-touch-icon-152x152.png">\u000a    <link rel="apple-touch-icon" sizes="180x180" href="/apple-touch-icon-180x180.png">\u000a    <meta property="fb:app_id" content="1401488693436528">\u000a\u000a      <meta content="https://avatars1.githubusercontent.com/u/568626?v=3&amp;s=400" name="twitter:image:src" /><meta content="@github" name="twitter:site" /><meta content="summary" name="twitter:card" /><meta content="josdejong/jsoneditor" name="twitter:title" /><meta content="jsoneditor - A web-based tool to view, edit, format, and validate JSON" name="twitter:description" />\u000a      <meta content="https://avatars1.githubusercontent.com/u/568626?v=3&amp;s=400" property="og:image" /><meta content="GitHub" property="og:site_name" /><meta content="object" property="og:type" /><meta content="josdejong/jsoneditor" property="og:title" /><meta content="https://github.com/josdejong/jsoneditor" property="og:url" /><meta content="jsoneditor - A web-based tool to view, edit, format, and validate JSON" property="og:description" />\u000a      <meta name="browser-stats-url" content="https://api.github.com/_private/browser/stats">\u000a    <meta name="browser-errors-url" content="https://api.github.com/_private/browser/errors">\u000a    <link rel="assets" href="https://assets-cdn.github.com/">\u000a    \u000a    <meta name="pjax-timeout" content="1000">\u000a    \u000a    <meta name="request-id" content="6A266622:5582:A3CFEE7:585A689B" data-pjax-transient>\u000a\u000a    <meta name="msapplication-TileImage" content="/windows-tile.png">\u000a    <meta name="msapplication-TileColor" content="#ffffff">\u000a    <meta name="selected-link" value="repo_source" data-pjax-transient>\u000a\u000a    <meta name="google-site-verification" content="KT5gs8h0wvaagLKAVWq8bbeNwnZZK1r1XQysX3xurLU">\u000a<meta name="google-site-verification" content="ZzhVyEFwb7w3e0-uOTltm8Jsck2F5StVihD0exw2fsA">\u000a    <meta name="google-analytics" content="UA-3769691-2">\u000a\u000a<meta content="collector.githubapp.com" name="octolytics-host" /><meta content="github" name="octolytics-app-id" /><meta content="6A266622:5582:A3CFEE7:585A689B" name="octolytics-dimension-request_id" />\u000a<meta content="/&lt;user-name&gt;/&lt;repo-name&gt;" data-pjax-transient="true" name="analytics-location" />\u000a\u000a\u000a\u000a  <meta class="js-ga-set" name="dimension1" content="Logged Out">\u000a\u000a\u000a\u000a        <meta name="hostname" content="github.com">\u000a    <meta name="user-login" content="">\u000a\u000a        <meta name="expected-hostname" content="github.com">\u000a      <meta name="js-proxy-site-detection-payload" content="M2E0MGU0NGFjOTMyZjhlNmE5NTA4MzViYzc5MDhjYzI5NjZkNGU2NTE4MGI3YzA3YjA2ZDlhYjU4MTg5MDAzOXx7InJlbW90ZV9hZGRyZXNzIjoiMTA2LjM4LjEwMi4zNCIsInJlcXVlc3RfaWQiOiI2QTI2NjYyMjo1NTgyOkEzQ0ZFRTc6NTg1QTY4OUIiLCJ0aW1lc3RhbXAiOjE0ODIzMjAwMjcsImhvc3QiOiJnaXRodWIuY29tIn0=">\u000a\u000a\u000a      <link rel="mask-icon" href="https://assets-cdn.github.com/pinned-octocat.svg" color="#000000">\u000a      <link rel="icon" type="image/x-icon" href="https://assets-cdn.github.com/favicon.ico">\u000a\u000a    <meta name="html-safe-nonce" content="46f19de4c170e0c8bb50028ce8630e214bb9bb81">\u000a    <meta content="1e9f0cb51730d5c8c6ac7f062987619b9e34125d" name="form-nonce" />\u000a\u000a    <meta http-equiv="x-pjax-version" content="9ac6f3e80176faec82e45cb144ad6878">\u000a    \u000a\u000a      \u000a  <meta name="description" content="jsoneditor - A web-based tool to view, edit, format, and validate JSON">\u000a  <meta name="go-import" content="github.com/josdejong/jsoneditor git https://github.com/josdejong/jsoneditor.git">\u000a\u000a  <meta content="568626" name="octolytics-dimension-user_id" /><meta content="josdejong" name="octolytics-dimension-user_login" /><meta content="4075232" name="octolytics-dimension-repository_id" /><meta content="josdejong/jsoneditor" name="octolytics-dimension-repository_nwo" /><meta content="true" name="octolytics-dimension-repository_public" /><meta content="false" name="octolytics-dimension-repository_is_fork" /><meta content="4075232" name="octolytics-dimension-repository_network_root_id" /><meta content="josdejong/jsoneditor" name="octolytics-dimension-repository_network_root_nwo" />\u000a  <link href="https://github.com/josdejong/jsoneditor/commits/master.atom" rel="alternate" title="Recent Commits to jsoneditor:master" type="application/atom+xml">\u000a\u000a\u000a      <link rel="canonical" href="https://github.com/josdejong/jsoneditor" data-pjax-transient>\u000a  </head>\u000a\u000a\u000a  <body class="logged-out  env-production linux vis-public">\u000a    <div id="js-pjax-loader-bar" class="pjax-loader-bar"><div class="progress"></div></div>\u000a    <a href="#start-of-content" tabindex="1" class="accessibility-aid js-skip-to-content">Skip to content</a>\u000a\u000a    \u000a    \u000a    \u000a\u000a\u000a\u000a          <header class="site-header js-details-container" role="banner">\u000a  <div class="container-responsive">\u000a    <a class="header-logo-invertocat" href="https://github.com/" aria-label="Homepage" data-ga-click="(Logged out) Header, go to homepage, icon:logo-wordmark">\u000a      <svg aria-hidden="true" class="octicon octicon-mark-github" height="32" version="1.1" viewBox="0 0 16 16" width="32"><path fill-rule="evenodd" d="M8 0C3.58 0 0 3.58 0 8c0 3.54 2.29 6.53 5.47 7.59.4.07.55-.17.55-.38 0-.19-.01-.82-.01-1.49-2.01.37-2.53-.49-2.69-.94-.09-.23-.48-.94-.82-1.13-.28-.15-.68-.52-.01-.53.63-.01 1.08.58 1.23.82.72 1.21 1.87.87 2.33.66.07-.52.28-.87.51-1.07-1.78-.2-3.64-.89-3.64-3.95 0-.87.31-1.59.82-2.15-.08-.2-.36-1.02.08-2.12 0 0 .67-.21 2.2.82.64-.18 1.32-.27 2-.27.68 0 1.36.09 2 .27 1.53-1.04 2.2-.82 2.2-.82.44 1.1.16 1.92.08 2.12.51.56.82 1.27.82 2.15 0 3.07-1.87 3.75-3.65 3.95.29.25.54.73.54 1.48 0 1.07-.01 1.93-.01 2.2 0 .21.15.46.55.38A8.013 8.013 0 0 0 16 8c0-4.42-3.58-8-8-8z"/></svg>\u000a    </a>\u000a\u000a    <button class="btn-link float-right site-header-toggle js-details-target" type="button" aria-label="Toggle navigation">\u000a      <svg aria-hidden="true" class="octicon octicon-three-bars" height="24" version="1.1" viewBox="0 0 12 16" width="18"><path fill-rule="evenodd" d="M11.41 9H.59C0 9 0 8.59 0 8c0-.59 0-1 .59-1H11.4c.59 0 .59.41.59 1 0 .59 0 1-.59 1h.01zm0-4H.59C0 5 0 4.59 0 4c0-.59 0-1 .59-1H11.4c.59 0 .59.41.59 1 0 .59 0 1-.59 1h.01zM.59 11H11.4c.59 0 .59.41.59 1 0 .59 0 1-.59 1H.59C0 13 0 12.59 0 12c0-.59 0-1 .59-1z"/></svg>\u000a    </button>\u000a\u000a    <div class="site-header-menu">\u000a      <nav class="site-header-nav site-header-nav-main">\u000a        <a href="/personal" class="js-selected-navigation-item nav-item nav-item-personal" data-ga-click="Header, click, Nav menu - item:personal" data-selected-links="/personal /personal">\u000a          Personal\u000a</a>        <a href="/open-source" class="js-selected-navigation-item nav-item nav-item-opensource" data-ga-click="Header, click, Nav menu - item:opensource" data-selected-links="/open-source /open-source">\u000a          Open source\u000a</a>        <a href="/business" class="js-selected-navigation-item nav-item nav-item-business" data-ga-click="Header, click, Nav menu - item:business" data-selected-links="/business /business/partners /business/features /business/customers /business">\u000a          Business\u000a</a>        <a href="/explore" class="js-selected-navigation-item nav-item nav-item-explore" data-ga-click="Header, click, Nav menu - item:explore" data-selected-links="/explore /trending /trending/developers /integrations /integrations/feature/code /integrations/feature/collaborate /integrations/feature/ship /showcases /explore">\u000a          Explore\u000a</a>      </nav>\u000a\u000a      <div class="site-header-actions">\u000a            <a class="btn btn-primary site-header-actions-btn" href="/join?source=header-repo" data-ga-click="(Logged out) Header, clicked Sign up, text:sign-up">Sign up</a>\u000a          <a class="btn site-header-actions-btn mr-1" href="/login?return_to=%2Fjosdejong%2Fjsoneditor" data-ga-click="(Logged out) Header, clicked Sign in, text:sign-in">Sign in</a>\u000a      </div>\u000a\u000a        <nav class="site-header-nav site-header-nav-secondary mr-md-3">\u000a          <a class="nav-item" href="/pricing">Pricing</a>\u000a          <a class="nav-item" href="/blog">Blog</a>\u000a          <a class="nav-item" href="https://help.github.com">Support</a>\u000a          <a class="nav-item header-search-link" href="https://github.com/search">Search GitHub</a>\u000a              <div class="header-search scoped-search site-scoped-search js-site-search" role="search">\u000a  <!-- '"` --><!-- </textarea></xmp> --></option></form><form accept-charset="UTF-8" action="/josdejong/jsoneditor/search" class="js-site-search-form" data-scoped-search-url="/josdejong/jsoneditor/search" data-unscoped-search-url="/search" method="get"><div style="margin:0;padding:0;display:inline"><input name="utf8" type="hidden" value="&#x2713;" /></div>\u000a    <label class="form-control header-search-wrapper js-chromeless-input-container">\u000a      <div class="header-search-scope">This repository</div>\u000a      <input type="text"\u000a        class="form-control header-search-input js-site-search-focus js-site-search-field is-clearable"\u000a        data-hotkey="s"\u000a        name="q"\u000a        placeholder="Search"\u000a        aria-label="Search this repository"\u000a        data-unscoped-placeholder="Search GitHub"\u000a        data-scoped-placeholder="Search"\u000a        autocapitalize="off">\u000a    </label>\u000a</form></div>\u000a\u000a        </nav>\u000a    </div>\u000a  </div>\u000a</header>\u000a\u000a\u000a\u000a    <div id="start-of-content" class="accessibility-aid"></div>\u000a\u000a      <div id="js-flash-container">\u000a</div>\u000a\u000a\u000a    <div role="main">\u000a        <div itemscope itemtype="http://schema.org/SoftwareSourceCode">\u000a    <div id="js-repo-pjax-container" data-pjax-container>\u000a      \u000a<div class="pagehead repohead instapaper_ignore readability-menu experiment-repo-nav">\u000a  <div class="container repohead-details-container">\u000a\u000a    \u000a\u000a<ul class="pagehead-actions">\u000a\u000a  <li>\u000a      <a href="/login?return_to=%2Fjosdejong%2Fjsoneditor"\u000a    class="btn btn-sm btn-with-count tooltipped tooltipped-n"\u000a    aria-label="You must be signed in to watch a repository" rel="nofollow">\u000a    <svg aria-hidden="true" class="octicon octicon-eye" height="16" version="1.1" viewBox="0 0 16 16" width="16"><path fill-rule="evenodd" d="M8.06 2C3 2 0 8 0 8s3 6 8.06 6C13 14 16 8 16 8s-3-6-7.94-6zM8 12c-2.2 0-4-1.78-4-4 0-2.2 1.8-4 4-4 2.22 0 4 1.8 4 4 0 2.22-1.78 4-4 4zm2-4c0 1.11-.89 2-2 2-1.11 0-2-.89-2-2 0-1.11.89-2 2-2 1.11 0 2 .89 2 2z"/></svg>\u000a    Watch\u000a  </a>\u000a  <a class="social-count" href="/josdejong/jsoneditor/watchers"\u000a     aria-label="161 users are watching this repository">\u000a    161\u000a  </a>\u000a\u000a  </li>\u000a\u000a  <li>\u000a      <a href="/login?return_to=%2Fjosdejong%2Fjsoneditor"\u000a    class="btn btn-sm btn-with-count tooltipped tooltipped-n"\u000a    aria-label="You must be signed in to star a repository" rel="nofollow">\u000a    <svg aria-hidden="true" class="octicon octicon-star" height="16" version="1.1" viewBox="0 0 14 16" width="14"><path fill-rule="evenodd" d="M14 6l-4.9-.64L7 1 4.9 5.36 0 6l3.6 3.26L2.67 14 7 11.67 11.33 14l-.93-4.74z"/></svg>\u000a    Star\u000a  </a>\u000a\u000a    <a class="social-count js-social-count" href="/josdejong/jsoneditor/stargazers"\u000a      aria-label="2864 users starred this repository">\u000a      2,864\u000a    </a>\u000a\u000a  </li>\u000a\u000a  <li>\u000a      <a href="/login?return_to=%2Fjosdejong%2Fjsoneditor"\u000a        class="btn btn-sm btn-with-count tooltipped tooltipped-n"\u000a        aria-label="You must be signed in to fork a repository" rel="nofollow">\u000a        <svg aria-hidden="true" class="octicon octicon-repo-forked" height="16" version="1.1" viewBox="0 0 10 16" width="10"><path fill-rule="evenodd" d="M8 1a1.993 1.993 0 0 0-1 3.72V6L5 8 3 6V4.72A1.993 1.993 0 0 0 2 1a1.993 1.993 0 0 0-1 3.72V6.5l3 3v1.78A1.993 1.993 0 0 0 5 15a1.993 1.993 0 0 0 1-3.72V9.5l3-3V4.72A1.993 1.993 0 0 0 8 1zM2 4.2C1.34 4.2.8 3.65.8 3c0-.65.55-1.2 1.2-1.2.65 0 1.2.55 1.2 1.2 0 .65-.55 1.2-1.2 1.2zm3 10c-.66 0-1.2-.55-1.2-1.2 0-.65.55-1.2 1.2-1.2.65 0 1.2.55 1.2 1.2 0 .65-.55 1.2-1.2 1.2zm3-10c-.66 0-1.2-.55-1.2-1.2 0-.65.55-1.2 1.2-1.2.65 0 1.2.55 1.2 1.2 0 .65-.55 1.2-1.2 1.2z"/></svg>\u000a        Fork\u000a      </a>\u000a\u000a    <a href="/josdejong/jsoneditor/network" class="social-count"\u000a       aria-label="606 users forked this repository">\u000a      606\u000a    </a>\u000a  </li>\u000a</ul>\u000a\u000a    <h1 class="public ">\u000a  <svg aria-hidden="true" class="octicon octicon-repo" height="16" version="1.1" viewBox="0 0 12 16" width="12"><path fill-rule="evenodd" d="M4 9H3V8h1v1zm0-3H3v1h1V6zm0-2H3v1h1V4zm0-2H3v1h1V2zm8-1v12c0 .55-.45 1-1 1H6v2l-1.5-1.5L3 16v-2H1c-.55 0-1-.45-1-1V1c0-.55.45-1 1-1h10c.55 0 1 .45 1 1zm-1 10H1v2h2v-1h3v1h5v-2zm0-10H2v9h9V1z"/></svg>\u000a  <span class="author" itemprop="author"><a href="/josdejong" class="url fn" rel="author">josdejong</a></span><!--\u000a--><span class="path-divider">/</span><!--\u000a--><strong itemprop="name"><a href="/josdejong/jsoneditor" data-pjax="#js-repo-pjax-container">jsoneditor</a></strong>\u000a\u000a</h1>\u000a\u000a  </div>\u000a  <div class="container">\u000a    \u000a<nav class="reponav js-repo-nav js-sidenav-container-pjax"\u000a     itemscope\u000a     itemtype="http://schema.org/BreadcrumbList"\u000a     role="navigation"\u000a     data-pjax="#js-repo-pjax-container">\u000a\u000a  <span itemscope itemtype="http://schema.org/ListItem" itemprop="itemListElement">\u000a    <a href="/josdejong/jsoneditor" class="js-selected-navigation-item selected reponav-item" data-hotkey="g c" data-selected-links="repo_source repo_downloads repo_commits repo_releases repo_tags repo_branches /josdejong/jsoneditor" itemprop="url">\u000a      <svg aria-hidden="true" class="octicon octicon-code" height="16" version="1.1" viewBox="0 0 14 16" width="14"><path fill-rule="evenodd" d="M9.5 3L8 4.5 11.5 8 8 11.5 9.5 13 14 8 9.5 3zm-5 0L0 8l4.5 5L6 11.5 2.5 8 6 4.5 4.5 3z"/></svg>\u000a      <span itemprop="name">Code</span>\u000a      <meta itemprop="position" content="1">\u000a</a>  </span>\u000a\u000a    <span itemscope itemtype="http://schema.org/ListItem" itemprop="itemListElement">\u000a      <a href="/josdejong/jsoneditor/issues" class="js-selected-navigation-item reponav-item" data-hotkey="g i" data-selected-links="repo_issues repo_labels repo_milestones /josdejong/jsoneditor/issues" itemprop="url">\u000a        <svg aria-hidden="true" class="octicon octicon-issue-opened" height="16" version="1.1" viewBox="0 0 14 16" width="14"><path fill-rule="evenodd" d="M7 2.3c3.14 0 5.7 2.56 5.7 5.7s-2.56 5.7-5.7 5.7A5.71 5.71 0 0 1 1.3 8c0-3.14 2.56-5.7 5.7-5.7zM7 1C3.14 1 0 4.14 0 8s3.14 7 7 7 7-3.14 7-7-3.14-7-7-7zm1 3H6v5h2V4zm0 6H6v2h2v-2z"/></svg>\u000a        <span itemprop="name">Issues</span>\u000a        <span class="counter">51</span>\u000a        <meta itemprop="position" content="2">\u000a</a>    </span>\u000a\u000a  <span itemscope itemtype="http://schema.org/ListItem" itemprop="itemListElement">\u000a    <a href="/josdejong/jsoneditor/pulls" class="js-selected-navigation-item reponav-item" data-hotkey="g p" data-selected-links="repo_pulls /josdejong/jsoneditor/pulls" itemprop="url">\u000a      <svg aria-hidden="true" class="octicon octicon-git-pull-request" height="16" version="1.1" viewBox="0 0 12 16" width="12"><path fill-rule="evenodd" d="M11 11.28V5c-.03-.78-.34-1.47-.94-2.06C9.46 2.35 8.78 2.03 8 2H7V0L4 3l3 3V4h1c.27.02.48.11.69.31.21.2.3.42.31.69v6.28A1.993 1.993 0 0 0 10 15a1.993 1.993 0 0 0 1-3.72zm-1 2.92c-.66 0-1.2-.55-1.2-1.2 0-.65.55-1.2 1.2-1.2.65 0 1.2.55 1.2 1.2 0 .65-.55 1.2-1.2 1.2zM4 3c0-1.11-.89-2-2-2a1.993 1.993 0 0 0-1 3.72v6.56A1.993 1.993 0 0 0 2 15a1.993 1.993 0 0 0 1-3.72V4.72c.59-.34 1-.98 1-1.72zm-.8 10c0 .66-.55 1.2-1.2 1.2-.65 0-1.2-.55-1.2-1.2 0-.65.55-1.2 1.2-1.2.65 0 1.2.55 1.2 1.2zM2 4.2C1.34 4.2.8 3.65.8 3c0-.65.55-1.2 1.2-1.2.65 0 1.2.55 1.2 1.2 0 .65-.55 1.2-1.2 1.2z"/></svg>\u000a      <span itemprop="name">Pull requests</span>\u000a      <span class="counter">4</span>\u000a      <meta itemprop="position" content="3">\u000a</a>  </span>\u000a\u000a  <a href="/josdejong/jsoneditor/projects" class="js-selected-navigation-item reponav-item" data-selected-links="repo_projects new_repo_project repo_project /josdejong/jsoneditor/projects">\u000a    <svg aria-hidden="true" class="octicon octicon-project" height="16" version="1.1" viewBox="0 0 15 16" width="15"><path fill-rule="evenodd" d="M10 12h3V2h-3v10zm-4-2h3V2H6v8zm-4 4h3V2H2v12zm-1 1h13V1H1v14zM14 0H1a1 1 0 0 0-1 1v14a1 1 0 0 0 1 1h13a1 1 0 0 0 1-1V1a1 1 0 0 0-1-1z"/></svg>\u000a    Projects\u000a    <span class="counter">0</span>\u000a</a>\u000a    <a href="/josdejong/jsoneditor/wiki" class="js-selected-navigation-item reponav-item" data-hotkey="g w" data-selected-links="repo_wiki /josdejong/jsoneditor/wiki">\u000a      <svg aria-hidden="true" class="octicon octicon-book" height="16" version="1.1" viewBox="0 0 16 16" width="16"><path fill-rule="evenodd" d="M3 5h4v1H3V5zm0 3h4V7H3v1zm0 2h4V9H3v1zm11-5h-4v1h4V5zm0 2h-4v1h4V7zm0 2h-4v1h4V9zm2-6v9c0 .55-.45 1-1 1H9.5l-1 1-1-1H2c-.55 0-1-.45-1-1V3c0-.55.45-1 1-1h5.5l1 1 1-1H15c.55 0 1 .45 1 1zm-8 .5L7.5 3H2v9h6V3.5zm7-.5H9.5l-.5.5V12h6V3z"/></svg>\u000a      Wiki\u000a</a>\u000a\u000a  <a href="/josdejong/jsoneditor/pulse" class="js-selected-navigation-item reponav-item" data-selected-links="pulse /josdejong/jsoneditor/pulse">\u000a    <svg aria-hidden="true" class="octicon octicon-pulse" height="16" version="1.1" viewBox="0 0 14 16" width="14"><path fill-rule="evenodd" d="M11.5 8L8.8 5.4 6.6 8.5 5.5 1.6 2.38 8H0v2h3.6l.9-1.8.9 5.4L9 8.5l1.6 1.5H14V8z"/></svg>\u000a    Pulse\u000a</a>\u000a  <a href="/josdejong/jsoneditor/graphs" class="js-selected-navigation-item reponav-item" data-selected-links="repo_graphs repo_contributors /josdejong/jsoneditor/graphs">\u000a    <svg aria-hidden="true" class="octicon octicon-graph" height="16" version="1.1" viewBox="0 0 16 16" width="16"><path fill-rule="evenodd" d="M16 14v1H0V0h1v14h15zM5 13H3V8h2v5zm4 0H7V3h2v10zm4 0h-2V6h2v7z"/></svg>\u000a    Graphs\u000a</a>\u000a\u000a</nav>\u000a\u000a  </div>\u000a</div>\u000a\u000a<div class="container new-discussion-timeline experiment-repo-nav">\u000a  <div class="repository-content">\u000a\u000a    \u000a<div class="repository-meta js-details-container">\u000a  <div class="repository-meta-content col-11">\u000a        <span class="col-11 text-gray-dark" itemprop="about">\u000a          A web-based tool to view, edit, format, and validate JSON\u000a        </span>\u000a        <span itemprop="url"><a href="http://jsoneditoronline.org" rel="nofollow">http://jsoneditoronline.org</a></span>\u000a\u000a  </div>\u000a\u000a</div>\u000a\u000a\u000a\u000a<div class="overall-summary overall-summary-bottomless">\u000a  <div class="stats-switcher-viewport js-stats-switcher-viewport">\u000a    <div class="stats-switcher-wrapper">\u000a    <ul class="numbers-summary">\u000a      <li class="commits">\u000a        <a data-pjax href="/josdejong/jsoneditor/commits/master">\u000a            <svg aria-hidden="true" class="octicon octicon-history" height="16" version="1.1" viewBox="0 0 14 16" width="14"><path fill-rule="evenodd" d="M8 13H6V6h5v2H8v5zM7 1C4.81 1 2.87 2.02 1.59 3.59L0 2v4h4L2.5 4.5C3.55 3.17 5.17 2.3 7 2.3c3.14 0 5.7 2.56 5.7 5.7s-2.56 5.7-5.7 5.7A5.71 5.71 0 0 1 1.3 8c0-.34.03-.67.09-1H.08C.03 7.33 0 7.66 0 8c0 3.86 3.14 7 7 7s7-3.14 7-7-3.14-7-7-7z"/></svg>\u000a            <span class="num text-emphasized">\u000a              586\u000a            </span>\u000a            commits\u000a        </a>\u000a      </li>\u000a      <li>\u000a        <a data-pjax href="/josdejong/jsoneditor/branches">\u000a          <svg aria-hidden="true" class="octicon octicon-git-branch" height="16" version="1.1" viewBox="0 0 10 16" width="10"><path fill-rule="evenodd" d="M10 5c0-1.11-.89-2-2-2a1.993 1.993 0 0 0-1 3.72v.3c-.02.52-.23.98-.63 1.38-.4.4-.86.61-1.38.63-.83.02-1.48.16-2 .45V4.72a1.993 1.993 0 0 0-1-3.72C.88 1 0 1.89 0 3a2 2 0 0 0 1 1.72v6.56c-.59.35-1 .99-1 1.72 0 1.11.89 2 2 2 1.11 0 2-.89 2-2 0-.53-.2-1-.53-1.36.09-.06.48-.41.59-.47.25-.11.56-.17.94-.17 1.05-.05 1.95-.45 2.75-1.25S8.95 7.77 9 6.73h-.02C9.59 6.37 10 5.73 10 5zM2 1.8c.66 0 1.2.55 1.2 1.2 0 .65-.55 1.2-1.2 1.2C1.35 4.2.8 3.65.8 3c0-.65.55-1.2 1.2-1.2zm0 12.41c-.66 0-1.2-.55-1.2-1.2 0-.65.55-1.2 1.2-1.2.65 0 1.2.55 1.2 1.2 0 .65-.55 1.2-1.2 1.2zm6-8c-.66 0-1.2-.55-1.2-1.2 0-.65.55-1.2 1.2-1.2.65 0 1.2.55 1.2 1.2 0 .65-.55 1.2-1.2 1.2z"/></svg>\u000a          <span class="num text-emphasized">\u000a            4\u000a          </span>\u000a          branches\u000a        </a>\u000a      </li>\u000a\u000a      <li>\u000a        <a data-pjax href="/josdejong/jsoneditor/releases">\u000a          <svg aria-hidden="true" class="octicon octicon-tag" height="16" version="1.1" viewBox="0 0 14 16" width="14"><path fill-rule="evenodd" d="M7.73 1.73C7.26 1.26 6.62 1 5.96 1H3.5C2.13 1 1 2.13 1 3.5v2.47c0 .66.27 1.3.73 1.77l6.06 6.06c.39.39 1.02.39 1.41 0l4.59-4.59a.996.996 0 0 0 0-1.41L7.73 1.73zM2.38 7.09c-.31-.3-.47-.7-.47-1.13V3.5c0-.88.72-1.59 1.59-1.59h2.47c.42 0 .83.16 1.13.47l6.14 6.13-4.73 4.73-6.13-6.15zM3.01 3h2v2H3V3h.01z"/></svg>\u000a          <span class="num text-emphasized">\u000a            48\u000a          </span>\u000a          releases\u000a        </a>\u000a      </li>\u000a\u000a      <li>\u000a          <a href="/josdejong/jsoneditor/graphs/contributors">\u000a  <svg aria-hidden="true" class="octicon octicon-organization" height="16" version="1.1" viewBox="0 0 16 16" width="16"><path fill-rule="evenodd" d="M16 12.999c0 .439-.45 1-1 1H7.995c-.539 0-.994-.447-.995-.999H1c-.54 0-1-.561-1-1 0-2.634 3-4 3-4s.229-.409 0-1c-.841-.621-1.058-.59-1-3 .058-2.419 1.367-3 2.5-3s2.442.58 2.5 3c.058 2.41-.159 2.379-1 3-.229.59 0 1 0 1s1.549.711 2.42 2.088C9.196 9.369 10 8.999 10 8.999s.229-.409 0-1c-.841-.62-1.058-.59-1-3 .058-2.419 1.367-3 2.5-3s2.437.581 2.495 3c.059 2.41-.158 2.38-1 3-.229.59 0 1 0 1s3.005 1.366 3.005 4"/></svg>\u000a    <span class="num text-emphasized">\u000a      21\u000a    </span>\u000a    contributors\u000a</a>\u000a\u000a      </li>\u000a        <li>\u000a          <a href="https://github.com/josdejong/jsoneditor/blob/master/LICENSE">\u000a            <svg aria-hidden="true" class="octicon octicon-law" height="16" version="1.1" viewBox="0 0 14 16" width="14"><path fill-rule="evenodd" d="M7 4c-.83 0-1.5-.67-1.5-1.5S6.17 1 7 1s1.5.67 1.5 1.5S7.83 4 7 4zm7 6c0 1.11-.89 2-2 2h-1c-1.11 0-2-.89-2-2l2-4h-1c-.55 0-1-.45-1-1H8v8c.42 0 1 .45 1 1h1c.42 0 1 .45 1 1H3c0-.55.58-1 1-1h1c0-.55.58-1 1-1h.03L6 5H5c0 .55-.45 1-1 1H3l2 4c0 1.11-.89 2-2 2H2c-1.11 0-2-.89-2-2l2-4H1V5h3c0-.55.45-1 1-1h4c.55 0 1 .45 1 1h3v1h-1l2 4zM2.5 7L1 10h3L2.5 7zM13 10l-1.5-3-1.5 3h3z"/></svg>\u000a              Apache-2.0\u000a          </a>\u000a        </li>\u000a    </ul>\u000a\u000a      <div class="repository-lang-stats">\u000a        <ol class="repository-lang-stats-numbers">\u000a          <li>\u000a              <a href="/josdejong/jsoneditor/search?l=javascript"  data-ga-click="Repository, language stats search click, location:repo overview">\u000a                <span class="color-block language-color" style="background-color:#f1e05a;"></span>\u000a                <span class="lang">JavaScript</span>\u000a                <span class="percent">87.5%</span>\u000a              </a>\u000a          </li>\u000a          <li>\u000a              <a href="/josdejong/jsoneditor/search?l=css"  data-ga-click="Repository, language stats search click, location:repo overview">\u000a                <span class="color-block language-color" style="background-color:#563d7c;"></span>\u000a                <span class="lang">CSS</span>\u000a                <span class="percent">7.6%</span>\u000a              </a>\u000a          </li>\u000a          <li>\u000a              <a href="/josdejong/jsoneditor/search?l=html"  data-ga-click="Repository, language stats search click, location:repo overview">\u000a                <span class="color-block language-color" style="background-color:#e44b23;"></span>\u000a                <span class="lang">HTML</span>\u000a                <span class="percent">4.9%</span>\u000a              </a>\u000a          </li>\u000a        </ol>\u000a      </div>\u000a    </div>\u000a  </div>\u000a</div>\u000a\u000a  <div class="repository-lang-stats-graph js-toggle-lang-stats" title="Click for language details" data-ga-click="Repository, language bar stats toggle, location:repo overview">\u000a    <span class="language-color" aria-label="JavaScript 87.5%" style="width:87.5%; background-color:#f1e05a;" itemprop="keywords">JavaScript</span>\u000a    <span class="language-color" aria-label="CSS 7.6%" style="width:7.6%; background-color:#563d7c;" itemprop="keywords">CSS</span>\u000a    <span class="language-color" aria-label="HTML 4.9%" style="width:4.9%; background-color:#e44b23;" itemprop="keywords">HTML</span>\u000a  </div>\u000a\u000a\u000a<div class="file-navigation in-mid-page">\u000a\u000a    <div class="select-menu get-repo-select-menu js-menu-container float-right select-menu-modal-right">\u000a  <button class="btn btn-sm btn-primary select-menu-button js-menu-target"\u000a    title="Clone or download this repository"\u000a    type="button" aria-label="Clone or download this repository" tabindex="0" aria-haspopup="true">\u000a    <span>Clone or download</span>\u000a  </button>\u000a\u000a  <div class="select-menu-modal-holder dropdown-menu-content js-menu-content" aria-hidden="true">\u000a    <div class="get-repo-modal dropdown-menu dropdown-menu-sw pb-0 js-toggler-container ">\u000a      <div class="clone-options https-clone-options">\u000a\u000a        <h4 class="mb-1">\u000a          Clone with HTTPS\u000a          <a class="muted-link" href="https://help.github.com/articles/which-remote-url-should-i-use" target="_blank">\u000a            <svg aria-hidden="true" class="octicon octicon-question" height="16" version="1.1" viewBox="0 0 14 16" width="14"><path fill-rule="evenodd" d="M6 10h2v2H6v-2zm4-3.5C10 8.64 8 9 8 9H6c0-.55.45-1 1-1h.5c.28 0 .5-.22.5-.5v-1c0-.28-.22-.5-.5-.5h-1c-.28 0-.5.22-.5.5V7H4c0-1.5 1.5-3 3-3s3 1 3 2.5zM7 2.3c3.14 0 5.7 2.56 5.7 5.7s-2.56 5.7-5.7 5.7A5.71 5.71 0 0 1 1.3 8c0-3.14 2.56-5.7 5.7-5.7zM7 1C3.14 1 0 4.14 0 8s3.14 7 7 7 7-3.14 7-7-3.14-7-7-7z"/></svg>\u000a          </a>\u000a        </h4>\u000a        <p class="mb-2 get-repo-decription-text">\u000a          Use Git or checkout with SVN using the web URL.\u000a        </p>\u000a\u000a        <div class="input-group js-zeroclipboard-container">\u000a  <input type="text" class="form-control input-monospace input-sm js-zeroclipboard-target js-url-field" value="https://github.com/josdejong/jsoneditor.git" aria-label="Clone this repository at https://github.com/josdejong/jsoneditor.git" readonly>\u000a  <div class="input-group-button">\u000a    <button aria-label="Copy to clipboard" class="js-zeroclipboard btn btn-sm zeroclipboard-button tooltipped tooltipped-s" data-copied-hint="Copied!" type="button"><svg aria-hidden="true" class="octicon octicon-clippy" height="16" version="1.1" viewBox="0 0 14 16" width="14"><path fill-rule="evenodd" d="M2 13h4v1H2v-1zm5-6H2v1h5V7zm2 3V8l-3 3 3 3v-2h5v-2H9zM4.5 9H2v1h2.5V9zM2 12h2.5v-1H2v1zm9 1h1v2c-.02.28-.11.52-.3.7-.19.18-.42.28-.7.3H1c-.55 0-1-.45-1-1V4c0-.55.45-1 1-1h3c0-1.11.89-2 2-2 1.11 0 2 .89 2 2h3c.55 0 1 .45 1 1v5h-1V6H1v9h10v-2zM2 5h8c0-.55-.45-1-1-1H8c-.55 0-1-.45-1-1s-.45-1-1-1-1 .45-1 1-.45 1-1 1H3c-.55 0-1 .45-1 1z"/></svg></button>\u000a  </div>\u000a</div>\u000a\u000a      </div>\u000a\u000a\u000a      <div class="mt-2">\u000a        \u000a<a href="/josdejong/jsoneditor/archive/master.zip"\u000a   class="btn btn-outline get-repo-btn\u000a"\u000a   rel="nofollow"\u000a   data-ga-click="Repository, download zip, location:repo overview">\u000a  Download ZIP\u000a</a>\u000a\u000a      </div>\u000a    </div>\u000a  </div>\u000a</div>\u000a\u000a\u000a  <div class="BtnGroup float-right">\u000a\u000a    <a href="/josdejong/jsoneditor/find/master"\u000a      class="btn btn-sm empty-icon float-right BtnGroup-item"\u000a      data-pjax\u000a      data-hotkey="t"\u000a      data-ga-click="Repository, find file, location:repo overview">\u000a      Find file\u000a    </a>\u000a  </div>\u000a\u000a  \u000a<div class="select-menu branch-select-menu js-menu-container js-select-menu float-left">\u000a  <button class="btn btn-sm select-menu-button js-menu-target css-truncate" data-hotkey="w"\u000a    \u000a    type="button" aria-label="Switch branches or tags" tabindex="0" aria-haspopup="true">\u000a    <i>Branch:</i>\u000a    <span class="js-select-button css-truncate-target">master</span>\u000a  </button>\u000a\u000a  <div class="select-menu-modal-holder js-menu-content js-navigation-container" data-pjax aria-hidden="true">\u000a\u000a    <div class="select-menu-modal">\u000a      <div class="select-menu-header">\u000a        <svg aria-label="Close" class="octicon octicon-x js-menu-close" height="16" role="img" version="1.1" viewBox="0 0 12 16" width="12"><path fill-rule="evenodd" d="M7.48 8l3.75 3.75-1.48 1.48L6 9.48l-3.75 3.75-1.48-1.48L4.52 8 .77 4.25l1.48-1.48L6 6.52l3.75-3.75 1.48 1.48z"/></svg>\u000a        <span class="select-menu-title">Switch branches/tags</span>\u000a      </div>\u000a\u000a      <div class="select-menu-filters">\u000a        <div class="select-menu-text-filter">\u000a          <input type="text" aria-label="Filter branches/tags" id="context-commitish-filter-field" class="form-control js-filterable-field js-navigation-enable" placeholder="Filter branches/tags">\u000a        </div>\u000a        <div class="select-menu-tabs">\u000a          <ul>\u000a            <li class="select-menu-tab">\u000a              <a href="#" data-tab-filter="branches" data-filter-placeholder="Filter branches/tags" class="js-select-menu-tab" role="tab">Branches</a>\u000a            </li>\u000a            <li class="select-menu-tab">\u000a              <a href="#" data-tab-filter="tags" data-filter-placeholder="Find a tag\u2026" class="js-select-menu-tab" role="tab">Tags</a>\u000a            </li>\u000a          </ul>\u000a        </div>\u000a      </div>\u000a\u000a      <div class="select-menu-list select-menu-tab-bucket js-select-menu-tab-bucket" data-tab-filter="branches" role="menu">\u000a\u000a        <div data-filterable-for="context-commitish-filter-field" data-filterable-type="substring">\u000a\u000a\u000a            <a class="select-menu-item js-navigation-item js-navigation-open "\u000a               href="/josdejong/jsoneditor/tree/develop"\u000a               data-name="develop"\u000a               data-skip-pjax="true"\u000a               rel="nofollow">\u000a              <svg aria-hidden="true" class="octicon octicon-check select-menu-item-icon" height="16" version="1.1" viewBox="0 0 12 16" width="12"><path fill-rule="evenodd" d="M12 5l-8 8-4-4 1.5-1.5L4 10l6.5-6.5z"/></svg>\u000a              <span class="select-menu-item-text css-truncate-target js-select-menu-filter-text">\u000a                develop\u000a              </span>\u000a            </a>\u000a            <a class="select-menu-item js-navigation-item js-navigation-open "\u000a               href="/josdejong/jsoneditor/tree/flow"\u000a               data-name="flow"\u000a               data-skip-pjax="true"\u000a               rel="nofollow">\u000a              <svg aria-hidden="true" class="octicon octicon-check select-menu-item-icon" height="16" version="1.1" viewBox="0 0 12 16" width="12"><path fill-rule="evenodd" d="M12 5l-8 8-4-4 1.5-1.5L4 10l6.5-6.5z"/></svg>\u000a              <span class="select-menu-item-text css-truncate-target js-select-menu-filter-text">\u000a                flow\u000a              </span>\u000a            </a>\u000a            <a class="select-menu-item js-navigation-item js-navigation-open selected"\u000a               href="/josdejong/jsoneditor/tree/master"\u000a               data-name="master"\u000a               data-skip-pjax="true"\u000a               rel="nofollow">\u000a              <svg aria-hidden="true" class="octicon octicon-check select-menu-item-icon" height="16" version="1.1" viewBox="0 0 12 16" width="12"><path fill-rule="evenodd" d="M12 5l-8 8-4-4 1.5-1.5L4 10l6.5-6.5z"/></svg>\u000a              <span class="select-menu-item-text css-truncate-target js-select-menu-filter-text">\u000a                master\u000a              </span>\u000a            </a>\u000a            <a class="select-menu-item js-navigation-item js-navigation-open "\u000a               href="/josdejong/jsoneditor/tree/next"\u000a               data-name="next"\u000a               data-skip-pjax="true"\u000a               rel="nofollow">\u000a              <svg aria-hidden="true" class="octicon octicon-check select-menu-item-icon" height="16" version="1.1" viewBox="0 0 12 16" width="12"><path fill-rule="evenodd" d="M12 5l-8 8-4-4 1.5-1.5L4 10l6.5-6.5z"/></svg>\u000a              <span class="select-menu-item-text css-truncate-target js-select-menu-filter-text">\u000a                next\u000a              </span>\u000a            </a>\u000a        </div>\u000a\u000a          <div class="select-menu-no-results">Nothing to show</div>\u000a      </div>\u000a\u000a      <div class="select-menu-list select-menu-tab-bucket js-select-menu-tab-bucket" data-tab-filter="tags">\u000a        <div data-filterable-for="context-commitish-filter-field" data-filterable-type="substring">\u000a\u000a\u000a            <a class="select-menu-item js-navigation-item js-navigation-open "\u000a              href="/josdejong/jsoneditor/tree/v5.5.10"\u000a              data-name="v5.5.10"\u000a              data-skip-pjax="true"\u000a              rel="nofollow">\u000a              <svg aria-hidden="true" class="octicon octicon-check select-menu-item-icon" height="16" version="1.1" viewBox="0 0 12 16" width="12"><path fill-rule="evenodd" d="M12 5l-8 8-4-4 1.5-1.5L4 10l6.5-6.5z"/></svg>\u000a              <span class="select-menu-item-text css-truncate-target" title="v5.5.10">\u000a                v5.5.10\u000a              </span>\u000a            </a>\u000a            <a class="select-menu-item js-navigation-item js-navigation-open "\u000a              href="/josdejong/jsoneditor/tree/v5.5.9"\u000a              data-name="v5.5.9"\u000a              data-skip-pjax="true"\u000a              rel="nofollow">\u000a              <svg aria-hidden="true" class="octicon octicon-check select-menu-item-icon" height="16" version="1.1" viewBox="0 0 12 16" width="12"><path fill-rule="evenodd" d="M12 5l-8 8-4-4 1.5-1.5L4 10l6.5-6.5z"/></svg>\u000a              <span class="select-menu-item-text css-truncate-target" title="v5.5.9">\u000a                v5.5.9\u000a              </span>\u000a            </a>\u000a            <a class="select-menu-item js-navigation-item js-navigation-open "\u000a              href="/josdejong/jsoneditor/tree/v5.5.8"\u000a              data-name="v5.5.8"\u000a              data-skip-pjax="true"\u000a              rel="nofollow">\u000a              <svg aria-hidden="true" class="octicon octicon-check select-menu-item-icon" height="16" version="1.1" viewBox="0 0 12 16" width="12"><path fill-rule="evenodd" d="M12 5l-8 8-4-4 1.5-1.5L4 10l6.5-6.5z"/></svg>\u000a              <span class="select-menu-item-text css-truncate-target" title="v5.5.8">\u000a                v5.5.8\u000a              </span>\u000a            </a>\u000a            <a class="select-menu-item js-navigation-item js-navigation-open "\u000a              href="/josdejong/jsoneditor/tree/v5.5.7"\u000a              data-name="v5.5.7"\u000a              data-skip-pjax="true"\u000a              rel="nofollow">\u000a              <svg aria-hidden="true" class="octicon octicon-check select-menu-item-icon" height="16" version="1.1" viewBox="0 0 12 16" width="12"><path fill-rule="evenodd" d="M12 5l-8 8-4-4 1.5-1.5L4 10l6.5-6.5z"/></svg>\u000a              <span class="select-menu-item-text css-truncate-target" title="v5.5.7">\u000a                v5.5.7\u000a              </span>\u000a            </a>\u000a            <a class="select-menu-item js-navigation-item js-navigation-open "\u000a              href="/josdejong/jsoneditor/tree/v5.5.6"\u000a              data-name="v5.5.6"\u000a              data-skip-pjax="true"\u000a              rel="nofollow">\u000a              <svg aria-hidden="true" class="octicon octicon-check select-menu-item-icon" height="16" version="1.1" viewBox="0 0 12 16" width="12"><path fill-rule="evenodd" d="M12 5l-8 8-4-4 1.5-1.5L4 10l6.5-6.5z"/></svg>\u000a              <span class="select-menu-item-text css-truncate-target" title="v5.5.6">\u000a                v5.5.6\u000a              </span>\u000a            </a>\u000a            <a class="select-menu-item js-navigation-item js-navigation-open "\u000a              href="/josdejong/jsoneditor/tree/v5.5.5"\u000a              data-name="v5.5.5"\u000a              data-skip-pjax="true"\u000a              rel="nofollow">\u000a              <svg aria-hidden="true" class="octicon octicon-check select-menu-item-icon" height="16" version="1.1" viewBox="0 0 12 16" width="12"><path fill-rule="evenodd" d="M12 5l-8 8-4-4 1.5-1.5L4 10l6.5-6.5z"/></svg>\u000a              <span class="select-menu-item-text css-truncate-target" title="v5.5.5">\u000a                v5.5.5\u000a              </span>\u000a            </a>\u000a            <a class="select-menu-item js-navigation-item js-navigation-open "\u000a              href="/josdejong/jsoneditor/tree/v5.5.4"\u000a              data-name="v5.5.4"\u000a              data-skip-pjax="true"\u000a              rel="nofollow">\u000a              <svg aria-hidden="true" class="octicon octicon-check select-menu-item-icon" height="16" version="1.1" viewBox="0 0 12 16" width="12"><path fill-rule="evenodd" d="M12 5l-8 8-4-4 1.5-1.5L4 10l6.5-6.5z"/></svg>\u000a              <span class="select-menu-item-text css-truncate-target" title="v5.5.4">\u000a                v5.5.4\u000a              </span>\u000a            </a>\u000a            <a class="select-menu-item js-navigation-item js-navigation-open "\u000a              href="/josdejong/jsoneditor/tree/v5.5.3"\u000a              data-name="v5.5.3"\u000a              data-skip-pjax="true"\u000a              rel="nofollow">\u000a              <svg aria-hidden="true" class="octicon octicon-check select-menu-item-icon" height="16" version="1.1" viewBox="0 0 12 16" width="12"><path fill-rule="evenodd" d="M12 5l-8 8-4-4 1.5-1.5L4 10l6.5-6.5z"/></svg>\u000a              <span class="select-menu-item-text css-truncate-target" title="v5.5.3">\u000a                v5.5.3\u000a              </span>\u000a            </a>\u000a            <a class="select-menu-item js-navigation-item js-navigation-open "\u000a              href="/josdejong/jsoneditor/tree/v5.5.2"\u000a              data-name="v5.5.2"\u000a              data-skip-pjax="true"\u000a              rel="nofollow">\u000a              <svg aria-hidden="true" class="octicon octicon-check select-menu-item-icon" height="16" version="1.1" viewBox="0 0 12 16" width="12"><path fill-rule="evenodd" d="M12 5l-8 8-4-4 1.5-1.5L4 10l6.5-6.5z"/></svg>\u000a              <span class="select-menu-item-text css-truncate-target" title="v5.5.2">\u000a                v5.5.2\u000a              </span>\u000a            </a>\u000a            <a class="select-menu-item js-navigation-item js-navigation-open "\u000a              href="/josdejong/jsoneditor/tree/v5.5.1"\u000a              data-name="v5.5.1"\u000a              data-skip-pjax="true"\u000a              rel="nofollow">\u000a              <svg aria-hidden="true" class="octicon octicon-check select-menu-item-icon" height="16" version="1.1" viewBox="0 0 12 16" width="12"><path fill-rule="evenodd" d="M12 5l-8 8-4-4 1.5-1.5L4 10l6.5-6.5z"/></svg>\u000a              <span class="select-menu-item-text css-truncate-target" title="v5.5.1">\u000a                v5.5.1\u000a              </span>\u000a            </a>\u000a            <a class="select-menu-item js-navigation-item js-navigation-open "\u000a              href="/josdejong/jsoneditor/tree/v5.5.0"\u000a              data-name="v5.5.0"\u000a              data-skip-pjax="true"\u000a              rel="nofollow">\u000a              <svg aria-hidden="true" class="octicon octicon-check select-menu-item-icon" height="16" version="1.1" viewBox="0 0 12 16" width="12"><path fill-rule="evenodd" d="M12 5l-8 8-4-4 1.5-1.5L4 10l6.5-6.5z"/></svg>\u000a              <span class="select-menu-item-text css-truncate-target" title="v5.5.0">\u000a                v5.5.0\u000a              </span>\u000a            </a>\u000a            <a class="select-menu-item js-navigation-item js-navigation-open "\u000a              href="/josdejong/jsoneditor/tree/v5.4.0"\u000a              data-name="v5.4.0"\u000a              data-skip-pjax="true"\u000a              rel="nofollow">\u000a              <svg aria-hidden="true" class="octicon octicon-check select-menu-item-icon" height="16" version="1.1" viewBox="0 0 12 16" width="12"><path fill-rule="evenodd" d="M12 5l-8 8-4-4 1.5-1.5L4 10l6.5-6.5z"/></svg>\u000a              <span class="select-menu-item-text css-truncate-target" title="v5.4.0">\u000a                v5.4.0\u000a              </span>\u000a            </a>\u000a            <a class="select-menu-item js-navigation-item js-navigation-open "\u000a              href="/josdejong/jsoneditor/tree/v5.3.0"\u000a              data-name="v5.3.0"\u000a              data-skip-pjax="true"\u000a              rel="nofollow">\u000a              <svg aria-hidden="true" class="octicon octicon-check select-menu-item-icon" height="16" version="1.1" viewBox="0 0 12 16" width="12"><path fill-rule="evenodd" d="M12 5l-8 8-4-4 1.5-1.5L4 10l6.5-6.5z"/></svg>\u000a              <span class="select-menu-item-text css-truncate-target" title="v5.3.0">\u000a                v5.3.0\u000a              </span>\u000a            </a>\u000a            <a class="select-menu-item js-navigation-item js-navigation-open "\u000a              href="/josdejong/jsoneditor/tree/v5.2.0"\u000a              data-name="v5.2.0"\u000a              data-skip-pjax="true"\u000a              rel="nofollow">\u000a              <svg aria-hidden="true" class="octicon octicon-check select-menu-item-icon" height="16" version="1.1" viewBox="0 0 12 16" width="12"><path fill-rule="evenodd" d="M12 5l-8 8-4-4 1.5-1.5L4 10l6.5-6.5z"/></svg>\u000a              <span class="select-menu-item-text css-truncate-target" title="v5.2.0">\u000a                v5.2.0\u000a              </span>\u000a            </a>\u000a            <a class="select-menu-item js-navigation-item js-navigation-open "\u000a              href="/josdejong/jsoneditor/tree/v5.1.5"\u000a              data-name="v5.1.5"\u000a              data-skip-pjax="true"\u000a              rel="nofollow">\u000a              <svg aria-hidden="true" class="octicon octicon-check select-menu-item-icon" height="16" version="1.1" viewBox="0 0 12 16" width="12"><path fill-rule="evenodd" d="M12 5l-8 8-4-4 1.5-1.5L4 10l6.5-6.5z"/></svg>\u000a              <span class="select-menu-item-text css-truncate-target" title="v5.1.5">\u000a                v5.1.5\u000a              </span>\u000a            </a>\u000a            <a class="select-menu-item js-navigation-item js-navigation-open "\u000a              href="/josdejong/jsoneditor/tree/v5.1.4"\u000a              data-name="v5.1.4"\u000a              data-skip-pjax="true"\u000a              rel="nofollow">\u000a              <svg aria-hidden="true" class="octicon octicon-check select-menu-item-icon" height="16" version="1.1" viewBox="0 0 12 16" width="12"><path fill-rule="evenodd" d="M12 5l-8 8-4-4 1.5-1.5L4 10l6.5-6.5z"/></svg>\u000a              <span class="select-menu-item-text css-truncate-target" title="v5.1.4">\u000a                v5.1.4\u000a              </span>\u000a            </a>\u000a            <a class="select-menu-item js-navigation-item js-navigation-open "\u000a              href="/josdejong/jsoneditor/tree/v5.1.3"\u000a              data-name="v5.1.3"\u000a              data-skip-pjax="true"\u000a              rel="nofollow">\u000a              <svg aria-hidden="true" class="octicon octicon-check select-menu-item-icon" height="16" version="1.1" viewBox="0 0 12 16" width="12"><path fill-rule="evenodd" d="M12 5l-8 8-4-4 1.5-1.5L4 10l6.5-6.5z"/></svg>\u000a              <span class="select-menu-item-text css-truncate-target" title="v5.1.3">\u000a                v5.1.3\u000a              </span>\u000a            </a>\u000a            <a class="select-menu-item js-navigation-item js-navigation-open "\u000a              href="/josdejong/jsoneditor/tree/v5.1.2"\u000a              data-name="v5.1.2"\u000a              data-skip-pjax="true"\u000a              rel="nofollow">\u000a              <svg aria-hidden="true" class="octicon octicon-check select-menu-item-icon" height="16" version="1.1" viewBox="0 0 12 16" width="12"><path fill-rule="evenodd" d="M12 5l-8 8-4-4 1.5-1.5L4 10l6.5-6.5z"/></svg>\u000a              <span class="select-menu-item-text css-truncate-target" title="v5.1.2">\u000a                v5.1.2\u000a              </span>\u000a            </a>\u000a            <a class="select-menu-item js-navigation-item js-navigation-open "\u000a              href="/josdejong/jsoneditor/tree/v5.1.1"\u000a              data-name="v5.1.1"\u000a              data-skip-pjax="true"\u000a              rel="nofollow">\u000a              <svg aria-hidden="true" class="octicon octicon-check select-menu-item-icon" height="16" version="1.1" viewBox="0 0 12 16" width="12"><path fill-rule="evenodd" d="M12 5l-8 8-4-4 1.5-1.5L4 10l6.5-6.5z"/></svg>\u000a              <span class="select-menu-item-text css-truncate-target" title="v5.1.1">\u000a                v5.1.1\u000a              </span>\u000a            </a>\u000a            <a class="select-menu-item js-navigation-item js-navigation-open "\u000a              href="/josdejong/jsoneditor/tree/v5.1.0"\u000a              data-name="v5.1.0"\u000a              data-skip-pjax="true"\u000a              rel="nofollow">\u000a              <svg aria-hidden="true" class="octicon octicon-check select-menu-item-icon" height="16" version="1.1" viewBox="0 0 12 16" width="12"><path fill-rule="evenodd" d="M12 5l-8 8-4-4 1.5-1.5L4 10l6.5-6.5z"/></svg>\u000a              <span class="select-menu-item-text css-truncate-target" title="v5.1.0">\u000a                v5.1.0\u000a              </span>\u000a            </a>\u000a            <a class="select-menu-item js-navigation-item js-navigation-open "\u000a              href="/josdejong/jsoneditor/tree/v5.0.1"\u000a              data-name="v5.0.1"\u000a              data-skip-pjax="true"\u000a              rel="nofollow">\u000a              <svg aria-hidden="true" class="octicon octicon-check select-menu-item-icon" height="16" version="1.1" viewBox="0 0 12 16" width="12"><path fill-rule="evenodd" d="M12 5l-8 8-4-4 1.5-1.5L4 10l6.5-6.5z"/></svg>\u000a              <span class="select-menu-item-text css-truncate-target" title="v5.0.1">\u000a                v5.0.1\u000a              </span>\u000a            </a>\u000a            <a class="select-menu-item js-navigation-item js-navigation-open "\u000a              href="/josdejong/jsoneditor/tree/v5.0.0"\u000a              data-name="v5.0.0"\u000a              data-skip-pjax="true"\u000a              rel="nofollow">\u000a              <svg aria-hidden="true" class="octicon octicon-check select-menu-item-icon" height="16" version="1.1" viewBox="0 0 12 16" width="12"><path fill-rule="evenodd" d="M12 5l-8 8-4-4 1.5-1.5L4 10l6.5-6.5z"/></svg>\u000a              <span class="select-menu-item-text css-truncate-target" title="v5.0.0">\u000a                v5.0.0\u000a              </span>\u000a            </a>\u000a            <a class="select-menu-item js-navigation-item js-navigation-open "\u000a              href="/josdejong/jsoneditor/tree/v4.2.1"\u000a              data-name="v4.2.1"\u000a              data-skip-pjax="true"\u000a              rel="nofollow">\u000a              <svg aria-hidden="true" class="octicon octicon-check select-menu-item-icon" height="16" version="1.1" viewBox="0 0 12 16" width="12"><path fill-rule="evenodd" d="M12 5l-8 8-4-4 1.5-1.5L4 10l6.5-6.5z"/></svg>\u000a              <span class="select-menu-item-text css-truncate-target" title="v4.2.1">\u000a                v4.2.1\u000a              </span>\u000a            </a>\u000a            <a class="select-menu-item js-navigation-item js-navigation-open "\u000a              href="/josdejong/jsoneditor/tree/v4.2.0"\u000a              data-name="v4.2.0"\u000a              data-skip-pjax="true"\u000a              rel="nofollow">\u000a              <svg aria-hidden="true" class="octicon octicon-check select-menu-item-icon" height="16" version="1.1" viewBox="0 0 12 16" width="12"><path fill-rule="evenodd" d="M12 5l-8 8-4-4 1.5-1.5L4 10l6.5-6.5z"/></svg>\u000a              <span class="select-menu-item-text css-truncate-target" title="v4.2.0">\u000a                v4.2.0\u000a              </span>\u000a            </a>\u000a            <a class="select-menu-item js-navigation-item js-navigation-open "\u000a              href="/josdejong/jsoneditor/tree/v4.1.3"\u000a              data-name="v4.1.3"\u000a              data-skip-pjax="true"\u000a              rel="nofollow">\u000a              <svg aria-hidden="true" class="octicon octicon-check select-menu-item-icon" height="16" version="1.1" viewBox="0 0 12 16" width="12"><path fill-rule="evenodd" d="M12 5l-8 8-4-4 1.5-1.5L4 10l6.5-6.5z"/></svg>\u000a              <span class="select-menu-item-text css-truncate-target" title="v4.1.3">\u000a                v4.1.3\u000a              </span>\u000a            </a>\u000a            <a class="select-menu-item js-navigation-item js-navigation-open "\u000a              href="/josdejong/jsoneditor/tree/v4.1.2"\u000a              data-name="v4.1.2"\u000a              data-skip-pjax="true"\u000a              rel="nofollow">\u000a              <svg aria-hidden="true" class="octicon octicon-check select-menu-item-icon" height="16" version="1.1" viewBox="0 0 12 16" width="12"><path fill-rule="evenodd" d="M12 5l-8 8-4-4 1.5-1.5L4 10l6.5-6.5z"/></svg>\u000a              <span class="select-menu-item-text css-truncate-target" title="v4.1.2">\u000a                v4.1.2\u000a              </span>\u000a            </a>\u000a            <a class="select-menu-item js-navigation-item js-navigation-open "\u000a              href="/josdejong/jsoneditor/tree/v4.1.1"\u000a              data-name="v4.1.1"\u000a              data-skip-pjax="true"\u000a              rel="nofollow">\u000a              <svg aria-hidden="true" class="octicon octicon-check select-menu-item-icon" height="16" version="1.1" viewBox="0 0 12 16" width="12"><path fill-rule="evenodd" d="M12 5l-8 8-4-4 1.5-1.5L4 10l6.5-6.5z"/></svg>\u000a              <span class="select-menu-item-text css-truncate-target" title="v4.1.1">\u000a                v4.1.1\u000a              </span>\u000a            </a>\u000a            <a class="select-menu-item js-navigation-item js-navigation-open "\u000a              href="/josdejong/jsoneditor/tree/v4.1.0"\u000a              data-name="v4.1.0"\u000a              data-skip-pjax="true"\u000a              rel="nofollow">\u000a              <svg aria-hidden="true" class="octicon octicon-check select-menu-item-icon" height="16" version="1.1" viewBox="0 0 12 16" width="12"><path fill-rule="evenodd" d="M12 5l-8 8-4-4 1.5-1.5L4 10l6.5-6.5z"/></svg>\u000a              <span class="select-menu-item-text css-truncate-target" title="v4.1.0">\u000a                v4.1.0\u000a              </span>\u000a            </a>\u000a            <a class="select-menu-item js-navigation-item js-navigation-open "\u000a              href="/josdejong/jsoneditor/tree/v4.0.0"\u000a              data-name="v4.0.0"\u000a              data-skip-pjax="true"\u000a              rel="nofollow">\u000a              <svg aria-hidden="true" class="octicon octicon-check select-menu-item-icon" height="16" version="1.1" viewBox="0 0 12 16" width="12"><path fill-rule="evenodd" d="M12 5l-8 8-4-4 1.5-1.5L4 10l6.5-6.5z"/></svg>\u000a              <span class="select-menu-item-text css-truncate-target" title="v4.0.0">\u000a                v4.0.0\u000a              </span>\u000a            </a>\u000a            <a class="select-menu-item js-navigation-item js-navigation-open "\u000a              href="/josdejong/jsoneditor/tree/v3.2.0"\u000a              data-name="v3.2.0"\u000a              data-skip-pjax="true"\u000a              rel="nofollow">\u000a              <svg aria-hidden="true" class="octicon octicon-check select-menu-item-icon" height="16" version="1.1" viewBox="0 0 12 16" width="12"><path fill-rule="evenodd" d="M12 5l-8 8-4-4 1.5-1.5L4 10l6.5-6.5z"/></svg>\u000a              <span class="select-menu-item-text css-truncate-target" title="v3.2.0">\u000a                v3.2.0\u000a              </span>\u000a            </a>\u000a            <a class="select-menu-item js-navigation-item js-navigation-open "\u000a              href="/josdejong/jsoneditor/tree/v3.1.2"\u000a              data-name="v3.1.2"\u000a              data-skip-pjax="true"\u000a              rel="nofollow">\u000a              <svg aria-hidden="true" class="octicon octicon-check select-menu-item-icon" height="16" version="1.1" viewBox="0 0 12 16" width="12"><path fill-rule="evenodd" d="M12 5l-8 8-4-4 1.5-1.5L4 10l6.5-6.5z"/></svg>\u000a              <span class="select-menu-item-text css-truncate-target" title="v3.1.2">\u000a                v3.1.2\u000a              </span>\u000a            </a>\u000a            <a class="select-menu-item js-navigation-item js-navigation-open "\u000a              href="/josdejong/jsoneditor/tree/v3.1.1"\u000a              data-name="v3.1.1"\u000a              data-skip-pjax="true"\u000a              rel="nofollow">\u000a              <svg aria-hidden="true" class="octicon octicon-check select-menu-item-icon" height="16" version="1.1" viewBox="0 0 12 16" width="12"><path fill-rule="evenodd" d="M12 5l-8 8-4-4 1.5-1.5L4 10l6.5-6.5z"/></svg>\u000a              <span class="select-menu-item-text css-truncate-target" title="v3.1.1">\u000a                v3.1.1\u000a              </span>\u000a            </a>\u000a            <a class="select-menu-item js-navigation-item js-navigation-open "\u000a              href="/josdejong/jsoneditor/tree/v3.1.0"\u000a              data-name="v3.1.0"\u000a              data-skip-pjax="true"\u000a              rel="nofollow">\u000a              <svg aria-hidden="true" class="octicon octicon-check select-menu-item-icon" height="16" version="1.1" viewBox="0 0 12 16" width="12"><path fill-rule="evenodd" d="M12 5l-8 8-4-4 1.5-1.5L4 10l6.5-6.5z"/></svg>\u000a              <span class="select-menu-item-text css-truncate-target" title="v3.1.0">\u000a                v3.1.0\u000a              </span>\u000a            </a>\u000a            <a class="select-menu-item js-navigation-item js-navigation-open "\u000a              href="/josdejong/jsoneditor/tree/v3.0.0"\u000a              data-name="v3.0.0"\u000a              data-skip-pjax="true"\u000a              rel="nofollow">\u000a              <svg aria-hidden="true" class="octicon octicon-check select-menu-item-icon" height="16" version="1.1" viewBox="0 0 12 16" width="12"><path fill-rule="evenodd" d="M12 5l-8 8-4-4 1.5-1.5L4 10l6.5-6.5z"/></svg>\u000a              <span class="select-menu-item-text css-truncate-target" title="v3.0.0">\u000a                v3.0.0\u000a              </span>\u000a            </a>\u000a            <a class="select-menu-item js-navigation-item js-navigation-open "\u000a              href="/josdejong/jsoneditor/tree/v2.3.6"\u000a              data-name="v2.3.6"\u000a              data-skip-pjax="true"\u000a              rel="nofollow">\u000a              <svg aria-hidden="true" class="octicon octicon-check select-menu-item-icon" height="16" version="1.1" viewBox="0 0 12 16" width="12"><path fill-rule="evenodd" d="M12 5l-8 8-4-4 1.5-1.5L4 10l6.5-6.5z"/></svg>\u000a              <span class="select-menu-item-text css-truncate-target" title="v2.3.6">\u000a                v2.3.6\u000a              </span>\u000a            </a>\u000a            <a class="select-menu-item js-navigation-item js-navigation-open "\u000a              href="/josdejong/jsoneditor/tree/v2.3.5"\u000a              data-name="v2.3.5"\u000a              data-skip-pjax="true"\u000a              rel="nofollow">\u000a              <svg aria-hidden="true" class="octicon octicon-check select-menu-item-icon" height="16" version="1.1" viewBox="0 0 12 16" width="12"><path fill-rule="evenodd" d="M12 5l-8 8-4-4 1.5-1.5L4 10l6.5-6.5z"/></svg>\u000a              <span class="select-menu-item-text css-truncate-target" title="v2.3.5">\u000a                v2.3.5\u000a              </span>\u000a            </a>\u000a            <a class="select-menu-item js-navigation-item js-navigation-open "\u000a              href="/josdejong/jsoneditor/tree/v2.3.4"\u000a              data-name="v2.3.4"\u000a              data-skip-pjax="true"\u000a              rel="nofollow">\u000a              <svg aria-hidden="true" class="octicon octicon-check select-menu-item-icon" height="16" version="1.1" viewBox="0 0 12 16" width="12"><path fill-rule="evenodd" d="M12 5l-8 8-4-4 1.5-1.5L4 10l6.5-6.5z"/></svg>\u000a              <span class="select-menu-item-text css-truncate-target" title="v2.3.4">\u000a                v2.3.4\u000a              </span>\u000a            </a>\u000a            <a class="select-menu-item js-navigation-item js-navigation-open "\u000a              href="/josdejong/jsoneditor/tree/v2.3.3"\u000a              data-name="v2.3.3"\u000a              data-skip-pjax="true"\u000a              rel="nofollow">\u000a              <svg aria-hidden="true" class="octicon octicon-check select-menu-item-icon" height="16" version="1.1" viewBox="0 0 12 16" width="12"><path fill-rule="evenodd" d="M12 5l-8 8-4-4 1.5-1.5L4 10l6.5-6.5z"/></svg>\u000a              <span class="select-menu-item-text css-truncate-target" title="v2.3.3">\u000a                v2.3.3\u000a              </span>\u000a            </a>\u000a            <a class="select-menu-item js-navigation-item js-navigation-open "\u000a              href="/josdejong/jsoneditor/tree/v2.3.1"\u000a              data-name="v2.3.1"\u000a              data-skip-pjax="true"\u000a              rel="nofollow">\u000a              <svg aria-hidden="true" class="octicon octicon-check select-menu-item-icon" height="16" version="1.1" viewBox="0 0 12 16" width="12"><path fill-rule="evenodd" d="M12 5l-8 8-4-4 1.5-1.5L4 10l6.5-6.5z"/></svg>\u000a              <span class="select-menu-item-text css-truncate-target" title="v2.3.1">\u000a                v2.3.1\u000a              </span>\u000a            </a>\u000a            <a class="select-menu-item js-navigation-item js-navigation-open "\u000a              href="/josdejong/jsoneditor/tree/v2.3.0"\u000a              data-name="v2.3.0"\u000a              data-skip-pjax="true"\u000a              rel="nofollow">\u000a              <svg aria-hidden="true" class="octicon octicon-check select-menu-item-icon" height="16" version="1.1" viewBox="0 0 12 16" width="12"><path fill-rule="evenodd" d="M12 5l-8 8-4-4 1.5-1.5L4 10l6.5-6.5z"/></svg>\u000a              <span class="select-menu-item-text css-truncate-target" title="v2.3.0">\u000a                v2.3.0\u000a              </span>\u000a            </a>\u000a            <a class="select-menu-item js-navigation-item js-navigation-open "\u000a              href="/josdejong/jsoneditor/tree/v2.2.2"\u000a              data-name="v2.2.2"\u000a              data-skip-pjax="true"\u000a              rel="nofollow">\u000a              <svg aria-hidden="true" class="octicon octicon-check select-menu-item-icon" height="16" version="1.1" viewBox="0 0 12 16" width="12"><path fill-rule="evenodd" d="M12 5l-8 8-4-4 1.5-1.5L4 10l6.5-6.5z"/></svg>\u000a              <span class="select-menu-item-text css-truncate-target" title="v2.2.2">\u000a                v2.2.2\u000a              </span>\u000a            </a>\u000a            <a class="select-menu-item js-navigation-item js-navigation-open "\u000a              href="/josdejong/jsoneditor/tree/v2.2.1"\u000a              data-name="v2.2.1"\u000a              data-skip-pjax="true"\u000a              rel="nofollow">\u000a              <svg aria-hidden="true" class="octicon octicon-check select-menu-item-icon" height="16" version="1.1" viewBox="0 0 12 16" width="12"><path fill-rule="evenodd" d="M12 5l-8 8-4-4 1.5-1.5L4 10l6.5-6.5z"/></svg>\u000a              <span class="select-menu-item-text css-truncate-target" title="v2.2.1">\u000a                v2.2.1\u000a              </span>\u000a            </a>\u000a            <a class="select-menu-item js-navigation-item js-navigation-open "\u000a              href="/josdejong/jsoneditor/tree/v2.2.0"\u000a              data-name="v2.2.0"\u000a              data-skip-pjax="true"\u000a              rel="nofollow">\u000a              <svg aria-hidden="true" class="octicon octicon-check select-menu-item-icon" height="16" version="1.1" viewBox="0 0 12 16" width="12"><path fill-rule="evenodd" d="M12 5l-8 8-4-4 1.5-1.5L4 10l6.5-6.5z"/></svg>\u000a              <span class="select-menu-item-text css-truncate-target" title="v2.2.0">\u000a                v2.2.0\u000a              </span>\u000a            </a>\u000a            <a class="select-menu-item js-navigation-item js-navigation-open "\u000a              href="/josdejong/jsoneditor/tree/v2.1.1"\u000a              data-name="v2.1.1"\u000a              data-skip-pjax="true"\u000a              rel="nofollow">\u000a              <svg aria-hidden="true" class="octicon octicon-check select-menu-item-icon" height="16" version="1.1" viewBox="0 0 12 16" width="12"><path fill-rule="evenodd" d="M12 5l-8 8-4-4 1.5-1.5L4 10l6.5-6.5z"/></svg>\u000a              <span class="select-menu-item-text css-truncate-target" title="v2.1.1">\u000a                v2.1.1\u000a              </span>\u000a            </a>\u000a            <a class="select-menu-item js-navigation-item js-navigation-open "\u000a              href="/josdejong/jsoneditor/tree/v2.1.0"\u000a              data-name="v2.1.0"\u000a              data-skip-pjax="true"\u000a              rel="nofollow">\u000a              <svg aria-hidden="true" class="octicon octicon-check select-menu-item-icon" height="16" version="1.1" viewBox="0 0 12 16" width="12"><path fill-rule="evenodd" d="M12 5l-8 8-4-4 1.5-1.5L4 10l6.5-6.5z"/></svg>\u000a              <span class="select-menu-item-text css-truncate-target" title="v2.1.0">\u000a                v2.1.0\u000a              </span>\u000a            </a>\u000a            <a class="select-menu-item js-navigation-item js-navigation-open "\u000a              href="/josdejong/jsoneditor/tree/v2.0.1"\u000a              data-name="v2.0.1"\u000a              data-skip-pjax="true"\u000a              rel="nofollow">\u000a              <svg aria-hidden="true" class="octicon octicon-check select-menu-item-icon" height="16" version="1.1" viewBox="0 0 12 16" width="12"><path fill-rule="evenodd" d="M12 5l-8 8-4-4 1.5-1.5L4 10l6.5-6.5z"/></svg>\u000a              <span class="select-menu-item-text css-truncate-target" title="v2.0.1">\u000a                v2.0.1\u000a              </span>\u000a            </a>\u000a            <a class="select-menu-item js-navigation-item js-navigation-open "\u000a              href="/josdejong/jsoneditor/tree/v2.0.0"\u000a              data-name="v2.0.0"\u000a              data-skip-pjax="true"\u000a              rel="nofollow">\u000a              <svg aria-hidden="true" class="octicon octicon-check select-menu-item-icon" height="16" version="1.1" viewBox="0 0 12 16" width="12"><path fill-rule="evenodd" d="M12 5l-8 8-4-4 1.5-1.5L4 10l6.5-6.5z"/></svg>\u000a              <span class="select-menu-item-text css-truncate-target" title="v2.0.0">\u000a                v2.0.0\u000a              </span>\u000a            </a>\u000a            <a class="select-menu-item js-navigation-item js-navigation-open "\u000a              href="/josdejong/jsoneditor/tree/v1.7.0"\u000a              data-name="v1.7.0"\u000a              data-skip-pjax="true"\u000a              rel="nofollow">\u000a              <svg aria-hidden="true" class="octicon octicon-check select-menu-item-icon" height="16" version="1.1" viewBox="0 0 12 16" width="12"><path fill-rule="evenodd" d="M12 5l-8 8-4-4 1.5-1.5L4 10l6.5-6.5z"/></svg>\u000a              <span class="select-menu-item-text css-truncate-target" title="v1.7.0">\u000a                v1.7.0\u000a              </span>\u000a            </a>\u000a        </div>\u000a\u000a        <div class="select-menu-no-results">Nothing to show</div>\u000a      </div>\u000a\u000a    </div>\u000a  </div>\u000a</div>\u000a\u000a\u000a      <button type="button" class="btn btn-sm disabled tooltipped tooltipped-n new-pull-request-btn" aria-label="You must be signed in to create a pull request">\u000a        New pull request\u000a      </button>\u000a\u000a  <div class="breadcrumb">\u000a    \u000a  </div>\u000a</div>\u000a\u000a\u000a\u000a\u000a\u000a  <div class="commit-tease js-details-container">\u000a    <span class="float-right">\u000a      Latest commit\u000a      <a class="commit-tease-sha" href="/josdejong/jsoneditor/commit/4bc339f6fe84afbb23413996d17ff0e9314ea7d8" data-pjax>\u000a        4bc339f\u000a      </a>\u000a      <span itemprop="dateModified"><relative-time datetime="2016-11-02T20:03:18Z">Nov 2, 2016</relative-time></span>\u000a    </span>\u000a\u000a\u000a    <span class="commit-author-section">\u000a      <img alt="@josdejong" class="avatar" height="20" src="https://avatars2.githubusercontent.com/u/568626?v=3&amp;s=40" width="20" />\u000a      <a href="/josdejong" class="user-mention" rel="author">josdejong</a>\u000a    </span>\u000a\u000a        <a href="/josdejong/jsoneditor/commit/4bc339f6fe84afbb23413996d17ff0e9314ea7d8" class="message" data-pjax="true" title="Released v5.5.10">Released v5.5.10</a>\u000a    </span>\u000a\u000a  </div>\u000a\u000a\u000a<div class="file-wrap">\u000a\u000a  <a href="/josdejong/jsoneditor/tree/4bc339f6fe84afbb23413996d17ff0e9314ea7d8" class="d-none js-permalink-shortcut" data-hotkey="y">Permalink</a>\u000a\u000a  <table class="files js-navigation-container js-active-navigation-container" data-pjax>\u000a\u000a\u000a    <tbody>\u000a      <tr class="warning include-fragment-error">\u000a        <td class="icon"><svg aria-hidden="true" class="octicon octicon-alert" height="16" version="1.1" viewBox="0 0 16 16" width="16"><path fill-rule="evenodd" d="M8.865 1.52c-.18-.31-.51-.5-.87-.5s-.69.19-.87.5L.275 13.5c-.18.31-.18.69 0 1 .19.31.52.5.87.5h13.7c.36 0 .69-.19.86-.5.17-.31.18-.69.01-1L8.865 1.52zM8.995 13h-2v-2h2v2zm0-3h-2V6h2v4z"/></svg></td>\u000a        <td class="content" colspan="3">Failed to load latest commit information.</td>\u000a      </tr>\u000a\u000a        <tr class="js-navigation-item">\u000a          <td class="icon">\u000a            <svg aria-hidden="true" class="octicon octicon-file-directory" height="16" version="1.1" viewBox="0 0 14 16" width="14"><path fill-rule="evenodd" d="M13 4H7V3c0-.66-.31-1-1-1H1c-.55 0-1 .45-1 1v10c0 .55.45 1 1 1h12c.55 0 1-.45 1-1V5c0-.55-.45-1-1-1zM6 4H1V3h5v1z"/></svg>\u000a            <img alt="" class="spinner" height="16" src="https://assets-cdn.github.com/images/spinners/octocat-spinner-32.gif" width="16" />\u000a          </td>\u000a          <td class="content">\u000a            <span class="css-truncate css-truncate-target"><a href="/josdejong/jsoneditor/tree/master/dist" class="js-navigation-open" id="2a6d07eef8b10b84129b42424ed99327-af593abedd2074a0648a084a7a5034993cabdef6" title="dist">dist</a></span>\u000a          </td>\u000a          <td class="message">\u000a            <span class="css-truncate css-truncate-target">\u000a                  <a href="/josdejong/jsoneditor/commit/4bc339f6fe84afbb23413996d17ff0e9314ea7d8" class="message" data-pjax="true" title="Released v5.5.10">Released v5.5.10</a>\u000a            </span>\u000a          </td>\u000a          <td class="age">\u000a            <span class="css-truncate css-truncate-target"><time-ago datetime="2016-11-02T20:03:18Z">Nov 2, 2016</time-ago></span>\u000a          </td>\u000a        </tr>\u000a        <tr class="js-navigation-item">\u000a          <td class="icon">\u000a            <svg aria-hidden="true" class="octicon octicon-file-directory" height="16" version="1.1" viewBox="0 0 14 16" width="14"><path fill-rule="evenodd" d="M13 4H7V3c0-.66-.31-1-1-1H1c-.55 0-1 .45-1 1v10c0 .55.45 1 1 1h12c.55 0 1-.45 1-1V5c0-.55-.45-1-1-1zM6 4H1V3h5v1z"/></svg>\u000a            <img alt="" class="spinner" height="16" src="https://assets-cdn.github.com/images/spinners/octocat-spinner-32.gif" width="16" />\u000a          </td>\u000a          <td class="content">\u000a            <span class="css-truncate css-truncate-target"><a href="/josdejong/jsoneditor/tree/master/docs" class="js-navigation-open" id="e3e2a9bfd88566b05001b02a3f51d286-09da4c334df51bb6d894cdd8b7d455d0d539db44" title="docs">docs</a></span>\u000a          </td>\u000a          <td class="message">\u000a            <span class="css-truncate css-truncate-target">\u000a                  <a href="/josdejong/jsoneditor/commit/4819dcf250faaf2c5cda84dab3ba90d65b9e70d9" class="message" data-pjax="true" title="Add option to sort objects keys alphabetically\u000a\u000aThe new option is disabled by default, but when enabled makes editing\u000alarge documents in tree or form mode much easier.">Add option to sort objects keys alphabetically</a>\u000a            </span>\u000a          </td>\u000a          <td class="age">\u000a            <span class="css-truncate css-truncate-target"><time-ago datetime="2016-04-01T03:22:32Z">Apr 1, 2016</time-ago></span>\u000a          </td>\u000a        </tr>\u000a        <tr class="js-navigation-item">\u000a          <td class="icon">\u000a            <svg aria-hidden="true" class="octicon octicon-file-directory" height="16" version="1.1" viewBox="0 0 14 16" width="14"><path fill-rule="evenodd" d="M13 4H7V3c0-.66-.31-1-1-1H1c-.55 0-1 .45-1 1v10c0 .55.45 1 1 1h12c.55 0 1-.45 1-1V5c0-.55-.45-1-1-1zM6 4H1V3h5v1z"/></svg>\u000a            <img alt="" class="spinner" height="16" src="https://assets-cdn.github.com/images/spinners/octocat-spinner-32.gif" width="16" />\u000a          </td>\u000a          <td class="content">\u000a            <span class="css-truncate css-truncate-target"><a href="/josdejong/jsoneditor/tree/master/examples" class="js-navigation-open" id="bfebe34154a0dfd9fc7b447fc9ed74e9-7cc01ff434ff4e31b3d18cbc06ac416cb1951aae" title="examples">examples</a></span>\u000a          </td>\u000a          <td class="message">\u000a            <span class="css-truncate css-truncate-target">\u000a                  <a href="/josdejong/jsoneditor/commit/9bf3e371538dc165973f58d80218ac6d57a46856" class="message" data-pjax="true" title="Added save dialog">Added save dialog</a>\u000a            </span>\u000a          </td>\u000a          <td class="age">\u000a            <span class="css-truncate css-truncate-target"><time-ago datetime="2016-06-03T17:32:21Z">Jun 3, 2016</time-ago></span>\u000a          </td>\u000a        </tr>\u000a        <tr class="js-navigation-item">\u000a          <td class="icon">\u000a            <svg aria-hidden="true" class="octicon octicon-file-directory" height="16" version="1.1" viewBox="0 0 14 16" width="14"><path fill-rule="evenodd" d="M13 4H7V3c0-.66-.31-1-1-1H1c-.55 0-1 .45-1 1v10c0 .55.45 1 1 1h12c.55 0 1-.45 1-1V5c0-.55-.45-1-1-1zM6 4H1V3h5v1z"/></svg>\u000a            <img alt="" class="spinner" height="16" src="https://assets-cdn.github.com/images/spinners/octocat-spinner-32.gif" width="16" />\u000a          </td>\u000a          <td class="content">\u000a            <span class="css-truncate css-truncate-target"><a href="/josdejong/jsoneditor/tree/master/misc" class="js-navigation-open" id="bc957e26ff41470c556ee5d09e96880b-ce1029bc7b568e754fb0082c1f06a78838b89ff9" title="misc">misc</a></span>\u000a          </td>\u000a          <td class="message">\u000a            <span class="css-truncate css-truncate-target">\u000a                  <a href="/josdejong/jsoneditor/commit/5a5c04e48faeef7f3590eb2543166fd61144dce0" class="message" data-pjax="true" title="Released version 5.1.1">Released version 5.1.1</a>\u000a            </span>\u000a          </td>\u000a          <td class="age">\u000a            <span class="css-truncate css-truncate-target"><time-ago datetime="2016-01-16T09:55:45Z">Jan 16, 2016</time-ago></span>\u000a          </td>\u000a        </tr>\u000a        <tr class="js-navigation-item">\u000a          <td class="icon">\u000a            <svg aria-hidden="true" class="octicon octicon-file-directory" height="16" version="1.1" viewBox="0 0 14 16" width="14"><path fill-rule="evenodd" d="M13 4H7V3c0-.66-.31-1-1-1H1c-.55 0-1 .45-1 1v10c0 .55.45 1 1 1h12c.55 0 1-.45 1-1V5c0-.55-.45-1-1-1zM6 4H1V3h5v1z"/></svg>\u000a            <img alt="" class="spinner" height="16" src="https://assets-cdn.github.com/images/spinners/octocat-spinner-32.gif" width="16" />\u000a          </td>\u000a          <td class="content">\u000a            <span class="css-truncate css-truncate-target"><a href="/josdejong/jsoneditor/tree/master/src" class="js-navigation-open" id="25d902c24283ab8cfbac54dfa101ad31-23edbc270b3fb7109f8a1016535cabaaf9ad48d5" title="src">src</a></span>\u000a          </td>\u000a          <td class="message">\u000a            <span class="css-truncate css-truncate-target">\u000a                  <a href="/josdejong/jsoneditor/commit/df12832a6b7432c840f11900f94e67f51116ff07" class="message" data-pjax="true" title="Fixed #85: pressing enter in an input in a form containing a JSONEditor too breaks submitting the form">Fixed</a> <a href="https://github.com/josdejong/jsoneditor/issues/85" class="issue-link js-issue-link" data-url="https://github.com/josdejong/jsoneditor/issues/85" data-id="26416555" data-error-text="Failed to load issue title" data-permission-text="Issue title is private">#85</a><a href="/josdejong/jsoneditor/commit/df12832a6b7432c840f11900f94e67f51116ff07" class="message" data-pjax="true" title="Fixed #85: pressing enter in an input in a form containing a JSONEditor too breaks submitting the form">: pressing enter in an input in a form containing a JSONEdit\u2026</a>\u000a            </span>\u000a          </td>\u000a          <td class="age">\u000a            <span class="css-truncate css-truncate-target"><time-ago datetime="2016-11-01T20:00:21Z">Nov 1, 2016</time-ago></span>\u000a          </td>\u000a        </tr>\u000a        <tr class="js-navigation-item">\u000a          <td class="icon">\u000a            <svg aria-hidden="true" class="octicon octicon-file-directory" height="16" version="1.1" viewBox="0 0 14 16" width="14"><path fill-rule="evenodd" d="M13 4H7V3c0-.66-.31-1-1-1H1c-.55 0-1 .45-1 1v10c0 .55.45 1 1 1h12c.55 0 1-.45 1-1V5c0-.55-.45-1-1-1zM6 4H1V3h5v1z"/></svg>\u000a            <img alt="" class="spinner" height="16" src="https://assets-cdn.github.com/images/spinners/octocat-spinner-32.gif" width="16" />\u000a          </td>\u000a          <td class="content">\u000a            <span class="css-truncate css-truncate-target"><a href="/josdejong/jsoneditor/tree/master/test" class="js-navigation-open" id="098f6bcd4621d373cade4e832627b4f6-2e2d669df8584378845e253c7752e4b3f978af8f" title="test">test</a></span>\u000a          </td>\u000a          <td class="message">\u000a            <span class="css-truncate css-truncate-target">\u000a                  <a href="/josdejong/jsoneditor/commit/48408f4ded101bf4cdbc695830a872ab68adb4c9" class="message" data-pjax="true" title="Fix https://github.com/josdejong/jsoneditor/issues/314\u000a\u000aThe JSON path parsing code assumes that string keys within square brackets in JSON paths will be valid, parseable JSON.\u000a\u000aHowever, the ajv library on which this project depends emits string keys in single quotes.\u000a\u000aFor example, ajv can emit .foo['bar'], which will ultimately end up with a call to JSON.parse(&quot;'bar'&quot;). This causes the &quot;Unexpected token ' in JSON at position 0&quot; error thrown from JSON.parse.\u000a\u000a Since ajv shouldn't need to change and since this utility is gone in the next branch, this fix checks for ajv-formatted string keys and patches them to double-quoted strings before calling JSON.parse. This is the narrowest fix for the problem.">Fix</a> <a href="https://github.com/josdejong/jsoneditor/issues/314" class="issue-link js-issue-link" data-url="https://github.com/josdejong/jsoneditor/issues/314" data-id="163739767" data-error-text="Failed to load issue title" data-permission-text="Issue title is private">#314</a>\u000a            </span>\u000a          </td>\u000a          <td class="age">\u000a            <span class="css-truncate css-truncate-target"><time-ago datetime="2016-09-22T22:06:22Z">Sep 22, 2016</time-ago></span>\u000a          </td>\u000a        </tr>\u000a        <tr class="js-navigation-item">\u000a          <td class="icon">\u000a            <svg aria-hidden="true" class="octicon octicon-file-text" height="16" version="1.1" viewBox="0 0 12 16" width="12"><path d="M6 5H2V4h4v1zM2 8h7V7H2v1zm0 2h7V9H2v1zm0 2h7v-1H2v1zm10-7.5V14c0 .55-.45 1-1 1H1c-.55 0-1-.45-1-1V2c0-.55.45-1 1-1h7.5L12 4.5zM11 5L8 2H1v12h10V5z"/></svg>\u000a            <img alt="" class="spinner" height="16" src="https://assets-cdn.github.com/images/spinners/octocat-spinner-32.gif" width="16" />\u000a          </td>\u000a          <td class="content">\u000a            <span class="css-truncate css-truncate-target"><a href="/josdejong/jsoneditor/blob/master/.gitignore" class="js-navigation-open" id="a084b794bc0759e7a6b77810e01874f2-844710c570e3d608264fbff6d0afb39643beb8d7" title=".gitignore">.gitignore</a></span>\u000a          </td>\u000a          <td class="message">\u000a            <span class="css-truncate css-truncate-target">\u000a                  <a href="/josdejong/jsoneditor/commit/abc3ac3625c96770dd05a19a41a86409acd1be65" class="message" data-pjax="true" title="Fixed #163: updated npm dependencies">Fixed</a> <a href="https://github.com/josdejong/jsoneditor/issues/163" class="issue-link js-issue-link" data-url="https://github.com/josdejong/jsoneditor/issues/163" data-id="57183352" data-error-text="Failed to load issue title" data-permission-text="Issue title is private">#163</a><a href="/josdejong/jsoneditor/commit/abc3ac3625c96770dd05a19a41a86409acd1be65" class="message" data-pjax="true" title="Fixed #163: updated npm dependencies">: updated npm dependencies</a>\u000a            </span>\u000a          </td>\u000a          <td class="age">\u000a            <span class="css-truncate css-truncate-target"><time-ago datetime="2015-02-10T21:14:45Z">Feb 10, 2015</time-ago></span>\u000a          </td>\u000a        </tr>\u000a        <tr class="js-navigation-item">\u000a          <td class="icon">\u000a            <svg aria-hidden="true" class="octicon octicon-file-text" height="16" version="1.1" viewBox="0 0 12 16" width="12"><path d="M6 5H2V4h4v1zM2 8h7V7H2v1zm0 2h7V9H2v1zm0 2h7v-1H2v1zm10-7.5V14c0 .55-.45 1-1 1H1c-.55 0-1-.45-1-1V2c0-.55.45-1 1-1h7.5L12 4.5zM11 5L8 2H1v12h10V5z"/></svg>\u000a            <img alt="" class="spinner" height="16" src="https://assets-cdn.github.com/images/spinners/octocat-spinner-32.gif" width="16" />\u000a          </td>\u000a          <td class="content">\u000a            <span class="css-truncate css-truncate-target"><a href="/josdejong/jsoneditor/blob/master/.npmignore" class="js-navigation-open" id="0fd4ef892d9d4990033701887c2f9bcc-b94f799342ce1a3da6061b621982e3423f7bba81" title=".npmignore">.npmignore</a></span>\u000a          </td>\u000a          <td class="message">\u000a            <span class="css-truncate css-truncate-target">\u000a                  <a href="/josdejong/jsoneditor/commit/4d91d26695c4161b41dcd4f950acc82284ab6061" class="message" data-pjax="true" title="Include gulpfile in npm package">Include gulpfile in npm package</a>\u000a            </span>\u000a          </td>\u000a          <td class="age">\u000a            <span class="css-truncate css-truncate-target"><time-ago datetime="2015-12-28T11:16:38Z">Dec 28, 2015</time-ago></span>\u000a          </td>\u000a        </tr>\u000a        <tr class="js-navigation-item">\u000a          <td class="icon">\u000a            <svg aria-hidden="true" class="octicon octicon-file-text" height="16" version="1.1" viewBox="0 0 12 16" width="12"><path d="M6 5H2V4h4v1zM2 8h7V7H2v1zm0 2h7V9H2v1zm0 2h7v-1H2v1zm10-7.5V14c0 .55-.45 1-1 1H1c-.55 0-1-.45-1-1V2c0-.55.45-1 1-1h7.5L12 4.5zM11 5L8 2H1v12h10V5z"/></svg>\u000a            <img alt="" class="spinner" height="16" src="https://assets-cdn.github.com/images/spinners/octocat-spinner-32.gif" width="16" />\u000a          </td>\u000a          <td class="content">\u000a            <span class="css-truncate css-truncate-target"><a href="/josdejong/jsoneditor/blob/master/CONTRIBUTING.md" class="js-navigation-open" id="6a3371457528722a734f3c51d9238c13-110c5dfa9b41c13f0519f6e3df13e8c04f6f204b" title="CONTRIBUTING.md">CONTRIBUTING.md</a></span>\u000a          </td>\u000a          <td class="message">\u000a            <span class="css-truncate css-truncate-target">\u000a                  <a href="/josdejong/jsoneditor/commit/32adb1324ecc22103875d865dd4a63a86e487ec9" class="message" data-pjax="true" title="Fixed #244: updated CONTRIBUTING file">Fixed</a> <a href="https://github.com/josdejong/jsoneditor/issues/244" class="issue-link js-issue-link" data-url="https://github.com/josdejong/jsoneditor/issues/244" data-id="121832118" data-error-text="Failed to load issue title" data-permission-text="Issue title is private">#244</a><a href="/josdejong/jsoneditor/commit/32adb1324ecc22103875d865dd4a63a86e487ec9" class="message" data-pjax="true" title="Fixed #244: updated CONTRIBUTING file">: updated CONTRIBUTING file</a>\u000a            </span>\u000a          </td>\u000a          <td class="age">\u000a            <span class="css-truncate css-truncate-target"><time-ago datetime="2015-12-21T12:09:41Z">Dec 21, 2015</time-ago></span>\u000a          </td>\u000a        </tr>\u000a        <tr class="js-navigation-item">\u000a          <td class="icon">\u000a            <svg aria-hidden="true" class="octicon octicon-file-text" height="16" version="1.1" viewBox="0 0 12 16" width="12"><path d="M6 5H2V4h4v1zM2 8h7V7H2v1zm0 2h7V9H2v1zm0 2h7v-1H2v1zm10-7.5V14c0 .55-.45 1-1 1H1c-.55 0-1-.45-1-1V2c0-.55.45-1 1-1h7.5L12 4.5zM11 5L8 2H1v12h10V5z"/></svg>\u000a            <img alt="" class="spinner" height="16" src="https://assets-cdn.github.com/images/spinners/octocat-spinner-32.gif" width="16" />\u000a          </td>\u000a          <td class="content">\u000a            <span class="css-truncate css-truncate-target"><a href="/josdejong/jsoneditor/blob/master/HISTORY.md" class="js-navigation-open" id="88dc7475eedf918122374be6d7c2c151-d651dbd4aa6b5b7353511fc3458a075946945467" title="HISTORY.md">HISTORY.md</a></span>\u000a          </td>\u000a          <td class="message">\u000a            <span class="css-truncate css-truncate-target">\u000a                  <a href="/josdejong/jsoneditor/commit/4bc339f6fe84afbb23413996d17ff0e9314ea7d8" class="message" data-pjax="true" title="Released v5.5.10">Released v5.5.10</a>\u000a            </span>\u000a          </td>\u000a          <td class="age">\u000a            <span class="css-truncate css-truncate-target"><time-ago datetime="2016-11-02T20:03:18Z">Nov 2, 2016</time-ago></span>\u000a          </td>\u000a        </tr>\u000a        <tr class="js-navigation-item">\u000a          <td class="icon">\u000a            <svg aria-hidden="true" class="octicon octicon-file-text" height="16" version="1.1" viewBox="0 0 12 16" width="12"><path d="M6 5H2V4h4v1zM2 8h7V7H2v1zm0 2h7V9H2v1zm0 2h7v-1H2v1zm10-7.5V14c0 .55-.45 1-1 1H1c-.55 0-1-.45-1-1V2c0-.55.45-1 1-1h7.5L12 4.5zM11 5L8 2H1v12h10V5z"/></svg>\u000a            <img alt="" class="spinner" height="16" src="https://assets-cdn.github.com/images/spinners/octocat-spinner-32.gif" width="16" />\u000a          </td>\u000a          <td class="content">\u000a            <span class="css-truncate css-truncate-target"><a href="/josdejong/jsoneditor/blob/master/LICENSE" class="js-navigation-open" id="9879d6db96fd29134fc802214163b95a-ea2712c09fefba52a44cd9139821af2bf54bb22b" itemprop="license" title="LICENSE">LICENSE</a></span>\u000a          </td>\u000a          <td class="message">\u000a            <span class="css-truncate css-truncate-target">\u000a                  <a href="/josdejong/jsoneditor/commit/28ba72f5768688608bffdd79533fa8b0cc145711" class="message" data-pjax="true" title="first commit">first commit</a>\u000a            </span>\u000a          </td>\u000a          <td class="age">\u000a            <span class="css-truncate css-truncate-target"><time-ago datetime="2012-04-21T11:28:28Z">Apr 21, 2012</time-ago></span>\u000a          </td>\u000a        </tr>\u000a        <tr class="js-navigation-item">\u000a          <td class="icon">\u000a            <svg aria-hidden="true" class="octicon octicon-file-text" height="16" version="1.1" viewBox="0 0 12 16" width="12"><path d="M6 5H2V4h4v1zM2 8h7V7H2v1zm0 2h7V9H2v1zm0 2h7v-1H2v1zm10-7.5V14c0 .55-.45 1-1 1H1c-.55 0-1-.45-1-1V2c0-.55.45-1 1-1h7.5L12 4.5zM11 5L8 2H1v12h10V5z"/></svg>\u000a            <img alt="" class="spinner" height="16" src="https://assets-cdn.github.com/images/spinners/octocat-spinner-32.gif" width="16" />\u000a          </td>\u000a          <td class="content">\u000a            <span class="css-truncate css-truncate-target"><a href="/josdejong/jsoneditor/blob/master/NOTICE" class="js-navigation-open" id="aa14599dc3fdfa9cc81a7c3c247b77b9-ff2aa45fe7ecf90b046fc0d77e8658681f4ceb8f" title="NOTICE">NOTICE</a></span>\u000a          </td>\u000a          <td class="message">\u000a            <span class="css-truncate css-truncate-target">\u000a                  <a href="/josdejong/jsoneditor/commit/376fc272cecd7b659f5d18cf9019881797f6bf98" class="message" data-pjax="true" title="Released version 3.2.0">Released version 3.2.0</a>\u000a            </span>\u000a          </td>\u000a          <td class="age">\u000a            <span class="css-truncate css-truncate-target"><time-ago datetime="2015-01-25T14:11:56Z">Jan 25, 2015</time-ago></span>\u000a          </td>\u000a        </tr>\u000a        <tr class="js-navigation-item">\u000a          <td class="icon">\u000a            <svg aria-hidden="true" class="octicon octicon-file-text" height="16" version="1.1" viewBox="0 0 12 16" width="12"><path d="M6 5H2V4h4v1zM2 8h7V7H2v1zm0 2h7V9H2v1zm0 2h7v-1H2v1zm10-7.5V14c0 .55-.45 1-1 1H1c-.55 0-1-.45-1-1V2c0-.55.45-1 1-1h7.5L12 4.5zM11 5L8 2H1v12h10V5z"/></svg>\u000a            <img alt="" class="spinner" height="16" src="https://assets-cdn.github.com/images/spinners/octocat-spinner-32.gif" width="16" />\u000a          </td>\u000a          <td class="content">\u000a            <span class="css-truncate css-truncate-target"><a href="/josdejong/jsoneditor/blob/master/README.md" class="js-navigation-open" id="04c6e90faac2675aa89e2176d2eec7d8-43b5c45639aebefc18c4c633e07151d767564cd7" title="README.md">README.md</a></span>\u000a          </td>\u000a          <td class="message">\u000a            <span class="css-truncate css-truncate-target">\u000a                  <a href="/josdejong/jsoneditor/commit/5d3b005dc3fc0a5e46921b2b1cabbd152023be93" class="message" data-pjax="true" title="Released version 5.1.0">Released version 5.1.0</a>\u000a            </span>\u000a          </td>\u000a          <td class="age">\u000a            <span class="css-truncate css-truncate-target"><time-ago datetime="2016-01-14T20:26:39Z">Jan 14, 2016</time-ago></span>\u000a          </td>\u000a        </tr>\u000a        <tr class="js-navigation-item">\u000a          <td class="icon">\u000a            <svg aria-hidden="true" class="octicon octicon-file-text" height="16" version="1.1" viewBox="0 0 12 16" width="12"><path d="M6 5H2V4h4v1zM2 8h7V7H2v1zm0 2h7V9H2v1zm0 2h7v-1H2v1zm10-7.5V14c0 .55-.45 1-1 1H1c-.55 0-1-.45-1-1V2c0-.55.45-1 1-1h7.5L12 4.5zM11 5L8 2H1v12h10V5z"/></svg>\u000a            <img alt="" class="spinner" height="16" src="https://assets-cdn.github.com/images/spinners/octocat-spinner-32.gif" width="16" />\u000a          </td>\u000a          <td class="content">\u000a            <span class="css-truncate css-truncate-target"><a href="/josdejong/jsoneditor/blob/master/bower.json" class="js-navigation-open" id="0a08a7565aba4405282251491979bb6b-933e66d6d01aa06ae438b7e43c7b2645af0840cd" title="bower.json">bower.json</a></span>\u000a          </td>\u000a          <td class="message">\u000a            <span class="css-truncate css-truncate-target">\u000a                  <a href="/josdejong/jsoneditor/commit/acb2ca1b899a14235c5ab090339ead86c1f9d88a" class="message" data-pjax="true" title="Fixed #202: removed `version` field from bower.json">Fixed</a> <a href="https://github.com/josdejong/jsoneditor/pull/202" class="issue-link js-issue-link" data-url="https://github.com/josdejong/jsoneditor/issues/202" data-id="87581114" data-error-text="Failed to load issue title" data-permission-text="Issue title is private">#202</a><a href="/josdejong/jsoneditor/commit/acb2ca1b899a14235c5ab090339ead86c1f9d88a" class="message" data-pjax="true" title="Fixed #202: removed `version` field from bower.json">: removed `version` field from bower.json</a>\u000a            </span>\u000a          </td>\u000a          <td class="age">\u000a            <span class="css-truncate css-truncate-target"><time-ago datetime="2015-12-31T13:24:13Z">Dec 31, 2015</time-ago></span>\u000a          </td>\u000a        </tr>\u000a        <tr class="js-navigation-item">\u000a          <td class="icon">\u000a            <svg aria-hidden="true" class="octicon octicon-file-text" height="16" version="1.1" viewBox="0 0 12 16" width="12"><path d="M6 5H2V4h4v1zM2 8h7V7H2v1zm0 2h7V9H2v1zm0 2h7v-1H2v1zm10-7.5V14c0 .55-.45 1-1 1H1c-.55 0-1-.45-1-1V2c0-.55.45-1 1-1h7.5L12 4.5zM11 5L8 2H1v12h10V5z"/></svg>\u000a            <img alt="" class="spinner" height="16" src="https://assets-cdn.github.com/images/spinners/octocat-spinner-32.gif" width="16" />\u000a          </td>\u000a          <td class="content">\u000a            <span class="css-truncate css-truncate-target"><a href="/josdejong/jsoneditor/blob/master/gulpfile.js" class="js-navigation-open" id="b9e12334e9eafd8341a6107dd98510c9-e78d4e2d769048b05e71091a7d6428b90ddc1545" title="gulpfile.js">gulpfile.js</a></span>\u000a          </td>\u000a          <td class="message">\u000a            <span class="css-truncate css-truncate-target">\u000a                  <a href="/josdejong/jsoneditor/commit/ea473c54aac1006496b9547731a5547c84c03fd0" class="message" data-pjax="true" title="Fixed #289: Some CSS breaking when using the editor in combination with materialize.css or bootstrap">Fixed</a> <a href="https://github.com/josdejong/jsoneditor/issues/289" class="issue-link js-issue-link" data-url="https://github.com/josdejong/jsoneditor/issues/289" data-id="146894204" data-error-text="Failed to load issue title" data-permission-text="Issue title is private">#289</a><a href="/josdejong/jsoneditor/commit/ea473c54aac1006496b9547731a5547c84c03fd0" class="message" data-pjax="true" title="Fixed #289: Some CSS breaking when using the editor in combination with materialize.css or bootstrap">: Some CSS breaking when using the editor in combination wi\u2026</a>\u000a            </span>\u000a          </td>\u000a          <td class="age">\u000a            <span class="css-truncate css-truncate-target"><time-ago datetime="2016-04-09T18:55:07Z">Apr 9, 2016</time-ago></span>\u000a          </td>\u000a        </tr>\u000a        <tr class="js-navigation-item">\u000a          <td class="icon">\u000a            <svg aria-hidden="true" class="octicon octicon-file-text" height="16" version="1.1" viewBox="0 0 12 16" width="12"><path d="M6 5H2V4h4v1zM2 8h7V7H2v1zm0 2h7V9H2v1zm0 2h7v-1H2v1zm10-7.5V14c0 .55-.45 1-1 1H1c-.55 0-1-.45-1-1V2c0-.55.45-1 1-1h7.5L12 4.5zM11 5L8 2H1v12h10V5z"/></svg>\u000a            <img alt="" class="spinner" height="16" src="https://assets-cdn.github.com/images/spinners/octocat-spinner-32.gif" width="16" />\u000a          </td>\u000a          <td class="content">\u000a            <span class="css-truncate css-truncate-target"><a href="/josdejong/jsoneditor/blob/master/index.js" class="js-navigation-open" id="168726dbe96b3ce427e7fedce31bb0bc-8442caf21e491cf9632ea13ab948ee7145778fec" title="index.js">index.js</a></span>\u000a          </td>\u000a          <td class="message">\u000a            <span class="css-truncate css-truncate-target">\u000a                  <a href="/josdejong/jsoneditor/commit/0db2c35c2be841336023db7a2bc8316c6c015f7b" class="message" data-pjax="true" title="Using brace to load Ace. Ace and jsonlint are now packed by default with JSONEditor. Removed all redundant build stuff for the assets.">Using brace to load Ace. Ace and jsonlint are now packed by default w\u2026</a>\u000a            </span>\u000a          </td>\u000a          <td class="age">\u000a            <span class="css-truncate css-truncate-target"><time-ago datetime="2015-02-27T20:54:04Z">Feb 27, 2015</time-ago></span>\u000a          </td>\u000a        </tr>\u000a        <tr class="js-navigation-item">\u000a          <td class="icon">\u000a            <svg aria-hidden="true" class="octicon octicon-file-text" height="16" version="1.1" viewBox="0 0 12 16" width="12"><path d="M6 5H2V4h4v1zM2 8h7V7H2v1zm0 2h7V9H2v1zm0 2h7v-1H2v1zm10-7.5V14c0 .55-.45 1-1 1H1c-.55 0-1-.45-1-1V2c0-.55.45-1 1-1h7.5L12 4.5zM11 5L8 2H1v12h10V5z"/></svg>\u000a            <img alt="" class="spinner" height="16" src="https://assets-cdn.github.com/images/spinners/octocat-spinner-32.gif" width="16" />\u000a          </td>\u000a          <td class="content">\u000a            <span class="css-truncate css-truncate-target"><a href="/josdejong/jsoneditor/blob/master/package.json" class="js-navigation-open" id="b9cfc7f2cdf78a7f4b91a753d10865a2-6673dd70e85147eedf1091c4f4b54a95027242fd" title="package.json">package.json</a></span>\u000a          </td>\u000a          <td class="message">\u000a            <span class="css-truncate css-truncate-target">\u000a                  <a href="/josdejong/jsoneditor/commit/4bc339f6fe84afbb23413996d17ff0e9314ea7d8" class="message" data-pjax="true" title="Released v5.5.10">Released v5.5.10</a>\u000a            </span>\u000a          </td>\u000a          <td class="age">\u000a            <span class="css-truncate css-truncate-target"><time-ago datetime="2016-11-02T20:03:18Z">Nov 2, 2016</time-ago></span>\u000a          </td>\u000a        </tr>\u000a    </tbody>\u000a  </table>\u000a\u000a</div>\u000a\u000a\u000a\u000a  <div id="readme" class="readme boxed-group clearfix announce instapaper_body md">\u000a    <h3>\u000a      <svg aria-hidden="true" class="octicon octicon-book" height="16" version="1.1" viewBox="0 0 16 16" width="16"><path fill-rule="evenodd" d="M3 5h4v1H3V5zm0 3h4V7H3v1zm0 2h4V9H3v1zm11-5h-4v1h4V5zm0 2h-4v1h4V7zm0 2h-4v1h4V9zm2-6v9c0 .55-.45 1-1 1H9.5l-1 1-1-1H2c-.55 0-1-.45-1-1V3c0-.55.45-1 1-1h5.5l1 1 1-1H15c.55 0 1 .45 1 1zm-8 .5L7.5 3H2v9h6V3.5zm7-.5H9.5l-.5.5V12h6V3z"/></svg>\u000a      README.md\u000a    </h3>\u000a\u000a      <article class="markdown-body entry-content" itemprop="text"><h1><a id="user-content-json-editor" class="anchor" href="#json-editor" aria-hidden="true"><svg aria-hidden="true" class="octicon octicon-link" height="16" version="1.1" viewBox="0 0 16 16" width="16"><path fill-rule="evenodd" d="M4 9h1v1H4c-1.5 0-3-1.69-3-3.5S2.55 3 4 3h4c1.45 0 3 1.69 3 3.5 0 1.41-.91 2.72-2 3.25V8.59c.58-.45 1-1.27 1-2.09C10 5.22 8.98 4 8 4H4c-.98 0-2 1.22-2 2.5S3 9 4 9zm9-3h-1v1h1c1 0 2 1.22 2 2.5S13.98 12 13 12H9c-.98 0-2-1.22-2-2.5 0-.83.42-1.64 1-2.09V6.25c-1.09.53-2 1.84-2 3.25C6 11.31 7.55 13 9 13h4c1.45 0 3-1.69 3-3.5S14.5 6 13 6z"></path></svg></a>JSON Editor</h1>\u000a\u000a<p>JSON Editor is a web-based tool to view, edit, format, and validate JSON.\u000aIt has various modes such as a tree editor, a code editor, and a plain text\u000aeditor.</p>\u000a\u000a<p>The editor can be used as a component in your own web application. The library\u000acan be loaded as CommonJS module, AMD module, or as a regular javascript file.</p>\u000a\u000a<p>Supported browsers: Chrome, Firefox, Safari, Opera, Internet Explorer 9+.</p>\u000a\u000a<p><a href="https://camo.githubusercontent.com/a1df47e8e574e0de60ce742891524c85edd09477/68747470733a2f2f7261772e6769746875622e636f6d2f6a6f7364656a6f6e672f6a736f6e656469746f722f6d61737465722f6d6973632f6a736f6e656469746f722e706e67" target="_blank"><img alt="json editor" src="https://camo.githubusercontent.com/a1df47e8e574e0de60ce742891524c85edd09477/68747470733a2f2f7261772e6769746875622e636f6d2f6a6f7364656a6f6e672f6a736f6e656469746f722f6d61737465722f6d6973632f6a736f6e656469746f722e706e67" data-canonical-src="https://raw.github.com/josdejong/jsoneditor/master/misc/jsoneditor.png" style="max-width:100%;"></a>  <a href="https://camo.githubusercontent.com/7d02e5719d8bf7a854ebaa30296959e8935178cc/68747470733a2f2f7261772e6769746875622e636f6d2f6a6f7364656a6f6e672f6a736f6e656469746f722f6d61737465722f6d6973632f636f6465656469746f722e706e67" target="_blank"><img alt="code editor" src="https://camo.githubusercontent.com/7d02e5719d8bf7a854ebaa30296959e8935178cc/68747470733a2f2f7261772e6769746875622e636f6d2f6a6f7364656a6f6e672f6a736f6e656469746f722f6d61737465722f6d6973632f636f6465656469746f722e706e67" data-canonical-src="https://raw.github.com/josdejong/jsoneditor/master/misc/codeeditor.png" style="max-width:100%;"></a></p>\u000a\u000a<h2><a id="user-content-features" class="anchor" href="#features" aria-hidden="true"><svg aria-hidden="true" class="octicon octicon-link" height="16" version="1.1" viewBox="0 0 16 16" width="16"><path fill-rule="evenodd" d="M4 9h1v1H4c-1.5 0-3-1.69-3-3.5S2.55 3 4 3h4c1.45 0 3 1.69 3 3.5 0 1.41-.91 2.72-2 3.25V8.59c.58-.45 1-1.27 1-2.09C10 5.22 8.98 4 8 4H4c-.98 0-2 1.22-2 2.5S3 9 4 9zm9-3h-1v1h1c1 0 2 1.22 2 2.5S13.98 12 13 12H9c-.98 0-2-1.22-2-2.5 0-.83.42-1.64 1-2.09V6.25c-1.09.53-2 1.84-2 3.25C6 11.31 7.55 13 9 13h4c1.45 0 3-1.69 3-3.5S14.5 6 13 6z"></path></svg></a>Features</h2>\u000a\u000a<h3><a id="user-content-tree-editor" class="anchor" href="#tree-editor" aria-hidden="true"><svg aria-hidden="true" class="octicon octicon-link" height="16" version="1.1" viewBox="0 0 16 16" width="16"><path fill-rule="evenodd" d="M4 9h1v1H4c-1.5 0-3-1.69-3-3.5S2.55 3 4 3h4c1.45 0 3 1.69 3 3.5 0 1.41-.91 2.72-2 3.25V8.59c.58-.45 1-1.27 1-2.09C10 5.22 8.98 4 8 4H4c-.98 0-2 1.22-2 2.5S3 9 4 9zm9-3h-1v1h1c1 0 2 1.22 2 2.5S13.98 12 13 12H9c-.98 0-2-1.22-2-2.5 0-.83.42-1.64 1-2.09V6.25c-1.09.53-2 1.84-2 3.25C6 11.31 7.55 13 9 13h4c1.45 0 3-1.69 3-3.5S14.5 6 13 6z"></path></svg></a>Tree editor</h3>\u000a\u000a<ul>\u000a<li>Edit, add, move, remove, and duplicate fields and values.</li>\u000a<li>Change type of values.</li>\u000a<li>Sort arrays and objects.</li>\u000a<li>Colorized code.</li>\u000a<li>Search &amp; highlight text in the tree view.</li>\u000a<li>Undo and redo all actions.</li>\u000a<li>JSON schema validation (powered by <a href="https://github.com/epoberezkin/ajv">ajv</a>).</li>\u000a</ul>\u000a\u000a<h3><a id="user-content-code-editor" class="anchor" href="#code-editor" aria-hidden="true"><svg aria-hidden="true" class="octicon octicon-link" height="16" version="1.1" viewBox="0 0 16 16" width="16"><path fill-rule="evenodd" d="M4 9h1v1H4c-1.5 0-3-1.69-3-3.5S2.55 3 4 3h4c1.45 0 3 1.69 3 3.5 0 1.41-.91 2.72-2 3.25V8.59c.58-.45 1-1.27 1-2.09C10 5.22 8.98 4 8 4H4c-.98 0-2 1.22-2 2.5S3 9 4 9zm9-3h-1v1h1c1 0 2 1.22 2 2.5S13.98 12 13 12H9c-.98 0-2-1.22-2-2.5 0-.83.42-1.64 1-2.09V6.25c-1.09.53-2 1.84-2 3.25C6 11.31 7.55 13 9 13h4c1.45 0 3-1.69 3-3.5S14.5 6 13 6z"></path></svg></a>Code editor</h3>\u000a\u000a<ul>\u000a<li>Colorized code (powered by <a href="https://ace.c9.io">Ace</a>).</li>\u000a<li>Inspect JSON (powered by <a href="https://ace.c9.io">Ace</a>).</li>\u000a<li>Format and compact JSON.</li>\u000a<li>JSON schema validation (powered by <a href="https://github.com/epoberezkin/ajv">ajv</a>).</li>\u000a</ul>\u000a\u000a<h3><a id="user-content-text-editor" class="anchor" href="#text-editor" aria-hidden="true"><svg aria-hidden="true" class="octicon octicon-link" height="16" version="1.1" viewBox="0 0 16 16" width="16"><path fill-rule="evenodd" d="M4 9h1v1H4c-1.5 0-3-1.69-3-3.5S2.55 3 4 3h4c1.45 0 3 1.69 3 3.5 0 1.41-.91 2.72-2 3.25V8.59c.58-.45 1-1.27 1-2.09C10 5.22 8.98 4 8 4H4c-.98 0-2 1.22-2 2.5S3 9 4 9zm9-3h-1v1h1c1 0 2 1.22 2 2.5S13.98 12 13 12H9c-.98 0-2-1.22-2-2.5 0-.83.42-1.64 1-2.09V6.25c-1.09.53-2 1.84-2 3.25C6 11.31 7.55 13 9 13h4c1.45 0 3-1.69 3-3.5S14.5 6 13 6z"></path></svg></a>Text editor</h3>\u000a\u000a<ul>\u000a<li>Format and compact JSON.</li>\u000a<li>JSON schema validation (powered by <a href="https://github.com/epoberezkin/ajv">ajv</a>).</li>\u000a</ul>\u000a\u000a<h2><a id="user-content-documentation" class="anchor" href="#documentation" aria-hidden="true"><svg aria-hidden="true" class="octicon octicon-link" height="16" version="1.1" viewBox="0 0 16 16" width="16"><path fill-rule="evenodd" d="M4 9h1v1H4c-1.5 0-3-1.69-3-3.5S2.55 3 4 3h4c1.45 0 3 1.69 3 3.5 0 1.41-.91 2.72-2 3.25V8.59c.58-.45 1-1.27 1-2.09C10 5.22 8.98 4 8 4H4c-.98 0-2 1.22-2 2.5S3 9 4 9zm9-3h-1v1h1c1 0 2 1.22 2 2.5S13.98 12 13 12H9c-.98 0-2-1.22-2-2.5 0-.83.42-1.64 1-2.09V6.25c-1.09.53-2 1.84-2 3.25C6 11.31 7.55 13 9 13h4c1.45 0 3-1.69 3-3.5S14.5 6 13 6z"></path></svg></a>Documentation</h2>\u000a\u000a<ul>\u000a<li>Documentation:\u000a\u000a<ul>\u000a<li><a href="https://github.com/josdejong/jsoneditor/tree/master/docs/api.md">API</a></li>\u000a<li><a href="https://github.com/josdejong/jsoneditor/tree/master/docs/usage.md">Usage</a></li>\u000a<li><a href="https://github.com/josdejong/jsoneditor/tree/master/docs/shortcut_keys.md">Shortcut keys</a></li>\u000a</ul></li>\u000a<li><a href="https://github.com/josdejong/jsoneditor/tree/master/examples">Examples</a></li>\u000a<li><a href="https://github.com/josdejong/jsoneditor">Source</a></li>\u000a<li><a href="https://github.com/josdejong/jsoneditor/blob/master/HISTORY.md">History</a></li>\u000a</ul>\u000a\u000a<h2><a id="user-content-install" class="anchor" href="#install" aria-hidden="true"><svg aria-hidden="true" class="octicon octicon-link" height="16" version="1.1" viewBox="0 0 16 16" width="16"><path fill-rule="evenodd" d="M4 9h1v1H4c-1.5 0-3-1.69-3-3.5S2.55 3 4 3h4c1.45 0 3 1.69 3 3.5 0 1.41-.91 2.72-2 3.25V8.59c.58-.45 1-1.27 1-2.09C10 5.22 8.98 4 8 4H4c-.98 0-2 1.22-2 2.5S3 9 4 9zm9-3h-1v1h1c1 0 2 1.22 2 2.5S13.98 12 13 12H9c-.98 0-2-1.22-2-2.5 0-.83.42-1.64 1-2.09V6.25c-1.09.53-2 1.84-2 3.25C6 11.31 7.55 13 9 13h4c1.45 0 3-1.69 3-3.5S14.5 6 13 6z"></path></svg></a>Install</h2>\u000a\u000a<p>with npm (recommended):</p>\u000a\u000a<pre><code>npm install jsoneditor\u000a</code></pre>\u000a\u000a<p>with bower:</p>\u000a\u000a<pre><code>bower install jsoneditor\u000a</code></pre>\u000a\u000a<h4><a id="user-content-more" class="anchor" href="#more" aria-hidden="true"><svg aria-hidden="true" class="octicon octicon-link" height="16" version="1.1" viewBox="0 0 16 16" width="16"><path fill-rule="evenodd" d="M4 9h1v1H4c-1.5 0-3-1.69-3-3.5S2.55 3 4 3h4c1.45 0 3 1.69 3 3.5 0 1.41-.91 2.72-2 3.25V8.59c.58-.45 1-1.27 1-2.09C10 5.22 8.98 4 8 4H4c-.98 0-2 1.22-2 2.5S3 9 4 9zm9-3h-1v1h1c1 0 2 1.22 2 2.5S13.98 12 13 12H9c-.98 0-2-1.22-2-2.5 0-.83.42-1.64 1-2.09V6.25c-1.09.53-2 1.84-2 3.25C6 11.31 7.55 13 9 13h4c1.45 0 3-1.69 3-3.5S14.5 6 13 6z"></path></svg></a>More</h4>\u000a\u000a<p>There is a directive available for using JSONEditor in Angular.js:</p>\u000a\u000a<p><a href="https://github.com/angular-tools/ng-jsoneditor">https://github.com/angular-tools/ng-jsoneditor</a></p>\u000a\u000a<h2><a id="user-content-use" class="anchor" href="#use" aria-hidden="true"><svg aria-hidden="true" class="octicon octicon-link" height="16" version="1.1" viewBox="0 0 16 16" width="16"><path fill-rule="evenodd" d="M4 9h1v1H4c-1.5 0-3-1.69-3-3.5S2.55 3 4 3h4c1.45 0 3 1.69 3 3.5 0 1.41-.91 2.72-2 3.25V8.59c.58-.45 1-1.27 1-2.09C10 5.22 8.98 4 8 4H4c-.98 0-2 1.22-2 2.5S3 9 4 9zm9-3h-1v1h1c1 0 2 1.22 2 2.5S13.98 12 13 12H9c-.98 0-2-1.22-2-2.5 0-.83.42-1.64 1-2.09V6.25c-1.09.53-2 1.84-2 3.25C6 11.31 7.55 13 9 13h4c1.45 0 3-1.69 3-3.5S14.5 6 13 6z"></path></svg></a>Use</h2>\u000a\u000a<div class="highlight highlight-text-html-basic"><pre>&lt;!DOCTYPE HTML&gt;\u000a&lt;<span class="pl-ent">html</span>&gt;\u000a&lt;<span class="pl-ent">head</span>&gt;\u000a    <span class="pl-c"><span class="pl-c">&lt;!--</span> when using the mode "code", it's important to specify charset utf-8 <span class="pl-c">--&gt;</span></span>\u000a    &lt;<span class="pl-ent">meta</span> <span class="pl-e">http-equiv</span>=<span class="pl-s"><span class="pl-pds">"</span>Content-Type<span class="pl-pds">"</span></span> <span class="pl-e">content</span>=<span class="pl-s"><span class="pl-pds">"</span>text/html;charset=utf-8<span class="pl-pds">"</span></span>&gt;\u000a\u000a    &lt;<span class="pl-ent">link</span> <span class="pl-e">href</span>=<span class="pl-s"><span class="pl-pds">"</span>jsoneditor/dist/jsoneditor.min.css<span class="pl-pds">"</span></span> <span class="pl-e">rel</span>=<span class="pl-s"><span class="pl-pds">"</span>stylesheet<span class="pl-pds">"</span></span> <span class="pl-e">type</span>=<span class="pl-s"><span class="pl-pds">"</span>text/css<span class="pl-pds">"</span></span>&gt;\u000a<span class="pl-s1">    &lt;<span class="pl-ent">script</span> <span class="pl-e">src</span>=<span class="pl-s"><span class="pl-pds">"</span>jsoneditor/dist/jsoneditor.min.js<span class="pl-pds">"</span></span>&gt;&lt;/<span class="pl-ent">script</span>&gt;</span>\u000a&lt;/<span class="pl-ent">head</span>&gt;\u000a&lt;<span class="pl-ent">body</span>&gt;\u000a    &lt;<span class="pl-ent">div</span> <span class="pl-e">id</span>=<span class="pl-s"><span class="pl-pds">"</span>jsoneditor<span class="pl-pds">"</span></span> <span class="pl-e">style</span>=<span class="pl-s"><span class="pl-pds">"</span>width: 400px; height: 400px;<span class="pl-pds">"</span></span>&gt;&lt;/<span class="pl-ent">div</span>&gt;\u000a\u000a<span class="pl-s1">    &lt;<span class="pl-ent">script</span>&gt;</span>\u000a<span class="pl-s1">        <span class="pl-c"><span class="pl-c">//</span> create the editor</span></span>\u000a<span class="pl-s1">        <span class="pl-k">var</span> container <span class="pl-k">=</span> <span class="pl-c1">document</span>.<span class="pl-c1">getElementById</span>(<span class="pl-s"><span class="pl-pds">"</span>jsoneditor<span class="pl-pds">"</span></span>);</span>\u000a<span class="pl-s1">        <span class="pl-k">var</span> options <span class="pl-k">=</span> {};</span>\u000a<span class="pl-s1">        <span class="pl-k">var</span> editor <span class="pl-k">=</span> <span class="pl-k">new</span> <span class="pl-en">JSONEditor</span>(container, options);</span>\u000a<span class="pl-s1"></span>\u000a<span class="pl-s1">        <span class="pl-c"><span class="pl-c">//</span> set json</span></span>\u000a<span class="pl-s1">        <span class="pl-k">var</span> json <span class="pl-k">=</span> {</span>\u000a<span class="pl-s1">            <span class="pl-s"><span class="pl-pds">"</span>Array<span class="pl-pds">"</span></span><span class="pl-k">:</span> [<span class="pl-c1">1</span>, <span class="pl-c1">2</span>, <span class="pl-c1">3</span>],</span>\u000a<span class="pl-s1">            <span class="pl-s"><span class="pl-pds">"</span>Boolean<span class="pl-pds">"</span></span><span class="pl-k">:</span> <span class="pl-c1">true</span>,</span>\u000a<span class="pl-s1">            <span class="pl-s"><span class="pl-pds">"</span>Null<span class="pl-pds">"</span></span><span class="pl-k">:</span> <span class="pl-c1">null</span>,</span>\u000a<span class="pl-s1">            <span class="pl-s"><span class="pl-pds">"</span>Number<span class="pl-pds">"</span></span><span class="pl-k">:</span> <span class="pl-c1">123</span>,</span>\u000a<span class="pl-s1">            <span class="pl-s"><span class="pl-pds">"</span>Object<span class="pl-pds">"</span></span><span class="pl-k">:</span> {<span class="pl-s"><span class="pl-pds">"</span>a<span class="pl-pds">"</span></span><span class="pl-k">:</span> <span class="pl-s"><span class="pl-pds">"</span>b<span class="pl-pds">"</span></span>, <span class="pl-s"><span class="pl-pds">"</span>c<span class="pl-pds">"</span></span><span class="pl-k">:</span> <span class="pl-s"><span class="pl-pds">"</span>d<span class="pl-pds">"</span></span>},</span>\u000a<span class="pl-s1">            <span class="pl-s"><span class="pl-pds">"</span>String<span class="pl-pds">"</span></span><span class="pl-k">:</span> <span class="pl-s"><span class="pl-pds">"</span>Hello World<span class="pl-pds">"</span></span></span>\u000a<span class="pl-s1">        };</span>\u000a<span class="pl-s1">        <span class="pl-smi">editor</span>.<span class="pl-c1">set</span>(json);</span>\u000a<span class="pl-s1"></span>\u000a<span class="pl-s1">        <span class="pl-c"><span class="pl-c">//</span> get json</span></span>\u000a<span class="pl-s1">        <span class="pl-k">var</span> json <span class="pl-k">=</span> <span class="pl-smi">editor</span>.<span class="pl-c1">get</span>();</span>\u000a<span class="pl-s1">    &lt;/<span class="pl-ent">script</span>&gt;</span>\u000a&lt;/<span class="pl-ent">body</span>&gt;\u000a&lt;/<span class="pl-ent">html</span>&gt;</pre></div>\u000a\u000a<h2><a id="user-content-build" class="anchor" href="#build" aria-hidden="true"><svg aria-hidden="true" class="octicon octicon-link" height="16" version="1.1" viewBox="0 0 16 16" width="16"><path fill-rule="evenodd" d="M4 9h1v1H4c-1.5 0-3-1.69-3-3.5S2.55 3 4 3h4c1.45 0 3 1.69 3 3.5 0 1.41-.91 2.72-2 3.25V8.59c.58-.45 1-1.27 1-2.09C10 5.22 8.98 4 8 4H4c-.98 0-2 1.22-2 2.5S3 9 4 9zm9-3h-1v1h1c1 0 2 1.22 2 2.5S13.98 12 13 12H9c-.98 0-2-1.22-2-2.5 0-.83.42-1.64 1-2.09V6.25c-1.09.53-2 1.84-2 3.25C6 11.31 7.55 13 9 13h4c1.45 0 3-1.69 3-3.5S14.5 6 13 6z"></path></svg></a>Build</h2>\u000a\u000a<p>The code of the JSON Editor is located in the folder <code>./src</code>. To build \u000ajsoneditor:</p>\u000a\u000a<ul>\u000a<li><p>Install dependencies:</p>\u000a\u000a<pre><code>npm install\u000a</code></pre></li>\u000a<li><p>Build JSON Editor:</p>\u000a\u000a<pre><code>npm run build\u000a</code></pre>\u000a\u000a<p>This will generate the files <code>./jsoneditor.js</code>, <code>./jsoneditor.css</code>, and<br>\u000aminified versions in the dist of the project.</p></li>\u000a<li><p>To automatically build when a source file has changed:</p>\u000a\u000a<pre><code>npm run watch\u000a</code></pre>\u000a\u000a<p>This will update <code>./jsoneditor.js</code> and <code>./jsoneditor.css</code> in the dist folder\u000aon every change, but it will <strong>NOT</strong> update the minified versions as that's\u000aan expensive operation.</p></li>\u000a</ul>\u000a\u000a<h2><a id="user-content-custom-builds" class="anchor" href="#custom-builds" aria-hidden="true"><svg aria-hidden="true" class="octicon octicon-link" height="16" version="1.1" viewBox="0 0 16 16" width="16"><path fill-rule="evenodd" d="M4 9h1v1H4c-1.5 0-3-1.69-3-3.5S2.55 3 4 3h4c1.45 0 3 1.69 3 3.5 0 1.41-.91 2.72-2 3.25V8.59c.58-.45 1-1.27 1-2.09C10 5.22 8.98 4 8 4H4c-.98 0-2 1.22-2 2.5S3 9 4 9zm9-3h-1v1h1c1 0 2 1.22 2 2.5S13.98 12 13 12H9c-.98 0-2-1.22-2-2.5 0-.83.42-1.64 1-2.09V6.25c-1.09.53-2 1.84-2 3.25C6 11.31 7.55 13 9 13h4c1.45 0 3-1.69 3-3.5S14.5 6 13 6z"></path></svg></a>Custom builds</h2>\u000a\u000a<p>The source code of JSONEditor consists of CommonJS modules. JSONEditor can be bundled in a customized way using a module bundler like <a href="http://browserify.org/">browserify</a> or <a href="http://webpack.github.io/">webpack</a>. First, install all dependencies of jsoneditor:</p>\u000a\u000a<pre><code>npm install\u000a</code></pre>\u000a\u000a<p>To create a custom bundle of the source code using browserify:</p>\u000a\u000a<pre><code>browserify ./index.js -o ./jsoneditor.custom.js -s JSONEditor\u000a</code></pre>\u000a\u000a<p>The Ace editor, used in mode <code>code</code>, accounts for about 75% of the total\u000asize of the library. To exclude the Ace editor from the bundle:</p>\u000a\u000a<pre><code>browserify ./index.js -o ./jsoneditor.custom.js -s JSONEditor -x brace -x brace/mode/json -x brace/ext/searchbox\u000a</code></pre>\u000a\u000a<p>To minify the generated bundle, use <a href="https://github.com/mishoo/UglifyJS2">uglifyjs</a>:</p>\u000a\u000a<pre><code>uglifyjs ./jsoneditor.custom.js -o ./jsoneditor.custom.min.js -m -c\u000a</code></pre>\u000a</article>\u000a  </div>\u000a\u000a\u000a  </div>\u000a  <div class="modal-backdrop js-touch-events"></div>\u000a</div>\u000a\u000a\u000a    </div>\u000a  </div>\u000a\u000a    </div>\u000a\u000a        <div class="container site-footer-container">\u000a  <div class="site-footer" role="contentinfo">\u000a    <ul class="site-footer-links float-right">\u000a        <li><a href="https://github.com/contact" data-ga-click="Footer, go to contact, text:contact">Contact GitHub</a></li>\u000a      <li><a href="https://developer.github.com" data-ga-click="Footer, go to api, text:api">API</a></li>\u000a      <li><a href="https://training.github.com" data-ga-click="Footer, go to training, text:training">Training</a></li>\u000a      <li><a href="https://shop.github.com" data-ga-click="Footer, go to shop, text:shop">Shop</a></li>\u000a        <li><a href="https://github.com/blog" data-ga-click="Footer, go to blog, text:blog">Blog</a></li>\u000a        <li><a href="https://github.com/about" data-ga-click="Footer, go to about, text:about">About</a></li>\u000a\u000a    </ul>\u000a\u000a    <a href="https://github.com" aria-label="Homepage" class="site-footer-mark" title="GitHub">\u000a      <svg aria-hidden="true" class="octicon octicon-mark-github" height="24" version="1.1" viewBox="0 0 16 16" width="24"><path fill-rule="evenodd" d="M8 0C3.58 0 0 3.58 0 8c0 3.54 2.29 6.53 5.47 7.59.4.07.55-.17.55-.38 0-.19-.01-.82-.01-1.49-2.01.37-2.53-.49-2.69-.94-.09-.23-.48-.94-.82-1.13-.28-.15-.68-.52-.01-.53.63-.01 1.08.58 1.23.82.72 1.21 1.87.87 2.33.66.07-.52.28-.87.51-1.07-1.78-.2-3.64-.89-3.64-3.95 0-.87.31-1.59.82-2.15-.08-.2-.36-1.02.08-2.12 0 0 .67-.21 2.2.82.64-.18 1.32-.27 2-.27.68 0 1.36.09 2 .27 1.53-1.04 2.2-.82 2.2-.82.44 1.1.16 1.92.08 2.12.51.56.82 1.27.82 2.15 0 3.07-1.87 3.75-3.65 3.95.29.25.54.73.54 1.48 0 1.07-.01 1.93-.01 2.2 0 .21.15.46.55.38A8.013 8.013 0 0 0 16 8c0-4.42-3.58-8-8-8z"/></svg>\u000a</a>\u000a    <ul class="site-footer-links">\u000a      <li>&copy; 2016 <span title="0.15280s from github-fe116-cp1-prd.iad.github.net">GitHub</span>, Inc.</li>\u000a        <li><a href="https://github.com/site/terms" data-ga-click="Footer, go to terms, text:terms">Terms</a></li>\u000a        <li><a href="https://github.com/site/privacy" data-ga-click="Footer, go to privacy, text:privacy">Privacy</a></li>\u000a        <li><a href="https://github.com/security" data-ga-click="Footer, go to security, text:security">Security</a></li>\u000a        <li><a href="https://status.github.com/" data-ga-click="Footer, go to status, text:status">Status</a></li>\u000a        <li><a href="https://help.github.com" data-ga-click="Footer, go to help, text:help">Help</a></li>\u000a    </ul>\u000a  </div>\u000a</div>\u000a\u000a\u000a\u000a    \u000a\u000a    <div id="ajax-error-message" class="ajax-error-message flash flash-error">\u000a      <svg aria-hidden="true" class="octicon octicon-alert" height="16" version="1.1" viewBox="0 0 16 16" width="16"><path fill-rule="evenodd" d="M8.865 1.52c-.18-.31-.51-.5-.87-.5s-.69.19-.87.5L.275 13.5c-.18.31-.18.69 0 1 .19.31.52.5.87.5h13.7c.36 0 .69-.19.86-.5.17-.31.18-.69.01-1L8.865 1.52zM8.995 13h-2v-2h2v2zm0-3h-2V6h2v4z"/></svg>\u000a      <button type="button" class="flash-close js-flash-close js-ajax-error-dismiss" aria-label="Dismiss error">\u000a        <svg aria-hidden="true" class="octicon octicon-x" height="16" version="1.1" viewBox="0 0 12 16" width="12"><path fill-rule="evenodd" d="M7.48 8l3.75 3.75-1.48 1.48L6 9.48l-3.75 3.75-1.48-1.48L4.52 8 .77 4.25l1.48-1.48L6 6.52l3.75-3.75 1.48 1.48z"/></svg>\u000a      </button>\u000a      You can't perform that action at this time.\u000a    </div>\u000a\u000a\u000a      \u000a      <script crossorigin="anonymous" integrity="sha256-qGcOKOeLPwGU3+T/SVUz+lI+fnAAbb9axOapfoqVer0=" src="https://assets-cdn.github.com/assets/frameworks-a8670e28e78b3f0194dfe4ff495533fa523e7e70006dbf5ac4e6a97e8a957abd.js"></script>\u000a      <script async="async" crossorigin="anonymous" integrity="sha256-i28Sf4dlo1o0664ifALHi3SQSHK/WAdbTtwTTU6ywhg=" src="https://assets-cdn.github.com/assets/github-8b6f127f8765a35a34ebae227c02c78b74904872bf58075b4edc134d4eb2c218.js"></script>\u000a      \u000a      \u000a      \u000a      \u000a    <div class="js-stale-session-flash stale-session-flash flash flash-warn flash-banner d-none">\u000a      <svg aria-hidden="true" class="octicon octicon-alert" height="16" version="1.1" viewBox="0 0 16 16" width="16"><path fill-rule="evenodd" d="M8.865 1.52c-.18-.31-.51-.5-.87-.5s-.69.19-.87.5L.275 13.5c-.18.31-.18.69 0 1 .19.31.52.5.87.5h13.7c.36 0 .69-.19.86-.5.17-.31.18-.69.01-1L8.865 1.52zM8.995 13h-2v-2h2v2zm0-3h-2V6h2v4z"/></svg>\u000a      <span class="signed-in-tab-flash">You signed in with another tab or window. <a href="">Reload</a> to refresh your session.</span>\u000a      <span class="signed-out-tab-flash">You signed out in another tab or window. <a href="">Reload</a> to refresh your session.</span>\u000a    </div>\u000a    <div class="facebox" id="facebox" style="display:none;">\u000a  <div class="facebox-popup">\u000a    <div class="facebox-content" role="dialog" aria-labelledby="facebox-header" aria-describedby="facebox-description">\u000a    </div>\u000a    <button type="button" class="facebox-close js-facebox-close" aria-label="Close modal">\u000a      <svg aria-hidden="true" class="octicon octicon-x" height="16" version="1.1" viewBox="0 0 12 16" width="12"><path fill-rule="evenodd" d="M7.48 8l3.75 3.75-1.48 1.48L6 9.48l-3.75 3.75-1.48-1.48L4.52 8 .77 4.25l1.48-1.48L6 6.52l3.75-3.75 1.48 1.48z"/></svg>\u000a    </button>\u000a  </div>\u000a</div>\u000a\u000a  </body>\u000a</html>\u000a\u000a
p3
a.