(lp0
S'http://wklken.me/posts/2013/07/04/note-of-linux-shell-scripting-cookbook.html'
p1
aS'Linux Shell\xe8\x84\x9a\xe6\x9c\xac\xe6\x94\xbb\xe7\x95\xa5\xe7\xac\x94\xe8\xae\xb0[\xe9\x80\x9f\xe6\x9f\xa5]'
p2
aI0
aV<!DOCTYPE html>\u000a<html lang="en">\u000a\u000a<!--[if IE 8]> <html class="no-js lt-ie9" lang="en"> <![endif]-->\u000a<!--[if gt IE 8]><!--> <html class="no-js" lang="en"> <!--<![endif]-->\u000a\u000a<head>\u000a    <meta name="google-site-verification" content="SzE6WCs23qFevgBzRIuG9vcfLU0lW_Vd5hFT-cJOLBE" />\u000a    <title>Linux Shell\u811a\u672c\u653b\u7565\u7b14\u8bb0[\u901f\u67e5]</title>\u000a    <meta charset="utf-8" />\u000a    <meta name="description" content="">\u000a    <meta name="keywords" content="" />\u000a    <meta name="viewport" content="width=device-width, initial-scale=1.0"/>\u000a    <meta http-equiv="X-UA-Compatible" content="IE=edge,chrome=1">\u000a\u000a        <link rel="shortcut icon" href="/favicon.ico"/>\u000a        <link rel="stylesheet" href="/theme/css/styles.css" media="all" />\u000a        <link rel="stylesheet" href="/theme/css/monokai.css" media="all" />\u000a        <link rel="stylesheet" href="/theme/css/tab.min.css" media="all" />\u000a        <link rel="stylesheet" href="/theme/css/jquery-ui.min.css" media="all" />\u000a\u000a        <link rel="stylesheet" href="/theme/css/font-awesome.min.css">\u000a        <!--\u000a        <link rel="stylesheet" href="http://apps.bdimg.com/libs/fontawesome/4.2.0/css/font-awesome.min.css">\u000a        -->\u000a        <!--[if IE 7]>\u000a            <link rel="stylesheet" href="/theme/css/font-awesome-ie7.min.css">\u000a        <![endif]-->\u000a\u000a        <link href="/" type="application/atom+xml" rel="alternate" title="wklken's blog ATOM Feed" />\u000a        <link href="/feed.xml" type="application/atom+xml" rel="alternate" title="wklken's blog RSS Feed" />\u000a\u000a</head>\u000a\u000a<body>\u000a    <div id="page" class="row">\u000a        <div class="large-9 large-centered columns">\u000a\u000a        <header id="header">\u000a            <div class="constraint">\u000a                <div class="o">\u000a                    <a href="/"><h1 class="banner">Wklken <span class="blue"> Building </span></h1></a>\u000a\u000a                <div class="social">\u000a                            <a href="https://github.com/wklken" target='_blank'><i class="icon-github-sign icon-2x"></i></a>\u000a                            <a href="http://weibo.com/wklken" target='_blank'><i class="icon-weibo icon-2x"></i></a>\u000a                            <a href="mailto:wklken@yeah.net"><i class="icon-envelope icon-2x"></i></a>\u000a                            <a href="http://www.wklken.me/feed.xml" target='_blank'><i class="icon-rss-sign icon-2x"></i></a>\u000a                </div>\u000a                <div class="nav">\u000a                            <a href="/">\u9996\u9875</a>\u000a                            <a href="/categories.html">\u5206\u7c7b</a>\u000a                            <a href="/archives.html">\u5f52\u6863</a>\u000a                            <a href="/pages/projects.html">\u9879\u76ee</a>\u000a                            <a href="/pages/links.html">\u53cb\u94fe</a>\u000a                            <a href="/pages/aboutme.html">\u5173\u4e8e</a>\u000a\u000a                </div>\u000a\u000a                </div>\u000a            </div>\u000a        </header><!-- /#banner -->\u000a\u000a        <section id="main">\u000a\u000a\u000a<article id="article">\u000a    <section id="header">\u000a        <!--\u000a        <div class="meta">2013\u5e7407\u670804\u65e5</div>\u000a        <h1 id="title"> Linux Shell\u811a\u672c\u653b\u7565\u7b14\u8bb0[\u901f\u67e5] </h1>\u000a        -->\u000a        <div class="meta"> &nbsp; </div>\u000a        <h1> Linux Shell\u811a\u672c\u653b\u7565\u7b14\u8bb0[\u901f\u67e5] </h1>\u000a    </section>\u000a\u000a        <section id="toc">\u000a            <div id="toc"><ul><li><a class="toc-href" href="#" title="Linux Shell\u811a\u672c\u653b\u7565\u7b14\u8bb0[\u901f\u67e5]">Linux Shell\u811a\u672c\u653b\u7565\u7b14\u8bb0[\u901f\u67e5]</a><ul><li><a class="toc-href" href="#_1" title="\u8d44\u6e90">\u8d44\u6e90</a></li><li><a class="toc-href" href="#shell-script" title="shell script">shell script</a></li><li><a class="toc-href" href="#run-shell-script" title="run shell script">run shell script</a></li><li><a class="toc-href" href="#echo" title="echo">echo</a></li><li><a class="toc-href" href="#printf" title="printf">printf</a></li><li><a class="toc-href" href="#_2" title="\u73af\u5883\u53d8\u91cf\u548c\u53d8\u91cf">\u73af\u5883\u53d8\u91cf\u548c\u53d8\u91cf</a></li><li><a class="toc-href" href="#pgrep" title="pgrep">pgrep</a></li><li><a class="toc-href" href="#shell" title="shell\u6570\u5b66\u8fd0\u7b97">shell\u6570\u5b66\u8fd0\u7b97</a></li><li><a class="toc-href" href="#_3" title="\u547d\u4ee4\u72b6\u6001">\u547d\u4ee4\u72b6\u6001</a></li><li><a class="toc-href" href="#_4" title="\u6587\u4ef6\u63cf\u8ff0\u7b26\u548c\u91cd\u5b9a\u5411">\u6587\u4ef6\u63cf\u8ff0\u7b26\u548c\u91cd\u5b9a\u5411</a></li><li><a class="toc-href" href="#cat" title="cat">cat</a></li><li><a class="toc-href" href="#_5" title="\u6570\u7ec4\u548c\u5173\u8054\u6570\u7ec4">\u6570\u7ec4\u548c\u5173\u8054\u6570\u7ec4</a></li><li><a class="toc-href" href="#alias" title="alias">alias</a></li><li><a class="toc-href" href="#date" title="date">date</a></li><li><a class="toc-href" href="#_6" title="\u8c03\u8bd5\u811a\u672c">\u8c03\u8bd5\u811a\u672c</a></li><li><a class="toc-href" href="#_7" title="\u51fd\u6570\u548c\u53c2\u6570">\u51fd\u6570\u548c\u53c2\u6570</a></li><li><a class="toc-href" href="#_8" title="\u7ba1\u9053">\u7ba1\u9053</a></li><li><a class="toc-href" href="#_9" title="\u8bfb\u53d6\u547d\u4ee4\u8f93\u51fa">\u8bfb\u53d6\u547d\u4ee4\u8f93\u51fa</a></li><li><a class="toc-href" href="#read" title="read">read</a></li><li><a class="toc-href" href="#_10" title="\u5b57\u6bb5\u5206\u9694\u7b26\u548c\u8fed\u4ee3\u5668">\u5b57\u6bb5\u5206\u9694\u7b26\u548c\u8fed\u4ee3\u5668</a></li><li><a class="toc-href" href="#_11" title="\u5faa\u73af">\u5faa\u73af</a></li><li><a class="toc-href" href="#_12" title="\u6bd4\u8f83\u548c\u6d4b\u8bd5">\u6bd4\u8f83\u548c\u6d4b\u8bd5</a></li><li><a class="toc-href" href="#find" title="find">find</a></li><li><a class="toc-href" href="#xargs" title="xargs">xargs</a></li><li><a class="toc-href" href="#tr" title="tr">tr</a></li><li><a class="toc-href" href="#md5sum" title="md5sum">md5sum</a></li><li><a class="toc-href" href="#sha1sum" title="sha1sum">sha1sum</a></li><li><a class="toc-href" href="#_13" title="\u5bf9\u76ee\u5f55\u8fdb\u884c\u6821\u9a8c">\u5bf9\u76ee\u5f55\u8fdb\u884c\u6821\u9a8c</a></li><li><a class="toc-href" href="#sort" title="sort">sort</a></li><li><a class="toc-href" href="#uniq" title="uniq">uniq</a></li><li><a class="toc-href" href="#tempfile" title="tempfile">tempfile</a></li><li><a class="toc-href" href="#split" title="split">split</a></li><li><a class="toc-href" href="#bash" title="bash\u53d8\u91cf\u5339\u914d\u5207\u5206">bash\u53d8\u91cf\u5339\u914d\u5207\u5206</a></li><li><a class="toc-href" href="#expect" title="expect">expect</a></li><li><a class="toc-href" href="#dd" title="dd">dd</a></li><li><a class="toc-href" href="#comm" title="comm">comm</a></li><li><a class="toc-href" href="#mkdir" title="mkdir">mkdir</a></li><li><a class="toc-href" href="#ls" title="ls">ls</a></li><li><a class="toc-href" href="#chmod" title="chmod">chmod</a></li><li><a class="toc-href" href="#chown" title="chown">chown</a></li><li><a class="toc-href" href="#chattr" title="chattr">chattr</a></li><li><a class="toc-href" href="#touch" title="touch">touch</a></li><li><a class="toc-href" href="#ln" title="ln">ln</a></li><li><a class="toc-href" href="#readlink" title="readlink">readlink</a></li><li><a class="toc-href" href="#file" title="file">file</a></li><li><a class="toc-href" href="#_14" title="\u8bfb\u6587\u4ef6">\u8bfb\u6587\u4ef6</a></li><li><a class="toc-href" href="#diff" title="diff">diff</a></li><li><a class="toc-href" href="#head" title="head">head</a></li><li><a class="toc-href" href="#tail" title="tail">tail</a></li><li><a class="toc-href" href="#pushdpopd" title="pushd/popd">pushd/popd</a></li><li><a class="toc-href" href="#cd" title="cd">cd</a></li><li><a class="toc-href" href="#wc" title="wc">wc</a></li><li><a class="toc-href" href="#tree" title="tree">tree</a></li><li><a class="toc-href" href="#grep" title="grep">grep</a></li><li><a class="toc-href" href="#cut" title="cut">cut</a></li><li><a class="toc-href" href="#join" title="join">join</a></li><li><a class="toc-href" href="#sed" title="sed">sed</a></li><li><a class="toc-href" href="#awk" title="awk">awk</a></li><li><a class="toc-href" href="#_15" title="\u6587\u4ef6\u8fed\u4ee3">\u6587\u4ef6\u8fed\u4ee3</a></li><li><a class="toc-href" href="#paste" title="paste">paste</a></li><li><a class="toc-href" href="#tac" title="tac">tac</a></li><li><a class="toc-href" href="#rev" title="rev">rev</a></li><li><a class="toc-href" href="#wget" title="wget">wget</a></li><li><a class="toc-href" href="#curl" title="curl">curl</a></li><li><a class="toc-href" href="#lynx" title="lynx">lynx</a></li><li><a class="toc-href" href="#tar" title="tar">tar</a></li><li><a class="toc-href" href="#cpio" title="cpio">cpio</a></li><li><a class="toc-href" href="#gzip" title="gzip">gzip</a></li><li><a class="toc-href" href="#zcat" title="zcat">zcat</a></li><li><a class="toc-href" href="#bzip" title="bzip">bzip</a></li><li><a class="toc-href" href="#lzma" title="lzma">lzma</a></li><li><a class="toc-href" href="#zip" title="zip">zip</a></li><li><a class="toc-href" href="#base64" title="base64">base64</a></li><li><a class="toc-href" href="#md5sum_1" title="md5sum">md5sum</a></li><li><a class="toc-href" href="#rsync" title="rsync">rsync</a></li><li><a class="toc-href" href="#git" title="git">git</a></li><li><a class="toc-href" href="#dd_1" title="dd">dd</a></li><li><a class="toc-href" href="#mount" title="mount">mount</a></li><li><a class="toc-href" href="#_17" title="\u7f51\u7edc\u76f8\u5173">\u7f51\u7edc\u76f8\u5173</a><ul><li><a class="toc-href" href="#ifconfig" title="ifconfig">ifconfig</a></li><li><a class="toc-href" href="#ping" title="ping">ping</a></li><li><a class="toc-href" href="#fping" title="fping">fping</a></li><li><a class="toc-href" href="#lftp" title="lftp">lftp</a></li><li><a class="toc-href" href="#scp" title="scp">scp</a></li><li><a class="toc-href" href="#ssh" title="SSH">SSH</a></li><li><a class="toc-href" href="#lsof" title="lsof">lsof</a></li><li><a class="toc-href" href="#netstat" title="netstat">netstat</a></li></ul></li><li><a class="toc-href" href="#_19" title="\u78c1\u76d8\u548c\u7cfb\u7edf">\u78c1\u76d8\u548c\u7cfb\u7edf</a><ul><li><a class="toc-href" href="#du" title="du">du</a></li><li><a class="toc-href" href="#df" title="df">df</a></li><li><a class="toc-href" href="#time" title="time">time</a></li><li><a class="toc-href" href="#who" title="who">who</a></li><li><a class="toc-href" href="#uptime" title="uptime">uptime</a></li><li><a class="toc-href" href="#last" title="last">last</a></li><li><a class="toc-href" href="#watch" title="watch">watch</a></li></ul></li><li><a class="toc-href" href="#_21" title="\u8fdb\u7a0b\u548c\u7ebf\u7a0b">\u8fdb\u7a0b\u548c\u7ebf\u7a0b</a><ul><li><a class="toc-href" href="#ps" title="ps">ps</a></li><li><a class="toc-href" href="#pgrep_1" title="pgrep">pgrep</a></li><li><a class="toc-href" href="#top" title="top">top</a></li><li><a class="toc-href" href="#kill" title="kill">kill</a></li><li><a class="toc-href" href="#pkill" title="pkill">pkill</a></li><li><a class="toc-href" href="#which" title="which">which</a></li><li><a class="toc-href" href="#whereis" title="whereis">whereis</a></li><li><a class="toc-href" href="#file_1" title="file">file</a></li><li><a class="toc-href" href="#whatis" title="whatis">whatis</a></li><li><a class="toc-href" href="#hostname" title="hostname">hostname</a></li><li><a class="toc-href" href="#uname" title="uname">uname</a></li><li><a class="toc-href" href="#crontab" title="crontab">crontab</a></li><li><a class="toc-href" href="#getopts" title="getopts">getopts</a></li><li><a class="toc-href" href="#history" title="history">history</a></li><li><a class="toc-href" href="#sudo" title="sudo">sudo</a></li><li><a class="toc-href" href="#cal" title="cal">cal</a></li><li><a class="toc-href" href="#cp" title="cp">cp</a></li><li><a class="toc-href" href="#mv" title="mv">mv</a></li><li><a class="toc-href" href="#pwd" title="pwd">pwd</a></li><li><a class="toc-href" href="#free" title="free">free</a></li><li><a class="toc-href" href="#eval" title="eval">eval</a></li><li><a class="toc-href" href="#basename" title="basename">basename</a></li><li><a class="toc-href" href="#cmp" title="cmp">cmp</a></li><li><a class="toc-href" href="#rm" title="rm">rm</a></li><li><a class="toc-href" href="#service" title="service">service</a></li><li><a class="toc-href" href="#man" title="man">man</a></li><li><a class="toc-href" href="#passwd" title="passwd">passwd</a></li><li><a class="toc-href" href="#gcc" title="gcc">gcc</a></li><li><a class="toc-href" href="#g" title="g++">g++</a></li><li><a class="toc-href" href="#java" title="java">java</a></li><li><a class="toc-href" href="#devnull" title="\u5173\u4e8e/dev/null">\u5173\u4e8e/dev/null</a></li><li><a class="toc-href" href="#_22" title="\u8bed\u8a00\u53ca\u4e71\u7801">\u8bed\u8a00\u53ca\u4e71\u7801</a></li><li><a class="toc-href" href="#shell_1" title="shell\u7684\u7248\u672c">shell\u7684\u7248\u672c</a></li></ul></li></ul></li></ul></div>\u000a        </section>\u000a    <section id="content">\u000a        <p>Linux Shell\u811a\u672c\u653b\u7565\u7684\u7b14\u8bb0\uff0cmarkdown\u7f16\u5199\uff0c\u53ef\u4ee5\u901f\u67e5(ctrl+f)</p>\u000a<p>2013-09-08 \u4ece\u5386\u53f2\u7f51\u6458\u4e2d\u8865\u5145<br/>\u000a 2014-02-16 \u589e\u52a0&lt;<shell\u811a\u672c\u6307\u5357>&gt;\u7b14\u8bb0\u8865\u5145</shell\u811a\u672c\u6307\u5357></p>\u000a<hr/>\u000a<h3 id="_1">\u8d44\u6e90</h3>\u000a<p><a href="http://coolshell.cn/articles/9104.html">sed\u7b80\u660e\u6559\u7a0b</a></p>\u000a<p><a href="http://coolshell.cn/articles/9070.html">awk\u7b80\u660e\u6559\u7a0b</a></p>\u000a<hr/>\u000a<h3 id="shell-script">shell script</h3>\u000a<div class="monokai"><pre><span></span><span class="ch">#!/bin/bash</span>\u000a<span class="c1"># do something</span>\u000a</pre></div>\u000a<h3 id="run-shell-script">run shell script</h3>\u000a<div class="monokai"><pre><span></span>sh script.sh\u000a\u000aor\u000a\u000achmod a+x script.sh\u000a./script.sh\u000a# \u4f1a\u8bfb\u53d6\u9996\u884c\u7684\u89e3\u91ca\u5668, \u6267\u884c\u000a</pre></div>\u000a<p>cmd</p>\u000a<div class="monokai"><pre><span></span>cmd1; cmd2\u000a\u000aor\u000a\u000acmd1\u000acmd2\u000a</pre></div>\u000a<h3 id="echo">echo</h3>\u000a<p>echo  \u7684\u529f\u80fd\u6b63\u5982\u5176\u540d\uff0c\u5c31\u662f\u57fa\u4e8e\u6807\u51c6\u8f93\u51fa\u6253\u5370\u4e00\u6bb5\u6587\u672c</p>\u000a<div class="monokai"><pre><span></span>echo "welcome to bash"\u000aecho welcome to bash\u000a</pre></div>\u000a<p>\u4f7f\u7528\u4e0d\u5e26\u5f15\u53f7\u7684echo\u65f6\uff0c\u65e0\u6cd5\u663e\u793a\u5206\u53f7</p>\u000a<p>\u4f7f\u7528\u5355\u5f15\u53f7echo\u65f6\uff0cbash\u4e0d\u4f1a\u5bf9\u5355\u5f15\u53f7\u4e2d\u53d8\u91cf\u6c42\u503c  '$var'</p>\u000a<p>echo \u4e2d\u8f6c\u4e49\u6362\u884c\u7b26</p>\u000a<p>\u9ed8\u8ba4\u60c5\u51b5\uff0cecho\u5c06\u6362\u884c\u6807\u5fd7\u8ffd\u52a0\u5230\u6587\u672c\u5c3e\u90e8\uff0c\u53ef\u4ee5\u5ffd\u7565\u7ed3\u5c3e\u6362\u884c\u7b26</p>\u000a<div class="monokai"><pre><span></span>echo -n 'test\u005cn'\u000a</pre></div>\u000a<p>\u5bf9\u5b57\u7b26\u4e32\u8fdb\u884c\u8f6c\u4e49</p>\u000a<div class="monokai"><pre><span></span>echo -e '1\u005ct2\u005ct3'\u000a</pre></div>\u000a<p>\u6253\u5370\u5f69\u8272\u8f93\u51fa</p>\u000a<div class="monokai"><pre><span></span>\u6587\u5b57\u989c\u8272\u7801\u000a    \u91cd\u7f6e0\u000a    \u9ed1\u827230\u000a    \u7ea2\u827231\u000a    \u7eff\u827232\u000a    \u9ec4\u827233\u000a    \u84dd\u827234\u000a    \u6d0b\u7ea235\u000a    \u9752\u827236\u000a    \u767d\u827237\u000a\u000aecho -e "\u005ce[1;31m This is red test \u005ce[0m"\u000a\u000a\u80cc\u666f\u989c\u8272\u7801\u000a    \u91cd\u7f6e0\u000a    \u9ed1\u827240\u000a    \u7ea2\u827241\u000a    \u7eff\u827242\u000a    \u9ec4\u827243\u000a    \u84dd\u827244\u000a    \u6d0b\u7ea245\u000a    \u9752\u827246\u000a    \u767d\u827247\u000a\u000aecho -e "\u005ce[1;42m Green Background \u005ce[0m"\u000a</pre></div>\u000a<h3 id="printf">printf</h3>\u000a<p>\u53ef\u4ee5\u683c\u5f0f\u5316\u5b57\u7b26\u4e32, \u4f7f\u7528\u53c2\u6570\u540cc\u4e2dprintf\u4e00\u6837</p>\u000a<div class="monokai"><pre><span></span>printf "hello world"\u000a</pre></div>\u000a<p>\u9ed8\u8ba4\u4e0d\u4f1a\u52a0\u6362\u884c\u7b26, \u9700\u8981\u624b\u52a8\u6dfb\u52a0</p>\u000a<div class="monokai"><pre><span></span>printf "%-5s %-10s %-4.2f\u005cn" 3 Jeff 77.564\u000a\u000a3    Jeff      77.56\u000a</pre></div>\u000a<h3 id="_2">\u73af\u5883\u53d8\u91cf\u548c\u53d8\u91cf</h3>\u000a<p>bash\u4e2d\uff0c\u6bcf\u4e2a\u53d8\u91cf\u7684\u503c\u90fd\u662f\u5b57\u7b26\u4e32\uff0c\u65e0\u8bba\u4f60\u7ed9\u53d8\u91cf\u8d4b\u503c\u65f6\u662f\u5426\u4f7f\u7528\u5f15\u53f7\uff0c\u503c\u90fd\u4f1a\u4ee5\u5b57\u7b26\u4e32\u7684\u5f62\u5f0f\u5b58\u50a8</p>\u000a<p>\u73af\u5883\u53d8\u91cf</p>\u000a<p>\u67e5\u770b\u6240\u6709\u4e0e\u6b64\u7ec8\u7aef\u8fdb\u7a0b\u76f8\u5173\u7684\u73af\u5883\u53d8\u91cf</p>\u000a<div class="monokai"><pre><span></span>env\u000a</pre></div>\u000a<p>\u67e5\u770b\u67d0\u4e2a\u8fdb\u7a0b\u7684\u73af\u5883\u53d8\u91cf</p>\u000a<div class="monokai"><pre><span></span><span class="x">cat /proc/</span><span class="p">$</span><span class="nv">PID</span><span class="x">/environ</span>\u000a</pre></div>\u000a<p>\u53d8\u91cf\u8d4b\u503c</p>\u000a<div class="monokai"><pre><span></span>var=value\u000avar='the value'\u000avar="the <span class="nv">$PARAM</span>"\u000a\u000aecho <span class="nv">$var</span>\u000aecho <span class="cp">${</span><span class="n">var</span><span class="cp">}</span>\u000a\u000avar = value\u975e\u53d8\u91cf\u8d4b\u503c\u662f\u76f8\u7b49\u64cd\u4f5c\u000a</pre></div>\u000a<p>\u73af\u5883\u53d8\u91cf</p>\u000a<div class="monokai"><pre><span></span><span class="x">\u672a\u5728\u5f53\u524d\u8fdb\u7a0b\u4e2d\u5b9a\u4e49\uff0c\u800c\u662f\u4ece\u7236\u8fdb\u7a0b\u4e2d\u7ee7\u627f\u800c\u6765\u7684\u53d8\u91cf</span>\u000a<span class="x">export \u8bbe\u7f6e\u73af\u5883\u53d8\u91cf,\u4e4b\u540e,\u4ece\u5f53\u524dshell \u6267\u884c\u7684\u4efb\u4f55\u7a0b\u5e8f\u90fd\u4f1a\u7ee7\u627f\u8fd9\u4e2a\u53d8\u91cf</span>\u000a\u000a<span class="x">export PYTHONPATH=</span><span class="p">$</span><span class="nv">PYTHONPATH</span><span class="x">:/home/ken/workspace</span>\u000a</pre></div>\u000a<p>\u5e38\u7528\u7684\u73af\u5883\u53d8\u91cf</p>\u000a<div class="monokai"><pre><span></span><span class="x">PATH \u67e5\u627e\u53ef\u6267\u884c\u6587\u4ef6\u8def\u5f84, \u901a\u5e38\u5b9a\u4e49\u5728/etc/environment or /ect/profile or ~/.bashrc</span>\u000a<span class="x">\u4fee\u6539:        export PATH=</span><span class="p">$</span><span class="nv">PATH</span><span class="x">:/new/path/</span>\u000a<span class="x">HOME</span>\u000a<span class="x">PWD</span>\u000a<span class="x">USER</span>\u000a<span class="x">UID</span>\u000a<span class="x">SHELL</span>\u000a</pre></div>\u000a<p>\u83b7\u53d6\u5b57\u7b26\u4e32\u957f\u5ea6</p>\u000a<div class="monokai"><pre><span></span>length=<span class="cp">${</span><span class="c1">#var</span><span class="cp">}</span>\u000a</pre></div>\u000a<p>\u8bc6\u522b\u5f53\u524dshell\u7248\u672c</p>\u000a<div class="monokai"><pre><span></span><span class="x">echo </span><span class="p">$</span><span class="nv">SHELL</span><span class="x"></span>\u000a<span class="x">    /bin/bash</span>\u000a<span class="x">echo </span><span class="p">$</span><span class="x">0</span>\u000a<span class="x">    bash</span>\u000a</pre></div>\u000a<p>\u68c0\u67e5\u662f\u5426\u4e3a\u8d85\u7ea7\u7528\u6237 or \u666e\u901a\u7528\u6237</p>\u000a<div class="monokai"><pre><span></span><span class="x">root\u7684UID=0</span>\u000a\u000a<span class="x">if [ </span><span class="p">$</span><span class="nv">UID</span><span class="x"> -ne 0 ]</span>\u000a<span class="x">then</span>\u000a<span class="x">    echo "not root user"</span>\u000a<span class="x">else</span>\u000a<span class="x">    echo "root"</span>\u000a<span class="x">fi</span>\u000a</pre></div>\u000a<p>\u4fee\u6539bash\u7684\u63d0\u793a\u5b57\u7b26</p>\u000a<div class="monokai"><pre><span></span>\u8bbe\u7f6ePS1\u53d8\u91cf\u000a\u005cu\u7528\u6237\u540d\u000a\u005ch\u4e3b\u673a\u540d\u000a\u005cw\u5f53\u524d\u5de5\u4f5c\u76ee\u5f55\u000a</pre></div>\u000a<h3 id="pgrep">pgrep</h3>\u000a<p>\u83b7\u53d6\u67d0\u4e2a\u8fdb\u7a0b\u540d\u5bf9\u5e94\u8fdb\u7a0bid</p>\u000a<div class="monokai"><pre><span></span>pgrep gedit\u000a</pre></div>\u000a<h3 id="shell">shell\u6570\u5b66\u8fd0\u7b97</h3>\u000a<p>\u6574\u6570\u8fd0\u7b97</p>\u000a<p>let</p>\u000a<div class="monokai"><pre><span></span>no1=4\u000ano2=5\u000alet result=no1+no2\u000a\u000alet no1++\u000alet no2--\u000alet no1+=7\u000alet no2-=7\u000a</pre></div>\u000a<p>expr(\u5c11\u7528)</p>\u000a<div class="monokai"><pre><span></span><span class="x">result=`expr 3 + 4`</span>\u000a<span class="x">result=</span><span class="p">$(</span><span class="err">expr</span> <span class="p">$</span><span class="nv">no1</span> <span class="err">+</span> <span class="m">5</span><span class="p">)</span><span class="x"></span>\u000a</pre></div>\u000a<p>\u5176\u4ed6\u65b9\u6cd5</p>\u000a<div class="monokai"><pre><span></span><span class="x">result=</span><span class="p">$</span><span class="x">[ no1 + no2 ]</span>\u000a<span class="x">result=</span><span class="p">$</span><span class="x">[ </span><span class="p">$</span><span class="nv">no</span><span class="x"> + 5 ]</span>\u000a\u000a<span class="x">result=</span><span class="p">$((</span> <span class="err">no1</span> <span class="err">+</span> <span class="m">5</span> <span class="p">))</span><span class="x"></span>\u000a</pre></div>\u000a<p>\u6d6e\u70b9\u6570</p>\u000a<div class="monokai"><pre><span></span>echo "4 * 0.56" | bc\u000a\u8bbe\u5b9a\u7cbe\u5ea6\u000aecho "scale=2;3/8" | bc\u000a\u8fdb\u5236\u8f6c\u6362\u000aecho "obase=2;100" | bc\u000a\u5e73\u65b9\u000aecho "10^10" | bc\u000a\u5e73\u65b9\u6839\u000aecho "sqrt(100)" | bc\u000a</pre></div>\u000a<h3 id="_3">\u547d\u4ee4\u72b6\u6001</h3>\u000a<p>\u5f53\u547d\u4ee4\u6210\u529f\u5b8c\u6210, \u8fd4\u56de0</p>\u000a<p>\u53d1\u751f\u9519\u8bef\u5e76\u9000\u56de, \u8fd4\u56de\u975e0</p>\u000a<p>\u53ef\u4ee5\u4ece$?\u4e2d\u83b7\u53d6  cmd; echo $?</p>\u000a<h3 id="_4">\u6587\u4ef6\u63cf\u8ff0\u7b26\u548c\u91cd\u5b9a\u5411</h3>\u000a<p>\u6587\u4ef6\u63cf\u8ff0\u7b26: \u4e0e\u6587\u4ef6\u8f93\u5165/\u8f93\u51fa\u76f8\u5173\u8054\u7684\u6574\u6570, \u7528\u6765\u8ddf\u8e2a\u5df2\u6253\u5f00\u7684\u6587\u4ef6</p>\u000a<div class="monokai"><pre><span></span>0 stdin  \u6807\u7816\u8f93\u5165\u000a1 stdout \u6807\u51c6\u8f93\u51fa\u000a2 stderr \u6807\u51c6\u9519\u8bef\u000a</pre></div>\u000a<p>\u91cd\u5b9a\u5411\u5230\u6587\u4ef6</p>\u000a<div class="monokai"><pre><span></span>\u6e05\u7a7a\u6587\u4ef6\u5199\u5165\u65b0\u5185\u5bb9\u000aecho "test" &gt; temp.txt\u000a\u8ffd\u52a0\u000aecho "test" &gt;&gt; temp.txt\u000a\u000a&gt;\u7b49\u4ef7\u4e8e1&gt;\u000a&gt;&gt;\u7b49\u4ef7\u4e8e 1&gt;&gt;\u000a</pre></div>\u000a<p>\u8f93\u51fa\u5206\u79bb\u6216\u5408\u5e76</p>\u000a<div class="monokai"><pre><span></span>\u5206\u79bb\u000acmd 2&gt;stderr.txt  1&gt;stdout.txt\u000a\u000a\u5408\u5e76\u000acmd &gt; output.txt 2&gt;&amp;1\u000aor\u000acmd &amp;&gt; output.txt\u000a</pre></div>\u000a<p>\u6254\u5230\u5783\u573e\u6876</p>\u000a<div class="monokai"><pre><span></span>/dev/null \u7279\u6b8a\u8bbe\u5907\u6587\u4ef6, \u63a5\u6536\u5230\u7684\u4efb\u4f55\u6570\u636e\u90fd\u4f1a\u88ab\u4e22\u5f03(\u4f4d\u6876/\u9ed1\u6d1e)\u000a\u000a\u53ea\u6709\u6807\u51c6\u9519\u8bef\u000acmd 2 &gt; /dev/null\u000a\u000a\u6807\u51c6\u8f93\u51fa\u548c\u6807\u51c6\u9519\u8bef\u000acmd &gt;/dev/null 2&gt;&amp;1\u000a</pre></div>\u000a<p>\u540c\u65f6\u8f93\u51fa\u5230\u7ec8\u7aef\u548c\u6587\u4ef6</p>\u000a<div class="monokai"><pre><span></span>cmd | tee file1\u000a\u000atee\u9ed8\u8ba4\u8986\u76d6\uff0c\u53ef\u4ee5-a\u9009\u9879\u8ffd\u52a0\u000acmd | tee -a file1\u000a</pre></div>\u000a<p>\u5c06stdin\u4f5c\u4e3a\u547d\u4ee4\u53c2\u6570</p>\u000a<div class="monokai"><pre><span></span>cmd1 | cmd2 | cmd3 -\u000a</pre></div>\u000a<p>\u5c06\u6587\u4ef6\u91cd\u5b9a\u5411\u5230\u547d\u4ee4</p>\u000a<div class="monokai"><pre><span></span>cmd &lt; file\u000a</pre></div>\u000a<p>\u81ea\u5b9a\u4e49\u6587\u4ef6\u63cf\u8ff0\u7b26</p>\u000a<div class="monokai"><pre><span></span>\u4f7f\u7528\u6587\u4ef6\u63cf\u8ff0\u7b263\u6253\u5f00\u5e76\u8bfb\u53d6\u6587\u4ef6\u000aexec 3&lt;input.txt\u000acat &lt;&amp;3\u000a\u000a\u4f7f\u7528\u6587\u4ef6\u63cf\u8ff0\u7b264\u8fdb\u884c\u5199\u5165\u000aexec 4&gt;output.txt\u000aecho newline &gt;&amp;4\u000a</pre></div>\u000a<h3 id="cat">cat</h3>\u000a<p>cat, concatenate(\u62fc\u63a5)</p>\u000a<p>&ldquo;cat&rdquo;\u4ee3\u8868\u4e86\u8fde\u7ed3\uff08Concatenation\uff09\uff0c\u8fde\u63a5\u4e24\u4e2a\u6216\u8005\u66f4\u591a\u6587\u672c\u6587\u4ef6\u6216\u8005\u4ee5\u6807\u51c6\u8f93\u51fa\u5f62\u5f0f\u6253\u5370\u6587\u4ef6\u7684\u5185\u5bb9</p>\u000a<p>\u4e00\u822c\u683c\u5f0f</p>\u000a<div class="monokai"><pre><span></span>cat file1 file2 file3\u000a\u000a\u4ece\u7ba1\u9053\u4e2d\u8bfb\u53d6\u000aOUTPUT_FROM_SOME_CMDS | cat\u000a\u000aecho "test" | cat - file1\u000a</pre></div>\u000a<p>\u538b\u7f29\u7a7a\u767d\u884c, \u591a\u4e2a\u8fde\u7eed\u7a7a\u884c\u53d8\u6210\u5355\u4e2a</p>\u000a<div class="monokai"><pre><span></span>cat -s  file\u000a</pre></div>\u000a<p>\u914d\u5408tr\u79fb\u9664\u7a7a\u767d\u884c</p>\u000a<div class="monokai"><pre><span></span>cat file | tr -s '\u005cn' #\u8fde\u7eed\u591a\u4e2a\u005cn -&gt; \u005cn\u000a</pre></div>\u000a<p>\u52a0\u884c\u53f7</p>\u000a<div class="monokai"><pre><span></span>cat -n file\u000a</pre></div>\u000a<p>\u663e\u793a\u5236\u8868\u7b26\u7b49</p>\u000a<div class="monokai"><pre><span></span>cat -T file\u000a\u000acat f &gt; t\u000a\u6ce8\u610f\uff1a&ldquo;&gt;&gt;&rdquo;\u548c&ldquo;&gt;&rdquo;\u8c03\u7528\u4e86\u8ffd\u52a0\u7b26\u53f7\u3002\u5b83\u4eec\u7528\u6765\u8ffd\u52a0\u5230\u6587\u4ef6\u91cc\uff0c\u800c\u4e0d\u662f\u663e\u793a\u5728\u6807\u51c6\u8f93\u51fa\u4e0a\u3002\u000a&ldquo;&gt;&rdquo;\u7b26\u53f7\u4f1a\u5220\u9664\u5df2\u5b58\u5728\u7684\u6587\u4ef6\uff0c\u7136\u540e\u521b\u5efa\u4e00\u4e2a\u65b0\u7684\u6587\u4ef6\u3002\u000a\u6240\u4ee5\u56e0\u4e3a\u5b89\u5168\u7684\u539f\u56e0\uff0c\u5efa\u8bae\u4f7f\u7528&ldquo;&gt;&gt;&rdquo;\uff0c\u5b83\u4f1a\u5199\u5165\u5230\u6587\u4ef6\u4e2d\uff0c\u800c\u4e0d\u662f\u8986\u76d6\u6216\u8005\u5220\u9664\u3002\u000a</pre></div>\u000a<p>\u8f93\u5165\u591a\u884c\u6587\u5b57(CTRL + d \u9000\u51fa)</p>\u000a<div class="monokai"><pre><span></span>cat &gt; test.txt\u000a</pre></div>\u000a<h3 id="_5">\u6570\u7ec4\u548c\u5173\u8054\u6570\u7ec4</h3>\u000a<p>\u666e\u901a\u6570\u7ec4\uff0c\u6574\u6570\u4f5c\u4e3a\u6570\u7ec4\u7d22\u5f15, \u501f\u52a9\u7d22\u5f15\u5c06\u591a\u4e2a\u72ec\u7acb\u7684\u6570\u636e\u5b58\u50a8\u4e3a\u4e00\u4e2a\u96c6\u5408(list)</p>\u000a<p>\u5173\u8054\u6570\u7ec4\uff0c\u53ef\u4ee5\u4f7f\u7528\u5b57\u7b26\u4e32\u4f5c\u4e3a\u7d22\u5f15(map)</p>\u000a<p>\u6570\u7ec4</p>\u000a<p>\u5b9a\u4e49</p>\u000a<div class="monokai"><pre><span></span>array_var=(1 2 3 4 5)\u000a\u000aor\u000aarray_var[0]="test1"\u000aarray_var[3]="test3"\u000a</pre></div>\u000a<p>\u8bfb\u53d6</p>\u000a<div class="monokai"><pre><span></span>echo <span class="cp">${</span><span class="n">array_var</span><span class="p">[</span><span class="mi">0</span><span class="p">]</span><span class="cp">}</span>\u000a</pre></div>\u000a<p>\u4ee5\u6e05\u5355\u5f62\u5f0f\u6253\u5370</p>\u000a<div class="monokai"><pre><span></span>echo <span class="cp">${</span><span class="n">array_var</span><span class="p">[</span><span class="o">*</span><span class="p">]</span><span class="cp">}</span>\u000aecho <span class="cp">${</span><span class="n">array_var</span><span class="p">[</span><span class="err">@</span><span class="p">]</span><span class="cp">}</span>\u000a</pre></div>\u000a<p>\u957f\u5ea6</p>\u000a<div class="monokai"><pre><span></span>echo <span class="cp">${</span><span class="c1">#array_var[*]</span><span class="cp">}</span>\u000a</pre></div>\u000a<p>\u83b7\u53d6\u7d22\u5f15\u5217\u8868</p>\u000a<div class="monokai"><pre><span></span>echo <span class="cp">${</span><span class="err">!</span><span class="n">array_var</span><span class="p">[</span><span class="o">*</span><span class="p">]</span><span class="cp">}</span>\u000a</pre></div>\u000a<p>\u5173\u8054\u6570\u7ec4</p>\u000a<div class="monokai"><pre><span></span>declare -A ass_array\u000a\u000a\u5185\u5d4c\u7d22\u5f15-\u503c\u000aass_array=([index1]=value1 [index2]=value2)\u000a\u000a\u72ec\u7acb\u000aass_array[index3]=value3\u000a\u000aecho <span class="cp">${</span><span class="n">ass_array</span><span class="p">[</span><span class="n">index1</span><span class="p">]</span><span class="cp">}</span>\u000a</pre></div>\u000a<h3 id="alias">alias</h3>\u000a<p>alias\u662f\u4e00\u4e2a\u7cfb\u7edf\u81ea\u5efa\u7684shell\u547d\u4ee4\uff0c\u5141\u8bb8\u4f60\u4e3a\u540d\u5b57\u6bd4\u8f83\u957f\u7684\u6216\u8005\u7ecf\u5e38\u4f7f\u7528\u7684\u547d\u4ee4\u6307\u5b9a\u522b\u540d\u3002</p>\u000a<div class="monokai"><pre><span></span>alias new_command='command seq'\u000aunalias new_command\u000a\u000a\u4f7f\u7528\u539f\u751f\u547d\u4ee4\u000a\u005cnew_command\u000a</pre></div>\u000a<h3 id="date">date</h3>\u000a<p>&ldquo;date&rdquo;\u547d\u4ee4\u4f7f\u7528\u6807\u51c6\u7684\u8f93\u51fa\u6253\u5370\u5f53\u524d\u7684\u65e5\u671f\u548c\u65f6\u95f4\uff0c\u4e5f\u53ef\u4ee5\u6df1\u5165\u8bbe\u7f6e</p>\u000a<p>\u8bfb\u53d6\u65e5\u671f</p>\u000a<div class="monokai"><pre><span></span>date\u000a</pre></div>\u000a<p>\u65f6\u95f4\u6233</p>\u000a<div class="monokai"><pre><span></span>date +%s\u000a</pre></div>\u000a<p>\u65e5\u671f\u8f6c\u6362\u4e3a\u65f6\u95f4\u6233</p>\u000a<div class="monokai"><pre><span></span>date --date "Thu Nov 18 08:07:21 IST 2010" +%s\u000a</pre></div>\u000a<p>\u65e5\u671f\u683c\u5f0f\u5316</p>\u000a<div class="monokai"><pre><span></span>\u661f\u671f  %a  Sat\u000a      %A  Saturday\u000a\u6708    %b  Nov\u000a      %B  November\u000a\u65e5    %d  31\u000a\u56fa\u5b9a\u65e5\u671f\u683c\u5f0fmm/dd/yy     %D\u000a\u5e74    %y  10\u000a      %Y  2010\u000a\u5c0f\u65f6  %I/%H    08\u000a\u5206\u949f  %M  33\u000a\u79d2    %S  10\u000a\u7eb3\u79d2  %N  696308515\u000aUnix\u7eaa\u5143\u65f6  %s\u000a</pre></div>\u000a<p>\u683c\u5f0f\u5316</p>\u000a<div class="monokai"><pre><span></span>date "+%Y %B %d"\u000a\u000adate +%Y-%m-%d\u000a\u8f93\u51fa\uff1a 2011-07-28\u000adate +"%Y-%m-%d %H:%M:%S"\u000a</pre></div>\u000a<p>\u8bbe\u7f6e\u65e5\u671f\u548c\u65f6\u95f4</p>\u000a<div class="monokai"><pre><span></span>date -s "\u683c\u5f0f\u5316\u65e5\u671f\u5b57\u7b26\u4e32"\u000a\u000adate -s "21 June 2009 11:01:22"\u000a</pre></div>\u000a<p>\u5ef6\u65f6</p>\u000a<div class="monokai"><pre><span></span>sleep number_of_seconds\u000a</pre></div>\u000a<p>\u4e24\u5929\u540e\u53ca\u4e24\u5929\u524d</p>\u000a<div class="monokai"><pre><span></span>date -d '2 days' +%Y%m%d\u000adate -d '2 days ago' +%Y%m%d\u000a</pre></div>\u000a<p>\u67d0\u4e00\u5929\u7684\u51e0\u5929\u524d</p>\u000a<div class="monokai"><pre><span></span><span class="x">TODAY=`date +%Y%m%d`</span>\u000a<span class="x">DAY_1_AGO=`date -d "</span><span class="p">$</span><span class="nv">TODAY</span><span class="x"> 1 days ago" +%Y%m%d`</span>\u000a</pre></div>\u000a<p>\u65f6\u95f4\u6233\u65e5\u671f\u8f6c\u6362</p>\u000a<div class="monokai"><pre><span></span><span class="n">date</span> <span class="o">-</span><span class="n">d</span> <span class="mi">@1193144433</span>\u000a<span class="n">date</span> <span class="o">-</span><span class="n">d</span> <span class="mi">@1193144433</span> <span class="s">"+%Y-%m-%d %T"</span>\u000a\u000a<span class="err">\u53cd\u5411</span><span class="o">:</span>\u000a<span class="n">date</span> <span class="o">-</span><span class="n">d</span> <span class="s">"2007-10-23 15:00:23"</span> <span class="s">"+%s"</span>\u000a</pre></div>\u000a<p>\u8d4b\u503c\u7ed9\u53d8\u91cf</p>\u000a<div class="monokai"><pre><span></span>DATE=$(date +%Y%m%d)\u000aDATE=`date +%Y%m%d`\u000a</pre></div>\u000a<h3 id="_6">\u8c03\u8bd5\u811a\u672c</h3>\u000a<p>\u6253\u5370\u51fa\u6240\u6267\u884c\u7684\u6bcf\u4e00\u884c\u547d\u4ee4</p>\u000a<div class="monokai"><pre><span></span>bash -x script.sh\u000ash -x script.sh\u000a</pre></div>\u000a<p>\u5728\u811a\u672c\u4e2d\u8bbe\u7f6e\u5f00\u5173</p>\u000a<div class="monokai"><pre><span></span>set -x \u5728\u6267\u884c\u65f6\u663e\u793a\u53c2\u6570\u548c\u547d\u4ee4\u000aset +x \u5173\u95ed\u8c03\u8bd5\u000aset -v \u5f53\u547d\u4ee4\u8fdb\u884c\u8bfb\u53d6\u65f6\u663e\u793a\u8f93\u5165\u000aset +v \u7981\u6b62\u6253\u5370\u8f93\u5165\u000a</pre></div>\u000a<p>\u76f4\u63a5\u4fee\u6539\u811a\u672c</p>\u000a<div class="monokai"><pre><span></span><span class="ch">#!/bin/bash -xv</span>\u000a</pre></div>\u000a<h3 id="_7">\u51fd\u6570\u548c\u53c2\u6570</h3>\u000a<p>\u5b9a\u4e49\u51fd\u6570</p>\u000a<div class="monokai"><pre><span></span>function fname()\u000a{\u000a    statements;\u000a}\u000aor\u000afname()\u000a{\u000a    statements;\u000a}\u000a</pre></div>\u000a<p>\u8c03\u7528</p>\u000a<div class="monokai"><pre><span></span>fname;\u000a\u4f20\u53c2\u000afname arg1 arg2;\u000a</pre></div>\u000a<p>\u63a5\u6536\u53c2\u6570</p>\u000a<div class="monokai"><pre><span></span><span class="err">$</span><span class="mi">1</span><span class="err">\u7b2c\u4e00\u4e2a\u53c2\u6570</span>\u000a<span class="err">$</span><span class="mi">2</span><span class="err">\u7b2c\u4e8c\u4e2a\u53c2\u6570</span>\u000a<span class="err">$</span><span class="n">n\u7b2cn\u4e2a\u53c2\u6570</span>\u000a\u000a<span class="s">"$@"</span><span class="err">\u88ab\u6269\u5c55\u6210</span> <span class="s">"$1"</span> <span class="s">"$2"</span> <span class="s">"$3"</span>\u000a<span class="s">"$*"</span><span class="err">\u6269\u5c55\u6210</span><span class="s">"$1c$2c$3"</span><span class="p">,</span> <span class="err">\u5176\u4e2d</span><span class="n">c\u662fIFS\u7b2c\u4e00\u4e2a\u5b57\u7b26</span>\u000a\u000a<span class="s">"$@"</span><span class="err">\u4f7f\u7528\u6700\u591a</span><span class="p">,</span> <span class="err">$</span><span class="o">*</span><span class="err">\u5c06\u6240\u6709\u7684\u53c2\u6570\u5f53\u505a\u5355\u4e2a\u5b57\u7b26\u4e32</span>\u000a</pre></div>\u000a<p>bash\u652f\u6301\u9012\u5f52</p>\u000a<p>\u5bfc\u51fa\u51fd\u6570,\u53ef\u4ee5\u4f5c\u7528\u5230\u5b50\u8fdb\u7a0b\u4e2d</p>\u000a<div class="monokai"><pre><span></span>export -f fname\u000a</pre></div>\u000a<p>\u51fd\u6570\u53ca\u547d\u4ee4\u8fd4\u56de\u503c</p>\u000a<div class="monokai"><pre><span></span>cmd;\u000aecho $?\u000a\u000a\u9000\u51fa\u72b6\u6001\uff0c\u6210\u529f\u9000\u51fa\uff0c\u72b6\u6001\u4e3a0\uff0c\u5426\u5219\uff0c\u975e0\u000a\u000acmd\u000aif [ $? -eq 0 ]\u000athen\u000a    echo "success"\u000aelse\u000a    echo "fail"\u000afi\u000a</pre></div>\u000a<h3 id="_8">\u7ba1\u9053</h3>\u000a<p>\u524d\u4e00\u4e2a\u547d\u4ee4\u7684\u8f93\u51fa\u4f5c\u4e3a\u540e\u4e00\u4e2a\u547d\u4ee4\u7684\u8f93\u5165</p>\u000a<div class="monokai"><pre><span></span><span class="p">$</span><span class="nv">cmd1</span><span class="x"> | cmd2 | cmd3</span>\u000a</pre></div>\u000a<h3 id="_9">\u8bfb\u53d6\u547d\u4ee4\u8f93\u51fa</h3>\u000a<div class="monokai"><pre><span></span><span class="err">\u5b50shell</span>  <span class="err">subshell</span>\u000a<span class="nv">cmd_output</span><span class="o">=</span><span class="k">$(</span>COMMANDS<span class="k">)</span>\u000a<span class="err">or</span>\u000a<span class="err">\u53cd\u5f15\u7528</span>\u000a<span class="nv">cmd_output</span><span class="o">=</span><span class="sb">`</span>COMMANDS<span class="sb">`</span>\u000a</pre></div>\u000a<p>\u5b50shell\u672c\u8eab\u662f\u72ec\u7acb\u8fdb\u7a0b, \u4e0d\u4f1a\u5bf9\u5f53\u524dshell\u6709\u4efb\u4f55\u5f71\u54cd</p>\u000a<div class="monokai"><pre><span></span>pwd;\u000a(cd /bin; ls)\u000apwd #\u540c\u4e0a\u4e00\u4e2apwd\u000a</pre></div>\u000a<p>\u4fdd\u7559\u7a7a\u683c\u548c\u6362\u884c\u7b26</p>\u000a<div class="monokai"><pre><span></span><span class="x">out=</span><span class="p">$(</span><span class="err">cat</span> <span class="err">text.txt</span><span class="p">)</span><span class="x"></span>\u000a<span class="x">echo </span><span class="p">$</span><span class="nv">out</span><span class="x">  </span><span class="err">#</span><span class="x">\u4e22\u5931\u6240\u6709\u6362\u884c\u7b26</span>\u000a\u000a<span class="x">out="</span><span class="p">$(</span><span class="err">cat</span> <span class="err">text.txt</span><span class="p">)</span><span class="x">"</span>\u000a<span class="x">echo </span><span class="p">$</span><span class="nv">out</span><span class="x">  </span><span class="err">#</span><span class="x">\u4fdd\u7559</span>\u000a\u000a<span class="x">cat a</span>\u000a<span class="x">1</span>\u000a<span class="x">2</span>\u000a<span class="x">3</span>\u000a<span class="x">echo </span><span class="p">$(</span><span class="err">cat</span> <span class="err">a</span><span class="p">)</span><span class="x"></span>\u000a<span class="x">1 2 3</span>\u000a<span class="x">echo "</span><span class="p">$(</span><span class="err">cat</span> <span class="err">a</span><span class="p">)</span><span class="x">"</span>\u000a<span class="x">1</span>\u000a<span class="x">2</span>\u000a<span class="x">3</span>\u000a</pre></div>\u000a<h3 id="read">read</h3>\u000a<p>read, \u7528\u4e8e\u4ece\u952e\u76d8\u6216\u6807\u51c6\u8f93\u5165\u4e2d\u8bfb\u53d6\u6587\u672c</p>\u000a<p>\u8bfb\u53d6n\u4e2a\u5b57\u7b26\u5b58\u5165\u53d8\u91cf</p>\u000a<div class="monokai"><pre><span></span>read -n number_of_chars variable_name\u000a</pre></div>\u000a<p>\u4e0d\u56de\u663e\u7684\u65b9\u5f0f\u8bfb\u53d6\u5bc6\u7801</p>\u000a<div class="monokai"><pre><span></span>read -s var\u000a</pre></div>\u000a<p>\u663e\u793a\u63d0\u793a\u4fe1\u606f</p>\u000a<div class="monokai"><pre><span></span>read -p "Enter input:" var\u000a</pre></div>\u000a<p>\u9650\u65f6\u8f93\u5165</p>\u000a<div class="monokai"><pre><span></span>read -t  timeout var\u000a</pre></div>\u000a<p>\u8bbe\u7f6e\u754c\u5b9a\u7b26</p>\u000a<div class="monokai"><pre><span></span>read -d delim_char var\u000aread -d ":" var\u000ahello:\u000a</pre></div>\u000a<h3 id="_10">\u5b57\u6bb5\u5206\u9694\u7b26\u548c\u8fed\u4ee3\u5668</h3>\u000a<p>\u5185\u90e8\u5b57\u6bb5\u5206\u9694\u7b26\uff0cInternal Field Separator, IFS</p>\u000a<p>IFS\u9ed8\u8ba4\u4e3a\u7a7a\u767d\u5b57\u7b26\uff08\u6362\u884c\u7b26\uff0c\u5236\u8868\u7b26\uff0c\u7a7a\u683c\uff09</p>\u000a<div class="monokai"><pre><span></span><span class="x">data="name,sex,rollno"</span>\u000a<span class="x">oldIFS=</span><span class="p">$</span><span class="nv">IFS</span><span class="x"></span>\u000a<span class="x">IFS=,</span>\u000a<span class="x">for item in </span><span class="p">$</span><span class="nv">data</span><span class="x"></span>\u000a<span class="x">do</span>\u000a<span class="x">        echo </span><span class="p">$</span><span class="nv">item</span><span class="x"></span>\u000a<span class="x">done</span>\u000a\u000a<span class="x">IFS=</span><span class="p">$</span><span class="nv">oldIFS</span><span class="x"></span>\u000a</pre></div>\u000a<h3 id="_11">\u5faa\u73af</h3>\u000a<p>for\u5faa\u73af</p>\u000a<div class="monokai"><pre><span></span>echo {1..50}\u000a\u000afor i in {a..z}; do actions; done;\u000a\u000aor\u000a\u000afor((i=0;i&lt;10;i++))\u000a{\u000a    commands;\u000a}\u000a</pre></div>\u000a<p>while\u5faa\u73af</p>\u000a<div class="monokai"><pre><span></span>while condition\u000ado\u000a    commands;\u000adone\u000a</pre></div>\u000a<p>until\u5faa\u73af</p>\u000a<div class="monokai"><pre><span></span>until condition\u000ado\u000a    commands;\u000adone\u000a</pre></div>\u000a<h3 id="_12">\u6bd4\u8f83\u548c\u6d4b\u8bd5</h3>\u000a<p>if\u6761\u4ef6</p>\u000a<div class="monokai"><pre><span></span>if condition;\u000athen\u000a    commands;\u000aelif condition;\u000athen\u000a    commands;\u000aelse\u000a    commands;\u000afi\u000a</pre></div>\u000a<p>\u903b\u8f91\u8fd0\u7b97\u7b26\u8fdb\u884c\u7b80\u5316, \u77ed\u8def\u8fd0\u7b97\u66f4\u7b80\u6d01</p>\u000a<div class="monokai"><pre><span></span>[ condition ] &amp;&amp; action;\u000a[ condition ] || action;\u000a</pre></div>\u000a<p>\u7b97\u672f\u6bd4\u8f83</p>\u000a<div class="monokai"><pre><span></span><span class="x">-gt \u5927\u4e8e</span>\u000a<span class="x">-lt \u5c0f\u4e8e</span>\u000a<span class="x">-ge \u5927\u4e8e\u7b49\u4e8e</span>\u000a<span class="x">-le \u5c0f\u4e8e\u7b49\u4e8e</span>\u000a<span class="x">-ne \u4e0d\u7b49\u4e8e</span>\u000a<span class="x">-eq \u7b49\u4e8e</span>\u000a\u000a<span class="x">\u6ce8\u610f[]\u548c\u64cd\u4f5c\u6570\u4e4b\u95f4\u7684\u7a7a\u683c</span>\u000a<span class="x">[ </span><span class="p">$</span><span class="nv">var</span><span class="x"> -eq 0 ]</span>\u000a\u000a<span class="x">and</span>\u000a<span class="x">[ </span><span class="p">$</span><span class="nv">var</span><span class="x"> -ne 0 -a </span><span class="p">$</span><span class="nv">var2</span><span class="x"> -ge 2 ]</span>\u000a<span class="x">or</span>\u000a<span class="x">[ </span><span class="p">$</span><span class="nv">var</span><span class="x"> -ne 0 -o </span><span class="p">$</span><span class="nv">var2</span><span class="x"> -ge 2 ]</span>\u000a</pre></div>\u000a<p>\u6587\u4ef6\u6d4b\u8bd5</p>\u000a<div class="monokai"><pre><span></span><span class="x">[ -f </span><span class="p">$</span><span class="nv">file_var</span><span class="x"> ] \u6b63\u5e38\u6587\u4ef6\u8def\u5f84\u6216\u6587\u4ef6\u540d</span>\u000a<span class="x">[ -x </span><span class="p">$</span><span class="nv">var</span><span class="x"> ] \u53ef\u6267\u884c</span>\u000a<span class="x">-d \u76ee\u5f55</span>\u000a<span class="x">-e \u5b58\u5728</span>\u000a<span class="x">-c \u5b57\u7b26\u8bbe\u5907\u6587\u4ef6</span>\u000a<span class="x">-b \u5757\u8bbe\u5907\u6587\u4ef6</span>\u000a<span class="x">-w \u53ef\u5199</span>\u000a<span class="x">-r \u53ef\u8bfb</span>\u000a<span class="x">-L \u7b26\u53f7\u94fe\u63a5</span>\u000a</pre></div>\u000a<p>\u5b57\u7b26\u4e32\u6bd4\u8f83</p>\u000a<div class="monokai"><pre><span></span><span class="k">[[ $str1 = $str2 ]]</span>\u000a<span class="k">[[ $str1 == $str2 ]]</span>\u000a\u000a<span class="na">[[ $str1 !</span><span class="o">=</span> <span class="s">$str2 ]] \u4e0d\u7b49</span>\u000a\u000a<span class="k">[[ $str1 &gt; $str2 ]]</span>\u000a<span class="k">[[ $str1 &lt; $str2 ]]</span>\u000a\u000a<span class="err">[[</span> <span class="err">-z</span> <span class="err">$str1</span> <span class="err">]]</span>  <span class="err">\u7a7a</span>\u000a<span class="err">[[</span> <span class="err">-n</span> <span class="err">$str1</span> <span class="err">]]</span>  <span class="err">\u975e\u7a7a</span>\u000a\u000a<span class="err">if</span> <span class="k">[[ -n $str1 ]] &amp;&amp; [[ -z $str2 ]]</span>\u000a<span class="err">then</span>\u000a    <span class="err">commands</span><span class="c1">;</span>\u000a<span class="err">fi</span>\u000a</pre></div>\u000a<h3 id="find">find</h3>\u000a<p>\u641c\u7d22\u6307\u5b9a\u76ee\u5f55\u4e0b\u7684\u6587\u4ef6\uff0c\u4ece\u5f00\u59cb\u4e8e\u7236\u76ee\u5f55\uff0c\u7136\u540e\u641c\u7d22\u5b50\u76ee\u5f55</p>\u000a<p>\u57fa\u672c</p>\u000a<div class="monokai"><pre><span></span>find base_path\u000a\u000a# \u6253\u5370\u6587\u4ef6\u548c\u76ee\u5f55\u5217\u8868\u000afind . -print  #\u9ed8\u8ba4\u005cn\u5206\u5272\u6587\u4ef6\u540d\u000a</pre></div>\u000a<p>\u6587\u4ef6\u540d</p>\u000a<div class="monokai"><pre><span></span>find path -name "*.txt" -print\u000a          -iname  \u5ffd\u7565\u5927\u5c0f\u5199\u000a\u000a\u591a\u4e2a\u6761\u4ef6 or\u000afind . \u005c( -name "*.txt" -o -name "*.py" \u005c)\u000a</pre></div>\u000a<p>\u6587\u4ef6\u8def\u5f84</p>\u000a<div class="monokai"><pre><span></span>\u901a\u914d\u7b26\u000afind /home/users -path "*slynux*" -print\u000a\u000a\u6b63\u5219\u000afind . -regex ".*\u005c(\u005c.py\u005c|\u005c.sh\u005c)$"\u000a       -iregex \u5ffd\u7565\u5927\u5c0f\u5199\u000a</pre></div>\u000a<p>\u5426\u5b9a\u53c2\u6570</p>\u000a<div class="monokai"><pre><span></span>find . ! -name "*.txt" -print\u000a</pre></div>\u000a<p>\u6839\u636e\u6587\u4ef6\u7c7b\u578b</p>\u000a<div class="monokai"><pre><span></span>find . -type d -print\u000af \u666e\u901a\u6587\u4ef6\u000al \u7b26\u53f7\u94fe\u63a5\u000ad \u76ee\u5f55\u000ac \u5b57\u7b26\u8bbe\u5907\u000ab \u5757\u8bbe\u5907\u000as \u5957\u63a5\u5b57\u000ap Fifo\u000a</pre></div>\u000a<p>\u8bbe\u5b9a\u76ee\u5f55\u6df1\u5ea6</p>\u000a<div class="monokai"><pre><span></span>find . -maxdepth 1 -type f -print\u000afind . -mindepth 2 -type f -print\u000a</pre></div>\u000a<p>\u6839\u636e\u6587\u4ef6\u65f6\u95f4\u641c\u7d22</p>\u000a<div class="monokai"><pre><span></span>\u8ba1\u91cf\u5355\u4f4d \u5929\u000a-atime \u6700\u8fd1\u4e00\u6b21\u8bbf\u95ee\u65f6\u95f4\u000a-mtime \u6700\u540e\u4e00\u6b21\u88ab\u4fee\u6539\u65f6\u95f4\u000a-ctime \u6587\u4ef6\u5143\u6570\u636e\uff0c\u6700\u8fd1\u4e00\u6b21\u4fee\u6539\u65f6\u95f4\u000a\u000afind . -type f -atime -7 -print #\u6700\u8fd1\u4e03\u5929\u5185\u88ab\u8bbf\u95ee\u7684\u000afind . -type f -atime 7 -print  #\u6070\u597d\u5728\u4e03\u5929\u524d\u000a                      +7 -print #\u8d85\u8fc7\u4e03\u5929\u000a\u000a\u8ba1\u91cf\u5355\u4f4d \u5206\u949f\u000a-amin \u8bbf\u95ee\u65f6\u95f4\u000a-mmin \u4fee\u6539\u65f6\u95f4\u000a-cmin \u53d8\u5316\u65f6\u95f4\u000a\u000afind . -type f -amin +7 -print #\u8bbf\u95ee\u65f6\u95f4\u8d85\u8fc77\u5206\u949f\u7684\u000a\u000afind . -type f -newer file.txt -print  #\u7528\u4e8e\u6bd4\u8f83\u65f6\u95f4\u6233\u7684\u53c2\u8003\u6587\u4ef6\uff0c\u6bd4\u53c2\u8003\u6587\u4ef6\u66f4\u65b0\u7684\u6587\u4ef6\u000a</pre></div>\u000a<p>\u57fa\u4e8e\u6587\u4ef6\u5927\u5c0f\u7684\u641c\u7d22</p>\u000a<div class="monokai"><pre><span></span>find . -type f -size +2k\u000a+ \u5927\u4e8e  -\u5c0f\u4e8e   \u65e0\u7b26\u53f7\uff0c\u6070\u597d\u7b49\u4e8e\u000a\u000ab \u5757\u000ac \u5b57\u8282\u000aw \u5b57\uff082\u5b57\u8282\uff09\u000ak \u5343\u5b57\u8282\u000aM \u5146\u5b57\u8282\u000aG \u5409\u5b57\u8282\u000a</pre></div>\u000a<p>\u5220\u9664\u5339\u914d\u7684\u6587\u4ef6</p>\u000a<div class="monokai"><pre><span></span>find . -type f -name "*.swp" -delete\u000a#\u6ce8\u610f\uff1a-delete\u4f4d\u7f6e\u4e00\u5b9a\u662f\u6700\u540e\u000a</pre></div>\u000a<p>\u6587\u4ef6\u6743\u9650\u53ca\u6240\u6709\u6743</p>\u000a<div class="monokai"><pre><span></span>find . -type f -perm 644 -print\u000a\u000afind . -type f -user slynux -print\u000a</pre></div>\u000a<p>\u6267\u884c\u547d\u4ee4\u6216\u52a8\u4f5c(\u6700\u5f3a\u5927\u7684\u547d\u4ee4)</p>\u000a<div class="monokai"><pre><span></span>find . -type f -user root -exec chown slynux {} \u005c;\u000afind . -type f -exec cp {} OLD \u005c;\u000afind . -iname "abc.txt" -exec md5sum {} \u005c;\u000a\u000a{} \u6c5f\u5317\u66ff\u6362\u6210\u5bf9\u5e94\u6587\u4ef6\u540d\u000aexec\u65e0\u6cd5\u7ed3\u5408\u591a\u4e2a\u547d\u4ee4\uff0c\u53ef\u4ee5\u5c06\u591a\u4e2a\u547d\u4ee4\u653e\u5165\u811a\u672c\uff0c\u8c03\u7528\u4e4b\u000a</pre></div>\u000a<p>\u8df3\u8fc7\u6307\u5b9a\u76ee\u5f55</p>\u000a<div class="monokai"><pre><span></span>find . \u005c( -name ".git" -prune \u005c) -name '*.txt'\u000a</pre></div>\u000a<h3 id="xargs">xargs</h3>\u000a<p>\u5c06\u6807\u51c6\u8f93\u5165\u6570\u636e\u8f6c\u5316\u6210\u547d\u4ee4\u884c\u53c2\u6570</p>\u000a<p>\u5c06stdin\u63a5\u6536\u5230\u7684\u6570\u636e\u91cd\u65b0\u683c\u5f0f\u5316\uff0c\u518d\u5c06\u5176\u4f5c\u4e3a\u53c2\u6570\u4f20\u7ed9\u5176\u4ed6\u547d\u4ee4</p>\u000a<p>\u591a\u884c\u8f93\u5165\u8f6c\u5316\u6210\u5355\u884c\u8f93\u51fa</p>\u000a<div class="monokai"><pre><span></span>cat  example.txt | xargs  #\u7a7a\u683c\u66ff\u6362\u6389\u005cn\u000a</pre></div>\u000a<p>\u5207\u6210\u591a\u884c\uff0c\u6bcf\u884cn\u4e2a\u53c2\u6570</p>\u000a<div class="monokai"><pre><span></span>cat examplet.txt | xargs -n 3\u000a</pre></div>\u000a<p>\u53ef\u4ee5\u6307\u5b9a\u5206\u9694\u7b26</p>\u000a<div class="monokai"><pre><span></span>echo "aaaXbbbXccc" | xargs -d 'X'\u000a</pre></div>\u000a<p>\u5c06\u53c2\u6570\u4f20\u9012\u7ed9\u811a\u672c(\u7c7b\u4f3c\u5faa\u73af)</p>\u000a<div class="monokai"><pre><span></span>cat args.txt | xargs -n 1 ./cecho.sh\u000a\u000a./cecho.sh -p arg1 1\u000a\u9700\u8981\u53d8\u66f4\u000acat args.txt | xargs -I {} ./cecho.sh -p {} 1\u000a</pre></div>\u000a<p>find\u4e0exargs\u7ec4\u5408</p>\u000a<div class="monokai"><pre><span></span>find . -type f -name "*.txt" -print | xargs rm -rf\u000a</pre></div>\u000a<p>\u5176\u4ed6</p>\u000a<div class="monokai"><pre><span></span><span class="x">cat file | ( while read arg; do cat </span><span class="p">$</span><span class="nv">arg</span><span class="x">; done )</span>\u000a<span class="x">cat file | xargs -I </span><span class="err">{</span><span class="x">} cat </span><span class="err">{</span><span class="x">}</span>\u000a</pre></div>\u000a<h3 id="tr">tr</h3>\u000a<p>tr\u53ef\u4ee5\u5bf9\u6765\u81ea\u6807\u51c6\u8f93\u5165\u7684\u5b57\u7b26\u8fdb\u884c\u66ff\u6362\uff0c\u5220\u9664\u4ee5\u53ca\u538b\u7f29(translate, \u53ef\u4ee5\u5c06\u4e00\u7ec4\u5b57\u7b26\u53d8\u6210\u53e6\u4e00\u7ec4\u5b57\u7b26)</p>\u000a<p>tr\u53ea\u80fd\u901a\u8fc7stdin\uff0c\u65e0\u6cd5\u901a\u8fc7\u5176\u4ed6\u547d\u4ee4\u884c\u8fdb\u884c\u63a5\u6536\u53c2\u6570</p>\u000a<p>\u683c\u5f0f</p>\u000a<div class="monokai"><pre><span></span>tr [options] source-char-set replace-char-set\u000a</pre></div>\u000a<p>\u9009\u9879</p>\u000a<div class="monokai"><pre><span></span>-c \u53d6source-char-set\u8865\u96c6\uff0c\u901a\u5e38\u4e0e-d/-s\u914d\u5408\u000a-d \u5220\u9664\u5b57source-char-set\u4e2d\u7684\u6240\u5217\u7684\u5b57\u7b26\u000a-s \u6d53\u7f29\u91cd\u590d\u5b57\u7b26\uff0c\u8fde\u7eed\u591a\u4e2a\u53d8\u6210\u4e00\u4e2a\u000a</pre></div>\u000a<p>\u5b57\u7b26\u66ff\u6362</p>\u000a<div class="monokai"><pre><span></span>cat /proc/12501/environ | tr '\u005c0' '\u005cn'\u000a</pre></div>\u000a<p>\u5927\u5c0f\u5199\u66ff\u6362</p>\u000a<div class="monokai"><pre><span></span>echo  "HELLO" | tr 'A-Z' 'a-z'\u000acat text | tr '\u005ct' ' '\u000a</pre></div>\u000a<p>\u5220\u9664\u5b57\u7b26</p>\u000a<div class="monokai"><pre><span></span>echo "hello 123 world 456"| tr -d '0-9'\u000ahello  world\u000a</pre></div>\u000a<p>\u5b57\u7b26\u96c6\u8865\u96c6</p>\u000a<div class="monokai"><pre><span></span>echo "hello 1 char 2" | tr -d -c '0-9'  #\u5220\u9664\u975e0-9\u000a12\u000a</pre></div>\u000a<p>\u538b\u7f29\u5b57\u7b26</p>\u000a<p>\u8fde\u7eed\u7684\u91cd\u590d\u5b57\u7b26</p>\u000a<div class="monokai"><pre><span></span>echo "GNU is    not UNix" | tr -s ' '\u000a</pre></div>\u000a<p>\u5b57\u7b26\u7c7b</p>\u000a<div class="monokai"><pre><span></span>alnum \u5b57\u6bcd\u548c\u6570\u5b57\u000aalpha \u5b57\u6bcd\u000acntrl \u63a7\u5236\u5b57\u7b26\u000adigit \u6570\u5b57\u000agraph \u56fe\u5f62\u5b57\u7b26\u000alower \u5c0f\u5199\u5b57\u6bcd\u000aprint \u53ef\u6253\u5370\u5b57\u7b26\u000apunct \u6807\u70b9\u7b26\u53f7\u000aspace \u7a7a\u767d\u5b57\u7b26\u000aupper \u5927\u5199\u5b57\u6bcd\u000axdigit \u5341\u516d\u8fdb\u5236\u5b57\u7b26\u000a\u000atr '[:lower:]' '[:upper:]'\u000a</pre></div>\u000a<h3 id="md5sum">md5sum</h3>\u000a<p>32\u4e2a\u5b57\u7b26\u7684\u5341\u516d\u8fdb\u5236\u4e32</p>\u000a<div class="monokai"><pre><span></span>md5sum filename\u000amd5sum filename1 filename2\u000a</pre></div>\u000a<h3 id="sha1sum">sha1sum</h3>\u000a<p>40\u4e2a\u5b57\u7b26\u5341\u516d\u8fdb\u5236\u4e32</p>\u000a<div class="monokai"><pre><span></span>sha1sum file\u000a</pre></div>\u000a<h3 id="_13">\u5bf9\u76ee\u5f55\u8fdb\u884c\u6821\u9a8c</h3>\u000a<p>\u9700\u5b89\u88c5md5deep\u8f6f\u4ef6\u5305</p>\u000a<div class="monokai"><pre><span></span>md5deep/sha1deep\u000amd5deep -rl dirname\u000a         r\u9012\u5f52\uff0cl\u76f8\u5bf9\u8def\u5f84\u000a</pre></div>\u000a<h3 id="sort">sort</h3>\u000a<p>\u8bed\u6cd5</p>\u000a<div class="monokai"><pre><span></span>sort [options] [file(s)]\u000a\u000a-c \u68c0\u67e5\u662f\u5426\u5df2\u6392\u5e8f\u000a-u \u4e22\u5f03\u6240\u6709\u5177\u6709\u76f8\u540c\u952e\u503c\u7684\u8bb0\u5f55\u000a\u000a-b \u5ffd\u7565\u5f00\u5934\u7a7a\u767d\u000a-d \u5b57\u5178\u5e8f\u000a-g \u4e00\u822c\u6570\u503c\uff0c\u4ee5\u6d6e\u70b9\u6570\u7c7b\u578b\u6bd4\u8f83\u5b57\u6bb5\uff0c\u4ec5\u652f\u6301gnu\u000a-i \u5ffd\u7565\u65e0\u6cd5\u6253\u5370\u7684\u5b57\u7b26\u000a\u000a-k \u5b9a\u4e49\u6392\u5e8f\u952e\u503c\u5b57\u6bb5\u000a-n \u4ee5\u6574\u6570\u7c7b\u578b\u6bd4\u8f83\u5b57\u6bb5\u000a-r \u5012\u8f6c\u000a-o \u8f93\u51fa\u5230\u6307\u5b9a\u6587\u4ef6\u000a</pre></div>\u000a<p>\u6392\u5e8f</p>\u000a<div class="monokai"><pre><span></span>sort file1 &gt; file1.sorted\u000asort -o file1.sored file1\u000a</pre></div>\u000a<p>\u6309\u6570\u5b57, \u8981\u660e\u786e</p>\u000a<div class="monokai"><pre><span></span>sort -n file1\u000a</pre></div>\u000a<p>\u9006\u5e8f</p>\u000a<div class="monokai"><pre><span></span>sort -r file\u000a</pre></div>\u000a<p>\u6d4b\u8bd5\u4e00\u4e2a\u6587\u4ef6\u662f\u5426\u5df2\u7ecf\u88ab\u6392\u8fc7\u5e8f</p>\u000a<div class="monokai"><pre><span></span>sort -C file\u000aif [ $? -eq 0 ]; then\u000a    echo ssss\u000afi\u000a</pre></div>\u000a<p>\u5408\u5e76\u4e24\u4e2a\u6392\u8fc7\u5e8f\u7684\u6587\u4ef6\uff0c\u5e76\u4e0d\u9700\u8981\u5bf9\u5408\u5e76\u540e\u7684\u6587\u4ef6\u8fdb\u884c\u518d\u6392\u5e8f</p>\u000a<div class="monokai"><pre><span></span>sort -m sorted1 sorted2\u000a</pre></div>\u000a<p>\u6839\u636e\u952e\u6216\u8005\u5217\u6392\u5e8f(\u6309\u7167\u54ea\u4e00\u4e2a\u5217)</p>\u000a<div class="monokai"><pre><span></span>sort -k 1 data\u000a</pre></div>\u000a<p>\u9650\u5b9a\u7279\u5b9a\u8303\u56f4\u5185\u4e00\u7ec4\u5b57\u7b26</p>\u000a<div class="monokai"><pre><span></span>key=char4-char8\u000asort -k 2,3 data\u000a\u000asort -k2.4,5.6 file\u000a\u7b2c\u4e8c\u4e2a\u5b57\u6bb5\u7684\u7b2c\u56db\u4e2a\u5b57\u7b26\u5f00\u59cb\u6bd4\u8f83\uff0c\u76f4\u5230\u7b2c\u4e94\u4e2a\u5b57\u6bb5\u7684\u7b2c\u516d\u4e2a\u5b57\u7b26\u000a</pre></div>\u000a<p>\u5ffd\u7565\u524d\u5bfc\u7a7a\u767d\u53ca\u5b57\u5178\u5e8f\u6392\u5e8f</p>\u000a<div class="monokai"><pre><span></span>sort -bd unsorted.txt\u000a</pre></div>\u000a<p>\u53bb\u91cd</p>\u000a<div class="monokai"><pre><span></span>sort a.txt | uniq\u000asort -u a.txt\u000a</pre></div>\u000a<h3 id="uniq">uniq</h3>\u000a<p>\u7528\u6cd5</p>\u000a<div class="monokai"><pre><span></span>uniq file\u000a</pre></div>\u000a<p>\u53ea\u663e\u793a\u672a\u91cd\u590d\u7684\u8bb0\u5f55</p>\u000a<div class="monokai"><pre><span></span>uniq -u file\u000a</pre></div>\u000a<p>\u627e\u51fa\u91cd\u590d\u7684\u884c</p>\u000a<div class="monokai"><pre><span></span>uniq -d file\u000a-s \u53ef\u6307\u5b9a\u8df3\u8fc7\u524dN\u4e2a\u5b57\u7b26\u000a-w \u6307\u5b9a\u7528\u4e8e\u6bd4\u8f83\u7684\u6700\u5927\u5b57\u7b26\u6570\u000a</pre></div>\u000a<p>\u7edf\u8ba1\u5404\u884c\u51fa\u73b0\u7684\u6b21\u6570</p>\u000a<div class="monokai"><pre><span></span>uniq -c file\u000a</pre></div>\u000a<p>p57</p>\u000a<h3 id="tempfile">tempfile</h3>\u000a<p>\u53ea\u6709\u5728\u57fa\u4e8eDebian\u7684\u53d1\u5e03\u7248\u624d\u6709(Ubuntu/Debian)</p>\u000a<div class="monokai"><pre><span></span><span class="x">temp_file=</span><span class="p">$(</span><span class="err">tempfile</span><span class="p">)</span><span class="x"></span>\u000a<span class="x">\u7b49\u540c</span>\u000a<span class="x">temp_file="/tmp/file-</span><span class="p">$</span><span class="nv">RANDOM</span><span class="x">"</span>\u000a\u000a<span class="err">#</span><span class="p">$$</span><span class="x">\u4e3a\u8fdb\u7a0bid</span>\u000a<span class="x">temp_file="/tmp/var.</span><span class="p">$$</span><span class="x">"</span>\u000a</pre></div>\u000a<h3 id="split">split</h3>\u000a<p>\u6309\u5927\u5c0f\u5206\u5272\u6587\u4ef6, \u5355\u4f4dk(KB), M, G, c(byte), w(word)</p>\u000a<div class="monokai"><pre><span></span>split -b 10k data.file\u000a</pre></div>\u000a<p>-d\u6570\u5b57\u540e\u7f00\uff0c-a\u540e\u7f00\u957f\u5ea6</p>\u000a<div class="monokai"><pre><span></span>split -b 10k data.file -d -a 4\u000a</pre></div>\u000a<p>\u5206\u5272\u540e\u6307\u5b9a\u6587\u4ef6\u540d\u524d\u7f00</p>\u000a<div class="monokai"><pre><span></span>split -b 10k data.file file_prefix\u000a\u000a\u8bbe\u7f6e\u540e\u7f00\u683c\u5f0f\u000asplit -b 10k data.file -d -a 4 file_prefix\u000a</pre></div>\u000a<p>\u6839\u636e\u884c\u6570\u5206\u5272</p>\u000a<div class="monokai"><pre><span></span>spilt -l 10 data\u000a</pre></div>\u000a<p>\u5176\u6269\u5c55\u662fcsplit\uff0c\u53ef\u6839\u636e\u6587\u4ef6\u7279\u6027\u5207\u5206\uff0c\u5173\u6ce8</p>\u000a<h3 id="bash">bash\u53d8\u91cf\u5339\u914d\u5207\u5206</h3>\u000a<p>sample.jpg</p>\u000a<div class="monokai"><pre><span></span>file_jpg="sample.jpg"\u000a\u000a\u4ece\u53f3\u5411\u5de6\u5339\u914d\u000a<span class="cp">${</span><span class="n">file_jpg</span><span class="o">%.*</span><span class="cp">}</span>\u000a#sample\u000a\u000a\u4ece\u5de6\u5411\u53f3\u5339\u914d\u000a<span class="cp">${</span><span class="n">file_jpg</span><span class="c1">#.*</span><span class="cp">}</span>\u000a#jpg\u000a\u000a% # \u5c5e\u4e8e\u975e\u8d2a\u5a6a\u000a%% ## \u5c5e\u4e8e\u8d2a\u5a6a\u000a</pre></div>\u000a<p>\u8d2a\u5a6a\u975e\u8d2a\u5a6a</p>\u000a<div class="monokai"><pre><span></span>var=hack.fun.book.txt\u000a<span class="cp">${</span><span class="n">var</span><span class="o">%.*</span><span class="cp">}</span> #hack.fun.book\u000a<span class="cp">${</span><span class="n">var</span><span class="o">%%.*</span><span class="cp">}</span> #hack\u000a\u000a<span class="cp">${</span><span class="n">var</span><span class="c1">#.*</span><span class="cp">}</span> #fun.book.txt\u000a<span class="cp">${</span><span class="n">var</span><span class="c1">##.*</span><span class="cp">}</span> #txt\u000a</pre></div>\u000a<h3 id="expect">expect</h3>\u000a<p>\u5b9e\u73b0\u81ea\u52a8\u5316</p>\u000a<div class="monokai"><pre><span></span>spawn ./ineractive.sh\u000aexpect "Enter the number"\u000asend "1\u005cn"\u000aexpect "Enter name:"\u000asend "hello\u005cn"\u000aexpect eof\u000a\u000aspawn\u6307\u5b9a\u9700\u8981\u81ea\u52a8\u5316\u7684\u547d\u4ee4\u000aexpect\u63d0\u4f9b\u9700\u8981\u7b49\u5f85\u7684\u6d88\u606f\u000asend\u53d1\u9001\u6d88\u606f\u000aexpect eof\u6307\u660e\u547d\u4ee4\u4ea4\u4e92\u7ed3\u675f\u000a</pre></div>\u000a<h3 id="dd">dd</h3>\u000a<p>\u751f\u6210\u4efb\u610f\u5927\u5c0f\u7684\u6587\u4ef6</p>\u000a<div class="monokai"><pre><span></span># \u521b\u5efa\u4e00\u4e2a1M\u5927\u5c0f\u7684\u6587\u4ef6junk.data\u000abs=2M count=2 \u5219\u6587\u4ef6\u5927\u5c0f4M\u000a\u000add if=/dev/zero of=junk.data bs=1M count=1\u000a   \u8f93\u5165\u6587\u4ef6     \u8f93\u51fa\u6587\u4ef6     \u5757\u5927\u5c0f   \u590d\u5236\u5757\u6570\u000a\u000a\u5757\u5927\u5c0f\u5355\u4f4d\u000a\u5b57\u8282(1B) c\u000a\u5b57(2B)   w\u000a\u5757(512B)   b\u000a\u5343\u5b57\u8282(1024B) k\u000a\u5146\u5b57\u8282(1024KB) M\u000a\u5409\u5b57\u8282(1024MB) G\u000a</pre></div>\u000a<h3 id="comm">comm</h3>\u000a<p>\u4e24\u4e2a\u6587\u4ef6\u4e4b\u95f4\u6bd4\u8f83\uff0c\u8f93\u51fa\u4e09\u5217</p>\u000a<div class="monokai"><pre><span></span>onleA \u005ct onlyB \u005ct bothAB\u000a\u000acomm A B -1 -2 #\u5220\u9664\u7b2c\u4e00\u7b2c\u4e8c\u5217\u000a-3 \u5220\u9664\u7b2c\u4e09\u5217\u000a\u000a\u53ef\u4ee5\u5f97\u5230A^B  A-B B-A\u000a</pre></div>\u000a<h3 id="mkdir">mkdir</h3>\u000a<p>&ldquo;mkdir&rdquo;(Make directory)\u547d\u4ee4\u5728\u547d\u540d\u8def\u5f84\u4e0b\u521b\u5efa\u65b0\u7684\u76ee\u5f55\u3002\u7136\u800c\u5982\u679c\u76ee\u5f55\u5df2\u7ecf\u5b58\u5728\u4e86\uff0c\u90a3\u4e48\u5b83\u5c31\u4f1a\u8fd4\u56de\u4e00\u4e2a\u9519\u8bef\u4fe1\u606f&rdquo;\u4e0d\u80fd\u521b\u5efa\u6587\u4ef6\u5939\uff0c\u6587\u4ef6\u5939\u5df2\u7ecf\u5b58\u5728\u4e86&rdquo;(&ldquo;cannot create folder, folder already exists&rdquo;)</p>\u000a<div class="monokai"><pre><span></span>mkdir dirpath\u000a\u000amkdir -p dirpath1/dirpath2\u000a\u000a#\u4e00\u6b21\u591a\u4e2a\u76ee\u5f55\u000amkdir -p /home/user/{test,test1,test2}\u000a</pre></div>\u000a<p>\u6ce8\u610f\uff1a\u76ee\u5f55\u53ea\u80fd\u5728\u7528\u6237\u62e5\u6709\u5199\u6743\u9650\u7684\u76ee\u5f55\u4e0b\u624d\u80fd\u521b\u5efa</p>\u000a<h3 id="ls">ls</h3>\u000a<p>ls\u547d\u4ee4\u662f\u5217\u51fa\u76ee\u5f55\u5185\u5bb9(List Directory Contents)\u7684\u610f\u601d\u3002\u8fd0\u884c\u5b83\u5c31\u662f\u5217\u51fa\u6587\u4ef6\u5939\u91cc\u7684\u5185\u5bb9\uff0c\u53ef\u80fd\u662f\u6587\u4ef6\u4e5f\u53ef\u80fd\u662f\u6587\u4ef6\u5939</p>\u000a<p>ls\u6587\u4ef6\u7684\u5185\u5bb9\u5173\u7cfb</p>\u000a<div class="monokai"><pre><span></span>- \u666e\u901a\u6587\u4ef6\u000ad \u76ee\u5f55\u000ac \u5b57\u7b26\u8bbe\u5907\u000ab \u5757\u8bbe\u5907\u000al \u7b26\u53f7\u94fe\u63a5\u000as \u5957\u63a5\u5b57\u000ap \u7ba1\u9053\u000a\u000a\u6587\u4ef6\u6743\u9650\u5e8f\u5217\u000arwx\u000arwS  setuid(S)\uff0c\u7279\u6b8a\u6743\u9650, \u51fa\u73b0\u5728x\u7684\u4f4d\u7f6e, \u5141\u8bb8\u7528\u6237\u4ee5\u5176\u62e5\u6709\u8005\u7684\u6743\u9650\u6765\u6267\u884c\u6587\u4ef6, \u5373\u4f7f\u8fd9\u4e2a\u53ef\u6267\u884c\u6587\u4ef6\u662f\u7531\u5176\u4ed6\u7528\u6237\u8fd0\u884c\u7684\u000a\u000a\u76ee\u5f55\u000ar,\u5141\u8bb8\u8bfb\u53d6\u76ee\u5f55\u4e2d\u6587\u4ef6\u548c\u5b50\u76ee\u5f55\u5217\u8868\u000aw,\u5141\u8bb8\u5728\u76ee\u5f55\u4e2d\u521b\u5efa\u6216\u5220\u9664\u6587\u4ef6\u6216\u76ee\u5f55\u000ax,\u6307\u660e\u662f\u5426\u53ef\u4ee5\u8bbf\u95ee\u76ee\u5f55\u4e2d\u7684\u6587\u4ef6\u548c\u5b50\u76ee\u5f55\u000arwt/rwT \u7c98\u6ede\u4f4d\uff0c\u53ea\u6709\u521b\u5efa\u8be5\u76ee\u5f55\u7684\u7528\u6237\u624d\u80fd\u5220\u9664\u76ee\u5f55\u4e2d\u7684\u6587\u4ef6\uff0c\u5373\u4f7f\u7528\u6237\u7ec4\u548c\u5176\u4ed6\u7528\u6237\u4e5f\u6709\u5199\u6743\u9650\uff0c\u5178\u578b\u4f8b\u5b50/tmp, \u5199\u4fdd\u62a4\u000a</pre></div>\u000a<p>\u67e5\u770b\u76ee\u5f55</p>\u000a<div class="monokai"><pre><span></span>ls -d */\u000als -F | grep "/$"\u000als -l | grep "^d"\u000afind . -type d -maxdepth 1 -print\u000a</pre></div>\u000a<p>\u5176\u4ed6</p>\u000a<div class="monokai"><pre><span></span>ls -l    \u547d\u4ee4\u5df2\u8be6\u60c5\u6a21\u5f0f(long listing fashion)\u5217\u51fa\u6587\u4ef6\u5939\u7684\u5185\u5bb9\u000als -a    \u547d\u4ee4\u4f1a\u5217\u51fa\u6587\u4ef6\u5939\u91cc\u7684\u6240\u6709\u5185\u5bb9\uff0c\u5305\u62ec\u4ee5&rdquo;.&rdquo;\u5f00\u5934\u7684\u9690\u85cf\u6587\u4ef6\u000a</pre></div>\u000a<h3 id="chmod">chmod</h3>\u000a<p>\u8bbe\u7f6e\u6587\u4ef6\u6743\u9650</p>\u000a<p>&ldquo;chmod&rdquo;\u547d\u4ee4\u5c31\u662f\u6539\u53d8\u6587\u4ef6\u7684\u6a21\u5f0f\u4f4d\u3002chmod\u4f1a\u6839\u636e\u8981\u6c42\u7684\u6a21\u5f0f\u6765\u6539\u53d8\u6bcf\u4e2a\u6240\u7ed9\u7684\u6587\u4ef6\uff0c\u6587\u4ef6\u5939\uff0c\u811a\u672c\u7b49\u7b49\u7684\u6587\u4ef6\u6a21\u5f0f\uff08\u6743\u9650\uff09\u3002</p>\u000a<p>\u8bbe\u7f6e\u6743\u9650</p>\u000a<div class="monokai"><pre><span></span>user group others all\u000au    g     o      a\u000a\u000achmod u=rwx g=rw o=r filename\u000a\u000achmod u+x filename\u000achomd a+x filename #\u6240\u6709\u000a\u000achmod a-x filename\u000a\u000achmod 764 filename\u000a\u000a#\u8bbe\u7f6e\u7c98\u6ede\u4f4d\u000achmod a+t dirname\u000a\u000a#\u9012\u5f52\u6539\u53d8\u000a\u000achmod 777 . -R\u000a</pre></div>\u000a<p>\u6ce8\u610f\uff1a\u5bf9\u4e8e\u7cfb\u7edf\u7ba1\u7406\u5458\u548c\u7528\u6237\u6765\u8bf4\uff0c\u8fd9\u4e2a\u547d\u4ee4\u662f\u6700\u6709\u7528\u7684\u547d\u4ee4\u4e4b\u4e00\u4e86\u3002\u5728\u591a\u7528\u6237\u73af\u5883\u6216\u8005\u670d\u52a1\u5668\u4e0a\uff0c\u5bf9\u4e8e\u67d0\u4e2a\u7528\u6237\uff0c\u5982\u679c\u8bbe\u7f6e\u4e86\u6587\u4ef6\u4e0d\u53ef\u8bbf\u95ee\uff0c\u90a3\u4e48\u8fd9\u4e2a\u547d\u4ee4\u5c31\u53ef\u4ee5\u89e3\u51b3\uff0c\u5982\u679c\u8bbe\u7f6e\u4e86\u9519\u8bef\u7684\u6743\u9650\uff0c\u90a3\u4e48\u4e5f\u5c31\u63d0\u4f9b\u4e86\u4e3a\u6388\u6743\u7684\u8bbf\u95ee\u3002</p>\u000a<h3 id="chown">chown</h3>\u000a<p>\u6bcf\u4e2a\u6587\u4ef6\u90fd\u5c5e\u4e8e\u4e00\u4e2a\u7528\u6237\u7ec4\u548c\u4e00\u4e2a\u7528\u6237&ldquo;chown&rdquo;\u547d\u4ee4\u7528\u6765\u6539\u53d8\u6587\u4ef6\u7684\u6240\u6709\u6743\uff0c\u6240\u4ee5\u4ec5\u4ec5\u7528\u6765\u7ba1\u7406\u548c\u63d0\u4f9b\u6587\u4ef6\u7684\u7528\u6237\u548c\u7528\u6237\u7ec4\u6388\u6743\u3002</p>\u000a<p>\u6539\u53d8\u6240\u6709\u6743</p>\u000a<div class="monokai"><pre><span></span>chown user.group filename\u000a</pre></div>\u000a<p>\u9012\u5f52</p>\u000a<div class="monokai"><pre><span></span>chown -R user.group .\u000a</pre></div>\u000a<p>\u6bcf\u6b21\u90fd\u4ee5\u5176\u4ed6\u7528\u6237\u8eab\u4efd\u6267\u884c(\u5141\u8bb8\u5176\u4ed6\u7528\u6237\u4ee5\u6587\u4ef6\u6240\u6709\u8005\u7684\u8eab\u4efd\u6765\u6267\u884c)</p>\u000a<div class="monokai"><pre><span></span>chomod +s executable_file\u000a\u000achown root.root executable_file\u000achmod +s executable_file\u000a./executable_file\u000a</pre></div>\u000a<h3 id="chattr">chattr</h3>\u000a<p>\u521b\u5efa\u4e0d\u53ef\u4fee\u6539\u6587\u4ef6</p>\u000a<div class="monokai"><pre><span></span>chattr +i file\u000a</pre></div>\u000a<p>\u4e00\u65e6\u88ab\u8bbe\u7f6e\u4e3a\u4e0d\u53ef\u4fee\u6539, \u4efb\u4f55\u7528\u6237\u5305\u62ec\u8d85\u7ea7\u7528\u6237\u90fd\u4e0d\u80fd\u5220\u9664\u8be5\u6587\u4ef6, \u9664\u975e\u5176\u4e0d\u53ef\u4fee\u6539\u7684\u5c5e\u6027\u88ab\u79fb\u9664</p>\u000a<div class="monokai"><pre><span></span>chattr -i file\u000a</pre></div>\u000a<h3 id="touch">touch</h3>\u000a<p>&ldquo;touch&rdquo;\u547d\u4ee4\u4ee3\u8868\u4e86\u5c06\u6587\u4ef6\u7684\u8bbf\u95ee\u548c\u4fee\u6539\u65f6\u95f4\u66f4\u65b0\u4e3a\u5f53\u524d\u65f6\u95f4\u3002</p>\u000a<p>touch\u547d\u4ee4\u53ea\u4f1a\u5728\u6587\u4ef6\u4e0d\u5b58\u5728\u7684\u65f6\u5019\u624d\u4f1a\u521b\u5efa\u5b83(\u7a7a\u767d\u6587\u4ef6)\u3002\u5982\u679c\u6587\u4ef6\u5df2\u7ecf\u5b58\u5728\u4e86\uff0c\u5b83\u4f1a\u66f4\u65b0\u65f6\u95f4\u6233\uff0c\u4f46\u662f\u5e76\u4e0d\u4f1a\u6539\u53d8\u6587\u4ef6\u7684\u5185\u5bb9\u3002</p>\u000a<p>\u7a7a\u767d\u6587\u4ef6</p>\u000a<div class="monokai"><pre><span></span><span class="x">touch filename</span>\u000a\u000a<span class="x">for name </span><span class="err">{</span><span class="x">1..100}.txt</span>\u000a<span class="x">do</span>\u000a<span class="x">    touch </span><span class="p">$</span><span class="nv">name</span><span class="x"></span>\u000a<span class="x">done</span>\u000a</pre></div>\u000a<p>\u4fee\u6539\u6587\u4ef6\u8bbf\u95ee\u65f6\u95f4</p>\u000a<div class="monokai"><pre><span></span>touch -a "Fri Jun 25 20:50:14 IST 1999" filename\u000atouch -m #\u4fee\u6539\u6587\u4ef6\u5185\u5bb9\u7684\u4fee\u6539\u65f6\u95f4\u000a</pre></div>\u000a<p>\u4fee\u6539\u6587\u4ef6\u6216\u76ee\u5f55\u7684\u65f6\u95f4\u6233(YYMMDDhhmm)</p>\u000a<div class="monokai"><pre><span></span>touch -t 0712250000 file\u000a</pre></div>\u000a<p>\u6ce8\u610f\uff1atouch \u53ef\u4ee5\u7528\u6765\u5728\u7528\u6237\u62e5\u6709\u5199\u6743\u9650\u7684\u76ee\u5f55\u4e0b\u521b\u5efa\u4e0d\u5b58\u5728\u7684\u6587\u4ef6\u3002</p>\u000a<h3 id="ln">ln</h3>\u000a<p>\u5efa\u7acb\u8f6f\u8fde\u63a5</p>\u000a<div class="monokai"><pre><span></span>ln -s target symbolic_link_name\u000a</pre></div>\u000a<p>\u5982\u679c\u76ee\u7684\u8def\u5f84\u5df2\u7ecf\u5b58\u5728\uff0c\u800c\u6ca1\u6709\u6307\u5b9a -f \u6807\u5fd7\uff0cln \u547d\u4ee4\u4e0d\u4f1a\u521b\u5efa\u65b0\u7684\u94fe\u63a5\uff0c\u800c\u662f\u5411\u6807\u51c6\u9519\u8bef\u5199\u4e00\u6761\u8bca\u65ad\u6d88\u606f\u5e76\u7ee7\u7eed\u94fe\u63a5\u5269\u4e0b\u7684 SourceFiles\u3002</p>\u000a<p>-f \u4fc3\u4f7f ln \u547d\u4ee4\u66ff\u6362\u6389\u4efb\u4f55\u5df2\u7ecf\u5b58\u5728\u7684\u76ee\u7684\u8def\u5f84</p>\u000a<h3 id="readlink">readlink</h3>\u000a<p>\u8bfb\u53d6\u94fe\u63a5\u5bf9\u5e94\u771f\u662f\u8def\u5f84</p>\u000a<div class="monokai"><pre><span></span>readlink web\u000a\u000a readlink ~/.vim\u000a /Users/ken/github/k-vim\u000a</pre></div>\u000a<h3 id="file">file</h3>\u000a<p>\u901a\u8fc7\u67e5\u770b\u6587\u4ef6\u5185\u5bb9\u6765\u627e\u51fa\u7279\u5b9a\u7c7b\u578b\u7684\u6587\u4ef6</p>\u000a<p>\u6253\u5370\u6587\u4ef6\u7c7b\u578b\u4fe1\u606f</p>\u000a<div class="monokai"><pre><span></span>file filename\u000a</pre></div>\u000a<p>\u6253\u5370\u4e0d\u5305\u542b\u6587\u4ef6\u540d\u5728\u5185</p>\u000a<div class="monokai"><pre><span></span>file -b filename\u000a</pre></div>\u000a<p>e.g.</p>\u000a<div class="monokai"><pre><span></span>file /etc/passwd\u000a/etc/passwd: ASCII English text\u000a\u000afile -b /etc/passwd\u000aASCII English text\u000a</pre></div>\u000a<h3 id="_14">\u8bfb\u6587\u4ef6</h3>\u000a<div class="monokai"><pre><span></span>while read line;\u000ado\u000a    something\u000adone &lt; filename\u000a</pre></div>\u000a<h3 id="diff">diff</h3>\u000a<p>\u751f\u6210\u6587\u4ef6\u5dee\u5f02</p>\u000a<p>\u975e\u4e00\u4f53\u5316</p>\u000a<div class="monokai"><pre><span></span><span class="gh">diff version1.txt version2.txt</span>\u000a</pre></div>\u000a<p>\u4e00\u4f53\u5316, \u53ef\u8bfb\u6027\u66f4\u597d</p>\u000a<div class="monokai"><pre><span></span><span class="gh">diff -u version.txt</span>\u000a</pre></div>\u000a<p>\u4f7f\u7528patch\u5c06\u547d\u4ee4\u5e94\u7528\u4e8e\u4efb\u610f\u4e00\u4e2a\u6587\u4ef6</p>\u000a<div class="monokai"><pre><span></span><span class="gh">diff -u version1.txt version2.txt &gt; version.patch</span>\u000apatch -p1 version1.txt &lt; version.patch\u000a</pre></div>\u000a<p>\u9012\u5f52\u4f5c\u7528\u4e8e\u76ee\u5f55</p>\u000a<div class="monokai"><pre><span></span><span class="gh">diff -Naur directory1 directory2</span>\u000a\u000a<span class="gd">-N \u6240\u6709\u7f3a\u5931\u7684\u6587\u4ef6\u4f5c\u4e3a\u7a7a\u6587\u4ef6</span>\u000a<span class="gd">-a \u6240\u6709\u6587\u4ef6\u89c6\u4e3a\u6587\u672c\u6587\u4ef6</span>\u000a<span class="gd">-u \u4e00\u4f53\u5316\u8f93\u51fa</span>\u000a<span class="gd">-r \u9012\u5f52\u904d\u5386</span>\u000a</pre></div>\u000a<h3 id="head">head</h3>\u000a<p>\u524d10\u884c\u6253\u5370</p>\u000a<div class="monokai"><pre><span></span>head file\u000a</pre></div>\u000a<p>\u524dn\u884c</p>\u000a<div class="monokai"><pre><span></span>head -n 4 file\u000a</pre></div>\u000a<p>\u6263\u9664\u6700\u540eN\u884c\u4e4b\u5916\u7684\u6240\u6709\u884c</p>\u000a<div class="monokai"><pre><span></span>head -n -5 file\u000a</pre></div>\u000a<h3 id="tail">tail</h3>\u000a<p>\u6700\u540e10\u884c</p>\u000a<div class="monokai"><pre><span></span>tail file\u000a</pre></div>\u000a<p>\u6253\u5370\u6700\u540e\u4e94\u884c</p>\u000a<div class="monokai"><pre><span></span>tail -n 5 file\u000atail -5 file\u000a</pre></div>\u000a<p>\u6263\u9664\u524dn\u884c</p>\u000a<div class="monokai"><pre><span></span>tail -n +(N+1)\u000a</pre></div>\u000a<p>\u5b9e\u65f6\u52a8\u6001\u6253\u5370</p>\u000a<div class="monokai"><pre><span></span>tail -f growing_file\u000a</pre></div>\u000a<p>\u5f53\u67d0\u4e2a\u7ed9\u5b9a\u8fdb\u7a0b\u7ed3\u675f\u540e,  tail\u968f\u4e4b\u7ec8\u7ed3</p>\u000a<div class="monokai"><pre><span></span><span class="x">tail -f file --PID </span><span class="p">$</span><span class="nv">PID</span><span class="x"></span>\u000a</pre></div>\u000a<h3 id="pushdpopd">pushd/popd</h3>\u000a<p>\u5c06\u5f53\u524d\u8def\u5f84\u538b\u5165\u6808</p>\u000a<div class="monokai"><pre><span></span>pushd\u000a</pre></div>\u000a<p>\u538b\u5165\u67d0\u4e2a\u8def\u5f84</p>\u000a<div class="monokai"><pre><span></span>pushd /home/ken\u000a</pre></div>\u000a<p>\u67e5\u770b\u5f53\u524d\u8def\u5f84\u5217\u8868</p>\u000a<div class="monokai"><pre><span></span>dirs\u000a</pre></div>\u000a<p>\u5207\u6362\u5230\u67d0\u4e00\u4e2a</p>\u000a<div class="monokai"><pre><span></span>#dirs\u4ece\u5de6\u5230\u53f3\u7f16\u53f7 0 -\u000apushd +3\u000a</pre></div>\u000a<p>\u79fb\u9664\u6700\u8fd1\u538b\u5165\u6808\u7684\u8def\u5f84\u5e76\u5207\u6362\u5230\u4e0b\u4e00\u4e2a\u76ee\u5f55</p>\u000a<div class="monokai"><pre><span></span>popd\u000a</pre></div>\u000a<h3 id="cd">cd</h3>\u000a<p>\u7ecf\u5e38\u4f7f\u7528\u7684&ldquo;cd&rdquo;\u547d\u4ee4\u4ee3\u8868\u4e86\u6539\u53d8\u76ee\u5f55\u3002\u5b83\u5728\u7ec8\u7aef\u4e2d\u6539\u53d8\u5de5\u4f5c\u76ee\u5f55\u6765\u6267\u884c\uff0c\u590d\u5236\uff0c\u79fb\u52a8\uff0c\u8bfb\uff0c\u5199\u7b49\u7b49\u64cd\u4f5c</p>\u000a<p>\u5207\u6362\u5230\u4e0a\u4e00\u76ee\u5f55</p>\u000a<div class="monokai"><pre><span></span>cd -\u000a</pre></div>\u000a<p>\u4f1a\u5230HOME\u76ee\u5f55</p>\u000a<div class="monokai"><pre><span></span>cd\u000acd ~\u000a</pre></div>\u000a<p>\u4f1a\u5230\u4e0a\u4e00\u7ea7\u76ee\u5f55</p>\u000a<div class="monokai"><pre><span></span>cd ..\u000a</pre></div>\u000a<h3 id="wc">wc</h3>\u000a<p>Word Count</p>\u000a<p>\u7edf\u8ba1\u884c\u6570</p>\u000a<div class="monokai"><pre><span></span>wc -l file\u000a</pre></div>\u000a<p>\u7edf\u8ba1\u5355\u8bcd\u6570</p>\u000a<div class="monokai"><pre><span></span>wc -w file\u000a</pre></div>\u000a<p>\u7edf\u8ba1\u5b57\u7b26\u6570</p>\u000a<div class="monokai"><pre><span></span>wc -c file\u000a</pre></div>\u000a<p>\u7edf\u8ba1\u6240\u6709</p>\u000a<div class="monokai"><pre><span></span>wc file\u000a</pre></div>\u000a<p>\u7edf\u8ba1\u6700\u957f\u884c\u7684\u957f\u5ea6</p>\u000a<div class="monokai"><pre><span></span>wc file -L\u000a</pre></div>\u000a<h3 id="tree">tree</h3>\u000a<p>\u4ee5\u56fe\u5f62\u5316\u7684\u6811\u72b6\u7ed3\u6784\u6253\u5370\u6587\u4ef6\u548c\u76ee\u5f55\u7684\u7ed3\u6784\uff0c\u9700\u8981\u81ea\u884c\u5b89\u88c5</p>\u000a<div class="monokai"><pre><span></span>tree ~/unixfile\u000a</pre></div>\u000a<p>\u91cd\u70b9\u6807\u8bb0\u51fa\u5339\u914d\u67d0\u79cd\u6837\u5f0f\u7684\u6587\u4ef6</p>\u000a<div class="monokai"><pre><span></span>tree PATH -P "*.sh"\u000a</pre></div>\u000a<p>\u53ea\u6807\u8bb0\u7b26\u5408\u6837\u5f0f\u4e4b\u5916\u7684\u6587\u4ef6</p>\u000a<div class="monokai"><pre><span></span>tree path -I PATTERN\u000a</pre></div>\u000a<p>\u540c\u65f6\u6253\u5370\u6587\u4ef6\u548c\u76ee\u5f55\u5927\u5c0f</p>\u000a<div class="monokai"><pre><span></span>tree -h\u000a</pre></div>\u000a<h3 id="grep">grep</h3>\u000a<p>\u6587\u672c\u641c\u7d22\u5de5\u5177, \u652f\u6301\u6b63\u5219\u8868\u8fbe\u5f0f\u548c\u901a\u914d\u7b26</p>\u000a<p>&lsquo;grep&lsquo;\u547d\u4ee4\u641c\u7d22\u6307\u5b9a\u6587\u4ef6\u4e2d\u5305\u542b\u7ed9\u5b9a\u5b57\u7b26\u4e32\u6216\u8005\u5355\u8bcd\u7684\u884c</p>\u000a<p>\u57fa\u672c\u7528\u6cd5</p>\u000a<div class="monokai"><pre><span></span>grep "match_pattern" file1 file2\u000a</pre></div>\u000a<p>\u4f7f\u7528\u989c\u8272\u91cd\u70b9\u6807\u8bb0</p>\u000a<div class="monokai"><pre><span></span>grep word filename --color=auto\u000a</pre></div>\u000a<p>\u6269\u5c55\u578b\u4f7f\u7528\u6b63\u5219</p>\u000a<div class="monokai"><pre><span></span>grep -E "[a-z]+"\u000aegrep "[a-z]+"\u000a</pre></div>\u000a<p>\u53ea\u8f93\u51fa\u5339\u914d\u5230\u7684\u6587\u672c\u90e8\u5206</p>\u000a<div class="monokai"><pre><span></span>grep -o word filename\u000a</pre></div>\u000a<p>\u9664\u5339\u914d\u884c\u5916\u7684\u6240\u6709\u884c</p>\u000a<div class="monokai"><pre><span></span>grep -v word filename\u000a</pre></div>\u000a<p>\u7edf\u8ba1\u5339\u914d\u884c\u6570</p>\u000a<div class="monokai"><pre><span></span>grep -c 'text' filename\u000a</pre></div>\u000a<p>\u6253\u5370\u51fa\u5305\u542b\u5339\u914d\u5b57\u7b26\u4e32\u7684\u884c\u6570</p>\u000a<div class="monokai"><pre><span></span>grep linux -n filename\u000a</pre></div>\u000a<p>\u6253\u5370\u6837\u5f0f\u5339\u914d\u6240\u4f4d\u4e8e\u7684\u5b57\u7b26\u6216\u5b57\u8282\u7684\u504f\u79fb</p>\u000a<div class="monokai"><pre><span></span>echo "gnu is not unix" | grep -b -o "not"\u000a</pre></div>\u000a<p>\u641c\u7d22\u591a\u4e2a\u6587\u4ef6\uff0c\u627e\u51fa\u5339\u914d\u6587\u672c\u4f4d\u4e8e\u54ea\u4e2a\u6587\u4ef6\u4e2d</p>\u000a<div class="monokai"><pre><span></span>grep -l linux file1 file2\u000a\u53d6\u53cd\u000agrep -L\u000a</pre></div>\u000a<p>\u9012\u5f52\u641c\u7d22\u76ee\u5f55</p>\u000a<div class="monokai"><pre><span></span>grep -R "text" dir\u000a</pre></div>\u000a<p>\u5ffd\u7565\u5927\u5c0f\u5199</p>\u000a<div class="monokai"><pre><span></span>grep -i "hello" filename\u000a</pre></div>\u000a<p>\u5339\u914d\u591a\u4e2a\u6837\u5f0f</p>\u000a<div class="monokai"><pre><span></span>grep -e "pattern1" -e "pattern2" file\u000a</pre></div>\u000a<p>\u8fd0\u884c\u5339\u914d\u811a\u672c</p>\u000a<div class="monokai"><pre><span></span>grep -f pattern_file source_file\u000a\u000apattern_file:\u000ahello\u000acool\u000a</pre></div>\u000a<p>\u5728\u641c\u7d22\u4e2d\u5305\u542b\u3001\u6392\u9664\u6587\u4ef6</p>\u000a<div class="monokai"><pre><span></span>grep --include *.{c,cpp} word file\u000a</pre></div>\u000a<p>\u6392\u9664</p>\u000a<div class="monokai"><pre><span></span>grep --exclude "Readme" filename\u000a--exclude-dir\u000a</pre></div>\u000a<p>\u9759\u9ed8\u8f93\u51fa\uff0c\u7528\u4e8e\u5224\u65ad(\u4e0d\u4f1a\u4ea7\u751f\u4efb\u4f55\u8f93\u51fa)</p>\u000a<div class="monokai"><pre><span></span>grep -q word file\u000aif [ $? -eq 0 ]\u000a</pre></div>\u000a<p>\u6253\u5370\u5339\u914d\u884c\u4e4b\u524d\uff0c\u4e4b\u540e\u7684\u884c</p>\u000a<div class="monokai"><pre><span></span>grep -A 3 \u4e4b\u540e3\u884c\u000agrep -B 3 \u4e4b\u524d\u000agrep -C 3 \u524d\u540e\u000a</pre></div>\u000a<p>\u4f7f\u7528\u884c\u7f13\u51b2</p>\u000a<div class="monokai"><pre><span></span>\u5728\u4f7f\u7528tail -f\u547d\u4ee4\u65f6\u662f\u53ef\u4ee5\u53ca\u65f6\u770b\u5230\u6587\u4ef6\u7684\u53d8\u5316\u7684\uff0c\u4f46\u662f\u5982\u679c\u518d\u52a0\u4e0a\u4e00\u4e2agrep\u547d\u4ee4\uff0c\u53ef\u80fd\u770b\u5230\u7684\u5c31\u4e0d\u90a3\u4e48\u53ca\u65f6\u4e86\uff0c\u000a\u56e0\u4e3agrep\u547d\u4ee4\u5728buffer\u5199\u4e0d\u6ee1\u65f6\u5c31\u4e0d\u8f93\u51fa\uff0c\u53ef\u4ee5\u901a\u8fc7\u9009\u9879  --line-buffered \u6765\u641e\u5b9a\uff0c\u5982\uff1a\u000a\u000atail -f file.txt | grep something  --line-buffered\u000a</pre></div>\u000a<h3 id="cut">cut</h3>\u000a<p>\u8bed\u6cd5</p>\u000a<div class="monokai"><pre><span></span>cut -c list [ file ... ]\u000acut -f list [ -d delim ] [ file ...]\u000a\u000a-c list \u4ee5\u5b57\u7b26\u4e3a\u4e3b\uff0c\u4f5c\u526a\u5207\u64cd\u4f5c\u000a-f list \u4ee5\u5b57\u6bb5\u4e3a\u4e3b\uff0c\u4f5c\u526a\u5207\u64cd\u4f5c\u000a</pre></div>\u000a<p>\u63d0\u53d6\u5b57\u6bb5\u6216\u5217</p>\u000a<div class="monokai"><pre><span></span>#\u7b2c\u4e00\u5217\u000acut -f1 filenam\u000a\u000a#\u7b2c\u4e8c\u4e09\u5217\u000acut -f2,3 filename\u000a</pre></div>\u000a<p>\u63d0\u53d6\u8865\u96c6</p>\u000a<div class="monokai"><pre><span></span>cut -f1 --complement filename\u000a</pre></div>\u000a<p>\u6307\u5b9a\u5b57\u6bb5\u5206\u9694\u7b26</p>\u000a<div class="monokai"><pre><span></span>cut -d ";" -f2 filename\u000acut -d : -f 1,5 /etc/passwd\u000a</pre></div>\u000a<p>\u6307\u5b9a\u5b57\u7b26</p>\u000a<div class="monokai"><pre><span></span>-b \u5b57\u8282\u000a-c \u5b57\u7b26\u000a-f \u5b57\u6bb5\u000a\u000acut -c1-5 filename\u000aN-\u000aN-M\u000a-M\u000a\u000als -l | cut -c 1-10\u000a</pre></div>\u000a<p>\u6307\u5b9a\u8f93\u51fa\u5206\u9694\u7b26</p>\u000a<div class="monokai"><pre><span></span>cut -c1-3,6-9 --output-delimiter ","\u000a</pre></div>\u000a<h3 id="join">join</h3>\u000a<p>\u8bed\u6cd5</p>\u000a<div class="monokai"><pre><span></span>join [options] file1 file2\u000a\u000a\u9009\u9879\u000a-1 field1\u000a-2 field2\u000a-o file.field\u000a-t separator\u000a</pre></div>\u000a<p>\u4f8b\u5b50</p>\u000a<div class="monokai"><pre><span></span>join file1 file2\u000a</pre></div>\u000a<h3 id="sed">sed</h3>\u000a<p>sed(Stream editor)\u6d41\u7f16\u8f91\u5668, \u53ef\u4ee5\u914d\u5408\u6b63\u5219\u4f7f\u7528, \u8fdb\u884c\u66ff\u6362\u7b49</p>\u000a<p>sed\u66ff\u6362\u8bed\u6cd5</p>\u000a<div class="monokai"><pre><span></span>sed 's/pattern/replace_string/' file\u000a</pre></div>\u000a<p>\u5c06\u7ed3\u679c\u76f4\u63a5\u8fd0\u7528\u4e8e\u6e90\u6587\u4ef6</p>\u000a<div class="monokai"><pre><span></span>-i \u7528\u4e8e, \u76f4\u63a5\u4fee\u6539\u6e90\u6587\u4ef6\u000a\u000a\u66ff\u6362\u7b2c\u4e00\u4e2a\u000ased -i 's/pattern/replace_string/' file\u000a\u000a\u66ff\u6362\u7b2c\u4e8c\u4e2a\u000ased -i 's/pattern/replace_string/2' file\u000a\u000a\u66ff\u6362\u6240\u6709\u000ased -i 's/pattern/replace_string/g' file\u000a\u000a\u4ece\u7b2cN\u5904\u5f00\u59cb\u66ff\u6362\u000ased -i 's/pattern/replcae_string/2g' file\u000a</pre></div>\u000a<p>\u79fb\u9664\u7a7a\u767d\u884c</p>\u000a<div class="monokai"><pre><span></span>sed '/^$/d' file\u000a</pre></div>\u000a<p>\u5df2\u5339\u914d\u5b57\u7b26\u4e32\u6807\u8bb0</p>\u000a<div class="monokai"><pre><span></span>\u5f15\u7528\u5339\u914d\u5230\u7684\u000ased 's/\u005cw\u005c+/[&amp;]/g' filename\u000a</pre></div>\u000a<p>\u7ec4\u5408\u591a\u4e2a\u8868\u8fbe\u5f0f</p>\u000a<div class="monokai"><pre><span></span>sed 'exp1' | sed 'exp2'\u000a\u7b49\u4ef7\u000ased 'exp1;exp2'\u000a</pre></div>\u000a<p>\u4f7f\u7528\u5f15\u7528</p>\u000a<div class="monokai"><pre><span></span><span class="x">sed "s/</span><span class="p">$</span><span class="nv">text</span><span class="x">/HELLO/"</span>\u000a</pre></div>\u000a<p>\u5b50\u4e32\u5339\u914d\u6807\u8bb0(\u540e\u5411\u5f15\u7528\uff0c\u6700\u591a9\u4e2a)</p>\u000a<div class="monokai"><pre><span></span>sed 's/\u005c([a-z]\u005c+\u005c)' \u005c([A-Z\u005c]\u005c+\u005c)/\u005c2 \u005c1/' filename\u000a</pre></div>\u000a<p>\u4fdd\u5b58\u5230\u6587\u4ef6</p>\u000a<div class="monokai"><pre><span></span>sed 's/pattern/replacement/' -i outfile\u000a</pre></div>\u000a<p>\u4f7f\u7528\u5176\u4ed6\u5206\u9694\u7b26</p>\u000a<div class="monokai"><pre><span></span>sed 's#/home/#/tmp/#'\u000a</pre></div>\u000a<h3 id="awk">awk</h3>\u000a<p>\u57fa\u672c\u7ed3\u6784</p>\u000a<div class="monokai"><pre><span></span>awk -F '-' 'BEGIN{statements} {statements} END{statements}' file\u000a\u8868\u8fbe\u5f0f\u4e2d\u5355\u5f15\u53f7\u53ef\u4ee5\u6362\u6210\u53cc\u5f15\u53f7\u000aBEGIN -&gt; \u6bcf\u4e00\u884c\uff0c\u6267\u884cstatements, \u6267\u884cEND\u000a</pre></div>\u000a<p>\u6253\u5370\u67d0\u4e00\u5217</p>\u000a<div class="monokai"><pre><span></span>awk -F '-' '{print $0}' file #\u5168\u90e8\u000aawk -F '-' '{print $2}' file #\u7b2c\u4e8c\u5217\u000a</pre></div>\u000a<p>print\u62fc\u63a5\u5b57\u7b26</p>\u000a<div class="monokai"><pre><span></span>awk '{var="v1"; var1="v2"; print var1"-"var2;}'\u000a</pre></div>\u000a<p>\u7279\u6b8a\u53d8\u91cf</p>\u000a<div class="monokai"><pre><span></span><span class="x">NR nuber of records, \u8bb0\u5f55\u6570</span>\u000a<span class="x">NF number of fields, \u5b57\u6bb5\u6570</span>\u000a<span class="p">$</span><span class="x">0 \u5f53\u524d\u884c\u6587\u672c</span>\u000a<span class="p">$</span><span class="x">1 \u7b2c\u4e00\u5b57\u6bb5</span>\u000a<span class="p">$</span><span class="x">2 \u7b2c\u4e8c\u5b57\u6bb5</span>\u000a<span class="p">$</span><span class="nv">NF</span><span class="x"> \u6700\u540e\u4e00\u4e2a\u5b57\u6bb5</span>\u000a\u000a<span class="x">FILENAME \u5f53\u524d\u8f93\u5165\u6587\u4ef6\u7684\u540d\u79f0</span>\u000a<span class="x">FNR \u5f53\u524d\u8f93\u5165\u6587\u4ef6\u8bb0\u5f55\u6570</span>\u000a<span class="x">FS \u5b57\u6bb5\u5206\u9694\u5b57\u7b26</span>\u000a<span class="x">OFS \u8f93\u51fa\u5b57\u6bb5\u5206\u9694\u7b26\uff0c\u9ed8\u8ba4" "</span>\u000a<span class="x">ORS \u8f93\u51fa\u8bb0\u5f55\u5206\u9694\u7b26\uff0c\u9ed8\u8ba4"\u005cn"</span>\u000a</pre></div>\u000a<p>\u7edf\u8ba1\u884c\u6570</p>\u000a<div class="monokai"><pre><span></span>awk 'END{print NF}'\u000a</pre></div>\u000a<p>\u5c06\u5916\u90e8\u53d8\u91cf\u503c\u4f20\u9012\u7ed9awk</p>\u000a<div class="monokai"><pre><span></span><span class="x">awk -v VARIABLE=</span><span class="p">$</span><span class="nv">VAR</span><span class="x"> '</span><span class="err">{</span><span class="x"> print VARIABLE }'</span>\u000a<span class="x">awk '</span><span class="err">{</span><span class="x">print v1, v2}' v1=</span><span class="p">$</span><span class="nv">var1</span><span class="x"> v2=</span><span class="p">$</span><span class="nv">var2</span><span class="x"></span>\u000a</pre></div>\u000a<p>\u8bfb\u53d6\u884c</p>\u000a<div class="monokai"><pre><span></span>seq 5 | awk '{ getline var; print var}'\u000a</pre></div>\u000a<p>\u8fdb\u884c\u884c\u8fc7\u6ee4</p>\u000a<div class="monokai"><pre><span></span>awk 'NR&lt;5' #\u884c\u53f7\u5c0f\u4e8e5\u000aawk 'NR==1,NR==4' #\u884c\u53f7\u57281\u52305\u4e4b\u95f4\u000aawk '/linux/' #\u5305\u542b\u6837\u5f0flinux\u000aawk '!/linux/' #\u4e0d\u5305\u542b\u000aawk '$1 ~/jones/' #\u7b2c\u4e00\u4e2a\u5b57\u6bb5\u5305\u542bjones\u000a\u000atail file\u000aawk 'NR &lt;= 10' file\u000a</pre></div>\u000a<p>\u8bbe\u5b9a\u5206\u9694\u7b26</p>\u000a<div class="monokai"><pre><span></span><span class="x">awk -F: '</span><span class="err">{</span><span class="x"> print </span><span class="p">$</span><span class="nv">NF</span><span class="x"> }' file</span>\u000a</pre></div>\u000a<p>\u8bbe\u5b9a\u8f93\u51fa\u5206\u9694\u7b26</p>\u000a<div class="monokai"><pre><span></span>awk -F: -v "OFS=-" '{print $1,$2}' /etc/passwd\u000a</pre></div>\u000a<p>\u6253\u5370\u7a7a\u884c</p>\u000a<div class="monokai"><pre><span></span>awk 'NF&gt;0 {print $0}'\u000aor\u000aawk 'NF&gt;0' #\u672a\u6307\u5b9aaction\u9ed8\u8ba4\u6253\u5370\u000a</pre></div>\u000a<p>print\u548cprintf</p>\u000a<div class="monokai"><pre><span></span>awk -F: '{print "User", $1, "is really", $5}' /etc/passwd\u000aawk -F: '{printf "User %s is really %s\u005cn", $1, $5}' /etc/passwd\u000a</pre></div>\u000a<p>awk\u4e2d\u4f7f\u7528\u5faa\u73af</p>\u000a<div class="monokai"><pre><span></span><span class="x">for(i=0;i&lt;10;i++) </span><span class="err">{</span><span class="x"> print </span><span class="p">$</span><span class="nv">i</span><span class="x">; }</span>\u000a\u000a<span class="x">for(i in array) </span><span class="err">{</span><span class="x"> print array[i] }</span>\u000a</pre></div>\u000a<p>\u5185\u5efa\u51fd\u6570</p>\u000a<div class="monokai"><pre><span></span>length(str)\u000aindex(str,search_str)\u000asplit(str,array,delimiter) \u7528\u754c\u5b9a\u7b26\u751f\u6210\u4e00\u4e2a\u5b57\u7b26\u4e32\u5217\u8868\u000asubstr(string, start, end) #\u5b50\u4e32\u000asub(regex, replacement_str, str) #\u6b63\u5219\u66ff\u6362\u9996\u4e2a\u5339\u914d\u4f4d\u7f6e\u000agsub(regex, replacement_str, string) #\u6700\u540e\u4e00\u4e2a\u5339\u914d\u4f4d\u7f6e\u000amatch(string, regex) #\u68c0\u67e5\u662f\u5426\u80fd\u591f\u5339\u914d\u5b57\u7b26\u4e32\u000atolower(string) #\u8f6c\u5c0f\u5199\u000atoupper(string) #\u8f6c\u5927\u5199\u000a</pre></div>\u000a<p>\u5199\u6210\u811a\u672c\u6587\u4ef6</p>\u000a<div class="monokai"><pre><span></span>BEGIN {}\u000apattern1 {action1}\u000apattern2 {action2}\u000aEND {}\u000a</pre></div>\u000a<h3 id="_15">\u6587\u4ef6\u8fed\u4ee3</h3>\u000a<p>\u8bfb\u6587\u4ef6\u884c</p>\u000a<div class="monokai"><pre><span></span><span class="x">while read line;</span>\u000a<span class="x">do</span>\u000a<span class="x">    echo </span><span class="p">$</span><span class="nv">line</span><span class="x">;</span>\u000a<span class="x">done &lt; file.txt</span>\u000a</pre></div>\u000a<p>\u8fed\u4ee3\u6bcf\u4e2a\u5355\u8bcd</p>\u000a<div class="monokai"><pre><span></span><span class="x">for word in </span><span class="p">$</span><span class="nv">line</span><span class="x">;</span>\u000a<span class="x">do</span>\u000a<span class="x">    echo </span><span class="p">$</span><span class="nv">word</span><span class="x">;</span>\u000a<span class="x">done</span>\u000a</pre></div>\u000a<p>\u8fed\u4ee3\u6bcf\u4e00\u4e2a\u5b57\u7b26</p>\u000a<div class="monokai"><pre><span></span>for((i=0;i<span class="err">&lt;</span><span class="cp">${</span><span class="c1">#word</span><span class="cp">}</span>;i++))\u000ado\u000a    echo <span class="cp">${</span><span class="n">word</span><span class="p">:</span><span class="n">i</span><span class="p">:</span><span class="mi">1</span><span class="cp">}</span> ;\u000adone\u000a</pre></div>\u000a<h3 id="paste">paste</h3>\u000a<p>\u6309\u5217\u5408\u5e76\u6587\u4ef6</p>\u000a<div class="monokai"><pre><span></span>paste file1 file2 file3\u000a</pre></div>\u000a<p>\u6307\u5b9a\u5206\u9694\u7b26</p>\u000a<div class="monokai"><pre><span></span>paste file1 file2 -d ','\u000a</pre></div>\u000a<h3 id="tac">tac</h3>\u000a<p>\u9006\u5e8f\u6253\u5370</p>\u000a<div class="monokai"><pre><span></span>tac file1 file2\u000a</pre></div>\u000a<h3 id="rev">rev</h3>\u000a<p>\u63a5\u6536\u4e00\u4e2a\u6587\u4ef6\u6216stdin\u4f5c\u4e3a\u8f93\u5165, \u9006\u5e8f\u6253\u5370\u6bcf\u4e00\u884c\u5185\u5bb9</p>\u000a<div class="monokai"><pre><span></span>echo "abc" | rev\u000a</pre></div>\u000a<h3 id="wget">wget</h3>\u000a<p>Wget\u662f\u7528\u4e8e\u975e\u4ea4\u4e92\u5f0f\uff08\u4f8b\u5982\u540e\u53f0\uff09\u4e0b\u8f7d\u6587\u4ef6\u7684\u514d\u8d39\u5de5\u5177.\u652f\u6301HTTP, HTTPS, FTP\u534f\u8bae\u548c HTTP \u4ee3\u7406(\u9009\u9879\u591a, \u7528\u6cd5\u7075\u6d3b)</p>\u000a<p>\u4e00\u4e2a\u7528\u4e8e\u6587\u4ef6\u4e0b\u8f7d\u7684\u547d\u4ee4\u884c\u5de5\u5177</p>\u000a<div class="monokai"><pre><span></span>wget URL1 URL2\u000a</pre></div>\u000a<p>\u6307\u5b9a\u4fdd\u5b58\u6587\u4ef6\u540d</p>\u000a<div class="monokai"><pre><span></span>wget URL -O local.txt\u000a</pre></div>\u000a<p>\u6307\u5b9a\u65e5\u5fd7\uff0c\u9ed8\u8ba4\u8fbe\u5230stdout</p>\u000a<div class="monokai"><pre><span></span>wget URL -O local.txt -o log.txt\u000a</pre></div>\u000a<p>\u6307\u5b9a\u91cd\u590d\u5c1d\u8bd5\u6b21\u6570</p>\u000a<div class="monokai"><pre><span></span>wget -t 5 URL\u000a</pre></div>\u000a<p>\u4e0b\u8f7d\u9650\u901f</p>\u000a<div class="monokai"><pre><span></span>wget --limit-rate 20k url\u000a</pre></div>\u000a<p>\u6307\u5b9a\u9650\u989d</p>\u000a<div class="monokai"><pre><span></span>wget -Q 100m url\u000a</pre></div>\u000a<p>\u65ad\u70b9\u7eed\u4f20</p>\u000a<div class="monokai"><pre><span></span>wget -c URL\u000a\u000a$ wget -c -t 100 -T 120 http://www.linux.com/xxxx.data\u000a\u000a\u5f53\u6587\u4ef6\u7279\u522b\u5927\u6216\u8005\u7f51\u7edc\u7279\u522b\u6162\u7684\u65f6\u5019\uff0c\u5f80\u5f80\u4e00\u4e2a\u6587\u4ef6\u8fd8\u6ca1\u6709\u4e0b\u8f7d\u5b8c\uff0c\u8fde\u63a5\u5c31\u5df2\u7ecf\u88ab\u5207\u65ad\uff0c\u6b64\u65f6\u5c31\u9700\u8981\u65ad\u70b9\u7eed\u4f20\u3002\u000awget\u7684\u65ad\u70b9\u7eed\u4f20\u662f\u81ea\u52a8\u7684\u3002\u000a-c \u9009\u9879\u7684\u4f5c\u7528\u4e3a\u65ad\u70b9\u7eed\u4f20\u3002\u000a-t \u53c2\u6570\u8868\u793a\u91cd\u8bd5\u6b21\u6570(\u4f8b\u5982\u91cd\u8bd5100\u6b21\uff0c-t 100\uff0c\u5982\u679c\u8bbe\u6210-t 0\uff0c\u8868\u793a\u65e0\u7a77\u6b21\u91cd\u8bd5\uff0c\u76f4\u5230\u8fde\u63a5\u6210\u529f)\u000a-T \u53c2\u6570\u8868\u793a\u8d85\u65f6\u7b49\u5f85\u65f6\u95f4\uff0c\u4f8b\u5982-T 120\uff0c\u8868\u793a\u7b49\u5f85120\u79d2\u8fde\u63a5\u4e0d\u4e0a\u5c31\u7b97\u8d85\u65f6\u000a</pre></div>\u000a<p>\u590d\u5236\u6216\u955c\u50cf\u6574\u4e2a\u7f51\u7ad9</p>\u000a<div class="monokai"><pre><span></span>wget --mirror exampledomain.com\u000awget -r -N -l DEPTH URL\u000a     \u9012\u5f52\uff0c\u5141\u8bb8\u5bf9\u6587\u4ef6\u4f7f\u7528\u65f6\u95f4\u6233\uff0c\u5c42\u7ea7\u000a$ wget -r -np -nd http://www.linux.com/packs/\u000a\u000a-np \u7684\u4f5c\u7528\u662f\u4e0d\u904d\u5386\u7236\u76ee\u5f55\u000a-nd \u8868\u793a\u4e0d\u5728\u672c\u673a\u91cd\u65b0\u521b\u5efa\u76ee\u5f55\u7ed3\u6784\u000a</pre></div>\u000a<p>\u8bbf\u95ee\u9700\u8981\u8ba4\u8bc1\u7684HTTP/FTP</p>\u000a<div class="monokai"><pre><span></span>wget --user username --password pass URL\u000a</pre></div>\u000a<p>post\u8bf7\u6c42</p>\u000a<div class="monokai"><pre><span></span>wget url -post-data "name=value" -O output.html\u000a</pre></div>\u000a<p>\u6279\u91cf\u4e0b\u8f7d</p>\u000a<div class="monokai"><pre><span></span>wget -i downloads.txt #\u5c06\u6587\u4ef6\u5730\u5740\u5199\u5165\u4e00\u4e2a\u6587\u4ef6\u000a</pre></div>\u000a<p>\u7528wget\u547d\u4ee4\u6267\u884cftp\u4e0b\u8f7d</p>\u000a<div class="monokai"><pre><span></span>wget -m ftp://username:password@hostname\u000a</pre></div>\u000a<h3 id="curl">curl</h3>\u000a<p>\u57fa\u672c\u7528\u6cd5</p>\u000a<div class="monokai"><pre><span></span>curl url &gt; index.html\u000a</pre></div>\u000a<p>\u4e0d\u663e\u793a\u8fdb\u5ea6\u4fe1\u606f</p>\u000a<div class="monokai"><pre><span></span>curl URL --slient\u000a</pre></div>\u000a<p>\u5c06\u5185\u5bb9\u5199\u5165\u6587\u4ef6\uff0c\u800c\u975e\u6807\u51c6\u8f93\u51fa</p>\u000a<div class="monokai"><pre><span></span>curl URL --slient -O\u000a</pre></div>\u000a<p>\u5199\u5165\u6307\u5b9a\u6587\u4ef6</p>\u000a<div class="monokai"><pre><span></span>curl URL --slient -o filename\u000a</pre></div>\u000a<p>\u663e\u793a\u8fdb\u5ea6\u6761</p>\u000a<div class="monokai"><pre><span></span>curl url -o index.html --progress\u000a</pre></div>\u000a<p>\u65ad\u70b9\u7eed\u4f20</p>\u000a<div class="monokai"><pre><span></span>curl -C - URL\u000a</pre></div>\u000a<p>\u8bbe\u7f6e\u53c2\u7167\u9875\u5b57\u7b26\u4e32</p>\u000a<div class="monokai"><pre><span></span>curl --referer Referer_URL target_URL\u000a\u8df3\u8f6c\u5230target_URL,\u5176\u5934\u90e8referer\u4e3aReferer_URL\u000a</pre></div>\u000a<p>\u8bbe\u7f6ecookie</p>\u000a<div class="monokai"><pre><span></span>curl url --cookie "user=slynux;pass=hack"\u000a\u53e6\u5b58\u4e3a\u4e00\u4e2a\u6587\u4ef6\u000a\u000acurl URL --cookie-jar cookie_file\u000a</pre></div>\u000a<p>\u8bbe\u7f6e\u7528\u6237\u4ee3\u7406</p>\u000a<div class="monokai"><pre><span></span>curl URL --user-agent "Mozilla/5.0"\u000a\u5934\u90e8\u4fe1\u606f\u000acurl -H "Host: www.slynux.org" -H "Accept-language: en" url\u000a</pre></div>\u000a<p>\u9650\u5b9a\u4e0b\u8f7d\u5e26\u5bbd</p>\u000a<div class="monokai"><pre><span></span>curl url --limit-rate 20k\u000a</pre></div>\u000a<p>\u6307\u5b9a\u6700\u5927\u4e0b\u8f7d\u91cf(\u53ef\u4e0b\u8f7d\u7684\u6700\u5927\u6587\u4ef6\u5927\u5c0f)</p>\u000a<div class="monokai"><pre><span></span>curl url --max-filesize bytes\u000a\u8d85\u51fa\u9650\u5236\u7684\u8bdd\uff0c\u8fd4\u56de\u975e0\u000a</pre></div>\u000a<p>\u8fdb\u884c\u8ba4\u8bc1</p>\u000a<div class="monokai"><pre><span></span>curl -u user:pass url\u000a</pre></div>\u000a<p>\u53ea\u6253\u5370\u5934\u90e8\u4fe1\u606f,\u4e0d\u4e0b\u8f7d\u8fdc\u7a0b\u6587\u4ef6</p>\u000a<div class="monokai"><pre><span></span>curl -I url\u000acurl -head url\u000a</pre></div>\u000a<p>\u53d1\u9001post\u8bf7\u6c42</p>\u000a<div class="monokai"><pre><span></span>curl URL -d "va1=1&amp;va2=2"\u000a         --data\u000a</pre></div>\u000a<h3 id="lynx">lynx</h3>\u000a<p>\u5c06\u7f51\u9875\u4ee5ascii\u5b57\u7b26\u5f62\u5f0f\u4e0b\u8f7d</p>\u000a<div class="monokai"><pre><span></span>lynx -dump URL &gt; webpage_as_text.txt\u000a</pre></div>\u000a<p>\u6253\u5370\u51fa\u7f51\u7ad9\u7684\u6587\u672c\u677f\u5757\u800c\u975ehtml</p>\u000a<div class="monokai"><pre><span></span>lynx -dump url\u000a</pre></div>\u000a<p>\u751f\u6210\u4fe1\u606f\u6587\u4ef6</p>\u000a<div class="monokai"><pre><span></span>lynx -traversal url\u000a</pre></div>\u000a<h3 id="tar">tar</h3>\u000a<p>&ldquo;tar&rdquo;\u547d\u4ee4\u662f\u78c1\u5e26\u5f52\u6863(Tape Archive)\uff0c\u5bf9\u521b\u5efa\u4e00\u4e9b\u6587\u4ef6\u7684\u7684\u5f52\u6863\u548c\u5b83\u4eec\u7684\u89e3\u538b\u5f88\u6709\u7528\u3002</p>\u000a<p>\u5c06\u591a\u4e2a\u6587\u4ef6\u548c\u6587\u4ef6\u5939\u4fdd\u5b58\u6210\u5355\u4e2a\u6587\u4ef6, \u540c\u65f6\u8fd8\u80fd\u4fdd\u7559\u6240\u6709\u7684\u6587\u4ef6\u5c5e\u6027</p>\u000a<p>\u5bf9\u6587\u4ef6\u8fdb\u884c\u5f52\u6863</p>\u000a<div class="monokai"><pre><span></span>-c create file,\u521b\u5efa\u6587\u4ef6\u000a-f specify filename,\u6307\u5b9a\u6587\u4ef6\u540d\u000a\u000atar -cf output.tar file1 file2 file3\u000atar -cf output.tar *.txt\u000a\u000atar -cvf output.tar *.txt\u000a</pre></div>\u000a<p>\u5411\u5f52\u6863\u4e2d\u8ffd\u52a0\u6587\u4ef6</p>\u000a<div class="monokai"><pre><span></span>tar -rvf original.tar new_file\u000a-r,\u8ffd\u52a0\u000a</pre></div>\u000a<p>\u67e5\u770b\u8fc7\u7a0b\u4e2d\u66f4\u591a\u4fe1\u606f</p>\u000a<div class="monokai"><pre><span></span>tar -tvvf archive.tar\u000a-v/-vv, verbose\u000a</pre></div>\u000a<p>\u63d0\u53d6\u6587\u4ef6\u6216\u6587\u4ef6\u5939</p>\u000a<div class="monokai"><pre><span></span>-x, exact\u000atar -xf archive.tar\u000a\u000a-C,\u6307\u5b9a\u6587\u4ef6\u000atar -xf archive.tar -C /path/to/extraction_directory\u000a\u000a\u000atar -xvf archive.tar\u000a</pre></div>\u000a<p>\u63d0\u53d6\u6307\u5b9a\u6587\u4ef6</p>\u000a<div class="monokai"><pre><span></span>tar -xvf file.tar file1 file4\u000a</pre></div>\u000a<p>\u62fc\u63a5\u4e24\u4e2a\u5f52\u6863\u6587\u4ef6</p>\u000a<div class="monokai"><pre><span></span>tar -Af file1.tar file2.tar\u000a#file2\u5408\u5e76\u5230file1\u4e2d\u000a</pre></div>\u000a<p>\u53ea\u6709\u5728\u6587\u4ef6\u5185\u5bb9\u4fee\u6539\u65f6\u95f4\u66f4\u65b0(newer),\u624d\u8fdb\u884c\u6dfb\u52a0</p>\u000a<div class="monokai"><pre><span></span>tar -uvvf archive.tar filea\u000a</pre></div>\u000a<p>\u6bd4\u8f83\u5f52\u6863\u6587\u4ef6\u4e0e\u6587\u4ef6\u7cfb\u7edf\u4e2d\u7684\u5185\u5bb9</p>\u000a<div class="monokai"><pre><span></span>tar -df archive.tar filename1 filename2\u000a</pre></div>\u000a<p>\u4ece\u5f52\u6863\u6587\u4ef6\u4e2d\u5220\u9664\u6587\u4ef6</p>\u000a<div class="monokai"><pre><span></span>tar -f archive.tar --delete file1 file2\u000a</pre></div>\u000a<p>\u63d0\u53d6\u5230\u67d0\u4e2a\u76ee\u5f55</p>\u000a<div class="monokai"><pre><span></span> tar zxvf package.tar.gz -C new_dir\u000a</pre></div>\u000a<p>\u538b\u7f29\u5f52\u6863\u6587\u4ef6</p>\u000a<div class="monokai"><pre><span></span>gzip/gunzip -&gt; .gz\u000af.tar.gz   -z\u000atar -czvf \u000atar -xzvf\u000a\u000abzip/bunzip -&gt; .bz2\u000af.tar.bz2  -j\u000a\u000af.tar.lzma --lzma\u000af.tar.lzo\u000a</pre></div>\u000a<p>\u4ece\u5f52\u6863\u4e2d\u6392\u9664\u90e8\u5206\u6587\u4ef6</p>\u000a<div class="monokai"><pre><span></span>tar -cf arch.tar * --exclude "*.txt"\u000acat list\u000a   filea\u000a   fileb\u000atar -cf arch.tar * -X list\u000a</pre></div>\u000a<p>\u6392\u9664\u7248\u672c\u63a7\u5236\u6587\u4ef6</p>\u000a<div class="monokai"><pre><span></span>tar --exclude-vcs -czvvf source.tar.gz files\u000a</pre></div>\u000a<p>\u6253\u5370\u603b\u5b57\u8282\u6570</p>\u000a<div class="monokai"><pre><span></span>tar -cf arc.tar * --exclude "*.txt" --totals\u000a</pre></div>\u000a<h3 id="cpio">cpio</h3>\u000a<p>\u4f7f\u7528\u9891\u7387\u4e0d\u9ad8</p>\u000a<p>\u5f52\u6863\uff0c\u4fdd\u7559\u6587\u4ef6\u5c5e\u6027\uff08\u6743\u9650\u3001\u6240\u6709\u6743\u7b49\uff09</p>\u000a<div class="monokai"><pre><span></span>echo file1 file2 | cpio -ov &gt; archive.cpio\u000a-o \u6307\u5b9a\u8f93\u51fa\u000a-v \u6253\u5370\u5f52\u6863\u6587\u4ef6\u5217\u8868\u000a</pre></div>\u000a<p>\u5217\u51facpio\u4e2d\u7684\u6587\u4ef6\u5185\u5bb9</p>\u000a<div class="monokai"><pre><span></span>cpio -it &lt; archive.cpio\u000a-i\u6307\u5b9a\u8f93\u5165\u000a-t\u5217\u51fa\u5f52\u6863\u6587\u4ef6\u4e2d\u7684\u5185\u5bb9\u000a</pre></div>\u000a<h3 id="gzip">gzip</h3>\u000a<p>\u538b\u7f29\uff0c\u4f1a\u5220\u9664\u6e90\u6587\u4ef6</p>\u000a<div class="monokai"><pre><span></span>gzip filename\u000a#got filename.gz\u000a</pre></div>\u000a<p>\u89e3\u538b</p>\u000a<div class="monokai"><pre><span></span>gunzip filename.gz\u000a</pre></div>\u000a<p>\u5217\u51fa\u6587\u4ef6\u5c5e\u6027\u4fe1\u606f</p>\u000a<div class="monokai"><pre><span></span>gzip -l text.gz\u000a</pre></div>\u000a<p>stdin\u8bfb\u5165\u6587\u4ef6\u5e76\u5199\u51fa\u5230stdout</p>\u000a<div class="monokai"><pre><span></span>cat file | gzip -c &gt; file.gz\u000a</pre></div>\u000a<p>\u538b\u7f29\u5f52\u6863\u6587\u4ef6</p>\u000a<div class="monokai"><pre><span></span>tar -czvvf archive.tar.gz [files]\u000aor\u000atar -cvvf archive.tar.gz [files]\u000agzip archive.tar\u000a</pre></div>\u000a<p>\u6307\u5b9a\u538b\u7f29\u7387</p>\u000a<div class="monokai"><pre><span></span>1-9,1\u6700\u4f4e\uff0c\u4f46\u901f\u5ea6\u6700\u5feb\u000agzip -9 test.img\u000a</pre></div>\u000a<h3 id="zcat">zcat</h3>\u000a<p>\u65e0\u9700\u89e3\u538b\u7f29\uff0c\u76f4\u63a5\u4ece.gz\u4e2d\u63d0\u53d6\u5185\u5bb9</p>\u000a<div class="monokai"><pre><span></span>zcat test.gz\u000a</pre></div>\u000a<h3 id="bzip">bzip</h3>\u000a<p>\u66f4\u5927\u7684\u538b\u7f29\u7387</p>\u000a<div class="monokai"><pre><span></span>bzip2 filename\u000a</pre></div>\u000a<p>\u89e3\u538b\u7f29</p>\u000a<div class="monokai"><pre><span></span>bunzip2 filename.bz2\u000a</pre></div>\u000a<p>stdin\u5230stdout</p>\u000a<div class="monokai"><pre><span></span>cat file &gt; bzip2 -c &gt; file.tar.bz2\u000a</pre></div>\u000a<p>\u538b\u7f29\u5f52\u6863</p>\u000a<div class="monokai"><pre><span></span>tar -cjvvf archive.tar.bz2 [files]\u000aor\u000atar -cvvf archive.tar [files]\u000abzip2 archive.tar\u000a</pre></div>\u000a<p>\u4fdd\u7559\u8f93\u5165\u6587\u4ef6</p>\u000a<div class="monokai"><pre><span></span>bunzip2 test.bz2 -k\u000a</pre></div>\u000a<p>\u538b\u7f29\u7387</p>\u000a<div class="monokai"><pre><span></span>bzip2 -9 test.img\u000a</pre></div>\u000a<h3 id="lzma">lzma</h3>\u000a<p>\u6bd4gzip/bzip2\u66f4\u597d\u7684\u538b\u7f29\u7387</p>\u000a<p>\u538b\u7f29</p>\u000a<div class="monokai"><pre><span></span>lzma filename\u000a</pre></div>\u000a<p>\u89e3\u538b</p>\u000a<div class="monokai"><pre><span></span>unlzma filename.lzma\u000a</pre></div>\u000a<p>stdin\u5230stdout</p>\u000a<div class="monokai"><pre><span></span>cat file | lzma -c &gt; file.lzma\u000a</pre></div>\u000a<p>\u521b\u5efa\u5f52\u6863</p>\u000a<div class="monokai"><pre><span></span>tar -cavvf archive.tar.lzma [files]\u000a    -xavf\u000a</pre></div>\u000a<p>\u4fdd\u7559\u8f93\u5165\u6587\u4ef6</p>\u000a<div class="monokai"><pre><span></span>lzma test.bz2 -k\u000a</pre></div>\u000a<p>\u538b\u7f29\u7387</p>\u000a<div class="monokai"><pre><span></span>lzma -9 test.img\u000a</pre></div>\u000a<h3 id="zip">zip</h3>\u000a<p>\u538b\u7f29</p>\u000a<div class="monokai"><pre><span></span>zip archive_name.zip [source files/dirs]\u000a</pre></div>\u000a<p>\u5bf9\u76ee\u5f55\u548c\u6587\u4ef6\u8fdb\u884c\u9012\u5f52\u64cd\u4f5c</p>\u000a<div class="monokai"><pre><span></span>zip -r archive.zip folder1 file2\u000a</pre></div>\u000a<h3 id="base64">base64</h3>\u000a<p>\u7f16\u7801</p>\u000a<div class="monokai"><pre><span></span>base64 filename &gt; outfile\u000acat file | base64 &gt; outfile\u000a</pre></div>\u000a<p>\u89e3\u7801</p>\u000a<div class="monokai"><pre><span></span>base64 -d file &gt; outfile\u000a</pre></div>\u000a<h3 id="md5sum_1">md5sum</h3>\u000a<p>&ldquo;md5sum&rdquo;\u5c31\u662f\u8ba1\u7b97\u548c\u68c0\u9a8cMD5\u4fe1\u606f\u7b7e\u540d\u3002<br/>\u000amd5 checksum(\u901a\u5e38\u53eb\u505a\u54c8\u5e0c)\u4f7f\u7528\u5339\u914d\u6216\u8005\u9a8c\u8bc1\u6587\u4ef6\u7684\u6587\u4ef6\u7684\u5b8c\u6574\u6027\uff0c\u56e0\u4e3a\u6587\u4ef6\u53ef\u80fd\u56e0\u4e3a\u4f20\u8f93\u9519\u8bef\uff0c\u78c1\u76d8\u9519\u8bef\u6216\u8005\u65e0\u6076\u610f\u7684\u5e72\u6270\u7b49\u539f\u56e0\u800c\u53d1\u751f\u6539\u53d8\u3002</p>\u000a<p>\u5355\u5411\u6563\u5217</p>\u000a<div class="monokai"><pre><span></span>md5sum file\u000asha1sum file\u000a</pre></div>\u000a<h3 id="rsync">rsync</h3>\u000a<p>\u53ef\u4ee5\u5bf9\u4f4d\u4e8e\u4e0d\u540c\u4f4d\u7f6e\u7684\u6587\u4ef6\u548c\u76ee\u5f55\u8fdb\u884c\u5907\u4efd, \u501f\u52a9\u5dee\u5f02\u8ba1\u7b97\u548c\u538b\u7f29\u6280\u672f\u5b9e\u73b0\u6700\u5c0f\u5316\u6570\u636e\u4f20\u8f93\u91cf</p>\u000a<p>\u8981\u786e\u4fdd\u8fdc\u7aef\u5b89\u88c5\u4e86 openssh</p>\u000a<p>\u4ece\u4e00\u4e2a\u76ee\u5f55\u590d\u5236\u5230\u53e6\u4e00\u4e2a\u76ee\u5f55</p>\u000a<div class="monokai"><pre><span></span>rsync -av source_path dest_path\u000a-a \u8fdb\u884c\u5f52\u6863  -v\u6253\u5370\u7ec6\u8282\u000a\u8def\u5f84\u53ef\u4ee5\u4f7f\u672c\u5730\uff0c\u4e5f\u53ef\u4ee5\u662f\u8fdc\u7aef\u8def\u5f84\u000a\u000ae.g.\u000arsync -av /home/test /home/backups/ #\u590d\u5236\u5230backups\u76ee\u5f55\u4e0b\u000arsync -av /home/test /home/backups  #\u521b\u5efabackups\u76ee\u5f55, \u590d\u5236\u000a</pre></div>\u000a<p>\u5907\u4efd\u5230\u8fdc\u7a0b\u670d\u52a1\u5668</p>\u000a<div class="monokai"><pre><span></span>rsync -av source_path user@host:PATH\u000a\u53ef\u4ee5\u53cd\u5411\u000a</pre></div>\u000a<p>\u6539\u5584\u4f20\u8f93\u901f\u5ea6</p>\u000a<div class="monokai"><pre><span></span>rsync -avz source destination\u000a</pre></div>\u000a<p>\u6392\u9664\u6587\u4ef6</p>\u000a<div class="monokai"><pre><span></span>rsync -avz source dest --exclude "*.txt"\u000a                       --exclude-from FILEPATH\u000aFILEPATH:\u000a*.bak\u000a</pre></div>\u000a<p>\u66f4\u65b0\u5907\u4efd\u65f6\uff0c\u5220\u9664\u4e0d\u5b58\u5728\u7684\u6587\u4ef6</p>\u000a<div class="monokai"><pre><span></span>rsync -avz source dest --delete\u000a</pre></div>\u000a<h3 id="git">git</h3>\u000a<p>\u521d\u59cb\u5316\u76ee\u5f55</p>\u000a<div class="monokai"><pre><span></span>git init\u000a</pre></div>\u000a<p>\u914d\u7f6e\u7528\u6237\u4fe1\u606f</p>\u000a<div class="monokai"><pre><span></span>git config --global user.name "wklken"\u000agit config --global user.email "wklken@yeah.net"\u000a</pre></div>\u000a<p>\u52a0\u5230\u8fdc\u7aef</p>\u000a<div class="monokai"><pre><span></span>git remote add origin user@remotehost:/home/backup/backup.git\u000agit push origin master\u000a</pre></div>\u000a<p>\u6dfb\u52a0</p>\u000a<div class="monokai"><pre><span></span>git add *\u000a</pre></div>\u000a<p>\u5220\u9664</p>\u000a<div class="monokai"><pre><span></span>git rm *.py\u000a</pre></div>\u000a<p>\u6807\u8bb0\u4e00\u4e2a\u68c0\u67e5\u70b9</p>\u000a<div class="monokai"><pre><span></span>git commit -m "Commit message"\u000a</pre></div>\u000a<p>\u67e5\u770b\u65e5\u5fd7</p>\u000a<div class="monokai"><pre><span></span>git log\u000a</pre></div>\u000a<p>\u56de\u6eda\u5230\u67d0\u4e2a\u7248\u672c</p>\u000a<div class="monokai"><pre><span></span>git checkout hashid [ filename ]\u000a</pre></div>\u000a<p>\u514b\u9686</p>\u000a<div class="monokai"><pre><span></span>git clone url\u000a</pre></div>\u000a<h3 id="dd_1">dd</h3>\u000a<p>Dtat Definiton, \u8981\u6ce8\u610f\u53c2\u6570\u987a\u5e8f, \u9519\u8bef\u7684\u53c2\u6570\u4f1a\u635f\u6bc1\u6240\u6709\u6570\u636e</p>\u000a<p>\u53ef\u4ee5\u7528\u6765\u8f6c\u6362\u548c\u590d\u5236\u6587\u4ef6\uff0c\u5927\u591a\u6570\u65f6\u95f4\u662f\u7528\u6765\u590d\u5236iso\u6587\u4ef6(\u6216\u4efb\u4f55\u5176\u5b83\u6587\u4ef6)\u5230\u4e00\u4e2ausb\u8bbe\u5907(\u6216\u4efb\u4f55\u5176\u5b83\u5730\u65b9)\u4e2d\u53bb\uff0c\u6240\u4ee5\u53ef\u4ee5\u7528\u6765\u5236\u4f5cUSB\u542f\u52a8\u5668</p>\u000a<p>\u8bed\u6cd5\u8bf4\u660e</p>\u000a<div class="monokai"><pre><span></span>dd if=SOURCE of=TARGET bs=BLOCK_SIZE count=COUNT\u000aif/of  \u8f93\u5165/\u8f93\u51fa\u6587\u4ef6\u6216\u8bbe\u5907\u8def\u5f84\u000abs\u5757\u5927\u5c0f\u000acount \u9650\u5236\u590d\u5236\u5230\u76ee\u6807\u7684\u5b57\u8282\u6570\u000a\u000add if=/dev/zero of=/dev/sda1\u000a\u000a#\u5236\u4f5ciso \u4ececdrom\u8bbe\u5907\u8bfb\u53d6\u6240\u6709\u6570\u636e, \u521b\u5efaiso\u6587\u4ef6\u000add if=/dev/cdrom of=cdrom.iso\u000a</pre></div>\u000a<p>\u5907\u4efd\u6062\u590d</p>\u000a<div class="monokai"><pre><span></span>dd if=/dev/sda1 of=x.img\u000a\u000add if=x.img of=/dev/sda1\u000a</pre></div>\u000a<h3 id="mount">mount</h3>\u000a<p>mount \u662f\u4e00\u4e2a\u5f88\u91cd\u8981\u7684\u547d\u4ee4\uff0c\u7528\u6765\u6302\u8f7d\u4e0d\u80fd\u81ea\u52a8\u6302\u8f7d\u7684\u6587\u4ef6\u7cfb\u7edf\u3002\u4f60\u9700\u8981root\u6743\u9650\u6302\u8f7d\u8bbe\u5907\u3002<br/>\u000a\u5728\u63d2\u5165\u4f60\u7684\u6587\u4ef6\u7cfb\u7edf\u540e\uff0c</p>\u000a<div class="monokai"><pre><span></span>mount --bind /source /destination\u000a\u000a\u9996\u5148\u8fd0\u884c&rdquo;lsblk&rdquo;\u547d\u4ee4\uff0c\u8bc6\u522b\u51fa\u4f60\u7684\u8bbe\u5907\uff0c\u7136\u540e\u628a\u5206\u914d\u7684\u8bbe\u5907\u540d\u8bb0\u4e0b\u6765\u3002\u000aroot@tecmint:~# lsblk\u000a\u521b\u5efa\u4e00\u4e2a\u4efb\u4f55\u540d\u5b57\u7684\u76ee\u5f55\uff0c\u4f46\u662f\u6700\u597d\u548c\u5f15\u7528\u76f8\u5173\u3002\u000a\u000aroot@tecmint:~# su\u000aPassword:\u000aroot@tecmint:~# cd /dev\u000aroot@tecmint:~# mkdir usb\u000a\u73b0\u5728\u5c06&ldquo;sdb1&rdquo;\u6587\u4ef6\u7cfb\u7edf\u6302\u8f7d\u5230&ldquo;usb&rdquo;\u76ee\u5f55.\u000aroot@tecmint:~# mount /dev/sdb1 /dev/usb\u000a</pre></div>\u000a<p>\u6302\u8f7d\u955c\u50cf</p>\u000a<div class="monokai"><pre><span></span>mount -o loop file.img /mnt/mount_point\u000a</pre></div>\u000a<h2 id="_17">\u7f51\u7edc\u76f8\u5173</h2>\u000a<h3 id="ifconfig">ifconfig</h3>\u000a<p>\u663e\u793a\u7f51\u7edc\u63a5\u53e3\u3001\u5b50\u7f51\u63a9\u7801\u7b49\u8be6\u7ec6\u4fe1\u606f</p>\u000a<div class="monokai"><pre><span></span>ifconfig\u000a/sbin/ifconfig\u000a</pre></div>\u000a<p>\u6253\u5370\u67d0\u4e2a\u7279\u5b9a\u7f51\u7edc\u63a5\u53e3</p>\u000a<div class="monokai"><pre><span></span>ifconfig iface_name\u000a\u000ae.g.\u000aifconfig en1\u000a\u000aHWaddr     MAC\u5730\u5740\u000ainet addr  ip\u5730\u5740\u000aBcast      \u5e7f\u64ad\u5730\u5740\u000aMask       \u5b50\u7f51\u63a9\u7801\u000a</pre></div>\u000a<p>\u8bbe\u7f6e\u7f51\u7edc\u63a5\u53e3ip</p>\u000a<div class="monokai"><pre><span></span>ifconfig wlan0 192.168.0.80\u000a</pre></div>\u000a<p>dns</p>\u000a<div class="monokai"><pre><span></span>cat /etc/resolv.conf\u000a\u000ahost google.com #Dns\u67e5\u627e\u000a\u000anslookup google.com #\u66f4\u8be6\u7ec6\u4fe1\u606f\u000a</pre></div>\u000a<p>\u4fee\u6539dns/host</p>\u000a<div class="monokai"><pre><span></span>echo nameserver IP_ADDRESS &gt;&gt; /etc/resolv.conf\u000a\u000aecho ip domain &gt;&gt; /etc/hosts\u000a</pre></div>\u000a<p>ping</p>\u000a<div class="monokai"><pre><span></span>ping www.baidu.com\u000a</pre></div>\u000a<p>\u8def\u7531\u4fe1\u606f</p>\u000a<div class="monokai"><pre><span></span>\u663e\u793a\u8def\u7531\u8868\u000aroute\u000a\u000a\u4ee5\u6570\u5b57\u5f62\u5f0f\u663e\u793a\u5730\u5740\u000aroute -n\u000a</pre></div>\u000a<p>\u8bbe\u7f6e\u9ed8\u8ba4\u7f51\u5173</p>\u000a<div class="monokai"><pre><span></span>route add default gw 192.168.0.1 wlan0\u000a</pre></div>\u000a<p>trace_route, \u663e\u793a\u5206\u7ec4\u9014\u5f84\u7684\u6240\u6709\u7f51\u5173\u7684\u5730\u5740</p>\u000a<div class="monokai"><pre><span></span>traceroute google.com\u000a</pre></div>\u000a<h3 id="ping">ping</h3>\u000a<p>\u57fa\u672c</p>\u000a<div class="monokai"><pre><span></span>ping ADDRESS  #\u4e3b\u673a\u540d\uff0c\u57df\u540d\u6216ip\u000a</pre></div>\u000a<p>PING\u547d\u4ee4\u53ef\u4ee5\u5f97\u5230RTT(Round Trip Time), \u5206\u7ec4\u4ece\u6e90\u5230\u76ee\u7684\u4e3b\u673a\u7684\u5f80\u8fd4\u65f6\u95f4, \u5355\u4f4dms</p>\u000a<p>\u9650\u5236\u53d1\u9001\u5206\u7ec4\u6570</p>\u000a<div class="monokai"><pre><span></span>ping ADDRESS -c COUNT\u000a\u000aping\u000a</pre></div>\u000a<h3 id="fping">fping</h3>\u000a<p>\u540c\u65f6ping\u4e00\u7ec4ip, \u800c\u4e14\u54cd\u5e94\u975e\u5e38\u5feb</p>\u000a<div class="monokai"><pre><span></span>fping -a ip1 ip2 -g\u000afping -a 192.160.1/24 -g\u000afping -a &lt; ip.list\u000a\u000a-a, \u6240\u6709\u6d3b\u52a8\u4e3b\u673a\u7684ip\u000a-g, \u4eceIP/mask\u751f\u6210\u7684ip\u5730\u5740\u8303\u56f4\u000a</pre></div>\u000a<p>\u8fdb\u884cdns\u67e5\u8be2</p>\u000a<div class="monokai"><pre><span></span>fping -a -d 2 &gt; /dev/null  &lt; ip.list\u000a</pre></div>\u000a<h3 id="lftp">lftp</h3>\u000a<p>\u57fa\u672c\u7528\u6cd5</p>\u000a<div class="monokai"><pre><span></span>lftp username@ftphost\u000acd dir\u000alcd\u6539\u53d8\u672c\u5730\u4e3b\u673a\u76ee\u5f55\u000amkdir \u521b\u5efa\u76ee\u5f55\u000aget/put \u4e0b\u8f7d\u4e0a\u4f20\u000aquit\u9000\u51fa\u000a</pre></div>\u000a<h3 id="scp">scp</h3>\u000a<p>scp\u662f secure copy\u7684\u7f29\u5199, scp\u662flinux\u7cfb\u7edf\u4e0b\u57fa\u4e8essh\u767b\u9646\u8fdb\u884c\u5b89\u5168\u7684\u8fdc\u7a0b\u6587\u4ef6\u62f7\u8d1d\u547d\u4ee4\u3002</p>\u000a<p>linux\u7684scp\u547d\u4ee4\u53ef\u4ee5\u5728linux\u670d\u52a1\u5668\u4e4b\u95f4\u590d\u5236\u6587\u4ef6\u548c\u76ee\u5f55.</p>\u000a<p>\u62f7\u8d1d\u6587\u4ef6</p>\u000a<div class="monokai"><pre><span></span>scp filename user@remotehost:/home/pat\u000aip\u6216\u4e3b\u673a\u540d\u5747\u53ef\u000a\u000ascp SOURCE DESTINATION\u000a</pre></div>\u000a<p>\u9012\u5f52\u590d\u5236</p>\u000a<div class="monokai"><pre><span></span>scp -r dir1 user@remotehost:/home/backup\u000a</pre></div>\u000a<p>\u63d0\u9ad8\u62f7\u8d1d\u901f\u5ea6</p>\u000a<div class="monokai"><pre><span></span>scp  -c arcfour -r -P20755 dir/ 192.168.2.*:/**/**/data/\u000a-c arcfour \u8fd9\u4e2a\u7b97\u6cd5\u6ca1\u6709\u52a0\u6821\u9a8c\u4e0d\u4fdd\u8bc1\u5b8c\u6574\u6027\uff0c\u6ce8\u610f\u614e\u7528\uff0c\u5185\u7f511000M\u5e26\u5bbd\uff0c\u9ed8\u8ba4\u7b97\u6cd5\u901f\u5ea6\u53ea\u80fd\u8fbe\u523030M/s\uff0c\u7528arcfour\u8fd9\u4e2a\u7b97\u6cd5\u901f\u5ea6\u53ef\u4ee5\u8fbe\u523050-80M/s\u000a</pre></div>\u000a<h3 id="ssh">SSH</h3>\u000a<p>\u8fde\u63a5\u8fdc\u7a0b</p>\u000a<div class="monokai"><pre><span></span>ssh username@remote_host\u000a\u000assh -p port username@remote_host\u000a</pre></div>\u000a<p>\u6267\u884c\u547d\u4ee4</p>\u000a<div class="monokai"><pre><span></span>ssh username@remote_host 'cmd1; cmd2' &gt; stdout.txt 2&gt;errors.txt\u000a</pre></div>\u000a<p>\u538b\u7f29\u529f\u80fd</p>\u000a<div class="monokai"><pre><span></span>ssh -C user@hostname 'cmds'\u000a</pre></div>\u000a<p>\u6253\u901assh</p>\u000a<div class="monokai"><pre><span></span>1.\u521b\u5efaSSH\u5bc6\u94a5\u000a  ssh-keygen -t rsa\u000a  \u516c\u94a5, ~/.ssh/id_rsa.pub\u000a2.\u767b\u9646\u8fdc\u7aef\u670d\u52a1\u5668, \u5c06\u516c\u94a5\u5199\u5165 ~/.ssh/authorized_keys\u000a</pre></div>\u000a<h3 id="lsof">lsof</h3>\u000a<p>\u5217\u51fa\u7cfb\u7edf\u4e2d\u5f00\u653e\u7aef\u53e3\u53ca\u8fd0\u884c\u5728\u7aef\u53e3\u4e0a\u7684\u670d\u52a1</p>\u000a<div class="monokai"><pre><span></span>lsof -i\u000a</pre></div>\u000a<p>\u914d\u5408grep, \u83b7\u53d6\u9700\u8981\u7684\u4fe1\u606f</p>\u000a<h3 id="netstat">netstat</h3>\u000a<p>\u67e5\u770b\u5f00\u653e\u7aef\u53e3\u548c\u670d\u52a1</p>\u000a<div class="monokai"><pre><span></span>netstat -tnp\u000a</pre></div>\u000a<h2 id="_19">\u78c1\u76d8\u548c\u7cfb\u7edf</h2>\u000a<h3 id="du">du</h3>\u000a<p>du = disk usage</p>\u000a<p>\u4f30\u8ba1\u6587\u4ef6\u7684\u7a7a\u95f4\u5360\u7528\u3002 \u9010\u5c42\u7edf\u8ba1\u6587\u4ef6\uff08\u4f8b\u5982\u4ee5\u9012\u5f52\u65b9\u5f0f\uff09\u5e76\u8f93\u51fa\u6458\u8981\u3002</p>\u000a<p>\u67e5\u770b\u5360\u7528\u78c1\u76d8\u7a7a\u95f4</p>\u000a<div class="monokai"><pre><span></span>du FILENAME1 FILENAME2\u000a</pre></div>\u000a<p>\u67e5\u770b\u76ee\u5f55</p>\u000a<div class="monokai"><pre><span></span>du -a dir\u000a</pre></div>\u000a<p>\u4ee5KB,MB\u6216\u5757\u4e3a\u5355\u4f4d\u5c55\u793a</p>\u000a<div class="monokai"><pre><span></span>du -h FILENAME1\u000a</pre></div>\u000a<p>\u663e\u793a\u603b\u8ba1\u60c5\u51b5</p>\u000a<div class="monokai"><pre><span></span>du -c FILENAME1\u000a</pre></div>\u000a<p>\u53ea\u663e\u793a\u5408\u8ba1</p>\u000a<div class="monokai"><pre><span></span>du -s FILENAME1\u000a</pre></div>\u000a<p>\u4ee5\u7279\u5b9a\u5355\u4f4d\u6253\u5370</p>\u000a<div class="monokai"><pre><span></span>du -b/-k/-m/-B FILES\u000a</pre></div>\u000a<p>\u6392\u9664\u90e8\u5206\u6587\u4ef6</p>\u000a<div class="monokai"><pre><span></span>du --exclude "*.txt" DIR\u000a   --exclude-from EXCLUDE.txt DIR\u000a</pre></div>\u000a<p>\u6307\u5b9a\u6700\u6df1\u5c42\u7ea7</p>\u000a<div class="monokai"><pre><span></span>du --max-depth 2 DIR\u000a</pre></div>\u000a<p>\u6307\u5b9a\u76ee\u5f55\u6700\u5927\u768410\u4e2a\u6587\u4ef6</p>\u000a<div class="monokai"><pre><span></span>du -ak S_DIR | sort -nrk 1 | head\u000a</pre></div>\u000a<h3 id="df">df</h3>\u000a<p>df = disk free</p>\u000a<p>\u62a5\u544a\u7cfb\u7edf\u7684\u78c1\u76d8\u4f7f\u7528\u60c5\u51b5\u3002\u5728\u8ddf\u8e2a\u78c1\u76d8\u4f7f\u7528\u60c5\u51b5\u65b9\u9762\u5bf9\u4e8e\u666e\u901a\u7528\u6237\u548c\u7cfb\u7edf\u7ba1\u7406\u5458\u90fd\u5f88\u6709\u7528\u3002 &lsquo;df&lsquo; \u901a\u8fc7\u68c0\u67e5\u76ee\u5f55\u5927\u5c0f\u5de5\u4f5c\uff0c\u4f46\u8fd9\u4e00\u6570\u503c\u4ec5\u5f53\u6587\u4ef6\u5173\u95ed\u65f6\u624d\u5f97\u5230\u66f4\u65b0\u3002</p>\u000a<p>\u67e5\u770b\u78c1\u76d8\u53ef\u7528\u7a7a\u95f4</p>\u000a<div class="monokai"><pre><span></span>df\u000adf -h\u000a</pre></div>\u000a<h3 id="time">time</h3>\u000a<p>\u8ba1\u7b97\u547d\u4ee4\u6267\u884c\u65f6\u95f4</p>\u000a<div class="monokai"><pre><span></span>time COMMAND\u000a\u000areal \u6302\u949f\u65f6\u95f4, \u4ece\u5f00\u59cb\u6267\u884c\u5230\u7ed3\u675f\u7684\u65f6\u95f4\u000auser \u8fdb\u7a0b\u82b1\u8d39\u5728\u7528\u6237\u6a21\u5f0f\u4e2d\u7684cpu\u65f6\u95f4, \u771f\u6b63\u7528\u4e8e\u6267\u884c\u8fdb\u7a0b\u6240\u82b1\u5f97\u65f6\u95f4\u000asys  \u8fdb\u7a0b\u82b1\u8d39\u5728\u5185\u6838\u6a21\u5f0f\u4e2d\u7684cpu\u65f6\u95f4\u000a</pre></div>\u000a<p>\u5199\u5165\u6587\u4ef6</p>\u000a<div class="monokai"><pre><span></span>time -o output.txt COMMAND\u000atime -a output.txt COMMAND #\u8ffd\u52a0\u000a</pre></div>\u000a<p>\u683c\u5f0f\u5316\u8f93\u51fa</p>\u000a<div class="monokai"><pre><span></span>time -f "Time: %U"  -a -o timing.log uname\u000areal %e\u000auser %U\u000asys %S\u000a</pre></div>\u000a<h3 id="who">who</h3>\u000a<p>\u83b7\u53d6\u5f53\u524d\u7528\u6237\u767b\u9646\u4fe1\u606f</p>\u000a<div class="monokai"><pre><span></span>who / w\u000a</pre></div>\u000a<p>\u5f53\u524d\u767b\u9646\u4e3b\u673a\u7684\u7528\u6237\u5217\u8868</p>\u000a<div class="monokai"><pre><span></span>users\u000a</pre></div>\u000a<h3 id="uptime">uptime</h3>\u000a<p>\u67e5\u770b\u7cfb\u7edf\u5df2\u7ecf\u901a\u7535\u8fd0\u884c\u591a\u957f\u65f6\u95f4\u4e86</p>\u000a<div class="monokai"><pre><span></span>uptime\u000a#\u4e5f\u53ef\u4ee5\u770b\u5230\u8d1f\u8f7d\u000a</pre></div>\u000a<h3 id="last">last</h3>\u000a<p>\u663e\u793a\u4e0a\u6b21\u7528\u6237\u767b\u5f55\u4fe1\u606f- \u524d\u4e00\u6b21\u542f\u52a8\u4f1a\u8bdd\u4fe1\u606f</p>\u000a<div class="monokai"><pre><span></span>last\u000a</pre></div>\u000a<p>\u83b7\u53d6\u5355\u4e2a\u7528\u6237</p>\u000a<div class="monokai"><pre><span></span>last USER\u000a</pre></div>\u000a<h3 id="watch">watch</h3>\u000a<p>\u5728\u7ec8\u7aef\u4e2d\u4ee5\u56fa\u5b9a\u95f4\u9694\u76d1\u89c6\u547d\u4ee4\u8f93\u51fa</p>\u000a<div class="monokai"><pre><span></span>#default 2s\u000awatch ls\u000a\u000a# 5s\u000awatch -n 5 ls\u000a</pre></div>\u000a<p>\u989c\u8272\u6807\u793a</p>\u000a<div class="monokai"><pre><span></span>watch -d 'COMMAND'\u000a</pre></div>\u000a<h2 id="_21">\u8fdb\u7a0b\u548c\u7ebf\u7a0b</h2>\u000a<h3 id="ps">ps</h3>\u000a<p>ps\u547d\u4ee4\u7ed9\u51fa\u6b63\u5728\u8fd0\u884c\u7684\u67d0\u4e2a\u8fdb\u7a0b\u7684\u72b6\u6001\uff0c\u6bcf\u4e2a\u8fdb\u7a0b\u6709\u7279\u5b9a\u7684id\u6210\u4e3aPID\u3002</p>\u000a<p>ps\u547d\u4ee4\u4e3b\u8981\u67e5\u770b\u7cfb\u7edf\u4e2d\u8fdb\u7a0b\u7684\u72b6\u6001</p>\u000a<div class="monokai"><pre><span></span>USER              PID  %CPU %MEM      VSZ    RSS   TT  STAT STARTED      TIME COMMAND\u000aUSER\u8868\u793a\u542f\u52a8\u8fdb\u7a0b\u7528\u6237\u000aPID\u8868\u793a\u8fdb\u7a0b\u6807\u5fd7\u53f7\u000a\u000a%CPU\u8868\u793a\u8fd0\u884c\u8be5\u8fdb\u7a0b\u5360\u7528CPU\u7684\u65f6\u95f4\u4e0e\u8be5\u8fdb\u7a0b\u603b\u7684\u8fd0\u884c\u65f6\u95f4\u7684\u6bd4\u4f8b\u000a%MEM\u8868\u793a\u8be5\u8fdb\u7a0b\u5360\u7528\u5185\u5b58\u548c\u603b\u5185\u5b58\u7684\u6bd4\u4f8b\u3002\u000a\u000aVSZ\u8868\u793a\u5360\u7528\u7684\u865a\u62df\u5185\u5b58\u5927\u5c0f\uff0c\u4ee5KB\u4e3a\u5355\u4f4d\u3002\u000aRSS\u4e3a\u8fdb\u7a0b\u5360\u7528\u7684\u7269\u7406\u5185\u5b58\u503c\uff0c\u4ee5KB\u4e3a\u5355\u4f4d\u3002\u000a\u000aTTY\u8868\u793a\u8be5\u8fdb\u7a0b\u5efa\u7acb\u65f6\u6240\u5bf9\u5e94\u7684\u7ec8\u7aef\uff0c"?"\u8868\u793a\u8be5\u8fdb\u7a0b\u4e0d\u5360\u7528\u7ec8\u7aef\u3002\u000aSTAT\u8868\u793a\u8fdb\u7a0b\u7684\u8fd0\u884c\u72b6\u6001\uff0c\u5305\u62ec\u4ee5\u4e0b\u51e0\u79cd\u4ee3\u7801\uff1a\u000a    D\uff0c\u4e0d\u53ef\u4e2d\u65ad\u7684\u7761\u7720\uff1b\u000a    R\uff0c\u5c31\u7eea\uff08\u5728\u53ef\u8fd0\u884c\u961f\u5217\u4e2d\uff09\uff1b\u000a    S\uff0c\u7761\u7720\uff1b\u000a    T\uff0c\u88ab\u8ddf\u8e2a\u6216\u505c\u6b62\uff1b\u000a    Z\uff0c\u7ec8\u6b62\uff08\u50f5\u6b7b\uff09\u7684\u8fdb\u7a0b\uff0cZ\u4e0d\u5b58\u5728\uff0c\u4f46\u6682\u65f6\u65e0\u6cd5\u6d88\u9664\uff1b\u000a    W\uff0c\u6ca1\u6709\u8db3\u591f\u7684\u5185\u5b58\u5206\u9875\u53ef\u5206\u914d\uff1b&lt;\u9ad8\u4f18\u5148\u5e8f\u7684\u8fdb\u7a0b\uff1b\u000a    N\uff0c\u4f4e\u4f18\u5148\u5e8f\u7684\u8fdb\u7a0b\uff1b\u000a    L\uff0c\u6709\u5185\u5b58\u5206\u9875\u5206\u914d\u5e76\u9501\u5728\u5185\u5b58\u4f53\u5185\uff08\u5b9e\u65f6\u7cfb\u7edf\u6216I/O\uff09\u3002\u000a\u000aSTART\u4e3a\u8fdb\u7a0b\u5f00\u59cb\u65f6\u95f4\u3002\u000aTIME\u4e3a\u6267\u884c\u7684\u65f6\u95f4\u3002\u000aCOMMAND\u662f\u5bf9\u5e94\u7684\u547d\u4ee4\u540d\u3002\u000a</pre></div>\u000a<p>\u67e5\u770b\u8fdb\u7a0b\u4fe1\u606f</p>\u000a<div class="monokai"><pre><span></span>#\u5f53\u524d\u7ec8\u7aef\u000aps\u000a\u000aPID TTY TIME CMD\u000aPID  \u8fdb\u7a0bID\u000aTTY  \u7ec8\u7aef\u000aTIME \u8fdb\u7a0b\u542f\u52a8\u540e\u8fc7\u53bb\u7684\u65f6\u95f4\u000aCMD  \u8fdb\u7a0b\u5bf9\u5e94\u7684\u547d\u4ee4\u000a</pre></div>\u000a<p>\u663e\u793a\u66f4\u591a\u4fe1\u606f</p>\u000a<div class="monokai"><pre><span></span>#\u5f53\u524d\u7ec8\u7aef\u000aps -f\u000a</pre></div>\u000a<p>\u67e5\u770b\u6240\u6709\u8fdb\u7a0b</p>\u000a<div class="monokai"><pre><span></span>ps aux\u000aps -ef\u000a</pre></div>\u000a<p>\u67e5\u770b\u67d0\u4e2a\u7528\u6237\u7684\u6240\u6709\u8fdb\u7a0b</p>\u000a<div class="monokai"><pre><span></span>ps U ken\u000a</pre></div>\u000a<p>\u547d\u4ee4\u683c\u5f0f</p>\u000a<div class="monokai"><pre><span></span><span class="n">ps</span> <span class="p">[</span><span class="n">OTHER</span> <span class="n">OPTIONS</span><span class="p">]</span> <span class="o">-</span><span class="n">o</span> <span class="n">par1</span><span class="p">,</span><span class="n">par2</span><span class="p">,</span><span class="n">par3</span>\u000a<span class="n">ps</span> <span class="o">-</span><span class="n">eo</span> <span class="n">comm</span><span class="p">,</span><span class="n">pcpu</span> <span class="o">|</span> <span class="n">head</span>\u000a<span class="n">pmem</span> <span class="err">\u5185\u5b58\u4f7f\u7528\u7387\uff0c</span><span class="n">comm\u53ef\u6267\u884c\u6587\u4ef6\u540d</span><span class="p">,</span><span class="n">user\u542f\u52a8\u8fdb\u7a0b\u7684\u7528\u6237</span><span class="p">,</span><span class="n">etime\u542f\u52a8\u540e\u5ea6\u8fc7\u7684\u65f6\u95f4</span>\u000a</pre></div>\u000a<p>\u8bbe\u7f6e\u5347\u5e8f\u964d\u5e8f</p>\u000a<div class="monokai"><pre><span></span>ps -eo comm,pcpu --sort -pcpu | head\u000a+\u5347\u5e8f\uff0c-\u964d\u5e8f\u000a</pre></div>\u000a<p>\u627e\u51fa\u7ed9\u5b9a\u547d\u4ee4\u540d\u5bf9\u5e94\u8fdb\u7a0bID</p>\u000a<div class="monokai"><pre><span></span>ps -C COMMAND_NAME\u000aps -C bash -o pid=\u000a</pre></div>\u000a<p>\u8fdb\u7a0b\u7ebf\u7a0b\u76f8\u5173</p>\u000a<div class="monokai"><pre><span></span>ps -eLf --sort -nlwp | head\u000a</pre></div>\u000a<p>\u67e5\u770b\u5b50\u8fdb\u7a0b\u6811</p>\u000a<div class="monokai"><pre><span></span>ps axwef\u000a</pre></div>\u000a<p>\u6ce8\u610f\uff1a\u5f53\u4f60\u8981\u77e5\u9053\u6709\u54ea\u4e9b\u8fdb\u7a0b\u5728\u8fd0\u884c\u6216\u8005\u9700\u8981\u77e5\u9053\u60f3\u6740\u6b7b\u7684\u8fdb\u7a0bPID\u65f6ps\u547d\u4ee4\u5f88\u7ba1\u7528\u3002\u4f60\u53ef\u4ee5\u628a\u5b83\u4e0e&lsquo;grep&lsquo;\u5408\u7528\u6765\u67e5\u8be2\u6307\u5b9a\u7684\u8f93\u51fa\u7ed3\u679c\uff0c\u4f8b\u5982\uff1a</p>\u000a<div class="monokai"><pre><span></span># ps -A | grep -i ssh\u000a</pre></div>\u000a<h3 id="pgrep_1">pgrep</h3>\u000a<p>pgrep\u53ea\u9700\u8981\u547d\u4ee4\u540d\u7684\u4e00\u90e8\u5206, ps\u9700\u8981\u51c6\u786e\u7684\u5168\u540d</p>\u000a<p>\u57fa\u672c\u7528\u6cd5</p>\u000a<div class="monokai"><pre><span></span>pgrep bash\u000a</pre></div>\u000a<p>\u6307\u5b9a\u8fdb\u7a0b\u7684\u7528\u6237</p>\u000a<div class="monokai"><pre><span></span>pgrep -u root,slynux COMMAND\u000a</pre></div>\u000a<p>\u8fd4\u56de\u5339\u914d\u8fdb\u7a0b\u6570</p>\u000a<div class="monokai"><pre><span></span>pgrep -c COMANND\u000a</pre></div>\u000a<h3 id="top">top</h3>\u000a<p>\u67e5\u770b\u5360\u7528cpu\u6700\u591a\u7684\u8fdb\u7a0b\u5217\u8868</p>\u000a<div class="monokai"><pre><span></span>top\u000a</pre></div>\u000a<h3 id="kill">kill</h3>\u000a<p>kill\u662f\u7528\u6765\u6740\u6b7b\u5df2\u7ecf\u65e0\u5173\u7d27\u8981\u6216\u8005\u6ca1\u6709\u54cd\u5e94\u7684\u8fdb\u7a0b,\u6740\u6b7b\u4e00\u4e2a\u8fdb\u7a0b\u9700\u8981\u77e5\u9053\u8fdb\u7a0b\u7684PID</p>\u000a<p>\u5217\u51fa\u53ef\u7528\u4fe1\u53f7</p>\u000a<div class="monokai"><pre><span></span>kill -l\u000a</pre></div>\u000a<p>\u7ec8\u6b62\u4e00\u4e2a\u8fdb\u7a0b</p>\u000a<div class="monokai"><pre><span></span>kill PROCESS_ID_LIST\u000a</pre></div>\u000a<p>\u5f3a\u6740\u8fdb\u7a0b</p>\u000a<div class="monokai"><pre><span></span>kill -9 PROCESS_ID\u000a</pre></div>\u000a<p>\u6740\u6b7b\u4e00\u7ec4\u547d\u4ee4</p>\u000a<div class="monokai"><pre><span></span>killall process_name\u000akillall -9 process_name\u000a\u000a\u6307\u5b9a\u7528\u6237\u000akillall -u USERNAME process_name\u000a</pre></div>\u000a<h3 id="pkill">pkill</h3>\u000a<p>\u6740\uff0c\u63a5\u53d7\u8fdb\u7a0b\u540d</p>\u000a<div class="monokai"><pre><span></span>pkill process_name\u000apkill -s SIGNAL process_name\u000a</pre></div>\u000a<h3 id="which">which</h3>\u000a<p>\u67e5\u627ePATH\u4e0b\u67d0\u4e2a\u547d\u4ee4\u4f4d\u7f6e</p>\u000a<div class="monokai"><pre><span></span>which ls\u000a</pre></div>\u000a<h3 id="whereis">whereis</h3>\u000a<p>whereis\u7684\u4f5c\u7528\u662f\u7528\u6765\u5b9a\u4f4d\u547d\u4ee4\u7684\u4e8c\u8fdb\u5236\u6587\u4ef6\u005c\u8d44\u6e90\u005c\u6216\u8005\u5e2e\u52a9\u9875.\u4e3e\u4f8b\u6765\u8bf4,\u83b7\u5f97ls\u548ckill\u547d\u4ee4\u7684\u4e8c\u8fdb\u5236\u6587\u4ef6/\u8d44\u6e90\u4ee5\u53ca\u5e2e\u52a9\u9875:</p>\u000a<div class="monokai"><pre><span></span>whereis ls\u000awhereis kill\u000a</pre></div>\u000a<p>\u7c7b\u4f3cwhich\uff0c\u591a\u4e86\u547d\u4ee4\u624b\u518c\u4f4d\u7f6e\uff0c\u6e90\u4ee3\u7801\u4f4d\u7f6e</p>\u000a<p>\u6ce8\u610f:\u5f53\u9700\u8981\u77e5\u9053\u4e8c\u8fdb\u5236\u6587\u4ef6\u4fdd\u5b58\u4f4d\u7f6e\u65f6\u6709\u7528.</p>\u000a<h3 id="file_1">file</h3>\u000a<p>\u786e\u5b9a\u6587\u4ef6\u7c7b\u578b</p>\u000a<h3 id="whatis">whatis</h3>\u000a<p>\u5bf9\u547d\u4ee4\u7684\u7b80\u77ed\u63cf\u8ff0</p>\u000a<h3 id="hostname">hostname</h3>\u000a<p>\u5f53\u524d\u4e3b\u673a\u540d</p>\u000a<h3 id="uname">uname</h3>\u000a<div class="monokai"><pre><span></span>\u4e3b\u673a\u540d\u000auname -n\u000a\u000a#\u5185\u6838\u7248\u672c\uff0c\u786c\u4ef6\u67b6\u6784\u7b49\u000auname -a\u000a\u000a#\u5185\u6838\u53d1\u884c\u7248\u672c\u000auname -r\u000a\u000a\u4e3b\u673a\u7c7b\u578b(32\u4f4d/64\u4f4d)\u000auname -m\u000a\u000acpu\u76f8\u5173\u4fe1\u606f\u000acat /proc/cpuinfo\u000a\u000a\u5185\u5b58\u4fe1\u606f\u000acat /proc/meminfo\u000a</pre></div>\u000a<p>\u4f8b\u5b50</p>\u000a<div class="monokai"><pre><span></span>#uname -a\u000aLinux tecmint 3.8.0-19-generic #30-Ubuntu SMP Wed May 1 16:36:13 UTC 2013 i686 i686 i686 GNU/Linux\u000a\u000a1. &ldquo;Linux&ldquo;: \u673a\u5668\u7684\u5185\u6838\u540d\u000a2. &ldquo;tecmint&ldquo;: \u673a\u5668\u7684\u5206\u652f\u540d\u000a3. &ldquo;3.8.0-19-generic&ldquo;: \u5185\u6838\u53d1\u5e03\u7248\u672c\u000a4. &ldquo;#30-Ubuntu SMP&ldquo;: \u5185\u6838\u7248\u672c\u000a5. &ldquo;i686&ldquo;: \u5904\u7406\u5668\u67b6\u6784\u000a6. &ldquo;GNU/Linux&ldquo;: \u64cd\u4f5c\u7cfb\u7edf\u540d\u000a</pre></div>\u000a<h3 id="crontab">crontab</h3>\u000a<p>\u683c\u5f0f</p>\u000a<div class="monokai"><pre><span></span>* * * * * cmd\u000a\u5206\u949f(0-59)\uff0c\u5c0f\u65f6(0-23)\uff0c\u5929(1-31)\uff0c\u6708\u4efd(1-12)\uff0c\u5de5\u4f5c\u65e5(0-6)\u000a\u000aA,B  A and B\u000a*/C  every C\u000a</pre></div>\u000a<p>\u67e5\u770b</p>\u000a<div class="monokai"><pre><span></span>crontab -l\u000acrontab -l -u slynux\u000a</pre></div>\u000a<p>\u7f16\u8f91</p>\u000a<div class="monokai"><pre><span></span>crontab -e\u000a</pre></div>\u000a<p>\u79fb\u9664</p>\u000a<div class="monokai"><pre><span></span>crontab -r\u000acrontab -u slynux -r\u000a</pre></div>\u000a<p>\u53ef\u4ee5\u5728crontab \u4e2d\u52a0\u5165\u73af\u5883\u53d8\u91cf</p>\u000a<h3 id="getopts">getopts</h3>\u000a<p>\u547d\u4ee4\u884c\u53c2\u6570\u5904\u7406</p>\u000a<div class="monokai"><pre><span></span><span class="x">while getopts :f:vql opt</span>\u000a<span class="x">do</span>\u000a<span class="x">    case </span><span class="p">$</span><span class="nv">opt</span><span class="x"> in</span>\u000a<span class="x">    f)  file=</span><span class="p">$</span><span class="nv">OPTARG</span><span class="x"></span>\u000a<span class="x">        ;;</span>\u000a<span class="x">    v)  verbose=true</span>\u000a<span class="x">        ;;</span>\u000a<span class="x">    ....</span>\u000a</pre></div>\u000a<h3 id="history">history</h3>\u000a<p>&ldquo;history&rdquo;\u547d\u4ee4\u5c31\u662f\u5386\u53f2\u8bb0\u5f55\u3002\u5b83\u663e\u793a\u4e86\u5728\u7ec8\u7aef\u4e2d\u6240\u6267\u884c\u8fc7\u7684\u6240\u6709\u547d\u4ee4\u7684\u5386\u53f2</p>\u000a<div class="monokai"><pre><span></span>history\u000a</pre></div>\u000a<p>\u6ce8\u610f\uff1a\u6309\u4f4f&ldquo;CTRL + R&rdquo;\u5c31\u53ef\u4ee5\u641c\u7d22\u5df2\u7ecf\u6267\u884c\u8fc7\u7684\u547d\u4ee4\uff0c\u5b83\u53ef\u4ee5\u4f60\u5199\u547d\u4ee4\u65f6\u81ea\u52a8\u8865\u5168</p>\u000a<h3 id="sudo">sudo</h3>\u000a<p>&ldquo;sudo&rdquo;(super user do)\u547d\u4ee4\u5141\u8bb8\u6388\u6743\u7528\u6237\u6267\u884c\u8d85\u7ea7\u7528\u6237\u6216\u8005\u5176\u5b83\u7528\u6237\u7684\u547d\u4ee4\u3002\u901a\u8fc7\u5728sudoers\u5217\u8868\u7684\u5b89\u5168\u7b56\u7565\u6765\u6307\u5b9a\u3002</p>\u000a<p>\u6ce8\u610f\uff1asudo \u5141\u8bb8\u7528\u6237\u501f\u7528\u8d85\u7ea7\u7528\u6237\u7684\u6743\u9650\uff0c\u7136\u800c&rdquo;su&rdquo;\u547d\u4ee4\u5b9e\u9645\u4e0a\u662f\u5141\u8bb8\u7528\u6237\u4ee5\u8d85\u7ea7\u7528\u6237\u767b\u5f55\u3002\u6240\u4ee5sudo\u6bd4su\u66f4\u5b89\u5168\u3002<br/>\u000a\u5e76\u4e0d\u5efa\u8bae\u4f7f\u7528sudo\u6216\u8005su\u6765\u5904\u7406\u65e5\u5e38\u7528\u9014\uff0c\u56e0\u4e3a\u5b83\u53ef\u80fd\u5bfc\u81f4\u4e25\u91cd\u7684\u9519\u8bef\u5982\u679c\u4f60\u610f\u5916\u7684\u505a\u9519\u4e86\u4e8b\uff0c\u8fd9\u5c31\u662f\u4e3a\u4ec0\u4e48\u5728linux\u793e\u533a\u6d41\u884c\u4e00\u53e5\u8bdd\uff1a</p>\u000a<p>&ldquo;To err is human, but to really foul up everything, you need root password.&rdquo;<br/>\u000a&ldquo;\u4eba\u975e\u5723\u8d24\u5b70\u80fd\u65e0\u8fc7\uff0c\u4f46\u662f\u62e5\u6709root\u5bc6\u7801\u5c31\u771f\u7684\u4e07\u52ab\u4e0d\u590d\u4e86\u3002&rdquo;</p>\u000a<h3 id="cal">cal</h3>\u000a<p>&ldquo;cal&rdquo;\uff08Calender\uff09\uff0c\u5b83\u7528\u6765\u663e\u793a\u5f53\u524d\u6708\u4efd\u6216\u8005\u672a\u6765\u6216\u8005\u8fc7\u53bb\u4efb\u4f55\u5e74\u4efd\u4e2d\u7684\u6708\u4efd</p>\u000a<div class="monokai"><pre><span></span>cal\u000acal 02 1835\u000a</pre></div>\u000a<h3 id="cp">cp</h3>\u000a<p>&ldquo;copy&rdquo;\u5c31\u662f\u590d\u5236\u3002\u5b83\u4f1a\u4ece\u4e00\u4e2a\u5730\u65b9\u590d\u5236\u4e00\u4e2a\u6587\u4ef6\u5230\u53e6\u5916\u4e00\u4e2a\u5730\u65b9</p>\u000a<div class="monokai"><pre><span></span>cp file1 file2\u000acp -r dir1 dir2\u000a</pre></div>\u000a<p>\u5feb\u901f\u5907\u4efd\u4e00\u4e2a\u6587\u4ef6\uff1a</p>\u000a<div class="monokai"><pre><span></span>cp some_file_name{,.bkp}\u000a</pre></div>\u000a<p>\u6ce8\u610f\uff1a cp\uff0c\u5728shell\u811a\u672c\u4e2d\u662f\u6700\u5e38\u7528\u7684\u4e00\u4e2a\u547d\u4ee4\uff0c\u800c\u4e14\u5b83\u53ef\u4ee5\u4f7f\u7528\u901a\u914d\u7b26\uff08\u5728\u524d\u9762\u4e00\u5757\u4e2d\u6709\u6240\u63cf\u8ff0\uff09\uff0c\u6765\u5b9a\u5236\u6240\u9700\u7684\u6587\u4ef6\u7684\u590d\u5236\u3002</p>\u000a<h3 id="mv">mv</h3>\u000a<p>&ldquo;mv&rdquo;\u547d\u4ee4\u5c06\u4e00\u4e2a\u5730\u65b9\u7684\u6587\u4ef6\u79fb\u52a8\u5230\u53e6\u5916\u4e00\u4e2a\u5730\u65b9\u53bb\u3002</p>\u000a<p>&ldquo;mv&rdquo;\u547d\u4ee4\u5c06\u4e00\u4e2a\u5730\u65b9\u7684\u6587\u4ef6\u79fb\u52a8\u5230\u53e6\u5916\u4e00\u4e2a\u5730\u65b9\u53bb\u3002</p>\u000a<h3 id="pwd">pwd</h3>\u000a<p>&ldquo;pwd&rdquo;\uff08print working directory\uff09\uff0c\u5728\u7ec8\u7aef\u4e2d\u663e\u793a\u5f53\u524d\u5de5\u4f5c\u76ee\u5f55\u7684\u5168\u8def\u5f84\u3002</p>\u000a<p>\u6ce8\u610f\uff1a \u8fd9\u4e2a\u547d\u4ee4\u5e76\u4e0d\u4f1a\u5728\u811a\u672c\u4e2d\u7ecf\u5e38\u4f7f\u7528\uff0c\u4f46\u662f\u5bf9\u4e8e\u65b0\u624b\uff0c\u5f53\u4ece\u8fde\u63a5\u5230nux\u5f88\u4e45\u540e\u5728\u7ec8\u7aef\u4e2d\u8ff7\u5931\u4e86\u8def\u5f84\uff0c\u8fd9\u7edd\u5bf9\u662f\u6551\u547d\u7a3b\u8349\u3002</p>\u000a<h3 id="free">free</h3>\u000a<div class="monokai"><pre><span></span>free -m\u000a             total       used       free     shared    buffers     cached\u000aMem:          7982       6811       1171          0        350       5114\u000a-/+ buffers/cache:       1346       6636\u000aSwap:        16935         11      16924\u000a</pre></div>\u000a<p>\u663e\u793a\u5269\u4f59\u5185\u5b58</p>\u000a<div class="monokai"><pre><span></span>free -m | grep cache | awk '/[0-9]/{ print $4" MB" }'\u000a</pre></div>\u000a<p>\u5728\u8fd9\u91cc\u4f8b\u5b50\u4e2d,\u5e94\u7528\u7a0b\u5e8f\u53ea\u4f7f\u7528\u4e861346MB\u5185\u5b58,\u8fd8\u67096636MB\u7a7a\u95f2\u5185\u5b58\u53ef\u4ee5\u4f7f\u7528.</p>\u000a<p>\u4e00\u4e9b\u7b80\u5355\u7684\u8ba1\u7b97\u65b9\u6cd5\uff1a</p>\u000a<p>\u7269\u7406\u5df2\u7528\u5185\u5b58 = \u5b9e\u9645\u5df2\u7528\u5185\u5b58 - \u7f13\u51b2 - \u7f13\u5b58 = 6811M - 350M - 5114M</p>\u000a<p>\u7269\u7406\u7a7a\u95f2\u5185\u5b58 = \u603b\u7269\u7406\u5185\u5b58 - \u5b9e\u9645\u5df2\u7528\u5185\u5b58 + \u7f13\u51b2 + \u7f13\u5b58</p>\u000a<p>\u5e94\u7528\u7a0b\u5e8f\u53ef\u7528\u7a7a\u95f2\u5185\u5b58 = \u603b\u7269\u7406\u5185\u5b58 - \u5b9e\u9645\u5df2\u7528\u5185\u5b58</p>\u000a<p>\u5e94\u7528\u7a0b\u5e8f\u5df2\u7528\u5185\u5b58 = \u5b9e\u9645\u5df2\u7528\u5185\u5b58 - \u7f13\u51b2 - \u7f13\u5b58</p>\u000a<p>\u539f\u59cb\u89e3\u91ca\uff1a\u8f6c\u81f3\u4e92\u8054\u7f51\uff1a<br/>\u000aLinux\u7684\u57fa\u672c\u539f\u5219\u662f\u6ca1\u6709\u8d44\u6e90\u5e94\u8be5\u88ab\u6d6a\u8d39.\u56e0\u6b64\u6838\u5fc3\u4f1a\u4f7f\u7528\u5c3d\u53ef\u80fd\u591a\u7684RAM,\u6765\u7f13\u5b58\u6765\u81ea\u672c\u5730\u548c\u8fdc\u7a0b\u7684\u6587\u4ef6\u7cfb\u7edf\u7684\u4fe1\u606f.\u7cfb\u7edf\u505a\u8bfb\u5199\u64cd\u4f5c\u7684\u65f6\u5019,\u4f1a\u5c06\u4e0e\u5f53\u524d\u8fd0\u884c\u7684\u8fdb\u7a0b\u76f8\u5173\u7684\u6570\u636e\u5c3d\u91cf\u5b58\u50a8\u5728RAM\u91cc.\u7cfb\u7edf\u62a5\u544a\u7684\u7f13\u5b58\u662f\u7f13\u51b2\u548c\u9875\u7f13\u5b58\u4e24\u8005\u4e4b\u548c.\u7f13\u5b58\u5e76\u4e0d\u662f\u5728\u8fdb\u7a0b\u7ed3\u675f\u7684\u65f6\u5019\u88ab\u56de\u6536(\u4f60\u53ef\u80fd\u5f88\u5feb\u4f1a\u542f\u52a8\u53e6\u5916\u4e00\u4e2a\u8fdb\u7a0b,\u9700\u8981\u540c\u6837\u7684\u6570\u636e),\u800c\u662f\u968f\u9700\u56de\u6536&ndash;\u6bd4\u5982,\u5f53\u4f60\u542f\u52a8\u4e00\u4e2a\u9700\u8981\u5927\u91cf\u5185\u5b58\u7684\u8fdb\u7a0b\u65f6,Linux\u6838\u5fc3\u4f1a\u4ece\u5185\u5b58\u4e2d\u56de\u6536\u7f13\u5b58,\u5c06\u5f97\u5230\u7684\u5185\u5b58\u5206\u914d\u7ed9\u65b0\u7684\u8fdb\u7a0b.</p>\u000a<p>\u6709\u4e9b\u533a\u57df,\u6bd4\u5982\u533f\u540d\u5185\u5b58\u6620\u5c04(mmps)\u548c\u5171\u4eab\u5185\u5b58\u533a\u57df,\u5b83\u4eec\u88ab\u62a5\u544a\u4e3a\u7f13\u5b58,\u4f46\u4e0d\u662f\u88ab\u6838\u5fc3\u76f4\u63a5\u91ca\u653e.\u4e00\u822c\u7684\u7f13\u5b58\u4e0d\u6620\u5c04\u5230\u8fdb\u7a0b\u7684\u5730\u5740\u7a7a\u95f4,\u4ec5\u4ec5\u662f\u7b80\u5355\u7684\u6838\u5fc3\u6620\u5c04,\u800c\u8fd9\u4e9b\u7279\u522b\u7684\u7f13\u5b58\u6620\u5c04\u5230\u6240\u6709\u6302\u63a5\u5230\u5b83\u4eec\u4e0a\u9762\u7684\u8fdb\u7a0b.</p>\u000a<h3 id="eval">eval</h3>\u000a<div class="monokai"><pre><span></span>eval "ls -l"\u000a</pre></div>\u000a<h3 id="basename">basename</h3>\u000a<p>\u83b7\u53d6\u8def\u5f84\u4e2d\u6587\u4ef6\u90e8\u5206</p>\u000a<div class="monokai"><pre><span></span>basename resolv.conf #resolv.conf\u000abasename /etc/resolv.conf # resolv.conf\u000a</pre></div>\u000a<h3 id="cmp">cmp</h3>\u000a<p>\u6bd4\u8f83\u4e24\u4e2a\u4efb\u610f\u7c7b\u578b\u7684\u6587\u4ef6\u5e76\u5c06\u7ed3\u679c\u8f93\u51fa\u81f3\u6807\u51c6\u8f93\u51fa\u3002\u5982\u679c\u4e24\u4e2a\u6587\u4ef6\u76f8\u540c\uff0c &lsquo;cmp&lsquo;\u9ed8\u8ba4\u8fd4\u56de0\uff1b\u5982\u679c\u4e0d\u540c\uff0c\u5c06\u663e\u793a\u4e0d\u540c\u7684\u5b57\u8282\u6570\u548c\u7b2c\u4e00\u5904\u4e0d\u540c\u7684\u4f4d\u7f6e\u3002</p>\u000a<div class="monokai"><pre><span></span>cmp file1 file2\u000adiff file1 file2\u000a</pre></div>\u000a<h3 id="rm">rm</h3>\u000a<p>&lsquo;rm&rsquo; \u6807\u51c6\u79fb\u9664\u547d\u4ee4\u3002 rm \u53ef\u4ee5\u7528\u6765\u5220\u9664\u6587\u4ef6\u548c\u76ee\u5f55</p>\u000a<div class="monokai"><pre><span></span>rm file1\u000arm -r dir1  #\u9012\u5f52\u5220\u9664\u7a7a\u76ee\u5f55\u000a</pre></div>\u000a<p>\u5f3a\u5220</p>\u000a<div class="monokai"><pre><span></span>rm -rf fileordir\u000a</pre></div>\u000a<p>\u8b66\u544a: &rdquo;rm -rf&rdquo; \u547d\u4ee4\u662f\u4e00\u4e2a\u7834\u574f\u6027\u7684\u547d\u4ee4,\u5047\u5982\u4f60\u4e0d\u5c0f\u5fc3\u5220\u9664\u4e00\u4e2a\u9519\u8bef\u7684\u76ee\u5f55\u3002<br/>\u000a\u4e00\u65e6\u4f60\u4f7f\u7528&rsquo;rm -rf&rsquo; \u5220\u9664\u4e00\u4e2a\u76ee\u5f55,\u5728\u76ee\u5f55\u4e2d\u6240\u6709\u7684\u6587\u4ef6\u5305\u62ec\u76ee\u5f55\u672c\u8eab\u4f1a\u88ab\u6c38\u4e45\u7684\u5220\u9664,\u6240\u4ee5\u4f7f\u7528\u8fd9\u4e2a\u547d\u4ee4\u8981\u975e\u5e38\u5c0f\u5fc3\u3002</p>\u000a<h3 id="service">service</h3>\u000a<p>&lsquo;service&lsquo;\u547d\u4ee4\u63a7\u5236\u670d\u52a1\u7684\u542f\u52a8\u3001\u505c\u6b62\u548c\u91cd\u542f\uff0c\u5b83\u8ba9\u4f60\u80fd\u591f\u4e0d\u91cd\u542f\u6574\u4e2a\u7cfb\u7edf\u5c31\u53ef\u4ee5\u8ba9\u914d\u7f6e\u751f\u6548\u4ee5\u5f00\u542f\u3001\u505c\u6b62\u6216\u8005\u91cd\u542f\u67d0\u4e2a\u670d\u52a1\u3002</p>\u000a<p>\u6ce8\u610f\uff1a\u8981\u60f3\u4f7f\u7528service\u547d\u4ee4\uff0c\u8fdb\u7a0b\u7684\u811a\u672c\u5fc5\u987b\u653e\u5728&lsquo;/etc/init.d&lsquo;\uff0c\u5e76\u4e14\u8def\u5f84\u5fc5\u987b\u5728\u6307\u5b9a\u7684\u4f4d\u7f6e\u3002<br/>\u000a\u5982\u679c\u8981\u8fd0\u884c&ldquo;service apache2 start&rdquo;\u5b9e\u9645\u4e0a\u5b9e\u5728\u6267\u884c&ldquo;service /etc/init.d/apache2 start&rdquo;.</p>\u000a<h3 id="man">man</h3>\u000a<p>&lsquo;man&lsquo;\u662f\u7cfb\u7edf\u5e2e\u52a9\u9875\u3002Man\u63d0\u4f9b\u547d\u4ee4\u6240\u6709\u9009\u9879\u53ca\u7528\u6cd5\u7684\u5728\u7ebf\u6587\u6863\u3002\u51e0\u4e4e\u6240\u6709\u7684\u547d\u4ee4\u90fd\u6709\u5b83\u4eec\u7684\u5e2e\u52a9\u9875</p>\u000a<div class="monokai"><pre><span></span>man thecommand\u000a</pre></div>\u000a<p>\u6ce8\u610f\uff1a\u7cfb\u7edf\u5e2e\u52a9\u9875\u662f\u4e3a\u4e86\u547d\u4ee4\u7684\u4f7f\u7528\u548c\u5b66\u4e60\u800c\u8bbe\u8ba1\u7684\u3002</p>\u000a<h3 id="passwd">passwd</h3>\u000a<p>\u8fd9\u662f\u4e00\u4e2a\u5f88\u91cd\u8981\u7684\u547d\u4ee4\uff0c\u5728\u7ec8\u7aef\u4e2d\u7528\u6765\u6539\u53d8\u81ea\u5df1\u5bc6\u7801\u5f88\u6709\u7528\u3002\u663e\u7136\u7684\uff0c\u56e0\u4e3a\u5b89\u5168\u7684\u539f\u56e0\uff0c\u4f60\u9700\u8981\u77e5\u9053\u5f53\u524d\u7684\u5bc6\u7801\u3002</p>\u000a<h3 id="gcc">gcc</h3>\u000a<p>gcc \u662fLinux\u73af\u5883\u4e0bC\u8bed\u8a00\u7684\u5185\u5efa\u7f16\u8bd1\u5668\u3002\u4e0b\u9762\u662f\u4e00\u4e2a\u7b80\u5355\u7684C\u7a0b\u5e8f\uff0c\u5728\u684c\u9762\u4e0a\u4fdd\u5b58\u4e3aHello.c \uff08\u8bb0\u4f4f\u5fc5\u987b\u8981\u6709&lsquo;.c&lsquo;\u6269\u5c55\u540d</p>\u000a<div class="monokai"><pre><span></span>gcc Hello.c\u000a./a.out\u000agcc -o Hello Hello.c\u000a./Hello\u000a</pre></div>\u000a<p>\u6ce8\u610f: \u7f16\u8bd1C\u7a0b\u5e8f\u65f6\uff0c\u8f93\u51fa\u4f1a\u81ea\u52a8\u4fdd\u5b58\u5230\u4e00\u4e2a\u540d\u4e3a&ldquo;a.out&rdquo;\u7684\u65b0\u6587\u4ef6\uff0c\u56e0\u6b64\u6bcf\u6b21\u7f16\u8bd1C\u7a0b\u5e8f &ldquo;a.out&rdquo;\u90fd\u4f1a\u88ab\u4fee\u6539\u3002<br/>\u000a\u56e0\u6b64\u7f16\u8bd1\u671f\u95f4\u6700\u597d\u5b9a\u4e49\u8f93\u51fa\u6587\u4ef6\u540d.\uff0c\u8fd9\u6837\u5c31\u4e0d\u4f1a\u6709\u8986\u76d6\u8f93\u51fa\u6587\u4ef6\u7684\u98ce\u9669\u4e86\u3002</p>\u000a<h3 id="g">g++</h3>\u000a<p>g++\u662fC++\u7684\u5185\u5efa\u7f16\u8bd1\u5668</p>\u000a<div class="monokai"><pre><span></span>g++ Add.cpp\u000a./a.out\u000ag++ -o Add Add.cpp\u000a./Add\u000a</pre></div>\u000a<h3 id="java">java</h3>\u000a<p>Java \u662f\u4e16\u754c\u4e0a\u4f7f\u7528\u6700\u5e7f\u6cdb\u7684\u7f16\u7a0b\u8bed\u8a00\u4e4b\u4e00. \u5b83\u4e5f\u88ab\u8ba4\u4e3a\u662f\u9ad8\u6548, \u5b89\u5168\u548c\u53ef\u9760\u7684\u7f16\u7a0b\u8bed\u8a00. \u73b0\u5728\u5927\u591a\u6570\u57fa\u4e8e\u7f51\u7edc\u7684\u670d\u52a1\u90fd\u4f7f\u7528Java\u5b9e\u73b0.</p>\u000a<div class="monokai"><pre><span></span>javac tecmint.java\u000ajava tecmint\u000a</pre></div>\u000a<p>\u6ce8\u610f: \u51e0\u4e4e\u6240\u6709\u7684Linux\u53d1\u884c\u7248\u90fd\u5e26\u6709gcc\u7f16\u8bd1\u5668, \u5927\u591a\u6570\u53d1\u884c\u7248\u90fd\u5185\u5efa\u4e86g++ \u548c java \u7f16\u8bd1\u5668, \u6709\u4e9b\u4e5f\u53ef\u80fd\u6ca1\u6709. \u4f60\u53ef\u4ee5\u7528apt \u6216 yum \u5b89\u88c5\u9700\u8981\u7684\u5305.</p>\u000a<h3 id="devnull">\u5173\u4e8e/dev/null</h3>\u000a<p>\u7279\u522b\u6709\u7528\u7684\u7279\u6b8a\u6587\u4ef6\uff0c\u4f4d\u6876\uff0c\u4f20\u9001\u5230\u6b64\u6587\u4ef6\u7684\u6570\u636e\u90fd\u4f1a\u88ab\u7cfb\u7edf\u4e22\u5f03\u3002</p>\u000a<h3 id="_22">\u8bed\u8a00\u53ca\u4e71\u7801</h3>\u000a<p>\u67e5\u770b\u53d8\u91cf\u503c</p>\u000a<div class="monokai"><pre><span></span><span class="x">echo </span><span class="p">$</span><span class="nv">LANG</span><span class="x">   \u672a\u8bbe\u7f6e\u4efb\u4f55LC_XXX\u65f6\u4f7f\u7528\u7684\u9ed8\u8ba4\u503c</span>\u000a<span class="x">echo </span><span class="p">$</span><span class="nv">LC_ALL</span><span class="x"> \u8986\u76d6\u6240\u6709LC_XXX\u53d8\u91cf\uff0c\u603b\u63a7\u5f00\u5173</span>\u000a</pre></div>\u000a<p>\u597d\u7684\u505a\u6cd5\u662f\uff0c\u907f\u514d\u4e3a\u4efb\u4f55LC_XXX\u53d8\u91cf\u8d4b\u503c\uff0c\u4f7f\u7528LC_ALL\u548cLANG\u6765\u63a7\u5236</p>\u000a<p>\u907f\u514d\u4e71\u7801\uff1a\u4ece\u7f16\u8f91\u5668\u5230\u8bed\u8a00\uff0c\u518d\u5230\u7cfb\u7edf\uff0c\u7edf\u4e00\u7f16\u7801\u4e3aUTF-8</p>\u000a<h3 id="shell_1">shell\u7684\u7248\u672c</h3>\u000a<div class="monokai"><pre><span></span>bash --version\u000a</pre></div>\u000a    </section>\u000a\u000a    <section id="copyright">\u000a        <div class="copyright">\u000a            \u7248\u6743\u58f0\u660e\uff1a\u81ea\u7531\u8f6c\u8f7d-\u975e\u5546\u7528-\u975e\u884d\u751f-\u4fdd\u6301\u7f72\u540d | <a href="http://creativecommons.org/licenses/by-nc-nd/3.0/deed.zh" target="_blank" >Creative Commons BY-NC-ND 3.0</a>\u000a        </div>\u000a\u000a        <div class="donation">\u000a            <center>\u000a                <div style="width: 70%;">\u000a                    <img src="/imgs/life/donation_w.png" style=""/>\u000a                    <strong>\u000a                        <div style="text-align:center;">\u000a                            \u5982\u679c\u6211\u7684\u6587\u7ae0\u6216\u9879\u76ee\u5bf9\u4f60\u6709\u6240\u5e2e\u52a9, \u53ef\u4ee5\u626b\u7801\u8fdb\u884c\u5c0f\u989d\u6350\u8d60<br>\u000a                            \u5982\u679c\u6709\u4e3b\u673a\u9700\u6c42, \u53ef\u70b9\u4e0b\u65b9vultr\u8fdb\u5165\u6ce8\u518c, \u5e26\u5c0f\u5c3e\u5df4:)<br>\u000a                            \u5982\u679c\u8981\u52a0\u5e7f\u544a\u4f4d, \u8bf7\u90ae\u4ef6\u8054\u7cfb<br>\u000a                        </ol>\u000a                    </strong>\u000a                </div>\u000a            </center>\u000a\u000a        </div>\u000a    </section>\u000a\u000a\u000a    <section id="neighbors">\u000a        <div>\u000a                        <a class="left" href="http://www.wklken.me/posts/2013/07/04/summary-07-worktwoyear.html">\u000a                            \u4e0a\u4e00\u7bc7:  \u5de5\u4f5c\u4e24\u5468\u5e74\u5c0f\u7ed3\u000a                        </a>\u000a                        <a class="right" href="http://www.wklken.me/posts/2013/07/18/python-translate-yield.html">\u000a                            \u4e0b\u4e00\u7bc7: [\u7ffb\u8bd1]Python\u4e2dyield\u7684\u89e3\u91ca\u000a                        </a>\u000a        </div>\u000a    </section>\u000a\u000a    <section id="ad">\u000a        <!-- <script async src="//pagead2.googlesyndication.com/pagead/js/adsbygoogle.js"></script> -->\u000a        <!-- [> blog_ad_003 <] -->\u000a        <!-- <ins class="adsbygoogle" -->\u000a            <!-- style="display:block" -->\u000a            <!-- data-ad-client="ca-pub-7635941258020589" -->\u000a            <!-- data-ad-slot="7030416955" -->\u000a            <!-- data-ad-format="auto"></ins> -->\u000a        <!-- <script> -->\u000a        <!-- (adsbygoogle = window.adsbygoogle || []).push({}); -->\u000a        <!-- </script> -->\u000a\u000a        <a href='http://www.vultr.com/?ref=6847203' target="_blank">\u000a        <img src="/imgs/ads/vultr.png"> </img>\u000a        </a>\u000a    </section>\u000a\u000a\u000a\u000a<section id="comments">\u000a        <div class="comments">\u000a            <div id="disqus_thread"></div>\u000a            <script type="text/javascript">\u000a                var disqus_identifier = "posts/2013/07/04/note-of-linux-shell-scripting-cookbook.html";\u000a                (function() {\u000a                var dsq = document.createElement('script'); dsq.type = 'text/javascript'; dsq.async = true;\u000a                dsq.src = 'http://wklken.disqus.com/embed.js';\u000a                (document.getElementsByTagName('head')[0] || document.getElementsByTagName('body')[0]).appendChild(dsq);\u000a                })();\u000a            </script>\u000a            </div>\u000a</section>\u000a\u000a\u000a\u000a</article>\u000a        </section><!--end #main-->\u000a\u000a            <footer class="row">\u000a                <div class="large-12 columns">\u000a                    <p>\u000a                            Copyright  2015 wklken <br>\u000a                            Hosted on <a href="http://www.vultr.com/?ref=6954153-3B"> vultr </a>. Powered by <a href="http://alexis.notmyidea.org/pelican/">pelican</a>. Social Icons by <a href="http://fortawesome.github.io/Font-Awesome/">Font-Awesome</a>.\u000a                            <!-- Hosted on <a href="http://www.vultr.com/?ref=6847203"> vultr </a> Also <a href="https://www.digitalocean.com/?refcode=8ee73f2c47ce"> DigitalOcean </a>. Powered by <a href="http://alexis.notmyidea.org/pelican/">pelican</a>. Social Icons by <a href="http://fortawesome.github.io/Font-Awesome/">Font-Awesome</a>. -->\u000a                    </p>\u000a                </div>\u000a            </footer>\u000a\u000a            </div>\u000a        </div>\u000a\u000a        <section id="extras" class="body">\u000a        </section><!-- /#extras -->\u000a\u000a\u000a\u000a<script src="http://apps.bdimg.com/libs/jquery/2.1.1/jquery.min.js"></script>\u000a<script src="http://apps.bdimg.com/libs/jquery-scrollUp/2.1.0/jquery.scrollUp.min.js"></script>\u000a<script src="http://apps.bdimg.com/libs/jqueryui/1.10.4/jquery-ui.min.js"></script>\u000a<script>\u000a    $(function(){\u000a        $.scrollUp({\u000a              scrollText: '', // Text for element, can contain HTML\u000a            });\u000a    });\u000a</script>\u000a\u000a\u000a<script type="text/javascript">\u000a  /* var Swiftype = window.Swiftype || {}; */\u000a  /* Swiftype.searchSearchFields = { */\u000a    /* "page": ["title^10", "body"] */\u000a  /* }; */\u000a\u000a  /* (function(w,d,t,u,n,s,e){w['SwiftypeObject']=n;w[n]=w[n]||function(){ */\u000a  /* (w[n].q=w[n].q||[]).push(arguments);};s=d.createElement(t); */\u000a  /* e=d.getElementsByTagName(t)[0];s.async=1;s.src=u;e.parentNode.insertBefore(s,e); */\u000a  /* })(window,document,'script','//s.swiftypecdn.com/install/v1/st.js','_st'); */\u000a\u000a  /* _st('install','v6K-_DamCeHvwX6z3o2F'); */\u000a</script>\u000a\u000a\u000a\u000a    <script type="text/javascript">\u000a    var gaJsHost = (("https:" == document.location.protocol) ? "https://ssl." : "http://www.");\u000a    document.write(unescape("%3Cscript src='" + gaJsHost + "google-analytics.com/ga.js' type='text/javascript'%3E%3C/script%3E"));\u000a    </script>\u000a    <script type="text/javascript">\u000a    try {\u000a        var pageTracker = _gat._getTracker("UA-42275748-1");\u000a    pageTracker._trackPageview();\u000a    } catch(err) {}</script>\u000a\u000a\u000a\u000a\u000a<div id="share">\u000a<script>window._bd_share_config={"common":{"bdSnsKey":{},"bdText":"","bdMini":"1","bdMiniList":["mshare","tsina","weixin","douban","meilishuo","mogujie","youdao","sdo","mail","twi","copy","print"],"bdPic":"","bdStyle":"0","bdSize":"16"},"slide":{"type":"slide","bdImg":"5","bdPos":"right","bdTop":"96.5"}};with(document)0[(getElementsByTagName('head')[0]||body).appendChild(createElement('script')).src='http://bdimg.share.baidu.com/static/api/js/share.js?v=89860593.js?cdnversion='+~(-new Date()/36e5)];</script>\u000a</div>\u000a\u000a\u000a\u000a<script  src="http://www.wklken.me/theme/js/scroll-header.js" type="text/javascript"></script>\u000a\u000a\u000a\u000a\u000a</body>\u000a</html>
p3
a.