(lp0
S'http://pyzh.readthedocs.org/en/latest/python-magic-methods-guide.html'
p1
aS'11. (\xe8\xaf\x91)Python\xe9\xad\x94\xe6\xb3\x95\xe6\x96\xb9\xe6\xb3\x95\xe6\x8c\x87\xe5\x8d\x97 \xe2\x80\x94 \xe4\xb8\x80\xe8\xb5\xb7\xe5\x86\x99Python\xe6\x96\x87\xe7\xab\xa0\xef\xbc\x8c\xe4\xb8\x80\xe8\xb5\xb7\xe7\x9c\x8bPython\xe6\x96\x87\xe7\xab\xa0'
p2
aI0
aV<!DOCTYPE html PUBLIC "-//W3C//DTD XHTML 1.0 Transitional//EN"\u000a  "http://www.w3.org/TR/xhtml1/DTD/xhtml1-transitional.dtd">\u000a\u000a\u000a<html xmlns="http://www.w3.org/1999/xhtml">\u000a  <head>\u000a    <meta http-equiv="Content-Type" content="text/html; charset=utf-8" />\u000a    \u000a    <title>11. (\u8bd1)Python\u9b54\u6cd5\u65b9\u6cd5\u6307\u5357 &mdash; \u4e00\u8d77\u5199Python\u6587\u7ae0\uff0c\u4e00\u8d77\u770bPython\u6587\u7ae0</title>\u000a    \u000a    <link rel="stylesheet" href="_static/rux.css" type="text/css" />\u000a    <link rel="stylesheet" href="_static/pygments.css" type="text/css" />\u000a    <link rel="stylesheet" href="https://media.readthedocs.org/css/badge_only.css" type="text/css" />\u000a    \u000a    <script type="text/javascript">\u000a      var DOCUMENTATION_OPTIONS = {\u000a        URL_ROOT:    './',\u000a        VERSION:     '0.1',\u000a        COLLAPSE_INDEX: false,\u000a        FILE_SUFFIX: '.html',\u000a        HAS_SOURCE:  true\u000a      };\u000a    </script>\u000a    <script type="text/javascript" src="https://media.readthedocs.org/javascript/jquery/jquery-2.0.3.min.js"></script>\u000a    <script type="text/javascript" src="https://media.readthedocs.org/javascript/jquery/jquery-migrate-1.2.1.min.js"></script>\u000a    <script type="text/javascript" src="https://media.readthedocs.org/javascript/underscore.js"></script>\u000a    <script type="text/javascript" src="https://media.readthedocs.org/javascript/doctools.js"></script>\u000a    <script type="text/javascript" src="https://media.readthedocs.org/javascript/readthedocs-doc-embed.js"></script>\u000a    <link rel="top" title="\u4e00\u8d77\u5199Python\u6587\u7ae0\uff0c\u4e00\u8d77\u770bPython\u6587\u7ae0" href="index.html" />\u000a    <link rel="next" title="12. setup.py vs requirements.txt" href="python-setup-dot-py-vs-requirements-dot-txt.html" />\u000a    <link rel="prev" title="10. \u4f7f\u7528Python\u89e3\u91ca\u5668\u7684\u4e00\u53e5\u8bdd\u547d\u4ee4" href="single-line-command-with-python.html" />\u000a   \u000a  <script type="text/javascript"\u000a    src="https://c328740.ssl.cf1.rackcdn.com/mathjax/latest/MathJax.js?config=TeX-AMS-MML_HTMLorMML">\u000a  </script>\u000a\u000a  \u000a<!-- RTD Extra Head -->\u000a\u000a<!-- \u000aAlways link to the latest version, as canonical.\u000ahttp://docs.readthedocs.org/en/latest/canonical.html\u000a-->\u000a<link rel="canonical" href="http://pyzh.readthedocs.io/en/latest/python-magic-methods-guide.html" />\u000a\u000a<link rel="stylesheet" href="https://media.readthedocs.org/css/readthedocs-doc-embed.css" type="text/css" />\u000a\u000a<script type="text/javascript" src="_static/readthedocs-data.js"></script>\u000a\u000a<!-- Add page-specific data, which must exist in the page js, not global -->\u000a<script type="text/javascript">\u000aREADTHEDOCS_DATA['page'] = 'python-magic-methods-guide'\u000a</script>\u000a\u000a<script type="text/javascript" src="_static/readthedocs-dynamic-include.js"></script>\u000a\u000a<!-- end RTD <extrahead> --></head>\u000a  <body role="document">\u000a  \u000a  \u000a\u000a\u000a    <div class="document">\u000a  <div class="documentwrapper">\u000a      <div class="bodywrapper">\u000a        <div class="body">\u000a          <h1 class="project-name">\u000a            <a href="index.html">PyZh</a>\u000a          </h1>\u000a          <div class="nav separator">\u000a          <span>\u000a            <a href="index.html">Index</a>&nbsp;~ <a href="https://github.com/hit9/PyZh">Code</a>&nbsp;\u000a            ~ <a href="https://github.com/hit9/PyZh/issues">Issues</a>&nbsp;</span>\u000a          </div>\u000a          <p class="flourish"><img src="_static/flourish.svg" height="60px" alt=""></p>\u000a          <div class="body-html">\u000a            \u000a  <div class="section" id="python">\u000a<h1><a class="toc-backref" href="#id28">11. (\u8bd1)Python\u9b54\u6cd5\u65b9\u6cd5\u6307\u5357</a><a class="headerlink" href="#python" title="Permalink to this headline"></a></h1>\u000a<table class="docutils field-list" frame="void" rules="none">\u000a<col class="field-name" />\u000a<col class="field-body" />\u000a<tbody valign="top">\u000a<tr class="field-odd field"><th class="field-name">\u539f\u6587:</th><td class="field-body"><a class="reference external" href="http://www.rafekettler.com/magicmethods.html">http://www.rafekettler.com/magicmethods.html</a></td>\u000a</tr>\u000a<tr class="field-even field"><th class="field-name">\u539f\u4f5c\u8005:</th><td class="field-body">Rafe Kettler</td>\u000a</tr>\u000a<tr class="field-odd field"><th class="field-name">\u7ffb\u8bd1:</th><td class="field-body">hit9</td>\u000a</tr>\u000a<tr class="field-even field"><th class="field-name">\u539f\u7248(\u82f1\u6587\u7248) Repo:</th><td class="field-body"><a class="reference external" href="https://github.com/RafeKettler/magicmethods">https://github.com/RafeKettler/magicmethods</a></td>\u000a</tr>\u000a</tbody>\u000a</table>\u000a<div class="contents topic" id="contents">\u000a<p class="topic-title first">Contents</p>\u000a<ul class="simple">\u000a<li><a class="reference internal" href="#python" id="id28">(\u8bd1)Python\u9b54\u6cd5\u65b9\u6cd5\u6307\u5357</a><ul>\u000a<li><a class="reference internal" href="#id1" id="id29">\u7b80\u4ecb</a></li>\u000a<li><a class="reference internal" href="#id2" id="id30">\u6784\u9020\u65b9\u6cd5</a></li>\u000a<li><a class="reference internal" href="#id4" id="id31">\u64cd\u4f5c\u7b26</a><ul>\u000a<li><a class="reference internal" href="#id5" id="id32">\u6bd4\u8f83\u64cd\u4f5c\u7b26</a></li>\u000a<li><a class="reference internal" href="#id6" id="id33">\u6570\u503c\u64cd\u4f5c\u7b26</a><ul>\u000a<li><a class="reference internal" href="#id7" id="id34">\u4e00\u5143\u64cd\u4f5c\u7b26</a></li>\u000a<li><a class="reference internal" href="#id8" id="id35">\u5e38\u89c1\u7b97\u6570\u64cd\u4f5c\u7b26</a></li>\u000a<li><a class="reference internal" href="#id9" id="id36">\u53cd\u5c04\u7b97\u6570\u8fd0\u7b97\u7b26</a></li>\u000a<li><a class="reference internal" href="#id10" id="id37">\u589e\u5f3a\u8d4b\u503c\u8fd0\u7b97\u7b26</a></li>\u000a<li><a class="reference internal" href="#id11" id="id38">\u7c7b\u578b\u8f6c\u6362\u64cd\u4f5c\u7b26</a></li>\u000a</ul>\u000a</li>\u000a</ul>\u000a</li>\u000a<li><a class="reference internal" href="#id12" id="id39">\u7c7b\u7684\u8868\u793a</a></li>\u000a<li><a class="reference internal" href="#id13" id="id40">\u8bbf\u95ee\u63a7\u5236</a></li>\u000a<li><a class="reference internal" href="#id14" id="id41">\u81ea\u5b9a\u4e49\u5e8f\u5217</a><ul>\u000a<li><a class="reference internal" href="#id15" id="id42">\u9884\u5907\u77e5\u8bc6</a></li>\u000a<li><a class="reference internal" href="#id16" id="id43">\u5bb9\u5668\u80cc\u540e\u7684\u9b54\u6cd5\u65b9\u6cd5</a></li>\u000a<li><a class="reference internal" href="#id17" id="id44">\u4e00\u4e2a\u4f8b\u5b50</a></li>\u000a</ul>\u000a</li>\u000a<li><a class="reference internal" href="#id18" id="id45">\u53cd\u5c04</a></li>\u000a<li><a class="reference internal" href="#id19" id="id46">\u62bd\u8c61\u57fa\u7c7b</a></li>\u000a<li><a class="reference internal" href="#id20" id="id47">\u53ef\u8c03\u7528\u7684\u5bf9\u8c61</a></li>\u000a<li><a class="reference internal" href="#id21" id="id48">\u4e0a\u4e0b\u6587\u7ba1\u7406\u5668</a></li>\u000a<li><a class="reference internal" href="#id22" id="id49">\u521b\u5efa\u63cf\u8ff0\u7b26\u5bf9\u8c61</a></li>\u000a<li><a class="reference internal" href="#id23" id="id50">\u62f7\u8d1d</a></li>\u000a<li><a class="reference internal" href="#pickling" id="id51">Pickling</a><ul>\u000a<li><a class="reference internal" href="#id24" id="id52">Pickling : \u5c0f\u8bd5\u725b\u5200</a></li>\u000a<li><a class="reference internal" href="#pickle" id="id53">Pickle\u4f60\u7684\u5bf9\u8c61</a></li>\u000a<li><a class="reference internal" href="#id25" id="id54">\u4e00\u4e2a\u4f8b\u5b50</a></li>\u000a</ul>\u000a</li>\u000a<li><a class="reference internal" href="#id26" id="id55">\u603b\u7ed3</a></li>\u000a<li><a class="reference internal" href="#id27" id="id56">\u9644\u5f551\uff1a\u5982\u4f55\u8c03\u7528\u9b54\u6cd5\u65b9\u6cd5</a></li>\u000a<li><a class="reference internal" href="#python-3" id="id57">\u9644\u5f552\uff1aPython 3\u4e2d\u7684\u53d8\u5316</a></li>\u000a</ul>\u000a</li>\u000a</ul>\u000a</div>\u000a<div class="section" id="id1">\u000a<h2><a class="toc-backref" href="#id29">11.1. \u7b80\u4ecb</a><a class="headerlink" href="#id1" title="Permalink to this headline"></a></h2>\u000a<p>\u672c\u6307\u5357\u5f52\u7eb3\u4e8e\u6211\u7684\u51e0\u4e2a\u6708\u7684\u535a\u5ba2\uff0c\u4e3b\u9898\u662f <strong>\u9b54\u6cd5\u65b9\u6cd5</strong> \u3002</p>\u000a<p>\u4ec0\u4e48\u662f\u9b54\u6cd5\u65b9\u6cd5\u5462\uff1f\u5b83\u4eec\u5728\u9762\u5411\u5bf9\u8c61\u7684Python\u7684\u5904\u5904\u7686\u662f\u3002\u5b83\u4eec\u662f\u4e00\u4e9b\u53ef\u4ee5\u8ba9\u4f60\u5bf9\u7c7b\u6dfb\u52a0\u201c\u9b54\u6cd5\u201d\u7684\u7279\u6b8a\u65b9\u6cd5\u3002\u000a\u5b83\u4eec\u7ecf\u5e38\u662f\u4e24\u4e2a\u4e0b\u5212\u7ebf\u5305\u56f4\u6765\u547d\u540d\u7684\uff08\u6bd4\u5982 <cite>__init__</cite> \uff0c <cite>__lt__</cite> \uff09\u3002\u4f46\u662f\u73b0\u5728\u6ca1\u6709\u5f88\u597d\u7684\u6587\u6863\u6765\u89e3\u91ca\u5b83\u4eec\u3002\u000a\u6240\u6709\u7684\u9b54\u6cd5\u65b9\u6cd5\u90fd\u4f1a\u5728Python\u7684\u5b98\u65b9\u6587\u6863\u4e2d\u627e\u5230\uff0c\u4f46\u662f\u5b83\u4eec\u7ec4\u7ec7\u677e\u6563\u3002\u800c\u4e14\u5f88\u5c11\u4f1a\u6709\u793a\u4f8b\uff08\u6709\u7684\u662f\u65e0\u804a\u7684\u8bed\u6cd5\u63cf\u8ff0\uff0c\u000a\u8bed\u8a00\u53c2\u8003\uff09\u3002</p>\u000a<p>\u6240\u4ee5\uff0c\u4e3a\u4e86\u4fee\u590d\u6211\u611f\u77e5\u7684Python\u6587\u6863\u7684\u7f3a\u9677\uff0c\u6211\u5f00\u59cb\u63d0\u4f9b\u66f4\u4e3a\u901a\u4fd7\u7684\uff0c\u6709\u793a\u4f8b\u652f\u6301\u7684Python\u9b54\u6cd5\u65b9\u6cd5\u6307\u5357\u3002\u6211\u4e00\u5f00\u59cb\u000a\u5199\u4e86\u4e00\u4e9b\u535a\u6587\uff0c\u73b0\u5728\u6211\u628a\u8fd9\u4e9b\u535a\u6587\u603b\u8d77\u6765\u6210\u4e3a\u4e00\u7bc7\u6307\u5357\u3002</p>\u000a<p>\u5e0c\u671b\u4f60\u559c\u6b22\u8fd9\u7bc7\u6307\u5357\uff0c\u4e00\u7bc7\u53cb\u597d\uff0c\u901a\u4fd7\u6613\u61c2\u7684Python\u9b54\u6cd5\u65b9\u6cd5\u6307\u5357\uff01</p>\u000a</div>\u000a<div class="section" id="id2">\u000a<h2><a class="toc-backref" href="#id30">11.2. \u6784\u9020\u65b9\u6cd5</a><a class="headerlink" href="#id2" title="Permalink to this headline"></a></h2>\u000a<p>\u6211\u4eec\u6700\u4e3a\u719f\u77e5\u7684\u57fa\u672c\u7684\u9b54\u6cd5\u65b9\u6cd5\u5c31\u662f <cite>__init__</cite> \uff0c\u6211\u4eec\u53ef\u4ee5\u7528\u5b83\u6765\u6307\u660e\u4e00\u4e2a\u5bf9\u8c61\u521d\u59cb\u5316\u7684\u884c\u4e3a\u3002\u7136\u800c\uff0c\u5f53\u6211\u4eec\u8c03\u7528\u000a<cite>x = SomeClass()</cite> \u7684\u65f6\u5019\uff0c <cite>__init__</cite> \u5e76\u4e0d\u662f\u7b2c\u4e00\u4e2a\u88ab\u8c03\u7528\u7684\u65b9\u6cd5\u3002\u4e8b\u5b9e\u4e0a\uff0c\u7b2c\u4e00\u4e2a\u88ab\u8c03\u7528\u7684\u662f <cite>__new__</cite> \uff0c\u8fd9\u4e2a\u000a\u65b9\u6cd5\u624d\u771f\u6b63\u5730\u521b\u5efa\u4e86\u5b9e\u4f8b\u3002\u5f53\u8fd9\u4e2a\u5bf9\u8c61\u7684\u751f\u547d\u5468\u671f\u7ed3\u675f\u7684\u65f6\u5019\uff0c <cite>__del__</cite> \u4f1a\u88ab\u8c03\u7528\u3002\u8ba9\u6211\u4eec\u8fd1\u4e00\u6b65\u7406\u89e3\u8fd9\u4e09\u4e2a\u65b9\u6cd5\uff1a</p>\u000a<ul>\u000a<li><p class="first"><cite>__new__(cls,[...)</cite></p>\u000a<p><cite>__new__</cite> \u662f\u5bf9\u8c61\u5b9e\u4f8b\u5316\u65f6\u7b2c\u4e00\u4e2a\u8c03\u7528\u7684\u65b9\u6cd5\uff0c\u5b83\u53ea\u53d6\u4e0b <cite>cls</cite> \u53c2\u6570\uff0c\u5e76\u628a\u5176\u4ed6\u53c2\u6570\u4f20\u7ed9 <cite>__init__</cite> \u3002 <cite>__new__</cite>\u000a\u5f88\u5c11\u4f7f\u7528\uff0c\u4f46\u662f\u4e5f\u6709\u5b83\u9002\u5408\u7684\u573a\u666f\uff0c\u5c24\u5176\u662f\u5f53\u7c7b\u7ee7\u627f\u81ea\u4e00\u4e2a\u50cf\u5143\u7ec4\u6216\u8005\u5b57\u7b26\u4e32\u8fd9\u6837\u4e0d\u7ecf\u5e38\u6539\u53d8\u7684\u7c7b\u578b\u7684\u65f6\u5019\u3002\u6211\u4e0d\u6253\u7b97\u6df1\u5165\u8ba8\u8bba\u000a<cite>__new__</cite> \uff0c\u56e0\u4e3a\u5b83\u5e76\u4e0d\u662f\u5f88\u6709\u7528\uff0c <a class="reference external" href="http://www.python.org/download/releases/2.2/descrintro/#__new__">Python\u6587\u6863</a> \u4e2d\u000a\u6709\u8be6\u7ec6\u7684\u8bf4\u660e\u3002</p>\u000a</li>\u000a<li><p class="first"><cite>__init__(self,[...])</cite></p>\u000a<p>\u7c7b\u7684\u521d\u59cb\u5316\u65b9\u6cd5\u3002\u5b83\u83b7\u53d6\u4efb\u4f55\u4f20\u7ed9\u6784\u9020\u5668\u7684\u53c2\u6570\uff08\u6bd4\u5982\u6211\u4eec\u8c03\u7528 <cite>x = SomeClass(10, &#8216;foo&#8217;)</cite> \uff0c <cite>__init__</cite> \u5c31\u4f1a\u63a5\u5230\u53c2\u6570\u000a<cite>10</cite> \u548c <cite>&#8216;foo&#8217;</cite> \u3002 <cite>__init__</cite> \u5728Python\u7684\u7c7b\u5b9a\u4e49\u4e2d\u7528\u7684\u6700\u591a\u3002</p>\u000a</li>\u000a<li><p class="first"><cite>__del__(self)</cite></p>\u000a<p><cite>__new__</cite> \u548c <cite>__init__</cite> \u662f\u5bf9\u8c61\u7684\u6784\u9020\u5668\uff0c <cite>__del__</cite> \u662f\u5bf9\u8c61\u7684\u9500\u6bc1\u5668\u3002\u5b83\u5e76\u975e\u5b9e\u73b0\u4e86\u8bed\u53e5 <cite>del x</cite> (\u56e0\u6b64\u8be5\u8bed\u53e5\u4e0d\u7b49\u540c\u4e8e <cite>x.__del__()</cite>)\u3002\u800c\u662f\u5b9a\u4e49\u4e86\u5f53\u5bf9\u8c61\u88ab\u5783\u573e\u56de\u6536\u65f6\u7684\u884c\u4e3a\u3002\u000a\u5f53\u5bf9\u8c61\u9700\u8981\u5728\u9500\u6bc1\u65f6\u505a\u4e00\u4e9b\u5904\u7406\u7684\u65f6\u5019\u8fd9\u4e2a\u65b9\u6cd5\u5f88\u6709\u7528\uff0c\u6bd4\u5982 <cite>socket</cite> \u5bf9\u8c61\u3001\u6587\u4ef6\u5bf9\u8c61\u3002\u4f46\u662f\u9700\u8981\u6ce8\u610f\u7684\u662f\uff0c\u5f53Python\u89e3\u91ca\u5668\u9000\u51fa\u4f46\u5bf9\u8c61\u4ecd\u7136\u5b58\u6d3b\u7684\u65f6\u5019\uff0c <cite>__del__</cite> \u5e76\u4e0d\u4f1a\u000a\u6267\u884c\u3002 \u6240\u4ee5\u517b\u6210\u4e00\u4e2a\u624b\u5de5\u6e05\u7406\u7684\u597d\u4e60\u60ef\u662f\u5f88\u91cd\u8981\u7684\uff0c\u6bd4\u5982\u53ca\u65f6\u5173\u95ed\u8fde\u63a5\u3002</p>\u000a</li>\u000a</ul>\u000a<p>\u8fd9\u91cc\u6709\u4e2a <cite>__init__</cite> \u548c <cite>__del__</cite> \u7684\u4f8b\u5b50:</p>\u000a<div class="highlight-python"><div class="highlight"><pre><span></span><span class="kn">from</span> <span class="nn">os.path</span> <span class="kn">import</span> <span class="n">join</span>\u000a\u000a<span class="k">class</span> <span class="nc">FileObject</span><span class="p">:</span>\u000a    <span class="sd">&#39;&#39;&#39;\u6587\u4ef6\u5bf9\u8c61\u7684\u88c5\u9970\u7c7b\uff0c\u7528\u6765\u4fdd\u8bc1\u6587\u4ef6\u88ab\u5220\u9664\u65f6\u80fd\u591f\u6b63\u786e\u5173\u95ed\u3002&#39;&#39;&#39;</span>\u000a\u000a    <span class="k">def</span> <span class="nf">__init__</span><span class="p">(</span><span class="bp">self</span><span class="p">,</span> <span class="n">filepath</span><span class="o">=</span><span class="s1">&#39;~&#39;</span><span class="p">,</span> <span class="n">filename</span><span class="o">=</span><span class="s1">&#39;sample.txt&#39;</span><span class="p">):</span>\u000a        <span class="c1"># \u4f7f\u7528\u8bfb\u5199\u6a21\u5f0f\u6253\u5f00filepath\u4e2d\u7684filename\u6587\u4ef6</span>\u000a        <span class="bp">self</span><span class="o">.</span><span class="n">file</span> <span class="o">=</span> <span class="nb">open</span><span class="p">(</span><span class="n">join</span><span class="p">(</span><span class="n">filepath</span><span class="p">,</span> <span class="n">filename</span><span class="p">),</span> <span class="s1">&#39;r+&#39;</span><span class="p">)</span>\u000a\u000a    <span class="k">def</span> <span class="nf">__del__</span><span class="p">(</span><span class="bp">self</span><span class="p">):</span>\u000a        <span class="bp">self</span><span class="o">.</span><span class="n">file</span><span class="o">.</span><span class="n">close</span><span class="p">()</span>\u000a        <span class="k">del</span> <span class="bp">self</span><span class="o">.</span><span class="n">file</span>\u000a</pre></div>\u000a</div>\u000a</div>\u000a<div class="section" id="id4">\u000a<h2><a class="toc-backref" href="#id31">11.3. \u64cd\u4f5c\u7b26</a><a class="headerlink" href="#id4" title="Permalink to this headline"></a></h2>\u000a<p>\u4f7f\u7528Python\u9b54\u6cd5\u65b9\u6cd5\u7684\u4e00\u4e2a\u5de8\u5927\u4f18\u52bf\u5c31\u662f\u53ef\u4ee5\u6784\u5efa\u4e00\u4e2a\u62e5\u6709Python\u5185\u7f6e\u7c7b\u578b\u884c\u4e3a\u7684\u5bf9\u8c61\u3002\u8fd9\u610f\u5473\u7740\u4f60\u53ef\u4ee5\u907f\u514d\u4f7f\u7528\u975e\u6807\u51c6\u7684\u3001\u4e11\u964b\u7684\u65b9\u5f0f\u6765\u8868\u8fbe\u7b80\u5355\u7684\u64cd\u4f5c\u3002\u000a\u5728\u4e00\u4e9b\u8bed\u8a00\u4e2d\uff0c\u8fd9\u6837\u505a\u5f88\u5e38\u89c1:</p>\u000a<div class="highlight-python"><div class="highlight"><pre><span></span>if instance.equals(other_instance):\u000a    # do something\u000a</pre></div>\u000a</div>\u000a<p>\u4f60\u5f53\u7136\u53ef\u4ee5\u5728Python\u4e5f\u8fd9\u4e48\u505a\uff0c\u4f46\u662f\u8fd9\u6837\u505a\u8ba9\u4ee3\u7801\u53d8\u5f97\u5197\u957f\u800c\u6df7\u4e71\u3002\u4e0d\u540c\u7684\u7c7b\u5e93\u53ef\u80fd\u5bf9\u540c\u4e00\u79cd\u6bd4\u8f83\u64cd\u4f5c\u91c7\u7528\u4e0d\u540c\u7684\u65b9\u6cd5\u540d\u79f0\uff0c\u8fd9\u8ba9\u4f7f\u7528\u8005\u9700\u8981\u505a\u5f88\u591a\u6ca1\u6709\u5fc5\u8981\u7684\u5de5\u4f5c\u3002\u8fd0\u7528\u9b54\u6cd5\u65b9\u6cd5\u7684\u9b54\u529b\uff0c\u6211\u4eec\u53ef\u4ee5\u5b9a\u4e49\u65b9\u6cd5 <cite>__eq__</cite></p>\u000a<div class="highlight-python"><div class="highlight"><pre><span></span>if instance == other_instance:\u000a    # do something\u000a</pre></div>\u000a</div>\u000a<p>\u8fd9\u662f\u9b54\u6cd5\u529b\u91cf\u7684\u4e00\u90e8\u5206\uff0c\u8fd9\u6837\u6211\u4eec\u5c31\u53ef\u4ee5\u521b\u5efa\u4e00\u4e2a\u50cf\u5185\u5efa\u7c7b\u578b\u90a3\u6837\u7684\u5bf9\u8c61\u4e86\uff01</p>\u000a<div class="section" id="id5">\u000a<h3><a class="toc-backref" href="#id32">11.3.1. \u6bd4\u8f83\u64cd\u4f5c\u7b26</a><a class="headerlink" href="#id5" title="Permalink to this headline"></a></h3>\u000a<p>Python\u5305\u542b\u4e86\u4e00\u7cfb\u5217\u7684\u9b54\u6cd5\u65b9\u6cd5\uff0c\u7528\u4e8e\u5b9e\u73b0\u5bf9\u8c61\u4e4b\u95f4\u76f4\u63a5\u6bd4\u8f83\uff0c\u800c\u4e0d\u9700\u8981\u91c7\u7528\u65b9\u6cd5\u8c03\u7528\u3002\u540c\u6837\u4e5f\u53ef\u4ee5\u91cd\u8f7dPython\u9ed8\u8ba4\u7684\u6bd4\u8f83\u65b9\u6cd5\uff0c\u6539\u53d8\u5b83\u4eec\u7684\u884c\u4e3a\u3002\u4e0b\u9762\u662f\u8fd9\u4e9b\u65b9\u6cd5\u7684\u5217\u8868\uff1a</p>\u000a<ul>\u000a<li><p class="first"><cite>__cmp__(self, other)</cite></p>\u000a<p><cite>__cmp__</cite> \u662f\u6240\u6709\u6bd4\u8f83\u9b54\u6cd5\u65b9\u6cd5\u4e2d\u6700\u57fa\u7840\u7684\u4e00\u4e2a\uff0c\u5b83\u5b9e\u9645\u4e0a\u5b9a\u4e49\u4e86\u6240\u6709\u6bd4\u8f83\u64cd\u4f5c\u7b26\u7684\u884c\u4e3a\uff08&lt;,==,!=,\u7b49\u7b49\uff09\uff0c\u4f46\u662f\u5b83\u53ef\u80fd\u4e0d\u80fd\u6309\u7167\u4f60\u9700\u8981\u7684\u65b9\u5f0f\u5de5\u4f5c\uff08\u4f8b\u5982\uff0c\u5224\u65ad\u4e00\u4e2a\u5b9e\u4f8b\u548c\u53e6\u4e00\u4e2a\u5b9e\u4f8b\u662f\u5426\u76f8\u7b49\u91c7\u7528\u4e00\u5957\u6807\u51c6\uff0c\u800c\u4e0e\u5224\u65ad\u4e00\u4e2a\u5b9e\u4f8b\u662f\u5426\u5927\u4e8e\u53e6\u4e00\u5b9e\u4f8b\u91c7\u7528\u53e6\u4e00\u5957\uff09\u3002 <cite>__cmp__</cite> \u5e94\u8be5\u5728 <cite>self &lt; other</cite> \u65f6\u8fd4\u56de\u4e00\u4e2a\u8d1f\u6574\u6570\uff0c\u5728 <cite>self == other</cite> \u65f6\u8fd4\u56de0\uff0c\u5728 <cite>self &gt; other</cite> \u65f6\u8fd4\u56de\u6b63\u6574\u6570\u3002\u6700\u597d\u53ea\u5b9a\u4e49\u4f60\u6240\u9700\u8981\u7684\u6bd4\u8f83\u5f62\u5f0f\uff0c\u800c\u4e0d\u662f\u4e00\u6b21\u5b9a\u4e49\u5168\u90e8\u3002 \u5982\u679c\u4f60\u9700\u8981\u5b9e\u73b0\u6240\u6709\u7684\u6bd4\u8f83\u5f62\u5f0f\uff0c\u800c\u4e14\u5b83\u4eec\u7684\u5224\u65ad\u6807\u51c6\u7c7b\u4f3c\uff0c\u90a3\u4e48 <cite>__cmp__</cite> \u662f\u4e00\u4e2a\u5f88\u597d\u7684\u65b9\u6cd5\uff0c\u53ef\u4ee5\u51cf\u5c11\u4ee3\u7801\u91cd\u590d\uff0c\u8ba9\u4ee3\u7801\u66f4\u7b80\u6d01\u3002</p>\u000a</li>\u000a<li><p class="first"><cite>__eq__`(self, other)</cite></p>\u000a<p>\u5b9a\u4e49\u7b49\u4e8e\u64cd\u4f5c\u7b26(==)\u7684\u884c\u4e3a\u3002</p>\u000a</li>\u000a<li><p class="first"><cite>__ne__(self, other)</cite></p>\u000a<p>\u5b9a\u4e49\u4e0d\u7b49\u4e8e\u64cd\u4f5c\u7b26(!=)\u7684\u884c\u4e3a\u3002</p>\u000a</li>\u000a<li><p class="first"><cite>__lt__(self, other)</cite></p>\u000a<p>\u5b9a\u4e49\u5c0f\u4e8e\u64cd\u4f5c\u7b26(&lt;)\u7684\u884c\u4e3a\u3002</p>\u000a</li>\u000a<li><p class="first"><cite>__gt__(self, other)</cite></p>\u000a<p>\u5b9a\u4e49\u5927\u4e8e\u64cd\u4f5c\u7b26(&gt;)\u7684\u884c\u4e3a\u3002</p>\u000a</li>\u000a<li><p class="first"><cite>__le__(self, other)</cite></p>\u000a<p>\u5b9a\u4e49\u5c0f\u4e8e\u7b49\u4e8e\u64cd\u4f5c\u7b26(&lt;)\u7684\u884c\u4e3a\u3002</p>\u000a</li>\u000a<li><p class="first"><cite>__ge__(self, other)</cite></p>\u000a<p>\u5b9a\u4e49\u5927\u4e8e\u7b49\u4e8e\u64cd\u4f5c\u7b26(&gt;)\u7684\u884c\u4e3a\u3002</p>\u000a</li>\u000a</ul>\u000a<p>\u4e3e\u4e2a\u4f8b\u5b50\uff0c\u5047\u5982\u6211\u4eec\u60f3\u7528\u4e00\u4e2a\u7c7b\u6765\u5b58\u50a8\u5355\u8bcd\u3002\u6211\u4eec\u53ef\u80fd\u60f3\u6309\u7167\u5b57\u5178\u5e8f\uff08\u5b57\u6bcd\u987a\u5e8f\uff09\u6765\u6bd4\u8f83\u5355\u8bcd\uff0c\u5b57\u7b26\u4e32\u7684\u9ed8\u8ba4\u6bd4\u8f83\u884c\u4e3a\u5c31\u662f\u8fd9\u6837\u3002\u6211\u4eec\u53ef\u80fd\u4e5f\u60f3\u6309\u7167\u5176\u4ed6\u89c4\u5219\u6765\u6bd4\u8f83\u5b57\u7b26\u4e32\uff0c\u50cf\u662f\u957f\u5ea6\uff0c\u6216\u8005\u97f3\u8282\u7684\u6570\u91cf\u3002\u5728\u8fd9\u4e2a\u4f8b\u5b50\u4e2d\uff0c\u6211\u4eec\u4f7f\u7528\u957f\u5ea6\u4f5c\u4e3a\u6bd4\u8f83\u6807\u51c6\uff0c\u4e0b\u9762\u662f\u4e00\u79cd\u5b9e\u73b0:</p>\u000a<div class="highlight-python"><div class="highlight"><pre><span></span><span class="k">class</span> <span class="nc">Word</span><span class="p">(</span><span class="nb">str</span><span class="p">):</span>\u000a    <span class="sd">&#39;&#39;&#39;\u5355\u8bcd\u7c7b\uff0c\u6309\u7167\u5355\u8bcd\u957f\u5ea6\u6765\u5b9a\u4e49\u6bd4\u8f83\u884c\u4e3a&#39;&#39;&#39;</span>\u000a\u000a    <span class="k">def</span> <span class="nf">__new__</span><span class="p">(</span><span class="n">cls</span><span class="p">,</span> <span class="n">word</span><span class="p">):</span>\u000a        <span class="c1"># \u6ce8\u610f\uff0c\u6211\u4eec\u53ea\u80fd\u4f7f\u7528 __new__ \uff0c\u56e0\u4e3astr\u662f\u4e0d\u53ef\u53d8\u7c7b\u578b</span>\u000a        <span class="c1"># \u6240\u4ee5\u6211\u4eec\u5fc5\u987b\u63d0\u524d\u521d\u59cb\u5316\u5b83\uff08\u5728\u5b9e\u4f8b\u521b\u5efa\u65f6\uff09</span>\u000a        <span class="k">if</span> <span class="s1">&#39; &#39;</span> <span class="ow">in</span> <span class="n">word</span><span class="p">:</span>\u000a            <span class="k">print</span> <span class="s2">&quot;Value contains spaces. Truncating to first space.&quot;</span>\u000a            <span class="n">word</span> <span class="o">=</span> <span class="n">word</span><span class="p">[:</span><span class="n">word</span><span class="o">.</span><span class="n">index</span><span class="p">(</span><span class="s1">&#39; &#39;</span><span class="p">)]</span>\u000a            <span class="c1"># Word\u73b0\u5728\u5305\u542b\u7b2c\u4e00\u4e2a\u7a7a\u683c\u524d\u7684\u6240\u6709\u5b57\u6bcd</span>\u000a        <span class="k">return</span> <span class="nb">str</span><span class="o">.</span><span class="n">__new__</span><span class="p">(</span><span class="n">cls</span><span class="p">,</span> <span class="n">word</span><span class="p">)</span>\u000a\u000a    <span class="k">def</span> <span class="nf">__gt__</span><span class="p">(</span><span class="bp">self</span><span class="p">,</span> <span class="n">other</span><span class="p">):</span>\u000a        <span class="k">return</span> <span class="nb">len</span><span class="p">(</span><span class="bp">self</span><span class="p">)</span> <span class="o">&gt;</span> <span class="nb">len</span><span class="p">(</span><span class="n">other</span><span class="p">)</span>\u000a    <span class="k">def</span> <span class="nf">__lt__</span><span class="p">(</span><span class="bp">self</span><span class="p">,</span> <span class="n">other</span><span class="p">):</span>\u000a        <span class="k">return</span> <span class="nb">len</span><span class="p">(</span><span class="bp">self</span><span class="p">)</span> <span class="o">&lt;</span> <span class="nb">len</span><span class="p">(</span><span class="n">other</span><span class="p">)</span>\u000a    <span class="k">def</span> <span class="nf">__ge__</span><span class="p">(</span><span class="bp">self</span><span class="p">,</span> <span class="n">other</span><span class="p">):</span>\u000a        <span class="k">return</span> <span class="nb">len</span><span class="p">(</span><span class="bp">self</span><span class="p">)</span> <span class="o">&gt;=</span> <span class="nb">len</span><span class="p">(</span><span class="n">other</span><span class="p">)</span>\u000a    <span class="k">def</span> <span class="nf">__le__</span><span class="p">(</span><span class="bp">self</span><span class="p">,</span> <span class="n">other</span><span class="p">):</span>\u000a        <span class="k">return</span> <span class="nb">len</span><span class="p">(</span><span class="bp">self</span><span class="p">)</span> <span class="o">&lt;=</span> <span class="nb">len</span><span class="p">(</span><span class="n">other</span><span class="p">)</span>\u000a</pre></div>\u000a</div>\u000a<p>\u73b0\u5728\u6211\u4eec\u53ef\u4ee5\u521b\u5efa\u4e24\u4e2a <cite>Word</cite> \u5bf9\u8c61\uff08 <cite>Word(&#8216;foo&#8217;)</cite> \u548c <cite>Word(&#8216;bar&#8217;)</cite>)\u7136\u540e\u6839\u636e\u957f\u5ea6\u6765\u6bd4\u8f83\u5b83\u4eec\u3002\u6ce8\u610f\u6211\u4eec\u6ca1\u6709\u5b9a\u4e49 <cite>__eq__</cite> \u548c <cite>__ne__</cite> \uff0c\u8fd9\u662f\u56e0\u4e3a\u6709\u65f6\u5019\u5b83\u4eec\u4f1a\u5bfc\u81f4\u5947\u602a\u7684\u7ed3\u679c\uff08\u5f88\u660e\u663e\uff0c <cite>Word(&#8216;foo&#8217;) == Word(&#8216;bar&#8217;)</cite> \u5f97\u5230\u7684\u7ed3\u679c\u4f1a\u662ftrue\uff09\u3002\u6839\u636e\u957f\u5ea6\u6d4b\u8bd5\u662f\u5426\u76f8\u7b49\u6beb\u65e0\u610f\u4e49\uff0c\u6240\u4ee5\u6211\u4eec\u4f7f\u7528 <cite>str</cite> \u7684\u5b9e\u73b0\u6765\u6bd4\u8f83\u76f8\u7b49\u3002</p>\u000a<p>\u4ece\u4e0a\u9762\u53ef\u4ee5\u770b\u5230\uff0c\u4e0d\u9700\u8981\u5b9e\u73b0\u6240\u6709\u7684\u6bd4\u8f83\u9b54\u6cd5\u65b9\u6cd5\uff0c\u5c31\u53ef\u4ee5\u4f7f\u7528\u4e30\u5bcc\u7684\u6bd4\u8f83\u64cd\u4f5c\u3002\u6807\u51c6\u5e93\u8fd8\u5728 <cite>functools</cite> \u6a21\u5757\u4e2d\u63d0\u4f9b\u4e86\u4e00\u4e2a\u7c7b\u88c5\u9970\u5668\uff0c\u53ea\u8981\u6211\u4eec\u5b9a\u4e49 <cite>__eq__</cite> \u548c\u53e6\u5916\u4e00\u4e2a\u64cd\u4f5c\u7b26\uff08 <cite>__gt__</cite>, <cite>__lt__</cite> \u7b49\uff09\uff0c\u5b83\u5c31\u53ef\u4ee5\u5e2e\u6211\u4eec\u5b9e\u73b0\u6bd4\u8f83\u65b9\u6cd5\u3002\u8fd9\u4e2a\u7279\u6027\u53ea\u5728 Python 2.7 \u4e2d\u53ef\u7528\u3002\u5f53\u5b83\u53ef\u7528\u65f6\uff0c\u5b83\u80fd\u5e2e\u52a9\u6211\u4eec\u8282\u7701\u5927\u91cf\u7684\u65f6\u95f4\u548c\u7cbe\u529b\u3002\u8981\u4f7f\u7528\u5b83\uff0c\u53ea\u9700\u8981\u5b83 <cite>&#64;total_ordering</cite> \u653e\u5728\u7c7b\u7684\u5b9a\u4e49\u4e4b\u4e0a\u5c31\u53ef\u4ee5\u4e86</p>\u000a</div>\u000a<div class="section" id="id6">\u000a<h3><a class="toc-backref" href="#id33">11.3.2. \u6570\u503c\u64cd\u4f5c\u7b26</a><a class="headerlink" href="#id6" title="Permalink to this headline"></a></h3>\u000a<p>\u5c31\u50cf\u4f60\u53ef\u4ee5\u4f7f\u7528\u6bd4\u8f83\u64cd\u4f5c\u7b26\u6765\u6bd4\u8f83\u7c7b\u7684\u5b9e\u4f8b\uff0c\u4f60\u4e5f\u53ef\u4ee5\u5b9a\u4e49\u6570\u503c\u64cd\u4f5c\u7b26\u7684\u884c\u4e3a\u3002\u56fa\u5b9a\u597d\u4f60\u7684\u5b89\u5168\u5e26\uff0c\u8fd9\u6837\u7684\u64cd\u4f5c\u7b26\u771f\u7684\u6709\u5f88\u591a\u3002\u770b\u5728\u7ec4\u7ec7\u7684\u4efd\u4e0a\uff0c\u6211\u628a\u5b83\u4eec\u5206\u6210\u4e86\u4e94\u7c7b\uff1a\u4e00\u5143\u64cd\u4f5c\u7b26\uff0c\u5e38\u89c1\u7b97\u6570\u64cd\u4f5c\u7b26\uff0c\u53cd\u5c04\u7b97\u6570\u64cd\u4f5c\u7b26\uff08\u540e\u9762\u4f1a\u6d89\u53ca\u66f4\u591a\uff09\uff0c\u589e\u5f3a\u8d4b\u503c\u64cd\u4f5c\u7b26\uff0c\u548c\u7c7b\u578b\u8f6c\u6362\u64cd\u4f5c\u7b26\u3002</p>\u000a<div class="section" id="id7">\u000a<h4><a class="toc-backref" href="#id34">11.3.2.1. \u4e00\u5143\u64cd\u4f5c\u7b26</a><a class="headerlink" href="#id7" title="Permalink to this headline"></a></h4>\u000a<p>\u4e00\u5143\u64cd\u4f5c\u7b26\u53ea\u6709\u4e00\u4e2a\u64cd\u4f5c\u7b26\u3002</p>\u000a<ul>\u000a<li><p class="first"><cite>__pos__(self)</cite></p>\u000a<p>\u5b9e\u73b0\u53d6\u6b63\u64cd\u4f5c\uff0c\u4f8b\u5982 <cite>+some_object</cite>\u3002</p>\u000a</li>\u000a<li><p class="first"><cite>__neg__(self)</cite></p>\u000a<p>\u5b9e\u73b0\u53d6\u8d1f\u64cd\u4f5c\uff0c\u4f8b\u5982 <cite>-some_object</cite>\u3002</p>\u000a</li>\u000a<li><p class="first"><cite>__abs__(self)</cite></p>\u000a<p>\u5b9e\u73b0\u5185\u5efa\u7edd\u5bf9\u503c\u51fd\u6570 <cite>abs()</cite> \u64cd\u4f5c\u3002</p>\u000a</li>\u000a<li><p class="first"><cite>__invert__(self)</cite></p>\u000a<p>\u5b9e\u73b0\u53d6\u53cd\u64cd\u4f5c\u7b26 <cite>~</cite>\u3002</p>\u000a</li>\u000a<li><p class="first"><cite>__round__(self\uff0c n)</cite></p>\u000a<p>\u5b9e\u73b0\u5185\u5efa\u51fd\u6570 <cite>round()</cite> \uff0cn \u662f\u8fd1\u4f3c\u5c0f\u6570\u70b9\u7684\u4f4d\u6570\u3002</p>\u000a</li>\u000a<li><p class="first"><cite>__floor__(self)</cite></p>\u000a<p>\u5b9e\u73b0 <cite>math.floor()</cite> \u51fd\u6570\uff0c\u5373\u5411\u4e0b\u53d6\u6574\u3002</p>\u000a</li>\u000a<li><p class="first"><cite>__ceil__(self)</cite></p>\u000a<p>\u5b9e\u73b0 <cite>math.ceil()</cite> \u51fd\u6570\uff0c\u5373\u5411\u4e0a\u53d6\u6574\u3002</p>\u000a</li>\u000a<li><p class="first"><cite>__trunc__(self)</cite></p>\u000a<p>\u5b9e\u73b0 <cite>math.trunc()</cite> \u51fd\u6570\uff0c\u5373\u8ddd\u79bb\u96f6\u6700\u8fd1\u7684\u6574\u6570\u3002</p>\u000a</li>\u000a</ul>\u000a</div>\u000a<div class="section" id="id8">\u000a<h4><a class="toc-backref" href="#id35">11.3.2.2. \u5e38\u89c1\u7b97\u6570\u64cd\u4f5c\u7b26</a><a class="headerlink" href="#id8" title="Permalink to this headline"></a></h4>\u000a<p>\u73b0\u5728\uff0c\u6211\u4eec\u6765\u770b\u770b\u5e38\u89c1\u7684\u4e8c\u5143\u64cd\u4f5c\u7b26\uff08\u548c\u4e00\u4e9b\u51fd\u6570\uff09\uff0c\u50cf+\uff0c-\uff0c*\u4e4b\u7c7b\u7684\uff0c\u5b83\u4eec\u5f88\u5bb9\u6613\u4ece\u5b57\u9762\u610f\u601d\u7406\u89e3\u3002</p>\u000a<ul>\u000a<li><p class="first"><cite>__add__(self, other)</cite></p>\u000a<p>\u5b9e\u73b0\u52a0\u6cd5\u64cd\u4f5c\u3002</p>\u000a</li>\u000a<li><p class="first"><cite>__sub__(self, other)</cite></p>\u000a<p>\u5b9e\u73b0\u51cf\u6cd5\u64cd\u4f5c\u3002</p>\u000a</li>\u000a<li><p class="first"><cite>__mul__(self, other)</cite></p>\u000a<p>\u5b9e\u73b0\u4e58\u6cd5\u64cd\u4f5c\u3002</p>\u000a</li>\u000a<li><p class="first"><cite>__floordiv__(self, other)</cite></p>\u000a<p>\u5b9e\u73b0\u4f7f\u7528 <cite>//</cite> \u64cd\u4f5c\u7b26\u7684\u6574\u6570\u9664\u6cd5\u3002</p>\u000a</li>\u000a<li><p class="first"><cite>__div__(self, other)</cite></p>\u000a<p>\u5b9e\u73b0\u4f7f\u7528 <cite>/</cite> \u64cd\u4f5c\u7b26\u7684\u9664\u6cd5\u3002</p>\u000a</li>\u000a<li><p class="first"><cite>__truediv__(self, other)</cite></p>\u000a<p>\u5b9e\u73b0 <cite>_true_</cite> \u9664\u6cd5\uff0c\u8fd9\u4e2a\u51fd\u6570\u53ea\u6709\u4f7f\u7528 <cite>from __future__ import division</cite> \u65f6\u624d\u6709\u4f5c\u7528\u3002</p>\u000a</li>\u000a<li><p class="first"><cite>__mod__(self, other)</cite></p>\u000a<p>\u5b9e\u73b0 <cite>%</cite> \u53d6\u4f59\u64cd\u4f5c\u3002</p>\u000a</li>\u000a<li><p class="first"><cite>__divmod__(self, other)</cite></p>\u000a<p>\u5b9e\u73b0 <cite>divmod</cite> \u5185\u5efa\u51fd\u6570\u3002</p>\u000a</li>\u000a<li><p class="first"><cite>__pow__</cite></p>\u000a<p>\u5b9e\u73b0 <cite>**</cite> \u64cd\u4f5c\u7b26\u3002</p>\u000a</li>\u000a<li><p class="first"><cite>__lshift__(self, other)</cite></p>\u000a<p>\u5b9e\u73b0\u5de6\u79fb\u4f4d\u8fd0\u7b97\u7b26 <cite>&lt;&lt;</cite> \u3002</p>\u000a</li>\u000a<li><p class="first"><cite>__rshift__(self, other)</cite></p>\u000a<p>\u5b9e\u73b0\u53f3\u79fb\u4f4d\u8fd0\u7b97\u7b26 <cite>&gt;&gt;</cite> \u3002</p>\u000a</li>\u000a<li><p class="first"><cite>__and__(self, other)</cite></p>\u000a<p>\u5b9e\u73b0\u6309\u4f4d\u4e0e\u8fd0\u7b97\u7b26 <cite>&amp;</cite> \u3002</p>\u000a</li>\u000a<li><p class="first"><cite>__or__(self, other)</cite></p>\u000a<p>\u5b9e\u73b0\u6309\u4f4d\u6216\u8fd0\u7b97\u7b26 <cite>|</cite> \u3002</p>\u000a</li>\u000a<li><p class="first"><cite>__xor__(self, other)</cite></p>\u000a<p>\u5b9e\u73b0\u6309\u4f4d\u5f02\u6216\u8fd0\u7b97\u7b26 <cite>^</cite> \u3002</p>\u000a</li>\u000a</ul>\u000a</div>\u000a<div class="section" id="id9">\u000a<h4><a class="toc-backref" href="#id36">11.3.2.3. \u53cd\u5c04\u7b97\u6570\u8fd0\u7b97\u7b26</a><a class="headerlink" href="#id9" title="Permalink to this headline"></a></h4>\u000a<p>\u8fd8\u8bb0\u5f97\u521a\u624d\u6211\u8bf4\u4f1a\u8c08\u5230\u53cd\u5c04\u8fd0\u7b97\u7b26\u5417\uff1f\u53ef\u80fd\u4f60\u4f1a\u89c9\u5f97\u5b83\u662f\u4ec0\u4e48\u9ad8\u7aef\u9738\u6c14\u4e0a\u6863\u6b21\u7684\u6982\u5ff5\uff0c\u5176\u5b9e\u8fd9\u4e1c\u897f\u633a\u7b80\u5355\u7684\uff0c\u4e0b\u9762\u4e3e\u4e2a\u4f8b\u5b50:</p>\u000a<div class="highlight-python"><div class="highlight"><pre><span></span><span class="n">some_object</span> <span class="o">+</span> <span class="n">other</span>\u000a</pre></div>\u000a</div>\u000a<p>\u8fd9\u662f\u201c\u5e38\u89c1\u201d\u7684\u52a0\u6cd5\uff0c\u53cd\u5c04\u662f\u4e00\u6837\u7684\u610f\u601d\uff0c\u53ea\u4e0d\u8fc7\u662f\u8fd0\u7b97\u7b26\u4ea4\u6362\u4e86\u4e00\u4e0b\u4f4d\u7f6e:</p>\u000a<div class="highlight-python"><div class="highlight"><pre><span></span><span class="n">other</span> <span class="o">+</span> <span class="n">some_object</span>\u000a</pre></div>\u000a</div>\u000a<p>\u6240\u6709\u53cd\u5c04\u8fd0\u7b97\u7b26\u9b54\u6cd5\u65b9\u6cd5\u548c\u5b83\u4eec\u7684\u5e38\u89c1\u7248\u672c\u505a\u7684\u5de5\u4f5c\u76f8\u540c\uff0c\u53ea\u4e0d\u8fc7\u662f\u5904\u7406\u4ea4\u6362\u8fde\u4e2a\u64cd\u4f5c\u6570\u4e4b\u540e\u7684\u60c5\u51b5\u3002\u7edd\u5927\u591a\u6570\u60c5\u51b5\u4e0b\uff0c\u53cd\u5c04\u8fd0\u7b97\u548c\u6b63\u5e38\u987a\u5e8f\u4ea7\u751f\u7684\u7ed3\u679c\u662f\u76f8\u540c\u7684\uff0c\u6240\u4ee5\u5f88\u53ef\u80fd\u4f60\u5b9a\u4e49 <cite>__radd__</cite> \u65f6\u53ea\u662f\u8c03\u7528\u4e00\u4e0b <cite>__add__</cite>\u3002\u6ce8\u610f\u4e00\u70b9\uff0c\u64cd\u4f5c\u7b26\u5de6\u4fa7\u7684\u5bf9\u8c61\uff08\u4e5f\u5c31\u662f\u4e0a\u9762\u7684 <cite>other</cite> \uff09\u4e00\u5b9a\u4e0d\u8981\u5b9a\u4e49\uff08\u6216\u8005\u4ea7\u751f <cite>NotImplemented</cite> \u5f02\u5e38\uff09 \u64cd\u4f5c\u7b26\u7684\u975e\u53cd\u5c04\u7248\u672c\u3002\u4f8b\u5982\uff0c\u5728\u4e0a\u9762\u7684\u4f8b\u5b50\u4e2d\uff0c\u53ea\u6709\u5f53 <cite>other</cite> \u6ca1\u6709\u5b9a\u4e49 <cite>__add__</cite> \u65f6 <cite>some_object.__radd__</cite> \u624d\u4f1a\u88ab\u8c03\u7528\u3002</p>\u000a<ul>\u000a<li><p class="first"><cite>__radd__(self, other)</cite></p>\u000a<p>\u5b9e\u73b0\u53cd\u5c04\u52a0\u6cd5\u64cd\u4f5c\u3002</p>\u000a</li>\u000a<li><p class="first"><cite>__rsub__(self, other)</cite></p>\u000a<p>\u5b9e\u73b0\u53cd\u5c04\u51cf\u6cd5\u64cd\u4f5c\u3002</p>\u000a</li>\u000a<li><p class="first"><cite>__rmul__(self, other)</cite></p>\u000a<p>\u5b9e\u73b0\u53cd\u5c04\u4e58\u6cd5\u64cd\u4f5c\u3002</p>\u000a</li>\u000a<li><p class="first"><cite>__rfloordiv__(self, other)</cite></p>\u000a<p>\u5b9e\u73b0\u4f7f\u7528 <cite>//</cite> \u64cd\u4f5c\u7b26\u7684\u6574\u6570\u53cd\u5c04\u9664\u6cd5\u3002</p>\u000a</li>\u000a<li><p class="first"><cite>__rdiv__(self, other)</cite></p>\u000a<p>\u5b9e\u73b0\u4f7f\u7528 <cite>/</cite> \u64cd\u4f5c\u7b26\u7684\u53cd\u5c04\u9664\u6cd5\u3002</p>\u000a</li>\u000a<li><p class="first"><cite>__rtruediv__(self, other)</cite></p>\u000a<p>\u5b9e\u73b0 <cite>_true_</cite> \u53cd\u5c04\u9664\u6cd5\uff0c\u8fd9\u4e2a\u51fd\u6570\u53ea\u6709\u4f7f\u7528 <cite>from __future__ import division</cite> \u65f6\u624d\u6709\u4f5c\u7528\u3002</p>\u000a</li>\u000a<li><p class="first"><cite>__rmod__(self, other)</cite></p>\u000a<p>\u5b9e\u73b0 <cite>%</cite> \u53cd\u5c04\u53d6\u4f59\u64cd\u4f5c\u7b26\u3002</p>\u000a</li>\u000a<li><p class="first"><cite>__rdivmod__(self, other)</cite></p>\u000a<p>\u5b9e\u73b0\u8c03\u7528 <cite>divmod(other, self)</cite> \u65f6 <cite>divmod</cite> \u5185\u5efa\u51fd\u6570\u7684\u64cd\u4f5c\u3002</p>\u000a</li>\u000a<li><p class="first"><cite>__rpow__</cite></p>\u000a<p>\u5b9e\u73b0 <cite>**</cite> \u53cd\u5c04\u64cd\u4f5c\u7b26\u3002</p>\u000a</li>\u000a<li><p class="first"><cite>__rlshift__(self, other)</cite></p>\u000a<p>\u5b9e\u73b0\u53cd\u5c04\u5de6\u79fb\u4f4d\u8fd0\u7b97\u7b26 <cite>&lt;&lt;</cite> \u7684\u4f5c\u7528\u3002</p>\u000a</li>\u000a<li><p class="first"><cite>__rshift__(self, other)</cite></p>\u000a<p>\u5b9e\u73b0\u53cd\u5c04\u53f3\u79fb\u4f4d\u8fd0\u7b97\u7b26 <cite>&gt;&gt;</cite> \u7684\u4f5c\u7528\u3002</p>\u000a</li>\u000a<li><p class="first"><cite>__rand__(self, other)</cite></p>\u000a<p>\u5b9e\u73b0\u53cd\u5c04\u6309\u4f4d\u4e0e\u8fd0\u7b97\u7b26 <cite>&amp;</cite> \u3002</p>\u000a</li>\u000a<li><p class="first"><cite>__ror__(self, other)</cite></p>\u000a<p>\u5b9e\u73b0\u53cd\u5c04\u6309\u4f4d\u6216\u8fd0\u7b97\u7b26 <cite>|</cite> \u3002</p>\u000a</li>\u000a<li><p class="first"><cite>__rxor__(self, other)</cite></p>\u000a<p>\u5b9e\u73b0\u53cd\u5c04\u6309\u4f4d\u5f02\u6216\u8fd0\u7b97\u7b26 <cite>^</cite> \u3002</p>\u000a</li>\u000a</ul>\u000a</div>\u000a<div class="section" id="id10">\u000a<h4><a class="toc-backref" href="#id37">11.3.2.4. \u589e\u5f3a\u8d4b\u503c\u8fd0\u7b97\u7b26</a><a class="headerlink" href="#id10" title="Permalink to this headline"></a></h4>\u000a<p>Python\u540c\u6837\u63d0\u4f9b\u4e86\u5927\u91cf\u7684\u9b54\u6cd5\u65b9\u6cd5\uff0c\u53ef\u4ee5\u7528\u6765\u81ea\u5b9a\u4e49\u589e\u5f3a\u8d4b\u503c\u64cd\u4f5c\u7684\u884c\u4e3a\u3002\u6216\u8bb8\u4f60\u5df2\u7ecf\u4e86\u89e3\u589e\u5f3a\u8d4b\u503c\uff0c\u5b83\u878d\u5408\u4e86\u201c\u5e38\u89c1\u201d\u7684\u64cd\u4f5c\u7b26\u548c\u8d4b\u503c\u64cd\u4f5c\uff0c\u5982\u679c\u4f60\u8fd8\u662f\u6ca1\u542c\u660e\u767d\uff0c\u770b\u4e0b\u9762\u7684\u4f8b\u5b50:</p>\u000a<div class="highlight-python"><div class="highlight"><pre><span></span><span class="n">x</span> <span class="o">=</span> <span class="mi">5</span>\u000a<span class="n">x</span> <span class="o">+=</span> <span class="mi">1</span> <span class="c1"># \u4e5f\u5c31\u662f x = x + 1</span>\u000a</pre></div>\u000a</div>\u000a<p>\u8fd9\u4e9b\u65b9\u6cd5\u90fd\u5e94\u8be5\u8fd4\u56de\u5de6\u4fa7\u64cd\u4f5c\u6570\u5e94\u8be5\u88ab\u8d4b\u4e88\u7684\u503c\uff08\u4f8b\u5982\uff0c <cite>a += b</cite> <cite>__iadd__</cite> \u4e5f\u8bb8\u4f1a\u8fd4\u56de <cite>a + b</cite> \uff0c\u8fd9\u4e2a\u7ed3\u679c\u4f1a\u88ab\u8d4b\u7ed9 a \uff09,\u4e0b\u9762\u662f\u65b9\u6cd5\u5217\u8868\uff1a</p>\u000a<ul>\u000a<li><p class="first"><cite>__iadd__(self, other)</cite></p>\u000a<p>\u5b9e\u73b0\u52a0\u6cd5\u8d4b\u503c\u64cd\u4f5c\u3002</p>\u000a</li>\u000a<li><p class="first"><cite>__isub__(self, other)</cite></p>\u000a<p>\u5b9e\u73b0\u51cf\u6cd5\u8d4b\u503c\u64cd\u4f5c\u3002</p>\u000a</li>\u000a<li><p class="first"><cite>__imul__(self, other)</cite></p>\u000a<p>\u5b9e\u73b0\u4e58\u6cd5\u8d4b\u503c\u64cd\u4f5c\u3002</p>\u000a</li>\u000a<li><p class="first"><cite>__ifloordiv__(self, other)</cite></p>\u000a<p>\u5b9e\u73b0\u4f7f\u7528 <cite>//=</cite> \u64cd\u4f5c\u7b26\u7684\u6574\u6570\u9664\u6cd5\u8d4b\u503c\u64cd\u4f5c\u3002</p>\u000a</li>\u000a<li><p class="first"><cite>__idiv__(self, other)</cite></p>\u000a<p>\u5b9e\u73b0\u4f7f\u7528 <cite>/=</cite> \u64cd\u4f5c\u7b26\u7684\u9664\u6cd5\u8d4b\u503c\u64cd\u4f5c\u3002</p>\u000a</li>\u000a<li><p class="first"><cite>__itruediv__(self, other)</cite></p>\u000a<p>\u5b9e\u73b0 <cite>_true_</cite> \u9664\u6cd5\u8d4b\u503c\u64cd\u4f5c\uff0c\u8fd9\u4e2a\u51fd\u6570\u53ea\u6709\u4f7f\u7528 <cite>from __future__ import division</cite> \u65f6\u624d\u6709\u4f5c\u7528\u3002</p>\u000a</li>\u000a<li><p class="first"><cite>__imod__(self, other)</cite></p>\u000a<p>\u5b9e\u73b0 <cite>%=</cite> \u53d6\u4f59\u8d4b\u503c\u64cd\u4f5c\u3002</p>\u000a</li>\u000a<li><p class="first"><cite>__ipow__</cite></p>\u000a<p>\u5b9e\u73b0 <cite>**=</cite> \u64cd\u4f5c\u3002</p>\u000a</li>\u000a<li><p class="first"><cite>__ilshift__(self, other)</cite></p>\u000a<p>\u5b9e\u73b0\u5de6\u79fb\u4f4d\u8d4b\u503c\u8fd0\u7b97\u7b26 <cite>&lt;&lt;=</cite> \u3002</p>\u000a</li>\u000a<li><p class="first"><cite>__irshift__(self, other)</cite></p>\u000a<p>\u5b9e\u73b0\u53f3\u79fb\u4f4d\u8d4b\u503c\u8fd0\u7b97\u7b26 <cite>&gt;&gt;=</cite> \u3002</p>\u000a</li>\u000a<li><p class="first"><cite>__iand__(self, other)</cite></p>\u000a<p>\u5b9e\u73b0\u6309\u4f4d\u4e0e\u8fd0\u7b97\u7b26 <cite>&amp;=</cite> \u3002</p>\u000a</li>\u000a<li><p class="first"><cite>__ior__(self, other)</cite></p>\u000a<p>\u5b9e\u73b0\u6309\u4f4d\u6216\u8d4b\u503c\u8fd0\u7b97\u7b26 <cite>|</cite> \u3002</p>\u000a</li>\u000a<li><p class="first"><cite>__ixor__(self, other)</cite></p>\u000a<p>\u5b9e\u73b0\u6309\u4f4d\u5f02\u6216\u8d4b\u503c\u8fd0\u7b97\u7b26 <cite>^=</cite> \u3002</p>\u000a</li>\u000a</ul>\u000a</div>\u000a<div class="section" id="id11">\u000a<h4><a class="toc-backref" href="#id38">11.3.2.5. \u7c7b\u578b\u8f6c\u6362\u64cd\u4f5c\u7b26</a><a class="headerlink" href="#id11" title="Permalink to this headline"></a></h4>\u000a<p>Python\u4e5f\u6709\u4e00\u7cfb\u5217\u7684\u9b54\u6cd5\u65b9\u6cd5\u7528\u4e8e\u5b9e\u73b0\u7c7b\u4f3c <cite>float()</cite> \u7684\u5185\u5efa\u7c7b\u578b\u8f6c\u6362\u51fd\u6570\u7684\u64cd\u4f5c\u3002\u5b83\u4eec\u662f\u8fd9\u4e9b\uff1a</p>\u000a<ul>\u000a<li><p class="first"><cite>__int__(self)</cite></p>\u000a<p>\u5b9e\u73b0\u5230int\u7684\u7c7b\u578b\u8f6c\u6362\u3002</p>\u000a</li>\u000a<li><p class="first"><cite>__long__(self)</cite></p>\u000a<p>\u5b9e\u73b0\u5230long\u7684\u7c7b\u578b\u8f6c\u6362\u3002</p>\u000a</li>\u000a<li><p class="first"><cite>__float__(self)</cite></p>\u000a<p>\u5b9e\u73b0\u5230float\u7684\u7c7b\u578b\u8f6c\u6362\u3002</p>\u000a</li>\u000a<li><p class="first"><cite>__complex__(self)</cite></p>\u000a<p>\u5b9e\u73b0\u5230complex\u7684\u7c7b\u578b\u8f6c\u6362\u3002</p>\u000a</li>\u000a<li><p class="first"><cite>__oct__(self)</cite></p>\u000a<p>\u5b9e\u73b0\u5230\u516b\u8fdb\u5236\u6570\u7684\u7c7b\u578b\u8f6c\u6362\u3002</p>\u000a</li>\u000a<li><p class="first"><cite>__hex__(self)</cite></p>\u000a<p>\u5b9e\u73b0\u5230\u5341\u516d\u8fdb\u5236\u6570\u7684\u7c7b\u578b\u8f6c\u6362\u3002</p>\u000a</li>\u000a<li><p class="first"><cite>__index__(self)</cite></p>\u000a<p>\u5b9e\u73b0\u5f53\u5bf9\u8c61\u7528\u4e8e\u5207\u7247\u8868\u8fbe\u5f0f\u65f6\u5230\u4e00\u4e2a\u6574\u6570\u7684\u7c7b\u578b\u8f6c\u6362\u3002\u5982\u679c\u4f60\u5b9a\u4e49\u4e86\u4e00\u4e2a\u53ef\u80fd\u4f1a\u7528\u4e8e\u5207\u7247\u64cd\u4f5c\u7684\u6570\u503c\u7c7b\u578b\uff0c\u4f60\u5e94\u8be5\u5b9a\u4e49 <cite>__index__</cite>\u3002</p>\u000a</li>\u000a<li><p class="first"><cite>__trunc__(self)</cite></p>\u000a<p>\u5f53\u8c03\u7528 <cite>math.trunc(self)</cite> \u65f6\u8c03\u7528\u8be5\u65b9\u6cd5\uff0c <cite>__trunc__</cite> \u5e94\u8be5\u8fd4\u56de <cite>self</cite> \u622a\u53d6\u5230\u4e00\u4e2a\u6574\u6570\u7c7b\u578b\uff08\u901a\u5e38\u662flong\u7c7b\u578b\uff09\u7684\u503c\u3002</p>\u000a</li>\u000a<li><p class="first"><cite>__coerce__(self)</cite></p>\u000a<p>\u8be5\u65b9\u6cd5\u7528\u4e8e\u5b9e\u73b0\u6df7\u5408\u6a21\u5f0f\u7b97\u6570\u8fd0\u7b97\uff0c\u5982\u679c\u4e0d\u80fd\u8fdb\u884c\u7c7b\u578b\u8f6c\u6362\uff0c <cite>__coerce__</cite> \u5e94\u8be5\u8fd4\u56de <cite>None</cite> \u3002\u53cd\u4e4b\uff0c\u5b83\u5e94\u8be5\u8fd4\u56de\u4e00\u4e2a\u4e8c\u5143\u7ec4 <cite>self</cite> \u548c <cite>other</cite> \uff0c\u8fd9\u4e24\u8005\u5747\u5df2\u88ab\u8f6c\u6362\u6210\u76f8\u540c\u7684\u7c7b\u578b\u3002</p>\u000a</li>\u000a</ul>\u000a</div>\u000a</div>\u000a</div>\u000a<div class="section" id="id12">\u000a<h2><a class="toc-backref" href="#id39">11.4. \u7c7b\u7684\u8868\u793a</a><a class="headerlink" href="#id12" title="Permalink to this headline"></a></h2>\u000a<p>\u4f7f\u7528\u5b57\u7b26\u4e32\u6765\u8868\u793a\u7c7b\u662f\u4e00\u4e2a\u76f8\u5f53\u6709\u7528\u7684\u7279\u6027\u3002\u5728Python\u4e2d\u6709\u4e00\u4e9b\u5185\u5efa\u65b9\u6cd5\u53ef\u4ee5\u8fd4\u56de\u7c7b\u7684\u8868\u793a\uff0c\u76f8\u5bf9\u5e94\u7684\uff0c\u4e5f\u6709\u4e00\u7cfb\u5217\u9b54\u6cd5\u65b9\u6cd5\u53ef\u4ee5\u7528\u6765\u81ea\u5b9a\u4e49\u5728\u4f7f\u7528\u8fd9\u4e9b\u5185\u5efa\u51fd\u6570\u65f6\u7c7b\u7684\u884c\u4e3a\u3002</p>\u000a<ul>\u000a<li><p class="first"><cite>__str__(self)</cite></p>\u000a<p>\u5b9a\u4e49\u5bf9\u7c7b\u7684\u5b9e\u4f8b\u8c03\u7528 <cite>str()</cite> \u65f6\u7684\u884c\u4e3a\u3002</p>\u000a</li>\u000a<li><p class="first"><cite>__repr__(self)</cite></p>\u000a<p>\u5b9a\u4e49\u5bf9\u7c7b\u7684\u5b9e\u4f8b\u8c03\u7528 <cite>repr()</cite> \u65f6\u7684\u884c\u4e3a\u3002 <cite>str()</cite> \u548c <cite>repr()</cite> \u6700\u4e3b\u8981\u7684\u5dee\u522b\u5728\u4e8e\u201c\u76ee\u6807\u7528\u6237\u201d\u3002 <cite>repr()</cite> \u7684\u4f5c\u7528\u662f\u4ea7\u751f\u673a\u5668\u53ef\u8bfb\u7684\u8f93\u51fa\uff08\u5927\u90e8\u5206\u60c5\u51b5\u4e0b\uff0c\u5176\u8f93\u51fa\u53ef\u4ee5\u4f5c\u4e3a\u6709\u6548\u7684Python\u4ee3\u7801\uff09\uff0c\u800c <cite>str()</cite> \u5219\u4ea7\u751f\u4eba\u7c7b\u53ef\u8bfb\u7684\u8f93\u51fa\u3002</p>\u000a</li>\u000a<li><p class="first"><cite>__unicode__(self)</cite></p>\u000a<p>\u5b9a\u4e49\u5bf9\u7c7b\u7684\u5b9e\u4f8b\u8c03\u7528 <cite>unicode()</cite> \u65f6\u7684\u884c\u4e3a\u3002 <cite>unicode()</cite> \u548c <cite>str()</cite> \u5f88\u50cf\uff0c\u53ea\u662f\u5b83\u8fd4\u56deunicode\u5b57\u7b26\u4e32\u3002\u6ce8\u610f\uff0c\u5982\u679c\u8c03\u7528\u8005\u8bd5\u56fe\u8c03\u7528 <cite>str()</cite> \u800c\u4f60\u7684\u7c7b\u53ea\u5b9e\u73b0\u4e86 <cite>__unicode__()</cite> \uff0c\u90a3\u4e48\u7c7b\u5c06\u4e0d\u80fd\u6b63\u5e38\u5de5\u4f5c\u3002\u6240\u6709\u4f60\u5e94\u8be5\u603b\u662f\u5b9a\u4e49 <cite>__str__()</cite> \uff0c\u4ee5\u9632\u6709\u4e9b\u4eba\u6ca1\u6709\u95f2\u60c5\u96c5\u81f4\u6765\u4f7f\u7528unicode\u3002</p>\u000a</li>\u000a<li><p class="first"><cite>__format__(self)</cite></p>\u000a<p>\u5b9a\u4e49\u5f53\u7c7b\u7684\u5b9e\u4f8b\u7528\u4e8e\u65b0\u5f0f\u5b57\u7b26\u4e32\u683c\u5f0f\u5316\u65f6\u7684\u884c\u4e3a\uff0c\u4f8b\u5982\uff0c <cite>&#8220;Hello, 0:abc!&#8221;.format(a)</cite> \u4f1a\u5bfc\u81f4\u8c03\u7528 <cite>a.__format__(&#8220;abc&#8221;)</cite> \u3002\u5f53\u5b9a\u4e49\u4f60\u81ea\u5df1\u7684\u6570\u503c\u7c7b\u578b\u6216\u5b57\u7b26\u4e32\u7c7b\u578b\u65f6\uff0c\u4f60\u53ef\u80fd\u60f3\u63d0\u4f9b\u67d0\u4e9b\u7279\u6b8a\u7684\u683c\u5f0f\u5316\u9009\u9879\uff0c\u8fd9\u79cd\u60c5\u51b5\u4e0b\u8fd9\u4e2a\u9b54\u6cd5\u65b9\u6cd5\u4f1a\u975e\u5e38\u6709\u7528\u3002</p>\u000a</li>\u000a<li><p class="first"><cite>__hash__(self)</cite></p>\u000a<p>\u5b9a\u4e49\u5bf9\u7c7b\u7684\u5b9e\u4f8b\u8c03\u7528 <cite>hash()</cite> \u65f6\u7684\u884c\u4e3a\u3002\u5b83\u5fc5\u987b\u8fd4\u56de\u4e00\u4e2a\u6574\u6570\uff0c\u5176\u7ed3\u679c\u4f1a\u88ab\u7528\u4e8e\u5b57\u5178\u4e2d\u952e\u7684\u5feb\u901f\u6bd4\u8f83\u3002\u540c\u65f6\u6ce8\u610f\u4e00\u70b9\uff0c\u5b9e\u73b0\u8fd9\u4e2a\u9b54\u6cd5\u65b9\u6cd5\u901a\u5e38\u4e5f\u9700\u8981\u5b9e\u73b0 <cite>__eq__</cite> \uff0c\u5e76\u4e14\u9075\u5b88\u5982\u4e0b\u7684\u89c4\u5219\uff1a <cite>a == b</cite> \u610f\u5473\u7740 <cite>hash(a) == hash(b)</cite>\u3002</p>\u000a</li>\u000a<li><p class="first"><cite>__nonzero__(self)</cite></p>\u000a<p>\u5b9a\u4e49\u5bf9\u7c7b\u7684\u5b9e\u4f8b\u8c03\u7528 <cite>bool()</cite> \u65f6\u7684\u884c\u4e3a\uff0c\u6839\u636e\u4f60\u81ea\u5df1\u5bf9\u7c7b\u7684\u8bbe\u8ba1\uff0c\u9488\u5bf9\u4e0d\u540c\u7684\u5b9e\u4f8b\uff0c\u8fd9\u4e2a\u9b54\u6cd5\u65b9\u6cd5\u5e94\u8be5\u76f8\u5e94\u5730\u8fd4\u56deTrue\u6216False\u3002</p>\u000a</li>\u000a<li><p class="first"><cite>__dir__(self)</cite></p>\u000a<p>\u5b9a\u4e49\u5bf9\u7c7b\u7684\u5b9e\u4f8b\u8c03\u7528 <cite>dir()</cite> \u65f6\u7684\u884c\u4e3a\uff0c\u8fd9\u4e2a\u65b9\u6cd5\u5e94\u8be5\u5411\u8c03\u7528\u8005\u8fd4\u56de\u4e00\u4e2a\u5c5e\u6027\u5217\u8868\u3002\u4e00\u822c\u6765\u8bf4\uff0c\u6ca1\u5fc5\u8981\u81ea\u5df1\u5b9e\u73b0 <cite>__dir__</cite> \u3002\u4f46\u662f\u5982\u679c\u4f60\u91cd\u5b9a\u4e49\u4e86 <cite>__getattr__</cite> \u6216\u8005 <cite>__getattribute__</cite> \uff08\u4e0b\u4e2a\u90e8\u5206\u4f1a\u4ecb\u7ecd\uff09\uff0c\u4e43\u81f3\u4f7f\u7528\u52a8\u6001\u751f\u6210\u7684\u5c5e\u6027\uff0c\u4ee5\u5b9e\u73b0\u7c7b\u7684\u4ea4\u4e92\u5f0f\u4f7f\u7528\uff0c\u90a3\u4e48\u8fd9\u4e2a\u9b54\u6cd5\u65b9\u6cd5\u662f\u5fc5\u4e0d\u53ef\u5c11\u7684\u3002</p>\u000a</li>\u000a</ul>\u000a<p>\u5230\u8fd9\u91cc\uff0c\u6211\u4eec\u57fa\u672c\u4e0a\u5df2\u7ecf\u7ed3\u675f\u4e86\u9b54\u6cd5\u65b9\u6cd5\u6307\u5357\u4e2d\u65e0\u804a\u5e76\u4e14\u4f8b\u5b50\u532e\u4e4f\u7684\u90e8\u5206\u3002\u65e2\u7136\u6211\u4eec\u5df2\u7ecf\u4ecb\u7ecd\u4e86\u8f83\u4e3a\u57fa\u7840\u7684\u9b54\u6cd5\u65b9\u6cd5\uff0c\u662f\u65f6\u5019\u6d89\u53ca\u66f4\u9ad8\u7ea7\u7684\u5185\u5bb9\u4e86\u3002</p>\u000a</div>\u000a<div class="section" id="id13">\u000a<h2><a class="toc-backref" href="#id40">11.5. \u8bbf\u95ee\u63a7\u5236</a><a class="headerlink" href="#id13" title="Permalink to this headline"></a></h2>\u000a<p>\u5f88\u591a\u4ece\u5176\u4ed6\u8bed\u8a00\u8f6c\u5411Python\u7684\u4eba\u90fd\u62b1\u6028Python\u7684\u7c7b\u7f3a\u5c11\u771f\u6b63\u610f\u4e49\u4e0a\u7684\u5c01\u88c5\uff08\u5373\u6ca1\u529e\u6cd5\u5b9a\u4e49\u79c1\u6709\u5c5e\u6027\u7136\u540e\u4f7f\u7528\u516c\u6709\u7684getter\u548csetter\uff09\u3002\u7136\u800c\u4e8b\u5b9e\u5e76\u975e\u5982\u6b64\u3002\u5b9e\u9645\u4e0aPython\u4e0d\u662f\u901a\u8fc7\u663e\u5f0f\u5b9a\u4e49\u7684\u5b57\u6bb5\u548c\u65b9\u6cd5\u4fee\u6539\u5668\uff0c\u800c\u662f\u901a\u8fc7\u9b54\u6cd5\u65b9\u6cd5\u5b9e\u73b0\u4e86\u4e00\u7cfb\u5217\u7684\u5c01\u88c5\u3002</p>\u000a<ul class="simple">\u000a<li><cite>__getattr__(self, name)</cite></li>\u000a</ul>\u000a<p>\u5f53\u7528\u6237\u8bd5\u56fe\u8bbf\u95ee\u4e00\u4e2a\u6839\u672c\u4e0d\u5b58\u5728\uff08\u6216\u8005\u6682\u65f6\u4e0d\u5b58\u5728\uff09\u7684\u5c5e\u6027\u65f6\uff0c\u4f60\u53ef\u4ee5\u901a\u8fc7\u8fd9\u4e2a\u9b54\u6cd5\u65b9\u6cd5\u6765\u5b9a\u4e49\u7c7b\u7684\u884c\u4e3a\u3002\u8fd9\u4e2a\u53ef\u4ee5\u7528\u4e8e\u6355\u6349\u9519\u8bef\u7684\u62fc\u5199\u5e76\u4e14\u7ed9\u51fa\u6307\u5f15\uff0c\u4f7f\u7528\u5e9f\u5f03\u5c5e\u6027\u65f6\u7ed9\u51fa\u8b66\u544a\uff08\u5982\u679c\u4f60\u613f\u610f\uff0c\u4ecd\u7136\u53ef\u4ee5\u8ba1\u7b97\u5e76\u4e14\u8fd4\u56de\u8be5\u5c5e\u6027\uff09\uff0c\u4ee5\u53ca\u7075\u6d3b\u5730\u5904\u7406AttributeError\u3002\u53ea\u6709\u5f53\u8bd5\u56fe\u8bbf\u95ee\u4e0d\u5b58\u5728\u7684\u5c5e\u6027\u65f6\u5b83\u624d\u4f1a\u88ab\u8c03\u7528\uff0c\u6240\u4ee5\u8fd9\u4e0d\u80fd\u7b97\u662f\u4e00\u4e2a\u771f\u6b63\u7684\u5c01\u88c5\u7684\u529e\u6cd5\u3002</p>\u000a<ul class="simple">\u000a<li><cite>__setattr__(self, name, value)</cite></li>\u000a</ul>\u000a<p>\u548c <cite>__getattr__</cite> \u4e0d\u540c\uff0c <cite>__setattr__</cite> \u53ef\u4ee5\u7528\u4e8e\u771f\u6b63\u610f\u4e49\u4e0a\u7684\u5c01\u88c5\u3002\u5b83\u5141\u8bb8\u4f60\u81ea\u5b9a\u4e49\u67d0\u4e2a\u5c5e\u6027\u7684\u8d4b\u503c\u884c\u4e3a\uff0c\u4e0d\u7ba1\u8fd9\u4e2a\u5c5e\u6027\u5b58\u5728\u4e0e\u5426\uff0c\u4e5f\u5c31\u662f\u8bf4\u4f60\u53ef\u4ee5\u5bf9\u4efb\u610f\u5c5e\u6027\u7684\u4efb\u4f55\u53d8\u5316\u90fd\u5b9a\u4e49\u81ea\u5df1\u7684\u89c4\u5219\u3002\u7136\u540e\uff0c\u4e00\u5b9a\u8981\u5c0f\u5fc3\u4f7f\u7528 <cite>__setattr__</cite> \uff0c\u8fd9\u4e2a\u5217\u8868\u6700\u540e\u7684\u4f8b\u5b50\u4e2d\u4f1a\u6709\u6240\u5c55\u793a\u3002</p>\u000a<ul class="simple">\u000a<li><cite>__delattr__(self, name)</cite></li>\u000a</ul>\u000a<p>\u8fd9\u4e2a\u9b54\u6cd5\u65b9\u6cd5\u548c <cite>__setattr__</cite> \u51e0\u4e4e\u76f8\u540c\uff0c\u53ea\u4e0d\u8fc7\u5b83\u662f\u7528\u4e8e\u5904\u7406\u5220\u9664\u5c5e\u6027\u65f6\u7684\u884c\u4e3a\u3002\u548c <cite>_setattr__</cite> \u4e00\u6837\uff0c\u4f7f\u7528\u5b83\u65f6\u4e5f\u9700\u8981\u591a\u52a0\u5c0f\u5fc3\uff0c\u9632\u6b62\u4ea7\u751f\u65e0\u9650\u9012\u5f52\uff08\u5728 <cite>__delattr__</cite> \u7684\u5b9e\u73b0\u4e2d\u8c03\u7528 <cite>del self.name</cite> \u4f1a\u5bfc\u81f4\u65e0\u9650\u9012\u5f52\uff09\u3002</p>\u000a<ul class="simple">\u000a<li><cite>__getattribute__(self, name)</cite></li>\u000a</ul>\u000a<p>` __getattribute__` \u770b\u8d77\u6765\u548c\u4e0a\u9762\u90a3\u4e9b\u65b9\u6cd5\u5f88\u5408\u5f97\u6765\uff0c\u4f46\u662f\u6700\u597d\u4e0d\u8981\u4f7f\u7528\u5b83\u3002 <cite>__getattribute__</cite> \u53ea\u80fd\u7528\u4e8e\u65b0\u5f0f\u7c7b\u3002\u5728\u6700\u65b0\u7248\u7684Python\u4e2d\u6240\u6709\u7684\u7c7b\u90fd\u662f\u65b0\u5f0f\u7c7b\uff0c\u5728\u8001\u7248Python\u4e2d\u4f60\u53ef\u4ee5\u901a\u8fc7\u7ee7\u627f <cite>object</cite> \u6765\u521b\u5efa\u65b0\u5f0f\u7c7b\u3002 <cite>__getattribute__</cite> \u5141\u8bb8\u4f60\u81ea\u5b9a\u4e49\u5c5e\u6027\u88ab\u8bbf\u95ee\u65f6\u7684\u884c\u4e3a\uff0c\u5b83\u4e5f\u540c\u6837\u53ef\u80fd\u9047\u5230\u65e0\u9650\u9012\u5f52\u95ee\u9898\uff08\u901a\u8fc7\u8c03\u7528\u57fa\u7c7b\u7684 <cite>__getattribute__</cite> \u6765\u907f\u514d\uff09\u3002 <cite>__getattribute__</cite> \u57fa\u672c\u4e0a\u53ef\u4ee5\u66ff\u4ee3 <cite>__getattr__</cite> \u3002\u53ea\u6709\u5f53\u5b83\u88ab\u5b9e\u73b0\uff0c\u5e76\u4e14\u663e\u5f0f\u5730\u88ab\u8c03\u7528\uff0c\u6216\u8005\u4ea7\u751f <cite>AttributeError</cite> \u65f6\u5b83\u624d\u88ab\u4f7f\u7528\u3002 \u8fd9\u4e2a\u9b54\u6cd5\u65b9\u6cd5\u53ef\u4ee5\u88ab\u4f7f\u7528\uff08\u6bd5\u7adf\uff0c\u9009\u62e9\u6743\u5728\u4f60\u81ea\u5df1\uff09\uff0c\u6211\u4e0d\u63a8\u8350\u4f60\u4f7f\u7528\u5b83\uff0c\u56e0\u4e3a\u5b83\u7684\u4f7f\u7528\u8303\u56f4\u76f8\u5bf9\u6709\u9650\uff08\u901a\u5e38\u6211\u4eec\u60f3\u8981\u5728\u8d4b\u503c\u65f6\u8fdb\u884c\u7279\u6b8a\u64cd\u4f5c\uff0c\u800c\u4e0d\u662f\u53d6\u503c\u65f6\uff09\uff0c\u800c\u4e14\u5b9e\u73b0\u8fd9\u4e2a\u65b9\u6cd5\u5f88\u5bb9\u6613\u51fa\u73b0Bug\u3002</p>\u000a<p>\u81ea\u5b9a\u4e49\u8fd9\u4e9b\u63a7\u5236\u5c5e\u6027\u8bbf\u95ee\u7684\u9b54\u6cd5\u65b9\u6cd5\u5f88\u5bb9\u6613\u5bfc\u81f4\u95ee\u9898\uff0c\u8003\u8651\u4e0b\u9762\u8fd9\u4e2a\u4f8b\u5b50:</p>\u000a<div class="highlight-python"><div class="highlight"><pre><span></span>def __setattr__(self, name. value):\u000a    self.name = value\u000a    # \u56e0\u4e3a\u6bcf\u6b21\u5c5e\u6027\u5e45\u503c\u90fd\u8981\u8c03\u7528 __setattr__()\uff0c\u6240\u4ee5\u8fd9\u91cc\u7684\u5b9e\u73b0\u4f1a\u5bfc\u81f4\u9012\u5f52\u000a    # \u8fd9\u91cc\u7684\u8c03\u7528\u5b9e\u9645\u4e0a\u662f self.__setattr(&#39;name&#39;, value)\u3002\u56e0\u4e3a\u8fd9\u4e2a\u65b9\u6cd5\u4e00\u76f4\u000a    # \u5728\u8c03\u7528\u81ea\u5df1\uff0c\u56e0\u6b64\u9012\u5f52\u5c06\u6301\u7eed\u8fdb\u884c\uff0c\u76f4\u5230\u7a0b\u5e8f\u5d29\u6e83\u000a\u000adef __setattr__(self, name, value):\u000a    self.__dict__[name] = value # \u4f7f\u7528 __dict__ \u8fdb\u884c\u8d4b\u503c\u000a    # \u5b9a\u4e49\u81ea\u5b9a\u4e49\u884c\u4e3a\u000a</pre></div>\u000a</div>\u000a<p>\u518d\u6b21\u91cd\u7533\uff0cPython\u7684\u9b54\u6cd5\u65b9\u6cd5\u5341\u5206\u5f3a\u5927\uff0c\u80fd\u529b\u8d8a\u5f3a\u8d23\u4efb\u8d8a\u5927\uff0c\u4e86\u89e3\u5982\u4f55\u6b63\u786e\u7684\u4f7f\u7528\u9b54\u6cd5\u65b9\u6cd5\u66f4\u52a0\u91cd\u8981\u3002</p>\u000a<p>\u5230\u8fd9\u91cc\uff0c\u6211\u4eec\u5bf9Python\u4e2d\u81ea\u5b9a\u4e49\u5c5e\u6027\u5b58\u53d6\u63a7\u5236\u6709\u4e86\u4ec0\u4e48\u6837\u7684\u5370\u8c61\uff1f\u5b83\u5e76\u4e0d\u9002\u5408\u8f7b\u5ea6\u7684\u4f7f\u7528\u3002\u5b9e\u9645\u4e0a\uff0c\u5b83\u6709\u4e9b\u8fc7\u5206\u5f3a\u5927\uff0c\u800c\u4e14\u8fdd\u53cd\u76f4\u89c9\u3002\u7136\u800c\u5b83\u4e4b\u6240\u4ee5\u5b58\u5728\uff0c\u662f\u56e0\u4e3a\u4e00\u4e2a\u66f4\u5927\u7684\u539f\u5219\uff1aPython\u4e0d\u6307\u671b\u8ba9\u675c\u7edd\u574f\u4e8b\u53d1\u751f\uff0c\u800c\u662f\u60f3\u529e\u6cd5\u8ba9\u505a\u574f\u4e8b\u53d8\u5f97\u56f0\u96be\u3002\u81ea\u7531\u662f\u81f3\u9ad8\u65e0\u4e0a\u7684\u6743\u5229\uff0c\u4f60\u771f\u7684\u53ef\u4ee5\u968f\u5fc3\u6240\u6b32\u3002\u4e0b\u9762\u7684\u4f8b\u5b50\u5c55\u793a\u4e86\u5b9e\u9645\u5e94\u7528\u4e2d\u67d0\u4e9b\u7279\u6b8a\u7684\u5c5e\u6027\u8bbf\u95ee\u65b9\u6cd5\uff08\u6ce8\u610f\u6211\u4eec\u4e4b\u6240\u4ee5\u4f7f\u7528 <cite>super</cite> \u662f\u56e0\u4e3a\u4e0d\u662f\u6240\u6709\u7684\u7c7b\u90fd\u6709 <cite>__dict__</cite> \u5c5e\u6027\uff09:</p>\u000a<div class="highlight-python"><div class="highlight"><pre><span></span>class AccessCounter(object):\u000a    &#39;&#39;&#39; \u4e00\u4e2a\u5305\u542b\u4e86\u4e00\u4e2a\u503c\u5e76\u4e14\u5b9e\u73b0\u4e86\u8bbf\u95ee\u8ba1\u6570\u5668\u7684\u7c7b\u000a    \u6bcf\u6b21\u503c\u7684\u53d8\u5316\u90fd\u4f1a\u5bfc\u81f4\u8ba1\u6570\u5668\u81ea\u589e&#39;&#39;&#39;\u000a\u000a    def __init__(self, val):\u000a            super(AccessCounter, self).__setattr__(&#39;counter&#39;, 0)\u000a            super(AccessCounter, self).__setattr__(&#39;value&#39;, val)\u000a\u000a    def __setattr__(self, name, value):\u000a            if name == &#39;value&#39;:\u000a                    super(AccessCounter, self).__setattr_(&#39;counter&#39;, self.counter + 1)\u000a        # \u4f7f\u8ba1\u6570\u5668\u81ea\u589e\u53d8\u6210\u4e0d\u53ef\u907f\u514d\u000a        # \u5982\u679c\u4f60\u60f3\u963b\u6b62\u5176\u4ed6\u5c5e\u6027\u7684\u8d4b\u503c\u884c\u4e3a\u000a        # \u4ea7\u751f AttributeError(name) \u5c31\u53ef\u4ee5\u4e86\u000a        super(AccessCounter, self).__setattr__(name, value)\u000a\u000a    def __delattr__(self, name):\u000a            if name == &#39;value&#39;:\u000a                    super(AccessCounter, self).__setattr(&#39;counter&#39;, self.counter + 1)\u000a                    super(AccessCounter, self).__delattr(name)\u000a</pre></div>\u000a</div>\u000a</div>\u000a<div class="section" id="id14">\u000a<h2><a class="toc-backref" href="#id41">11.6. \u81ea\u5b9a\u4e49\u5e8f\u5217</a><a class="headerlink" href="#id14" title="Permalink to this headline"></a></h2>\u000a<p>\u6709\u8bb8\u591a\u529e\u6cd5\u53ef\u4ee5\u8ba9\u4f60\u7684Python\u7c7b\u8868\u73b0\u5f97\u50cf\u662f\u5185\u5efa\u5e8f\u5217\u7c7b\u578b\uff08\u5b57\u5178\uff0c\u5143\u7ec4\uff0c\u5217\u8868\uff0c\u5b57\u7b26\u4e32\u7b49\uff09\u3002\u8fd9\u4e9b\u9b54\u6cd5\u65b9\u5f0f\u662f\u76ee\u524d\u4e3a\u6b62\u6211\u6700\u559c\u6b22\u7684\u3002\u5b83\u4eec\u7ed9\u4e86\u4f60\u96be\u4ee5\u7f6e\u4fe1\u7684\u63a7\u5236\u80fd\u529b\uff0c\u53ef\u4ee5\u8ba9\u4f60\u7684\u7c7b\u4e0e\u4e00\u7cfb\u5217\u7684\u5168\u5c40\u51fd\u6570\u5b8c\u7f8e\u7ed3\u5408\u3002\u5728\u4e86\u89e3\u6fc0\u52a8\u4eba\u5fc3\u7684\u5185\u5bb9\u4e4b\u524d\uff0c\u9996\u5148\u4f60\u9700\u8981\u638c\u63e1\u4e00\u4e9b\u9884\u5907\u77e5\u8bc6\u3002</p>\u000a<div class="section" id="id15">\u000a<h3><a class="toc-backref" href="#id42">11.6.1. \u9884\u5907\u77e5\u8bc6</a><a class="headerlink" href="#id15" title="Permalink to this headline"></a></h3>\u000a<p>\u65e2\u7136\u8bb2\u5230\u521b\u5efa\u81ea\u5df1\u7684\u5e8f\u5217\u7c7b\u578b\uff0c\u5c31\u4e0d\u5f97\u4e0d\u8bf4\u4e00\u8bf4\u534f\u8bae\u4e86\u3002\u534f\u8bae\u7c7b\u4f3c\u67d0\u4e9b\u8bed\u8a00\u4e2d\u7684\u63a5\u53e3\uff0c\u91cc\u9762\u5305\u542b\u7684\u662f\u4e00\u4e9b\u5fc5\u987b\u5b9e\u73b0\u7684\u65b9\u6cd5\u3002\u5728Python\u4e2d\uff0c\u534f\u8bae\u5b8c\u5168\u662f\u975e\u6b63\u5f0f\u7684\uff0c\u4e5f\u4e0d\u9700\u8981\u663e\u5f0f\u7684\u58f0\u660e\uff0c\u4e8b\u5b9e\u4e0a\uff0c\u5b83\u4eec\u66f4\u50cf\u662f\u4e00\u79cd\u53c2\u8003\u6807\u51c6\u3002</p>\u000a<p>\u4e3a\u4ec0\u4e48\u6211\u4eec\u8981\u8bb2\u534f\u8bae\uff1f\u56e0\u4e3a\u5728Python\u4e2d\u5b9e\u73b0\u81ea\u5b9a\u4e49\u5bb9\u5668\u7c7b\u578b\u9700\u8981\u7528\u5230\u4e00\u4e9b\u534f\u8bae\u3002\u9996\u5148\uff0c\u4e0d\u53ef\u53d8\u5bb9\u5668\u7c7b\u578b\u6709\u5982\u4e0b\u534f\u8bae\uff1a\u60f3\u5b9e\u73b0\u4e00\u4e2a\u4e0d\u53ef\u53d8\u5bb9\u5668\uff0c\u4f60\u9700\u8981\u5b9a\u4e49 <cite>__len__</cite> \u548c <cite>__getitem__</cite> (\u540e\u9762\u4f1a\u5177\u4f53\u8bf4\u660e\uff09\u3002\u53ef\u53d8\u5bb9\u5668\u7684\u534f\u8bae\u9664\u4e86\u4e0a\u9762\u63d0\u5230\u7684\u4e24\u4e2a\u65b9\u6cd5\u4e4b\u5916\uff0c\u8fd8\u9700\u8981\u5b9a\u4e49 <cite>__setitem__</cite> \u548c <cite>__delitem__</cite> \u3002\u6700\u540e\uff0c\u5982\u679c\u4f60\u60f3\u8ba9\u4f60\u7684\u5bf9\u8c61\u53ef\u4ee5\u8fed\u4ee3\uff0c\u4f60\u9700\u8981\u5b9a\u4e49 <cite>__iter__</cite> \uff0c\u8fd9\u4e2a\u65b9\u6cd5\u8fd4\u56de\u4e00\u4e2a\u8fed\u4ee3\u5668\u3002\u8fed\u4ee3\u5668\u5fc5\u987b\u9075\u5b88\u8fed\u4ee3\u5668\u534f\u8bae\uff0c\u9700\u8981\u5b9a\u4e49 <cite>__iter__</cite> \uff08\u8fd4\u56de\u5b83\u81ea\u5df1\uff09\u548c <cite>next</cite> \u65b9\u6cd5\u3002</p>\u000a</div>\u000a<div class="section" id="id16">\u000a<h3><a class="toc-backref" href="#id43">11.6.2. \u5bb9\u5668\u80cc\u540e\u7684\u9b54\u6cd5\u65b9\u6cd5</a><a class="headerlink" href="#id16" title="Permalink to this headline"></a></h3>\u000a<ul>\u000a<li><p class="first"><cite>__len__(self)</cite></p>\u000a<p>\u8fd4\u56de\u5bb9\u5668\u7684\u957f\u5ea6\uff0c\u53ef\u53d8\u548c\u4e0d\u53ef\u53d8\u7c7b\u578b\u90fd\u9700\u8981\u5b9e\u73b0\u3002</p>\u000a</li>\u000a<li><p class="first"><cite>__getitem__(self, key)</cite></p>\u000a<p>\u5b9a\u4e49\u5bf9\u5bb9\u5668\u4e2d\u67d0\u4e00\u9879\u4f7f\u7528 <cite>self[key]</cite> \u7684\u65b9\u5f0f\u8fdb\u884c\u8bfb\u53d6\u64cd\u4f5c\u65f6\u7684\u884c\u4e3a\u3002\u8fd9\u4e5f\u662f\u53ef\u53d8\u548c\u4e0d\u53ef\u53d8\u5bb9\u5668\u7c7b\u578b\u90fd\u9700\u8981\u5b9e\u73b0\u7684\u4e00\u4e2a\u65b9\u6cd5\u3002\u5b83\u5e94\u8be5\u5728\u952e\u7684\u7c7b\u578b\u9519\u8bef\u5f0f\u4ea7\u751f <cite>TypeError</cite> \u5f02\u5e38\uff0c\u540c\u65f6\u5728\u6ca1\u6709\u4e0e\u952e\u503c\u76f8\u5339\u914d\u7684\u5185\u5bb9\u65f6\u4ea7\u751f <cite>KeyError</cite> \u5f02\u5e38\u3002</p>\u000a</li>\u000a<li><p class="first"><cite>__setitem__(self, key)</cite></p>\u000a<p>\u5b9a\u4e49\u5bf9\u5bb9\u5668\u4e2d\u67d0\u4e00\u9879\u4f7f\u7528 <cite>self[key]</cite> \u7684\u65b9\u5f0f\u8fdb\u884c\u8d4b\u503c\u64cd\u4f5c\u65f6\u7684\u884c\u4e3a\u3002\u5b83\u662f\u53ef\u53d8\u5bb9\u5668\u7c7b\u578b\u5fc5\u987b\u5b9e\u73b0\u7684\u4e00\u4e2a\u65b9\u6cd5\uff0c\u540c\u6837\u5e94\u8be5\u5728\u5408\u9002\u7684\u65f6\u5019\u4ea7\u751f <cite>KeyError</cite> \u548c <cite>TypeError</cite> \u5f02\u5e38\u3002</p>\u000a</li>\u000a<li><p class="first"><cite>__iter__(self, key)</cite></p>\u000a<p>\u5b83\u5e94\u8be5\u8fd4\u56de\u5f53\u524d\u5bb9\u5668\u7684\u4e00\u4e2a\u8fed\u4ee3\u5668\u3002\u8fed\u4ee3\u5668\u4ee5\u4e00\u8fde\u4e32\u5185\u5bb9\u7684\u5f62\u5f0f\u8fd4\u56de\uff0c\u6700\u5e38\u89c1\u7684\u662f\u4f7f\u7528 <cite>iter()</cite> \u51fd\u6570\u8c03\u7528\uff0c\u4ee5\u53ca\u5728\u7c7b\u4f3c <cite>for x in container:</cite> \u7684\u5faa\u73af\u4e2d\u88ab\u8c03\u7528\u3002\u8fed\u4ee3\u5668\u662f\u4ed6\u4eec\u81ea\u5df1\u7684\u5bf9\u8c61\uff0c\u9700\u8981\u5b9a\u4e49 <cite>__iter__</cite> \u65b9\u6cd5\u5e76\u5728\u5176\u4e2d\u8fd4\u56de\u81ea\u5df1\u3002</p>\u000a</li>\u000a<li><p class="first"><cite>__reversed__(self)</cite></p>\u000a<p>\u5b9a\u4e49\u4e86\u5bf9\u5bb9\u5668\u4f7f\u7528 <cite>reversed()</cite> \u5185\u5efa\u51fd\u6570\u65f6\u7684\u884c\u4e3a\u3002\u5b83\u5e94\u8be5\u8fd4\u56de\u4e00\u4e2a\u53cd\u8f6c\u4e4b\u540e\u7684\u5e8f\u5217\u3002\u5f53\u4f60\u7684\u5e8f\u5217\u7c7b\u662f\u6709\u5e8f\u65f6\uff0c\u7c7b\u4f3c\u5217\u8868\u548c\u5143\u7ec4\uff0c\u518d\u5b9e\u73b0\u8fd9\u4e2a\u65b9\u6cd5\uff0c</p>\u000a</li>\u000a<li><p class="first"><cite>__contains__(self, item)</cite></p>\u000a<p><cite>__contains__</cite> \u5b9a\u4e49\u4e86\u4f7f\u7528 <cite>in</cite> \u548c <cite>not in</cite> \u8fdb\u884c\u6210\u5458\u6d4b\u8bd5\u65f6\u7c7b\u7684\u884c\u4e3a\u3002\u4f60\u53ef\u80fd\u597d\u5947\u4e3a\u4ec0\u4e48\u8fd9\u4e2a\u65b9\u6cd5\u4e0d\u662f\u5e8f\u5217\u534f\u8bae\u7684\u4e00\u90e8\u5206\uff0c\u539f\u56e0\u662f\uff0c\u5982\u679c <cite>__contains__</cite> \u6ca1\u6709\u5b9a\u4e49\uff0cPython\u5c31\u4f1a\u8fed\u4ee3\u6574\u4e2a\u5e8f\u5217\uff0c\u5982\u679c\u627e\u5230\u4e86\u9700\u8981\u7684\u4e00\u9879\u5c31\u8fd4\u56de <cite>True</cite> \u3002</p>\u000a</li>\u000a<li><p class="first"><cite>__missing__(self ,key)</cite></p>\u000a<p><cite>__missing__</cite> \u5728\u5b57\u5178\u7684\u5b50\u7c7b\u4e2d\u4f7f\u7528\uff0c\u5b83\u5b9a\u4e49\u4e86\u5f53\u8bd5\u56fe\u8bbf\u95ee\u4e00\u4e2a\u5b57\u5178\u4e2d\u4e0d\u5b58\u5728\u7684\u952e\u65f6\u7684\u884c\u4e3a\uff08\u76ee\u524d\u4e3a\u6b62\u662f\u6307\u5b57\u5178\u7684\u5b9e\u4f8b\uff0c\u4f8b\u5982\u6211\u6709\u4e00\u4e2a\u5b57\u5178 <cite>d</cite> \uff0c <cite>&#8220;george&#8221;</cite> \u4e0d\u662f\u5b57\u5178\u4e2d\u7684\u4e00\u4e2a\u952e\uff0c\u5f53\u8bd5\u56fe\u8bbf\u95ee <cite>d[&#8220;george&#8217;]</cite> \u65f6\u5c31\u4f1a\u8c03\u7528 <cite>d.__missing__(&#8220;george&#8221;)</cite> \uff09\u3002</p>\u000a</li>\u000a</ul>\u000a</div>\u000a<div class="section" id="id17">\u000a<h3><a class="toc-backref" href="#id44">11.6.3. \u4e00\u4e2a\u4f8b\u5b50</a><a class="headerlink" href="#id17" title="Permalink to this headline"></a></h3>\u000a<p>\u8ba9\u6211\u4eec\u6765\u770b\u4e00\u4e2a\u5b9e\u73b0\u4e86\u4e00\u4e9b\u51fd\u6570\u5f0f\u7ed3\u6784\u7684\u5217\u8868\uff0c\u53ef\u80fd\u5728\u5176\u4ed6\u8bed\u8a00\u4e2d\u8fd9\u79cd\u7ed3\u6784\u66f4\u5e38\u89c1\uff08\u4f8b\u5982Haskell\uff09:</p>\u000a<div class="highlight-python"><div class="highlight"><pre><span></span><span class="k">class</span> <span class="nc">FunctionalList</span><span class="p">:</span>\u000a    <span class="sd">&#39;&#39;&#39;\u4e00\u4e2a\u5217\u8868\u7684\u5c01\u88c5\u7c7b\uff0c\u5b9e\u73b0\u4e86\u4e00\u4e9b\u989d\u5916\u7684\u51fd\u6570\u5f0f</span>\u000a<span class="sd">    \u65b9\u6cd5\uff0c\u4f8b\u5982head, tail, init, last, drop\u548ctake\u3002&#39;&#39;&#39;</span>\u000a\u000a    <span class="k">def</span> <span class="nf">__init__</span><span class="p">(</span><span class="bp">self</span><span class="p">,</span> <span class="n">values</span><span class="o">=</span><span class="bp">None</span><span class="p">):</span>\u000a        <span class="k">if</span> <span class="n">values</span> <span class="ow">is</span> <span class="bp">None</span><span class="p">:</span>\u000a            <span class="bp">self</span><span class="o">.</span><span class="n">values</span> <span class="o">=</span> <span class="p">[]</span>\u000a        <span class="k">else</span><span class="p">:</span>\u000a            <span class="bp">self</span><span class="o">.</span><span class="n">values</span> <span class="o">=</span> <span class="n">values</span>\u000a\u000a    <span class="k">def</span> <span class="nf">__len__</span><span class="p">(</span><span class="bp">self</span><span class="p">):</span>\u000a        <span class="k">return</span> <span class="nb">len</span><span class="p">(</span><span class="bp">self</span><span class="o">.</span><span class="n">values</span><span class="p">)</span>\u000a\u000a    <span class="k">def</span> <span class="nf">__getitem__</span><span class="p">(</span><span class="bp">self</span><span class="p">,</span> <span class="n">key</span><span class="p">):</span>\u000a        <span class="c1"># \u5982\u679c\u952e\u7684\u7c7b\u578b\u6216\u503c\u4e0d\u5408\u6cd5\uff0c\u5217\u8868\u4f1a\u8fd4\u56de\u5f02\u5e38</span>\u000a        <span class="k">return</span> <span class="bp">self</span><span class="o">.</span><span class="n">values</span><span class="p">[</span><span class="n">key</span><span class="p">]</span>\u000a\u000a    <span class="k">def</span> <span class="nf">__setitem__</span><span class="p">(</span><span class="bp">self</span><span class="p">,</span> <span class="n">key</span><span class="p">,</span> <span class="n">value</span><span class="p">):</span>\u000a        <span class="bp">self</span><span class="o">.</span><span class="n">values</span><span class="p">[</span><span class="n">key</span><span class="p">]</span> <span class="o">=</span> <span class="n">value</span>\u000a\u000a    <span class="k">def</span> <span class="nf">__delitem__</span><span class="p">(</span><span class="bp">self</span><span class="p">,</span> <span class="n">key</span><span class="p">):</span>\u000a        <span class="k">del</span> <span class="bp">self</span><span class="o">.</span><span class="n">values</span><span class="p">[</span><span class="n">key</span><span class="p">]</span>\u000a\u000a    <span class="k">def</span> <span class="nf">__iter__</span><span class="p">(</span><span class="bp">self</span><span class="p">):</span>\u000a        <span class="k">return</span> <span class="nb">iter</span><span class="p">(</span><span class="bp">self</span><span class="o">.</span><span class="n">values</span><span class="p">)</span>\u000a\u000a    <span class="k">def</span> <span class="nf">__reversed__</span><span class="p">(</span><span class="bp">self</span><span class="p">):</span>\u000a        <span class="k">return</span> <span class="nb">reversed</span><span class="p">(</span><span class="bp">self</span><span class="o">.</span><span class="n">values</span><span class="p">)</span>\u000a\u000a    <span class="k">def</span> <span class="nf">append</span><span class="p">(</span><span class="bp">self</span><span class="p">,</span> <span class="n">value</span><span class="p">):</span>\u000a        <span class="bp">self</span><span class="o">.</span><span class="n">values</span><span class="o">.</span><span class="n">append</span><span class="p">(</span><span class="n">value</span><span class="p">)</span>\u000a\u000a    <span class="k">def</span> <span class="nf">head</span><span class="p">(</span><span class="bp">self</span><span class="p">):</span>\u000a        <span class="c1"># \u53d6\u5f97\u7b2c\u4e00\u4e2a\u5143\u7d20</span>\u000a        <span class="k">return</span> <span class="bp">self</span><span class="o">.</span><span class="n">values</span><span class="p">[</span><span class="mi">0</span><span class="p">]</span>\u000a\u000a    <span class="k">def</span> <span class="nf">tail</span><span class="p">(</span><span class="bp">self</span><span class="p">):</span>\u000a        <span class="c1"># \u53d6\u5f97\u9664\u7b2c\u4e00\u4e2a\u5143\u7d20\u5916\u7684\u6240\u6709\u5143\u7d20</span>\u000a        <span class="k">return</span> <span class="bp">self</span><span class="o">.</span><span class="n">valuse</span><span class="p">[</span><span class="mi">1</span><span class="p">:]</span>\u000a\u000a    <span class="k">def</span> <span class="nf">init</span><span class="p">(</span><span class="bp">self</span><span class="p">):</span>\u000a        <span class="c1"># \u53d6\u5f97\u9664\u6700\u540e\u4e00\u4e2a\u5143\u7d20\u5916\u7684\u6240\u6709\u5143\u7d20</span>\u000a        <span class="k">return</span> <span class="bp">self</span><span class="o">.</span><span class="n">values</span><span class="p">[:</span><span class="o">-</span><span class="mi">1</span><span class="p">]</span>\u000a\u000a    <span class="k">def</span> <span class="nf">last</span><span class="p">(</span><span class="bp">self</span><span class="p">):</span>\u000a        <span class="c1"># \u53d6\u5f97\u6700\u540e\u4e00\u4e2a\u5143\u7d20</span>\u000a        <span class="k">return</span> <span class="bp">self</span><span class="o">.</span><span class="n">values</span><span class="p">[</span><span class="o">-</span><span class="mi">1</span><span class="p">]</span>\u000a\u000a    <span class="k">def</span> <span class="nf">drop</span><span class="p">(</span><span class="bp">self</span><span class="p">,</span> <span class="n">n</span><span class="p">):</span>\u000a        <span class="c1"># \u53d6\u5f97\u9664\u524dn\u4e2a\u5143\u7d20\u5916\u7684\u6240\u6709\u5143\u7d20</span>\u000a        <span class="k">return</span> <span class="bp">self</span><span class="o">.</span><span class="n">values</span><span class="p">[</span><span class="n">n</span><span class="p">:]</span>\u000a\u000a    <span class="k">def</span> <span class="nf">take</span><span class="p">(</span><span class="bp">self</span><span class="p">,</span> <span class="n">n</span><span class="p">):</span>\u000a        <span class="c1"># \u53d6\u5f97\u524dn\u4e2a\u5143\u7d20</span>\u000a        <span class="k">return</span> <span class="bp">self</span><span class="o">.</span><span class="n">values</span><span class="p">[:</span><span class="n">n</span><span class="p">]</span>\u000a</pre></div>\u000a</div>\u000a<p>\u5c31\u662f\u8fd9\u4e9b\uff0c\u4e00\u4e2a\uff08\u5fae\u4e0d\u8db3\u9053\u7684\uff09\u6709\u7528\u7684\u4f8b\u5b50\uff0c\u5411\u4f60\u5c55\u793a\u4e86\u5982\u4f55\u5b9e\u73b0\u81ea\u5df1\u7684\u5e8f\u5217\u3002\u5f53\u7136\u5566\uff0c\u81ea\u5b9a\u4e49\u5e8f\u5217\u6709\u66f4\u5927\u7684\u7528\u5904\uff0c\u800c\u4e14\u7edd\u5927\u90e8\u5206\u90fd\u5728\u6807\u51c6\u5e93\u4e2d\u5b9e\u73b0\u4e86\uff08Python\u662f\u81ea\u5e26\u7535\u6c60\u7684\uff0c\u8bb0\u5f97\u5417\uff1f\uff09\uff0c\u50cf <cite>Counter</cite> , <cite>OrderedDict</cite> \u548c <cite>NamedTuple</cite> \u3002</p>\u000a</div>\u000a</div>\u000a<div class="section" id="id18">\u000a<h2><a class="toc-backref" href="#id45">11.7. \u53cd\u5c04</a><a class="headerlink" href="#id18" title="Permalink to this headline"></a></h2>\u000a<p>\u4f60\u53ef\u4ee5\u901a\u8fc7\u5b9a\u4e49\u9b54\u6cd5\u65b9\u6cd5\u6765\u63a7\u5236\u7528\u4e8e\u53cd\u5c04\u7684\u5185\u5efa\u51fd\u6570 <cite>isinstance</cite> \u548c <cite>issubclass</cite> \u7684\u884c\u4e3a\u3002\u4e0b\u9762\u662f\u5bf9\u5e94\u7684\u9b54\u6cd5\u65b9\u6cd5\uff1a</p>\u000a<ul>\u000a<li><p class="first"><cite>__instancecheck__(self, instance)</cite></p>\u000a<p>\u68c0\u67e5\u4e00\u4e2a\u5b9e\u4f8b\u662f\u5426\u662f\u4f60\u5b9a\u4e49\u7684\u7c7b\u7684\u4e00\u4e2a\u5b9e\u4f8b\uff08\u4f8b\u5982 <cite>isinstance(instance, class)</cite> \uff09\u3002</p>\u000a</li>\u000a<li><p class="first"><cite>__subclasscheck__(self, subclass)</cite></p>\u000a<p>\u68c0\u67e5\u4e00\u4e2a\u7c7b\u662f\u5426\u662f\u4f60\u5b9a\u4e49\u7684\u7c7b\u7684\u5b50\u7c7b\uff08\u4f8b\u5982 <cite>issubclass(subclass, class)</cite> \uff09\u3002</p>\u000a</li>\u000a</ul>\u000a<p>\u8fd9\u51e0\u4e2a\u9b54\u6cd5\u65b9\u6cd5\u7684\u9002\u7528\u8303\u56f4\u770b\u8d77\u6765\u6709\u4e9b\u7a84\uff0c\u4e8b\u5b9e\u4e5f\u6b63\u662f\u5982\u6b64\u3002\u6211\u4e0d\u4f1a\u5728\u53cd\u5c04\u9b54\u6cd5\u65b9\u6cd5\u4e0a\u82b1\u8d39\u592a\u591a\u65f6\u95f4\uff0c\u56e0\u4e3a\u76f8\u6bd4\u5176\u4ed6\u9b54\u6cd5\u65b9\u6cd5\u5b83\u4eec\u663e\u5f97\u4e0d\u662f\u5f88\u91cd\u8981\u3002\u4f46\u662f\u5b83\u4eec\u5c55\u793a\u4e86\u5728Python\u4e2d\u8fdb\u884c\u9762\u5411\u5bf9\u8c61\u7f16\u7a0b\uff08\u6216\u8005\u603b\u4f53\u4e0a\u4f7f\u7528Python\u8fdb\u884c\u7f16\u7a0b\uff09\u65f6\u5f88\u91cd\u8981\u7684\u4e00\u70b9\uff1a\u4e0d\u7ba1\u505a\u4ec0\u4e48\u4e8b\u60c5\uff0c\u90fd\u4f1a\u6709\u4e00\u4e2a\u7b80\u5355\u65b9\u6cd5\uff0c\u4e0d\u7ba1\u5b83\u5e38\u7528\u4e0d\u5e38\u7528\u3002\u8fd9\u4e9b\u9b54\u6cd5\u65b9\u6cd5\u53ef\u80fd\u770b\u8d77\u6765\u6ca1\u90a3\u4e48\u6709\u7528\uff0c\u4f46\u662f\u5f53\u4f60\u771f\u6b63\u9700\u8981\u7528\u5230\u5b83\u4eec\u7684\u65f6\u5019\uff0c\u4f60\u4f1a\u611f\u5230\u5f88\u5e78\u8fd0\uff0c\u56e0\u4e3a\u5b83\u4eec\u8fd8\u5728\u90a3\u513f\uff08\u4e5f\u56e0\u4e3a\u4f60\u9605\u8bfb\u4e86\u8fd9\u672c\u6307\u5357\uff01\uff09</p>\u000a</div>\u000a<div class="section" id="id19">\u000a<h2><a class="toc-backref" href="#id46">11.8. \u62bd\u8c61\u57fa\u7c7b</a><a class="headerlink" href="#id19" title="Permalink to this headline"></a></h2>\u000a<p>\u8bf7\u53c2\u8003 <a class="reference external" href="http://docs.python.org/2/library/abc.html">http://docs.python.org/2/library/abc.html</a>.</p>\u000a</div>\u000a<div class="section" id="id20">\u000a<h2><a class="toc-backref" href="#id47">11.9. \u53ef\u8c03\u7528\u7684\u5bf9\u8c61</a><a class="headerlink" href="#id20" title="Permalink to this headline"></a></h2>\u000a<p>\u4f60\u53ef\u80fd\u5df2\u7ecf\u77e5\u9053\u4e86\uff0c\u5728Python\u4e2d\uff0c\u51fd\u6570\u662f\u4e00\u7b49\u7684\u5bf9\u8c61\u3002\u8fd9\u610f\u5473\u7740\u5b83\u4eec\u53ef\u4ee5\u50cf\u5176\u4ed6\u4efb\u4f55\u5bf9\u8c61\u4e00\u6837\u88ab\u4f20\u9012\u5230\u51fd\u6570\u548c\u65b9\u6cd5\u4e2d\uff0c\u8fd9\u662f\u4e00\u4e2a\u5341\u5206\u5f3a\u5927\u7684\u7279\u6027\u3002</p>\u000a<p>Python\u4e2d\u4e00\u4e2a\u7279\u6b8a\u7684\u9b54\u6cd5\u65b9\u6cd5\u5141\u8bb8\u4f60\u81ea\u5df1\u7c7b\u7684\u5bf9\u8c61\u8868\u73b0\u5f97\u50cf\u662f\u51fd\u6570\uff0c\u7136\u540e\u4f60\u5c31\u53ef\u4ee5\u201c\u8c03\u7528\u201d\u5b83\u4eec\uff0c\u628a\u5b83\u4eec\u4f20\u9012\u5230\u4f7f\u7528\u51fd\u6570\u505a\u53c2\u6570\u7684\u51fd\u6570\u4e2d\uff0c\u7b49\u7b49\u7b49\u7b49\u3002\u8fd9\u662f\u53e6\u4e00\u4e2a\u5f3a\u5927\u800c\u4e14\u65b9\u4fbf\u7684\u7279\u6027\uff0c\u8ba9\u4f7f\u7528Python\u7f16\u7a0b\u53d8\u5f97\u66f4\u52a0\u5e78\u798f\u3002</p>\u000a<ul>\u000a<li><p class="first"><cite>__call__(self, [args...])</cite></p>\u000a<p>\u5141\u8bb8\u7c7b\u7684\u4e00\u4e2a\u5b9e\u4f8b\u50cf\u51fd\u6570\u90a3\u6837\u88ab\u8c03\u7528\u3002\u672c\u8d28\u4e0a\u8fd9\u4ee3\u8868\u4e86 <cite>x()</cite> \u548c <cite>x.__call__()</cite> \u662f\u76f8\u540c\u7684\u3002\u6ce8\u610f <cite>__call__</cite> \u53ef\u4ee5\u6709\u591a\u4e2a\u53c2\u6570\uff0c\u8fd9\u4ee3\u8868\u4f60\u53ef\u4ee5\u50cf\u5b9a\u4e49\u5176\u4ed6\u4efb\u4f55\u51fd\u6570\u4e00\u6837\uff0c\u5b9a\u4e49 <cite>__call__</cite> \uff0c\u559c\u6b22\u7528\u591a\u5c11\u53c2\u6570\u5c31\u7528\u591a\u5c11\u3002</p>\u000a</li>\u000a</ul>\u000a<p><cite>__call__</cite> \u5728\u67d0\u4e9b\u9700\u8981\u7ecf\u5e38\u6539\u53d8\u72b6\u6001\u7684\u7c7b\u7684\u5b9e\u4f8b\u4e2d\u663e\u5f97\u7279\u522b\u6709\u7528\u3002\u201c\u8c03\u7528\u201d\u8fd9\u4e2a\u5b9e\u4f8b\u6765\u6539\u53d8\u5b83\u7684\u72b6\u6001\uff0c\u662f\u4e00\u79cd\u66f4\u52a0\u7b26\u5408\u76f4\u89c9\uff0c\u4e5f\u66f4\u52a0\u4f18\u96c5\u7684\u65b9\u6cd5\u3002\u4e00\u4e2a\u8868\u793a\u5e73\u9762\u4e0a\u5b9e\u4f53\u7684\u7c7b\u662f\u4e00\u4e2a\u4e0d\u9519\u7684\u4f8b\u5b50:</p>\u000a<div class="highlight-python"><div class="highlight"><pre><span></span><span class="k">class</span> <span class="nc">Entity</span><span class="p">:</span>\u000a        <span class="sd">&#39;&#39;&#39;\u8868\u793a\u4e00\u4e2a\u5b9e\u4f53\u7684\u7c7b\uff0c\u8c03\u7528\u5b83\u7684\u5b9e\u4f8b</span>\u000a<span class="sd">        \u53ef\u4ee5\u66f4\u65b0\u5b9e\u4f53\u7684\u4f4d\u7f6e&#39;&#39;&#39;</span>\u000a\u000a        <span class="k">def</span> <span class="nf">__init__</span><span class="p">(</span><span class="bp">self</span><span class="p">,</span> <span class="n">size</span><span class="p">,</span> <span class="n">x</span><span class="p">,</span> <span class="n">y</span><span class="p">):</span>\u000a                <span class="bp">self</span><span class="o">.</span><span class="n">x</span><span class="p">,</span> <span class="bp">self</span><span class="o">.</span><span class="n">y</span> <span class="o">=</span> <span class="n">x</span><span class="p">,</span> <span class="n">y</span>\u000a                <span class="bp">self</span><span class="o">.</span><span class="n">size</span> <span class="o">=</span> <span class="n">size</span>\u000a\u000a        <span class="k">def</span> <span class="nf">__call__</span><span class="p">(</span><span class="bp">self</span><span class="p">,</span> <span class="n">x</span><span class="p">,</span> <span class="n">y</span><span class="p">):</span>\u000a                <span class="sd">&#39;&#39;&#39;\u6539\u53d8\u5b9e\u4f53\u7684\u4f4d\u7f6e&#39;&#39;&#39;</span>\u000a                <span class="bp">self</span><span class="o">.</span><span class="n">x</span><span class="p">,</span> <span class="bp">self</span><span class="o">.</span><span class="n">y</span> <span class="o">=</span> <span class="n">x</span><span class="p">,</span> <span class="n">y</span>\u000a</pre></div>\u000a</div>\u000a</div>\u000a<div class="section" id="id21">\u000a<h2><a class="toc-backref" href="#id48">11.10. \u4e0a\u4e0b\u6587\u7ba1\u7406\u5668</a><a class="headerlink" href="#id21" title="Permalink to this headline"></a></h2>\u000a<p>\u5728Python 2.5\u4e2d\u5f15\u5165\u4e86\u4e00\u4e2a\u5168\u65b0\u7684\u5173\u952e\u8bcd\uff0c\u968f\u4e4b\u800c\u6765\u7684\u662f\u4e00\u79cd\u65b0\u7684\u4ee3\u7801\u590d\u7528\u65b9\u6cd5\u2014\u2014 <cite>with</cite> \u58f0\u660e\u3002\u4e0a\u4e0b\u6587\u7ba1\u7406\u7684\u6982\u5ff5\u5728Python\u4e2d\u5e76\u4e0d\u662f\u5168\u65b0\u5f15\u5165\u7684\uff08\u4e4b\u524d\u5b83\u4f5c\u4e3a\u6807\u51c6\u5e93\u7684\u4e00\u90e8\u5206\u5b9e\u73b0\uff09\uff0c\u76f4\u5230PEP 343\u88ab\u63a5\u53d7\uff0c\u5b83\u624d\u6210\u4e3a\u4e00\u79cd\u4e00\u7ea7\u7684\u8bed\u8a00\u7ed3\u6784\u3002\u53ef\u80fd\u4f60\u5df2\u7ecf\u89c1\u8fc7\u8fd9\u79cd\u5199\u6cd5\u4e86:</p>\u000a<div class="highlight-python"><div class="highlight"><pre><span></span>with open(&#39;foo.txt&#39;) as bar:\u000a    # \u4f7f\u7528bar\u8fdb\u884c\u67d0\u4e9b\u64cd\u4f5c\u000a</pre></div>\u000a</div>\u000a<p>\u5f53\u5bf9\u8c61\u4f7f\u7528 <cite>with</cite> \u58f0\u660e\u521b\u5efa\u65f6\uff0c\u4e0a\u4e0b\u6587\u7ba1\u7406\u5668\u5141\u8bb8\u7c7b\u505a\u4e00\u4e9b\u8bbe\u7f6e\u548c\u6e05\u7406\u5de5\u4f5c\u3002\u4e0a\u4e0b\u6587\u7ba1\u7406\u5668\u7684\u884c\u4e3a\u7531\u4e0b\u9762\u4e24\u4e2a\u9b54\u6cd5\u65b9\u6cd5\u6240\u5b9a\u4e49\uff1a</p>\u000a<ul>\u000a<li><p class="first"><cite>__enter__(self)</cite></p>\u000a<p>\u5b9a\u4e49\u4f7f\u7528 <cite>with</cite> \u58f0\u660e\u521b\u5efa\u7684\u8bed\u53e5\u5757\u6700\u5f00\u59cb\u4e0a\u4e0b\u6587\u7ba1\u7406\u5668\u5e94\u8be5\u505a\u4e9b\u4ec0\u4e48\u3002\u6ce8\u610f <cite>__enter__</cite> \u7684\u8fd4\u56de\u503c\u4f1a\u8d4b\u7ed9 <cite>with</cite> \u58f0\u660e\u7684\u76ee\u6807\uff0c\u4e5f\u5c31\u662f <cite>as</cite> \u4e4b\u540e\u7684\u4e1c\u897f\u3002</p>\u000a</li>\u000a<li><p class="first"><cite>__exit__(self, exception_type, exception_value, traceback)</cite></p>\u000a<p>\u5b9a\u4e49\u5f53 <cite>with</cite> \u58f0\u660e\u8bed\u53e5\u5757\u6267\u884c\u5b8c\u6bd5\uff08\u6216\u7ec8\u6b62\uff09\u65f6\u4e0a\u4e0b\u6587\u7ba1\u7406\u5668\u7684\u884c\u4e3a\u3002\u5b83\u53ef\u4ee5\u7528\u6765\u5904\u7406\u5f02\u5e38\uff0c\u8fdb\u884c\u6e05\u7406\uff0c\u6216\u8005\u505a\u5176\u4ed6\u5e94\u8be5\u5728\u8bed\u53e5\u5757\u7ed3\u675f\u4e4b\u540e\u7acb\u523b\u6267\u884c\u7684\u5de5\u4f5c\u3002\u5982\u679c\u8bed\u53e5\u5757\u987a\u5229\u6267\u884c\uff0c <cite>exception_type</cite> , <cite>exception_value</cite> \u548c <cite>traceback</cite> \u4f1a\u662f <cite>None</cite> \u3002\u5426\u5219\uff0c\u4f60\u53ef\u4ee5\u9009\u62e9\u5904\u7406\u8fd9\u4e2a\u5f02\u5e38\u6216\u8005\u8ba9\u7528\u6237\u6765\u5904\u7406\u3002\u5982\u679c\u4f60\u60f3\u5904\u7406\u5f02\u5e38\uff0c\u786e\u4fdd <cite>__exit__</cite> \u5728\u5b8c\u6210\u5de5\u4f5c\u4e4b\u540e\u8fd4\u56de <cite>True</cite> \u3002\u5982\u679c\u4f60\u4e0d\u60f3\u5904\u7406\u5f02\u5e38\uff0c\u90a3\u5c31\u8ba9\u5b83\u53d1\u751f\u5427\u3002</p>\u000a</li>\u000a</ul>\u000a<p>\u5bf9\u4e00\u4e9b\u5177\u6709\u826f\u597d\u5b9a\u4e49\u7684\u4e14\u901a\u7528\u7684\u8bbe\u7f6e\u548c\u6e05\u7406\u884c\u4e3a\u7684\u7c7b\uff0c<cite>__enter__</cite> \u548c <cite>__exit__</cite>  \u4f1a\u663e\u5f97\u7279\u522b\u6709\u7528\u3002\u4f60\u4e5f\u53ef\u4ee5\u4f7f\u7528\u8fd9\u51e0\u4e2a\u65b9\u6cd5\u6765\u521b\u5efa\u901a\u7528\u7684\u4e0a\u4e0b\u6587\u7ba1\u7406\u5668\uff0c\u7528\u6765\u5305\u88c5\u5176\u4ed6\u5bf9\u8c61\u3002\u4e0b\u9762\u662f\u4e00\u4e2a\u4f8b\u5b50:</p>\u000a<div class="highlight-python"><div class="highlight"><pre><span></span><span class="k">class</span> <span class="nc">Closer</span><span class="p">:</span>\u000a    <span class="sd">&#39;&#39;&#39;\u4e00\u4e2a\u4e0a\u4e0b\u6587\u7ba1\u7406\u5668\uff0c\u53ef\u4ee5\u5728with\u8bed\u53e5\u4e2d</span>\u000a<span class="sd">    \u4f7f\u7528close()\u81ea\u52a8\u5173\u95ed\u5bf9\u8c61&#39;&#39;&#39;</span>\u000a\u000a    <span class="k">def</span> <span class="nf">__init__</span><span class="p">(</span><span class="bp">self</span><span class="p">,</span> <span class="n">obj</span><span class="p">):</span>\u000a        <span class="bp">self</span><span class="o">.</span><span class="n">obj</span> <span class="o">=</span> <span class="n">obj</span>\u000a\u000a    <span class="k">def</span> <span class="nf">__enter__</span><span class="p">(</span><span class="bp">self</span><span class="p">,</span> <span class="n">obj</span><span class="p">):</span>\u000a        <span class="k">return</span> <span class="bp">self</span><span class="o">.</span><span class="n">obj</span> <span class="c1"># \u7ed1\u5b9a\u5230\u76ee\u6807</span>\u000a\u000a    <span class="k">def</span> <span class="nf">__exit__</span><span class="p">(</span><span class="bp">self</span><span class="p">,</span> <span class="n">exception_type</span><span class="p">,</span> <span class="n">exception_value</span><span class="p">,</span> <span class="n">traceback</span><span class="p">):</span>\u000a        <span class="k">try</span><span class="p">:</span>\u000a                <span class="bp">self</span><span class="o">.</span><span class="n">obj</span><span class="o">.</span><span class="n">close</span><span class="p">()</span>\u000a        <span class="k">except</span> <span class="ne">AttributeError</span><span class="p">:</span> <span class="c1"># obj\u4e0d\u662f\u53ef\u5173\u95ed\u7684</span>\u000a                <span class="k">print</span> <span class="s1">&#39;Not closable.&#39;</span>\u000a                <span class="k">return</span> <span class="bp">True</span> <span class="c1"># \u6210\u529f\u5730\u5904\u7406\u4e86\u5f02\u5e38</span>\u000a</pre></div>\u000a</div>\u000a<p>\u8fd9\u662f\u4e00\u4e2a <cite>Closer</cite> \u5728\u5b9e\u9645\u4f7f\u7528\u4e2d\u7684\u4f8b\u5b50\uff0c\u4f7f\u7528\u4e00\u4e2aFTP\u8fde\u63a5\u6765\u6f14\u793a\uff08\u4e00\u4e2a\u53ef\u5173\u95ed\u7684socket):</p>\u000a<div class="highlight-python"><div class="highlight"><pre><span></span><span class="gp">&gt;&gt;&gt; </span><span class="kn">from</span> <span class="nn">magicmethods</span> <span class="kn">import</span> <span class="n">Closer</span>\u000a<span class="gp">&gt;&gt;&gt; </span><span class="kn">from</span> <span class="nn">ftplib</span> <span class="kn">import</span> <span class="n">FTP</span>\u000a<span class="gp">&gt;&gt;&gt; </span><span class="k">with</span> <span class="n">Closer</span><span class="p">(</span><span class="n">FTP</span><span class="p">(</span><span class="s1">&#39;ftp.somesite.com&#39;</span><span class="p">))</span> <span class="k">as</span> <span class="n">conn</span><span class="p">:</span>\u000a<span class="gp">... </span>        <span class="n">conn</span><span class="o">.</span><span class="n">dir</span><span class="p">()</span>\u000a<span class="gp">...</span>\u000a<span class="go"># \u4e3a\u4e86\u7b80\u5355\uff0c\u7701\u7565\u4e86\u67d0\u4e9b\u8f93\u51fa</span>\u000a<span class="gp">&gt;&gt;&gt; </span><span class="n">conn</span><span class="o">.</span><span class="n">dir</span><span class="p">()</span>\u000a<span class="go"># \u5f88\u957f\u7684 AttributeError \u4fe1\u606f\uff0c\u4e0d\u80fd\u4f7f\u7528\u4e00\u4e2a\u5df2\u5173\u95ed\u7684\u8fde\u63a5</span>\u000a<span class="gp">&gt;&gt;&gt; </span><span class="k">with</span> <span class="n">Closer</span><span class="p">(</span><span class="nb">int</span><span class="p">(</span><span class="mi">5</span><span class="p">))</span> <span class="k">as</span> <span class="n">i</span><span class="p">:</span>\u000a<span class="gp">... </span>        <span class="n">i</span> <span class="o">+=</span> <span class="mi">1</span>\u000a<span class="gp">...</span>\u000a<span class="go">Not closable.</span>\u000a<span class="gp">&gt;&gt;&gt; </span><span class="n">i</span>\u000a<span class="go">6</span>\u000a</pre></div>\u000a</div>\u000a<p>\u770b\u5230\u6211\u4eec\u7684\u5305\u88c5\u5668\u662f\u5982\u4f55\u540c\u65f6\u4f18\u96c5\u5730\u5904\u7406\u6b63\u786e\u548c\u4e0d\u6b63\u786e\u7684\u8c03\u7528\u4e86\u5417\uff1f\u8fd9\u5c31\u662f\u4e0a\u4e0b\u6587\u7ba1\u7406\u5668\u548c\u9b54\u6cd5\u65b9\u6cd5\u7684\u529b\u91cf\u3002Python\u6807\u51c6\u5e93\u5305\u542b\u4e00\u4e2a <cite>contextlib</cite> \u6a21\u5757\uff0c\u91cc\u9762\u6709\u4e00\u4e2a\u4e0a\u4e0b\u6587\u7ba1\u7406\u5668 <cite>contextlib.closing()</cite> \u57fa\u672c\u4e0a\u548c\u6211\u4eec\u7684\u5305\u88c5\u5668\u5b8c\u6210\u7684\u662f\u540c\u6837\u7684\u4e8b\u60c5\uff08\u4f46\u662f\u6ca1\u6709\u5305\u542b\u4efb\u4f55\u5f53\u5bf9\u8c61\u6ca1\u6709close()\u65b9\u6cd5\u65f6\u7684\u5904\u7406\uff09\u3002</p>\u000a</div>\u000a<div class="section" id="id22">\u000a<h2><a class="toc-backref" href="#id49">11.11. \u521b\u5efa\u63cf\u8ff0\u7b26\u5bf9\u8c61</a><a class="headerlink" href="#id22" title="Permalink to this headline"></a></h2>\u000a<p>\u63cf\u8ff0\u7b26\u662f\u4e00\u4e2a\u7c7b\uff0c\u5f53\u4f7f\u7528\u53d6\u503c\uff0c\u8d4b\u503c\u548c\u5220\u9664 \u65f6\u5b83\u53ef\u4ee5\u6539\u53d8\u5176\u4ed6\u5bf9\u8c61\u3002\u63cf\u8ff0\u7b26\u4e0d\u662f\u7528\u6765\u5355\u72ec\u4f7f\u7528\u7684\uff0c\u5b83\u4eec\u9700\u8981\u88ab\u4e00\u4e2a\u62e5\u6709\u8005\u7c7b\u6240\u5305\u542b\u3002\u63cf\u8ff0\u7b26\u53ef\u4ee5\u7528\u6765\u521b\u5efa\u9762\u5411\u5bf9\u8c61\u6570\u636e\u5e93\uff0c\u4ee5\u53ca\u521b\u5efa\u67d0\u4e9b\u5c5e\u6027\u4e4b\u95f4\u4e92\u76f8\u4f9d\u8d56\u7684\u7c7b\u3002\u63cf\u8ff0\u7b26\u5728\u8868\u73b0\u5177\u6709\u4e0d\u540c\u5355\u4f4d\u7684\u5c5e\u6027\uff0c\u6216\u8005\u9700\u8981\u8ba1\u7b97\u7684\u5c5e\u6027\u65f6\u663e\u5f97\u7279\u522b\u6709\u7528\uff08\u4f8b\u5982\u8868\u73b0\u4e00\u4e2a\u5750\u6807\u7cfb\u4e2d\u7684\u70b9\u7684\u7c7b\uff0c\u5176\u4e2d\u7684\u8ddd\u79bb\u539f\u70b9\u7684\u8ddd\u79bb\u8fd9\u79cd\u5c5e\u6027\uff09\u3002</p>\u000a<p>\u8981\u60f3\u6210\u4e3a\u4e00\u4e2a\u63cf\u8ff0\u7b26\uff0c\u4e00\u4e2a\u7c7b\u5fc5\u987b\u5177\u6709\u5b9e\u73b0 <cite>__get__</cite> , <cite>__set__</cite> \u548c <cite>__delete__</cite> \u4e09\u4e2a\u65b9\u6cd5\u4e2d\u81f3\u5c11\u4e00\u4e2a\u3002</p>\u000a<p>\u8ba9\u6211\u4eec\u4e00\u8d77\u6765\u770b\u4e00\u770b\u8fd9\u4e9b\u9b54\u6cd5\u65b9\u6cd5\uff1a</p>\u000a<ul>\u000a<li><p class="first"><cite>__get__(self, instance, owner)</cite></p>\u000a<p>\u5b9a\u4e49\u5f53\u8bd5\u56fe\u53d6\u51fa\u63cf\u8ff0\u7b26\u7684\u503c\u65f6\u7684\u884c\u4e3a\u3002 <cite>instance</cite> \u662f\u62e5\u6709\u8005\u7c7b\u7684\u5b9e\u4f8b\uff0c <cite>owner</cite> \u662f\u62e5\u6709\u8005\u7c7b\u672c\u8eab\u3002</p>\u000a</li>\u000a<li><p class="first"><cite>__set__(self, instance, owner)</cite></p>\u000a<p>\u5b9a\u4e49\u5f53\u63cf\u8ff0\u7b26\u7684\u503c\u6539\u53d8\u65f6\u7684\u884c\u4e3a\u3002 <cite>instance</cite> \u662f\u62e5\u6709\u8005\u7c7b\u7684\u5b9e\u4f8b\uff0c <cite>value</cite> \u662f\u8981\u8d4b\u7ed9\u63cf\u8ff0\u7b26\u7684\u503c\u3002</p>\u000a</li>\u000a<li><p class="first"><cite>__delete__(self, instance, owner)</cite></p>\u000a<p>\u5b9a\u4e49\u5f53\u63cf\u8ff0\u7b26\u7684\u503c\u88ab\u5220\u9664\u65f6\u7684\u884c\u4e3a\u3002 <cite>instance</cite> \u662f\u62e5\u6709\u8005\u7c7b\u7684\u5b9e\u4f8b</p>\u000a</li>\u000a</ul>\u000a<p>\u73b0\u5728\uff0c\u6765\u770b\u4e00\u4e2a\u63cf\u8ff0\u7b26\u7684\u6709\u6548\u5e94\u7528\uff1a\u5355\u4f4d\u8f6c\u6362:</p>\u000a<div class="highlight-python"><div class="highlight"><pre><span></span><span class="k">class</span> <span class="nc">Meter</span><span class="p">(</span><span class="nb">object</span><span class="p">):</span>\u000a    <span class="sd">&#39;&#39;&#39;\u7c73\u7684\u63cf\u8ff0\u7b26\u3002&#39;&#39;&#39;</span>\u000a\u000a    <span class="k">def</span> <span class="nf">__init__</span><span class="p">(</span><span class="bp">self</span><span class="p">,</span> <span class="n">value</span><span class="o">=</span><span class="mf">0.0</span><span class="p">):</span>\u000a        <span class="bp">self</span><span class="o">.</span><span class="n">value</span> <span class="o">=</span> <span class="nb">float</span><span class="p">(</span><span class="n">value</span><span class="p">)</span>\u000a    <span class="k">def</span> <span class="nf">__get__</span><span class="p">(</span><span class="bp">self</span><span class="p">,</span> <span class="n">instance</span><span class="p">,</span> <span class="n">owner</span><span class="p">):</span>\u000a        <span class="k">return</span> <span class="bp">self</span><span class="o">.</span><span class="n">value</span>\u000a    <span class="k">def</span> <span class="nf">__set__</span><span class="p">(</span><span class="bp">self</span><span class="p">,</span> <span class="n">instance</span><span class="p">,</span> <span class="n">owner</span><span class="p">):</span>\u000a            <span class="bp">self</span><span class="o">.</span><span class="n">value</span> <span class="o">=</span> <span class="nb">float</span><span class="p">(</span><span class="n">value</span><span class="p">)</span>\u000a\u000a<span class="k">class</span> <span class="nc">Foot</span><span class="p">(</span><span class="nb">object</span><span class="p">):</span>\u000a    <span class="sd">&#39;&#39;&#39;\u82f1\u5c3a\u7684\u63cf\u8ff0\u7b26\u3002&#39;&#39;&#39;</span>\u000a\u000a    <span class="k">def</span> <span class="nf">__get</span><span class="p">(</span><span class="bp">self</span><span class="p">,</span> <span class="n">instance</span><span class="p">,</span> <span class="n">owner</span><span class="p">):</span>\u000a            <span class="k">return</span> <span class="n">instance</span><span class="o">.</span><span class="n">meter</span> <span class="o">*</span> <span class="mf">3.2808</span>\u000a    <span class="k">def</span> <span class="nf">__set</span><span class="p">(</span><span class="bp">self</span><span class="p">,</span> <span class="n">instance</span><span class="p">,</span> <span class="n">value</span><span class="p">):</span>\u000a            <span class="n">instance</span><span class="o">.</span><span class="n">meter</span> <span class="o">=</span> <span class="nb">float</span><span class="p">(</span><span class="n">value</span><span class="p">)</span> <span class="o">/</span> <span class="mf">3.2808</span>\u000a\u000a<span class="k">class</span> <span class="nc">Distance</span><span class="p">(</span><span class="nb">object</span><span class="p">):</span>\u000a    <span class="sd">&#39;&#39;&#39;\u7528\u4e8e\u63cf\u8ff0\u8ddd\u79bb\u7684\u7c7b\uff0c\u5305\u542b\u82f1\u5c3a\u548c\u7c73\u4e24\u4e2a\u63cf\u8ff0\u7b26\u3002&#39;&#39;&#39;</span>\u000a    <span class="n">meter</span> <span class="o">=</span> <span class="n">Meter</span><span class="p">()</span>\u000a    <span class="n">foot</span> <span class="o">=</span> <span class="n">Foot</span><span class="p">()</span>\u000a</pre></div>\u000a</div>\u000a</div>\u000a<div class="section" id="id23">\u000a<h2><a class="toc-backref" href="#id50">11.12. \u62f7\u8d1d</a><a class="headerlink" href="#id23" title="Permalink to this headline"></a></h2>\u000a<p>\u6709\u4e9b\u65f6\u5019\uff0c\u7279\u522b\u662f\u5904\u7406\u53ef\u53d8\u5bf9\u8c61\u65f6\uff0c\u4f60\u53ef\u80fd\u60f3\u62f7\u8d1d\u4e00\u4e2a\u5bf9\u8c61\uff0c\u6539\u53d8\u8fd9\u4e2a\u5bf9\u8c61\u800c\u4e0d\u5f71\u54cd\u539f\u6709\u7684\u5bf9\u8c61\u3002\u8fd9\u65f6\u5c31\u9700\u8981\u7528\u5230Python\u7684 <cite>copy</cite> \u6a21\u5757\u4e86\u3002\u7136\u800c\uff08\u5e78\u8fd0\u7684\u662f\uff09\uff0cPython\u6a21\u5757\u5e76\u4e0d\u5177\u6709\u611f\u77e5\u80fd\u529b\uff0c\u000a\u56e0\u6b64\u6211\u4eec\u4e0d\u7528\u62c5\u5fc3\u67d0\u5929\u57fa\u4e8eLinux\u7684\u673a\u5668\u4eba\u5d1b\u8d77\u3002\u4f46\u662f\u6211\u4eec\u7684\u786e\u9700\u8981\u544a\u8bc9Python\u5982\u4f55\u6709\u6548\u7387\u5730\u62f7\u8d1d\u5bf9\u8c61\u3002</p>\u000a<ul>\u000a<li><p class="first"><cite>__copy__(self)</cite></p>\u000a<p>\u5b9a\u4e49\u5bf9\u7c7b\u7684\u5b9e\u4f8b\u4f7f\u7528 <cite>copy.copy()</cite> \u65f6\u7684\u884c\u4e3a\u3002 <cite>copy.copy()</cite> \u8fd4\u56de\u4e00\u4e2a\u5bf9\u8c61\u7684\u6d45\u62f7\u8d1d\uff0c\u8fd9\u610f\u5473\u7740\u62f7\u8d1d\u51fa\u7684\u5b9e\u4f8b\u662f\u5168\u65b0\u7684\uff0c\u7136\u800c\u91cc\u9762\u7684\u6570\u636e\u5168\u90fd\u662f\u5f15\u7528\u7684\u3002\u4e5f\u5c31\u662f\u8bf4\uff0c\u5bf9\u8c61\u672c\u8eab\u662f\u62f7\u8d1d\u7684\uff0c\u4f46\u662f\u5b83\u7684\u6570\u636e\u8fd8\u662f\u5f15\u7528\u7684\uff08\u6240\u4ee5\u6d45\u62f7\u8d1d\u4e2d\u7684\u6570\u636e\u66f4\u6539\u4f1a\u5f71\u54cd\u539f\u5bf9\u8c61\uff09\u3002</p>\u000a</li>\u000a<li><p class="first"><cite>__deepcopy__(self, memodict=)</cite></p>\u000a<p>\u5b9a\u4e49\u5bf9\u7c7b\u7684\u5b9e\u4f8b\u4f7f\u7528 <cite>copy.deepcopy()</cite> \u65f6\u7684\u884c\u4e3a\u3002 <cite>copy.deepcopy()</cite> \u8fd4\u56de\u4e00\u4e2a\u5bf9\u8c61\u7684\u6df1\u62f7\u8d1d\uff0c\u8fd9\u4e2a\u5bf9\u8c61\u548c\u5b83\u7684\u6570\u636e\u5168\u90fd\u88ab\u62f7\u8d1d\u4e86\u4e00\u4efd\u3002 <cite>memodict</cite> \u662f\u4e00\u4e2a\u5148\u524d\u62f7\u8d1d\u5bf9\u8c61\u7684\u7f13\u5b58\uff0c\u5b83\u4f18\u5316\u4e86\u62f7\u8d1d\u8fc7\u7a0b\uff0c\u800c\u4e14\u53ef\u4ee5\u9632\u6b62\u62f7\u8d1d\u9012\u5f52\u6570\u636e\u7ed3\u6784\u65f6\u4ea7\u751f\u65e0\u9650\u9012\u5f52\u3002\u5f53\u4f60\u60f3\u6df1\u62f7\u8d1d\u4e00\u4e2a\u5355\u72ec\u7684\u5c5e\u6027\u65f6\uff0c\u5728\u90a3\u4e2a\u5c5e\u6027\u4e0a\u8c03\u7528 <cite>copy.deepcopy()</cite> \uff0c\u4f7f\u7528 <cite>memodict</cite> \u4f5c\u4e3a\u7b2c\u4e00\u4e2a\u53c2\u6570\u3002</p>\u000a</li>\u000a</ul>\u000a<p>\u8fd9\u4e9b\u9b54\u6cd5\u65b9\u6cd5\u6709\u4ec0\u4e48\u7528\u6b66\u4e4b\u5730\u5462\uff1f\u50cf\u5f80\u5e38\u4e00\u6837\uff0c\u5f53\u4f60\u9700\u8981\u6bd4\u9ed8\u8ba4\u884c\u4e3a\u66f4\u52a0\u7cbe\u786e\u7684\u63a7\u5236\u65f6\u3002\u4f8b\u5982\uff0c\u5982\u679c\u4f60\u60f3\u62f7\u8d1d\u4e00\u4e2a\u5bf9\u8c61\uff0c\u5176\u4e2d\u5b58\u50a8\u4e86\u4e00\u4e2a\u5b57\u5178\u4f5c\u4e3a\u7f13\u5b58\uff08\u53ef\u80fd\u4f1a\u5f88\u5927\uff09\uff0c\u62f7\u8d1d\u7f13\u5b58\u53ef\u80fd\u662f\u6ca1\u6709\u610f\u4e49\u7684\u3002\u5982\u679c\u8fd9\u4e2a\u7f13\u5b58\u53ef\u4ee5\u5728\u5185\u5b58\u4e2d\u88ab\u4e0d\u540c\u5b9e\u4f8b\u5171\u4eab\uff0c\u90a3\u4e48\u5b83\u5c31\u5e94\u8be5\u88ab\u5171\u4eab\u3002</p>\u000a</div>\u000a<div class="section" id="pickling">\u000a<h2><a class="toc-backref" href="#id51">11.13. Pickling</a><a class="headerlink" href="#pickling" title="Permalink to this headline"></a></h2>\u000a<p>\u5982\u679c\u4f60\u548c\u5176\u4ed6\u7684Python\u7231\u597d\u8005\u5171\u4e8b\u8fc7\uff0c\u5f88\u53ef\u80fd\u4f60\u5df2\u7ecf\u542c\u8bf4\u8fc7Pickling\u4e86\u3002Pickling\u662fPython\u6570\u636e\u7ed3\u6784\u7684\u5e8f\u5217\u5316\u8fc7\u7a0b\uff0c\u5f53\u4f60\u60f3\u5b58\u50a8\u4e00\u4e2a\u5bf9\u8c61\u7a0d\u540e\u518d\u53d6\u51fa\u8bfb\u53d6\u65f6\uff0cPickling\u4f1a\u663e\u5f97\u5341\u5206\u6709\u7528\u3002\u7136\u800c\u5b83\u540c\u6837\u4e5f\u662f\u62c5\u5fe7\u548c\u6df7\u6dc6\u7684\u4e3b\u8981\u6765\u6e90\u3002</p>\u000a<p>Pickling\u662f\u5982\u6b64\u7684\u91cd\u8981\uff0c\u4ee5\u81f3\u4e8e\u5b83\u4e0d\u4ec5\u4ec5\u6709\u81ea\u5df1\u7684\u6a21\u5757\uff08 <cite>pickle</cite> \uff09\uff0c\u8fd8\u6709\u81ea\u5df1\u7684\u534f\u8bae\u548c\u9b54\u6cd5\u65b9\u6cd5\u3002\u9996\u5148\uff0c\u6211\u4eec\u5148\u6765\u7b80\u8981\u7684\u4ecb\u7ecd\u4e00\u4e0b\u5982\u4f55pickle\u5df2\u5b58\u5728\u7684\u5bf9\u8c61\u7c7b\u578b\uff08\u5982\u679c\u4f60\u5df2\u7ecf\u77e5\u9053\u4e86\uff0c\u5927\u53ef\u8df3\u8fc7\u8fd9\u90e8\u5206\u5185\u5bb9\uff09\u3002</p>\u000a<div class="section" id="id24">\u000a<h3><a class="toc-backref" href="#id52">11.13.1. Pickling : \u5c0f\u8bd5\u725b\u5200</a><a class="headerlink" href="#id24" title="Permalink to this headline"></a></h3>\u000a<p>\u6211\u4eec\u4e00\u8d77\u6765pickle\u5427\u3002\u5047\u8bbe\u4f60\u6709\u4e00\u4e2a\u5b57\u5178\uff0c\u4f60\u60f3\u5b58\u50a8\u5b83\uff0c\u7a0d\u540e\u518d\u53d6\u51fa\u6765\u3002\u4f60\u53ef\u4ee5\u628a\u5b83\u7684\u5185\u5bb9\u5199\u5165\u4e00\u4e2a\u6587\u4ef6\uff0c\u5c0f\u5fc3\u7ffc\u7ffc\u5730\u786e\u4fdd\u4f7f\u7528\u4e86\u6b63\u786e\u5730\u683c\u5f0f\uff0c\u8981\u628a\u5b83\u8bfb\u53d6\u51fa\u6765\uff0c\u4f60\u53ef\u4ee5\u4f7f\u7528 <cite>exec()</cite> \u6216\u5904\u7406\u6587\u4ef6\u8f93\u5165\u3002\u4f46\u662f\u8fd9\u79cd\u65b9\u6cd5\u5e76\u4e0d\u53ef\u9760\uff1a\u5982\u679c\u4f60\u4f7f\u7528\u7eaf\u6587\u672c\u6765\u5b58\u50a8\u91cd\u8981\u6570\u636e\uff0c\u6570\u636e\u5f88\u5bb9\u6613\u4ee5\u591a\u79cd\u65b9\u5f0f\u88ab\u7834\u574f\u6216\u8005\u4fee\u6539\uff0c\u5bfc\u81f4\u4f60\u7684\u7a0b\u5e8f\u5d29\u6e83\uff0c\u66f4\u7cdf\u7cd5\u7684\u60c5\u51b5\u4e0b\uff0c\u8fd8\u53ef\u80fd\u5728\u4f60\u7684\u8ba1\u7b97\u673a\u4e0a\u8fd0\u884c\u6076\u610f\u4ee3\u7801\u3002\u56e0\u6b64\uff0c\u6211\u4eec\u8981pickle\u5b83:</p>\u000a<div class="highlight-python"><div class="highlight"><pre><span></span><span class="kn">import</span> <span class="nn">pickle</span>\u000a\u000a<span class="n">data</span> <span class="o">=</span> <span class="p">{</span><span class="s1">&#39;foo&#39;</span><span class="p">:</span> <span class="p">[</span><span class="mi">1</span><span class="p">,</span><span class="mi">2</span><span class="p">,</span><span class="mi">3</span><span class="p">],</span>\u000a                <span class="s1">&#39;bar&#39;</span><span class="p">:</span> <span class="p">(</span><span class="s1">&#39;Hello&#39;</span><span class="p">,</span> <span class="s1">&#39;world!&#39;</span><span class="p">),</span>\u000a                <span class="s1">&#39;baz&#39;</span><span class="p">:</span> <span class="bp">True</span><span class="p">}</span>\u000a<span class="n">jar</span> <span class="o">=</span> <span class="nb">open</span><span class="p">(</span><span class="s1">&#39;data.pkl&#39;</span><span class="p">,</span> <span class="s1">&#39;wb&#39;</span><span class="p">)</span>\u000a<span class="n">pickle</span><span class="o">.</span><span class="n">dump</span><span class="p">(</span><span class="n">data</span><span class="p">,</span> <span class="n">jar</span><span class="p">)</span> <span class="c1"># \u5c06pickle\u540e\u7684\u6570\u636e\u5199\u5165jar\u6587\u4ef6</span>\u000a<span class="n">jar</span><span class="o">.</span><span class="n">close</span><span class="p">()</span>\u000a</pre></div>\u000a</div>\u000a<p>\u8fc7\u4e86\u51e0\u4e2a\u5c0f\u65f6\uff0c\u6211\u4eec\u60f3\u628a\u5b83\u53d6\u51fa\u6765\uff0c\u6211\u4eec\u53ea\u9700\u8981\u53cdpickle\u5b83:</p>\u000a<div class="highlight-python"><div class="highlight"><pre><span></span><span class="kn">import</span> <span class="nn">pickle</span>\u000a\u000a<span class="n">pkl_file</span> <span class="o">=</span> <span class="nb">open</span><span class="p">(</span><span class="s1">&#39;data.pkl&#39;</span><span class="p">,</span> <span class="s1">&#39;rb&#39;</span><span class="p">)</span> <span class="c1"># \u4e0epickle\u540e\u7684\u6570\u636e\u8fde\u63a5</span>\u000a<span class="n">data</span> <span class="o">=</span> <span class="n">pickle</span><span class="o">.</span><span class="n">load</span><span class="p">(</span><span class="n">pkl_file</span><span class="p">)</span> <span class="c1"># \u628a\u5b83\u52a0\u8f7d\u8fdb\u4e00\u4e2a\u53d8\u91cf</span>\u000a<span class="k">print</span> <span class="n">data</span>\u000a<span class="n">pkl_file</span><span class="o">.</span><span class="n">close</span><span class="p">()</span>\u000a</pre></div>\u000a</div>\u000a<p>\u5c06\u4f1a\u53d1\u751f\u4ec0\u4e48\uff1f\u6b63\u5982\u4f60\u671f\u5f85\u7684\uff0c\u5b83\u5c31\u662f\u6211\u4eec\u4e4b\u524d\u7684 <cite>data</cite> \u3002</p>\u000a<p>\u73b0\u5728\uff0c\u8fd8\u9700\u8981\u8c28\u614e\u5730\u8bf4\u4e00\u53e5\uff1a pickle\u5e76\u4e0d\u5b8c\u7f8e\u3002Pickle\u6587\u4ef6\u5f88\u5bb9\u6613\u56e0\u4e3a\u4e8b\u6545\u6216\u88ab\u6545\u610f\u7684\u7834\u574f\u6389\u3002Pickling\u6216\u8bb8\u6bd4\u7eaf\u6587\u672c\u6587\u4ef6\u5b89\u5168\u4e00\u4e9b\uff0c\u4f46\u662f\u4f9d\u7136\u6709\u53ef\u80fd\u88ab\u7528\u6765\u8fd0\u884c\u6076\u610f\u4ee3\u7801\u3002\u800c\u4e14\u5b83\u8fd8\u4e0d\u652f\u6301\u8de8Python\u7248\u672c\uff0c\u6240\u4ee5\u4e0d\u8981\u6307\u671b\u5206\u53d1pickle\u5bf9\u8c61\u4e4b\u540e\u6240\u6709\u4eba\u90fd\u80fd\u6b63\u786e\u5730\u8bfb\u53d6\u3002\u7136\u800c\u4e0d\u7ba1\u600e\u4e48\u6837\uff0c\u5b83\u4f9d\u7136\u662f\u4e00\u4e2a\u5f3a\u6709\u529b\u7684\u5de5\u5177\uff0c\u53ef\u4ee5\u7528\u4e8e\u7f13\u5b58\u548c\u5176\u4ed6\u7c7b\u578b\u7684\u6301\u4e45\u5316\u5de5\u4f5c\u3002</p>\u000a</div>\u000a<div class="section" id="pickle">\u000a<h3><a class="toc-backref" href="#id53">11.13.2. Pickle\u4f60\u7684\u5bf9\u8c61</a><a class="headerlink" href="#pickle" title="Permalink to this headline"></a></h3>\u000a<p>Pickle\u4e0d\u4ec5\u4ec5\u53ef\u4ee5\u7528\u4e8e\u5185\u5efa\u7c7b\u578b\uff0c\u4efb\u4f55\u9075\u5b88pickle\u534f\u8bae\u7684\u7c7b\u90fd\u53ef\u4ee5\u88abpickle\u3002Pickle\u534f\u8bae\u6709\u56db\u4e2a\u53ef\u9009\u65b9\u6cd5\uff0c\u53ef\u4ee5\u8ba9\u7c7b\u81ea\u5b9a\u4e49\u5b83\u4eec\u7684\u884c\u4e3a\uff08\u8fd9\u548cC\u8bed\u8a00\u6269\u5c55\u7565\u6709\u4e0d\u540c\uff0c\u90a3\u4e0d\u5728\u6211\u4eec\u7684\u8ba8\u8bba\u8303\u56f4\u4e4b\u5185\uff09\u3002</p>\u000a<ul>\u000a<li><p class="first"><cite>__getinitargs__(self)</cite></p>\u000a<p>\u5982\u679c\u4f60\u60f3\u8ba9\u4f60\u7684\u7c7b\u5728\u53cdpickle\u65f6\u8c03\u7528 <cite>__init__</cite> \uff0c\u4f60\u53ef\u4ee5\u5b9a\u4e49 <cite>__getinitargs__(self)</cite> \uff0c\u5b83\u4f1a\u8fd4\u56de\u4e00\u4e2a\u53c2\u6570\u5143\u7ec4\uff0c\u8fd9\u4e2a\u5143\u7ec4\u4f1a\u4f20\u9012\u7ed9 <cite>__init__</cite> \u3002\u6ce8\u610f\uff0c\u8fd9\u4e2a\u65b9\u6cd5\u53ea\u80fd\u7528\u4e8e\u65e7\u5f0f\u7c7b\u3002</p>\u000a</li>\u000a<li><p class="first"><cite>__getnewargs__(self)</cite></p>\u000a<p>\u5bf9\u65b0\u5f0f\u7c7b\u6765\u8bf4\uff0c\u4f60\u53ef\u4ee5\u901a\u8fc7\u8fd9\u4e2a\u65b9\u6cd5\u6539\u53d8\u7c7b\u5728\u53cdpickle\u65f6\u4f20\u9012\u7ed9 <cite>__new__</cite> \u7684\u53c2\u6570\u3002\u8fd9\u4e2a\u65b9\u6cd5\u5e94\u8be5\u8fd4\u56de\u4e00\u4e2a\u53c2\u6570\u5143\u7ec4\u3002</p>\u000a</li>\u000a<li><p class="first"><cite>__getstate__(self)</cite></p>\u000a<p>\u4f60\u53ef\u4ee5\u81ea\u5b9a\u4e49\u5bf9\u8c61\u88abpickle\u65f6\u88ab\u5b58\u50a8\u7684\u72b6\u6001\uff0c\u800c\u4e0d\u4f7f\u7528\u5bf9\u8c61\u7684 <cite>__dict__</cite> \u5c5e\u6027\u3002 \u8fd9\u4e2a\u72b6\u6001\u5728\u5bf9\u8c61\u88ab\u53cdpickle\u65f6\u4f1a\u88ab <cite>__setstate__</cite> \u4f7f\u7528\u3002</p>\u000a</li>\u000a<li><p class="first"><cite>__setstate__(self)</cite></p>\u000a<p>\u5f53\u4e00\u4e2a\u5bf9\u8c61\u88ab\u53cdpickle\u65f6\uff0c\u5982\u679c\u5b9a\u4e49\u4e86 <cite>__setstate__</cite> \uff0c\u5bf9\u8c61\u7684\u72b6\u6001\u4f1a\u4f20\u9012\u7ed9\u8fd9\u4e2a\u9b54\u6cd5\u65b9\u6cd5\uff0c\u800c\u4e0d\u662f\u76f4\u63a5\u5e94\u7528\u5230\u5bf9\u8c61\u7684 <cite>__dict__</cite> \u5c5e\u6027\u3002\u8fd9\u4e2a\u9b54\u6cd5\u65b9\u6cd5\u548c <cite>__getstate__</cite> \u76f8\u4e92\u4f9d\u5b58\uff1a\u5f53\u8fd9\u4e24\u4e2a\u65b9\u6cd5\u90fd\u88ab\u5b9a\u4e49\u65f6\uff0c\u4f60\u53ef\u4ee5\u5728Pickle\u65f6\u4f7f\u7528\u4efb\u4f55\u65b9\u6cd5\u4fdd\u5b58\u5bf9\u8c61\u7684\u4efb\u4f55\u72b6\u6001\u3002</p>\u000a</li>\u000a<li><p class="first"><cite>__reduce__(self)</cite></p>\u000a<p>\u5f53\u5b9a\u4e49\u6269\u5c55\u7c7b\u578b\u65f6\uff08\u4e5f\u5c31\u662f\u4f7f\u7528Python\u7684C\u8bed\u8a00API\u5b9e\u73b0\u7684\u7c7b\u578b\uff09\uff0c\u5982\u679c\u4f60\u60f3pickle\u5b83\u4eec\uff0c\u4f60\u5fc5\u987b\u544a\u8bc9Python\u5982\u4f55pickle\u5b83\u4eec\u3002 <cite>__reduce__</cite> \u88ab\u5b9a\u4e49\u4e4b\u540e\uff0c\u5f53\u5bf9\u8c61\u88abPickle\u65f6\u5c31\u4f1a\u88ab\u8c03\u7528\u3002\u5b83\u8981\u4e48\u8fd4\u56de\u4e00\u4e2a\u4ee3\u8868\u5168\u5c40\u540d\u79f0\u7684\u5b57\u7b26\u4e32\uff0cPyhton\u4f1a\u67e5\u627e\u5b83\u5e76pickle\uff0c\u8981\u4e48\u8fd4\u56de\u4e00\u4e2a\u5143\u7ec4\u3002\u8fd9\u4e2a\u5143\u7ec4\u5305\u542b2\u52305\u4e2a\u5143\u7d20\uff0c\u5176\u4e2d\u5305\u62ec\uff1a\u4e00\u4e2a\u53ef\u8c03\u7528\u7684\u5bf9\u8c61\uff0c\u7528\u4e8e\u91cd\u5efa\u5bf9\u8c61\u65f6\u8c03\u7528\uff1b\u4e00\u4e2a\u53c2\u6570\u5143\u7d20\uff0c\u4f9b\u90a3\u4e2a\u53ef\u8c03\u7528\u5bf9\u8c61\u4f7f\u7528\uff1b\u88ab\u4f20\u9012\u7ed9 <cite>__setstate__</cite> \u7684\u72b6\u6001\uff08\u53ef\u9009\uff09\uff1b\u4e00\u4e2a\u4ea7\u751f\u88abpickle\u7684\u5217\u8868\u5143\u7d20\u7684\u8fed\u4ee3\u5668\uff08\u53ef\u9009\uff09\uff1b\u4e00\u4e2a\u4ea7\u751f\u88abpickle\u7684\u5b57\u5178\u5143\u7d20\u7684\u8fed\u4ee3\u5668\uff08\u53ef\u9009\uff09\uff1b</p>\u000a</li>\u000a<li><p class="first"><cite>__reduce_ex__(self)</cite></p>\u000a<p><cite>__reduce_ex__</cite> \u7684\u5b58\u5728\u662f\u4e3a\u4e86\u517c\u5bb9\u6027\u3002\u5982\u679c\u5b83\u88ab\u5b9a\u4e49\uff0c\u5728pickle\u65f6 <cite>__reduce_ex__</cite> \u4f1a\u4ee3\u66ff <cite>__reduce__</cite> \u88ab\u8c03\u7528\u3002 <cite>__reduce__</cite> \u4e5f\u53ef\u4ee5\u88ab\u5b9a\u4e49\uff0c\u7528\u4e8e\u4e0d\u652f\u6301 <cite>__reduce_ex__</cite> \u7684\u65e7\u7248pickle\u7684API\u8c03\u7528\u3002</p>\u000a</li>\u000a</ul>\u000a</div>\u000a<div class="section" id="id25">\u000a<h3><a class="toc-backref" href="#id54">11.13.3. \u4e00\u4e2a\u4f8b\u5b50</a><a class="headerlink" href="#id25" title="Permalink to this headline"></a></h3>\u000a<p>\u6211\u4eec\u7684\u4f8b\u5b50\u662f <cite>Slate</cite> \uff0c\u5b83\u4f1a\u8bb0\u4f4f\u5b83\u7684\u503c\u66fe\u7ecf\u662f\u4ec0\u4e48\uff0c\u4ee5\u53ca\u90a3\u4e9b\u503c\u662f\u4ec0\u4e48\u65f6\u5019\u8d4b\u7ed9\u5b83\u7684\u3002\u7136\u800c\u000a\u6bcf\u6b21\u88abpickle\u65f6\u5b83\u90fd\u4f1a\u53d8\u6210\u7a7a\u767d\uff0c\u56e0\u4e3a\u5f53\u524d\u7684\u503c\u4e0d\u4f1a\u88ab\u5b58\u50a8:</p>\u000a<div class="highlight-python"><div class="highlight"><pre><span></span>import time\u000a\u000aclass Slate:\u000a        &#39;&#39;&#39;\u5b58\u50a8\u4e00\u4e2a\u5b57\u7b26\u4e32\u548c\u4e00\u4e2a\u53d8\u66f4\u65e5\u5fd7\u7684\u7c7b\u000a        \u6bcf\u6b21\u88abpickle\u90fd\u4f1a\u5fd8\u8bb0\u5b83\u5f53\u524d\u7684\u503c&#39;&#39;&#39;\u000a\u000a        def __init__(self, value):\u000a                self.value = value\u000a                self.last_change = time.asctime()\u000a                self.history = {}\u000a\u000a        def change(self, new_value):\u000a                # \u6539\u53d8\u5f53\u524d\u503c\uff0c\u5c06\u4e0a\u4e00\u4e2a\u503c\u8bb0\u5f55\u5230\u5386\u53f2\u000a                self.history[self.last_change] = self.value\u000a                self.value = new_value)\u000a                self.last_change = time.asctime()\u000a\u000a        def print_change(self):\u000a                print &#39;Changelog for Slate object:&#39;\u000a                for k,v in self.history.items():\u000a                        print &#39;%s\u005ct %s&#39; % (k,v)\u000a\u000a        def __getstate__(self):\u000a                # \u6545\u610f\u4e0d\u8fd4\u56deself.value\u6216self.last_change\u000a                # \u6211\u4eec\u60f3\u5728\u53cdpickle\u65f6\u5f97\u5230\u4e00\u4e2a\u7a7a\u767d\u7684slate\u000a                return self.history\u000a\u000a        def __setstate__(self):\u000a                # \u4f7fself.history = slate\uff0clast_change\u000a                # \u548cvalue\u4e3a\u672a\u5b9a\u4e49\u000a                self.history = state\u000a                self.value, self.last_change = None, None\u000a</pre></div>\u000a</div>\u000a</div>\u000a</div>\u000a<div class="section" id="id26">\u000a<h2><a class="toc-backref" href="#id55">11.14. \u603b\u7ed3</a><a class="headerlink" href="#id26" title="Permalink to this headline"></a></h2>\u000a<p>\u8fd9\u672c\u6307\u5357\u7684\u76ee\u6807\u662f\u4f7f\u6240\u6709\u9605\u8bfb\u5b83\u7684\u4eba\u90fd\u80fd\u6709\u6240\u6536\u83b7\uff0c\u65e0\u8bba\u4ed6\u4eec\u6709\u6ca1\u6709\u4f7f\u7528Python\u6216\u8005\u8fdb\u884c\u9762\u5411\u5bf9\u8c61\u7f16\u7a0b\u7684\u7ecf\u9a8c\u3002\u5982\u679c\u4f60\u521a\u521a\u5f00\u59cb\u5b66\u4e60Python\uff0c\u4f60\u4f1a\u5f97\u5230\u5b9d\u8d35\u7684\u57fa\u7840\u77e5\u8bc6\uff0c\u4e86\u89e3\u5982\u4f55\u5199\u51fa\u5177\u6709\u4e30\u5bcc\u7279\u6027\u7684\uff0c\u4f18\u96c5\u800c\u4e14\u6613\u7528\u7684\u7c7b\u3002\u5982\u679c\u4f60\u662f\u4e2d\u7ea7\u7684Python\u7a0b\u5e8f\u5458\uff0c\u4f60\u6216\u8bb8\u80fd\u638c\u63e1\u4e00\u4e9b\u65b0\u7684\u6982\u5ff5\u548c\u6280\u5de7\uff0c\u4ee5\u53ca\u4e00\u4e9b\u53ef\u4ee5\u51cf\u5c11\u4ee3\u7801\u884c\u6570\u7684\u597d\u529e\u6cd5\u3002\u5982\u679c\u4f60\u662f\u4e13\u5bb6\u7ea7\u522b\u7684Python\u7231\u597d\u8005\uff0c\u4f60\u53c8\u91cd\u65b0\u590d\u4e60\u4e86\u4e00\u904d\u67d0\u4e9b\u53ef\u80fd\u5df2\u7ecf\u5fd8\u6389\u7684\u77e5\u8bc6\uff0c\u4e5f\u53ef\u80fd\u987a\u4fbf\u4e86\u89e3\u4e86\u4e00\u4e9b\u65b0\u6280\u5de7\u3002\u65e0\u8bba\u4f60\u7684\u6c34\u5e73\u600e\u6837\uff0c\u6211\u5e0c\u671b\u8fd9\u8d9f\u9068\u6e38Python\u7279\u6b8a\u65b9\u6cd5\u7684\u65c5\u884c\uff0c\u771f\u7684\u5bf9\u4f60\u4ea7\u751f\u4e86\u9b54\u6cd5\u822c\u7684\u6548\u679c\uff08\u5b9e\u5728\u5fcd\u4e0d\u4f4f\u4e0d\u8bf4\u6700\u540e\u8fd9\u4e2a\u53cc\u5173\uff09\u3002</p>\u000a</div>\u000a<div class="section" id="id27">\u000a<h2><a class="toc-backref" href="#id56">11.15. \u9644\u5f551\uff1a\u5982\u4f55\u8c03\u7528\u9b54\u6cd5\u65b9\u6cd5</a><a class="headerlink" href="#id27" title="Permalink to this headline"></a></h2>\u000a<p>\u4e00\u4e9b\u9b54\u6cd5\u65b9\u6cd5\u76f4\u63a5\u548c\u5185\u5efa\u51fd\u6570\u5bf9\u5e94\uff0c\u8fd9\u79cd\u60c5\u51b5\u4e0b\uff0c\u5982\u4f55\u8c03\u7528\u5b83\u4eec\u662f\u663e\u800c\u6613\u89c1\u7684\u3002\u7136\u800c\uff0c\u53e6\u5916\u7684\u60c5\u51b5\u4e0b\uff0c\u8c03\u7528\u9b54\u6cd5\u65b9\u6cd5\u7684\u9014\u5f84\u5e76\u4e0d\u662f\u90a3\u4e48\u660e\u663e\u3002\u8fd9\u4e2a\u9644\u5f55\u65e8\u5728\u5c55\u793a\u90a3\u4e9b\u4e0d\u90a3\u4e48\u660e\u663e\u7684\u8c03\u7528\u9b54\u6cd5\u65b9\u6cd5\u7684\u8bed\u6cd5\u3002</p>\u000a<table border="1" class="docutils">\u000a<colgroup>\u000a<col width="35%" />\u000a<col width="37%" />\u000a<col width="27%" />\u000a</colgroup>\u000a<thead valign="bottom">\u000a<tr class="row-odd"><th class="head">\u9b54\u6cd5\u65b9\u6cd5</th>\u000a<th class="head">\u4ec0\u4e48\u65f6\u5019\u88ab\u8c03\u7528</th>\u000a<th class="head">\u89e3\u91ca</th>\u000a</tr>\u000a</thead>\u000a<tbody valign="top">\u000a<tr class="row-even"><td>__new__(cls [,...])</td>\u000a<td>instance = MyClass(arg1, arg2)</td>\u000a<td>__new__\u5728\u5b9e\u4f8b\u521b\u5efa\u65f6\u8c03\u7528</td>\u000a</tr>\u000a<tr class="row-odd"><td>__init__(self [,...])</td>\u000a<td>instance = MyClass(arg1,arg2)</td>\u000a<td>__init__\u5728\u5b9e\u4f8b\u521b\u5efa\u65f6\u8c03\u7528</td>\u000a</tr>\u000a<tr class="row-even"><td>__cmp__(self)</td>\u000a<td>self == other, self &gt; other \u7b49</td>\u000a<td>\u8fdb\u884c\u6bd4\u8f83\u65f6\u8c03\u7528</td>\u000a</tr>\u000a<tr class="row-odd"><td>__pos__(self)</td>\u000a<td>+self</td>\u000a<td>\u4e00\u5143\u52a0\u6cd5\u7b26\u53f7</td>\u000a</tr>\u000a<tr class="row-even"><td>__neg__(self)</td>\u000a<td>-self</td>\u000a<td>\u4e00\u5143\u51cf\u6cd5\u7b26\u53f7</td>\u000a</tr>\u000a<tr class="row-odd"><td>__invert__(self)</td>\u000a<td>~self</td>\u000a<td>\u6309\u4f4d\u53d6\u53cd</td>\u000a</tr>\u000a<tr class="row-even"><td>__index__(self)</td>\u000a<td>x[self]</td>\u000a<td>\u5f53\u5bf9\u8c61\u7528\u4e8e\u7d22\u5f15\u65f6</td>\u000a</tr>\u000a<tr class="row-odd"><td>__nonzero__(self)</td>\u000a<td>bool(self)</td>\u000a<td>\u5bf9\u8c61\u7684\u5e03\u5c14\u503c</td>\u000a</tr>\u000a<tr class="row-even"><td>__getattr__(self, name)</td>\u000a<td>self.name #name\u4e0d\u5b58\u5728</td>\u000a<td>\u8bbf\u95ee\u4e0d\u5b58\u5728\u7684\u5c5e\u6027</td>\u000a</tr>\u000a<tr class="row-odd"><td>__setattr__(self, name)</td>\u000a<td>self.name = val</td>\u000a<td>\u7ed9\u5c5e\u6027\u8d4b\u503c</td>\u000a</tr>\u000a<tr class="row-even"><td>__delattr_(self, name)</td>\u000a<td>del self.name</td>\u000a<td>\u5220\u9664\u5c5e\u6027</td>\u000a</tr>\u000a<tr class="row-odd"><td>__getattribute__(self,name)</td>\u000a<td>self.name</td>\u000a<td>\u8bbf\u95ee\u4efb\u610f\u5c5e\u6027</td>\u000a</tr>\u000a<tr class="row-even"><td>__getitem__(self, key)</td>\u000a<td>self[key]</td>\u000a<td>\u4f7f\u7528\u7d22\u5f15\u8bbf\u95ee\u67d0\u4e2a\u5143\u7d20</td>\u000a</tr>\u000a<tr class="row-odd"><td>__setitem__(self, key)</td>\u000a<td>self[key] = val</td>\u000a<td>\u4f7f\u7528\u7d22\u5f15\u7ed9\u67d0\u4e2a\u5143\u7d20\u8d4b\u503c</td>\u000a</tr>\u000a<tr class="row-even"><td>__delitem__(self, key)</td>\u000a<td>del self[key]</td>\u000a<td>\u4f7f\u7528\u7d22\u5f15\u5220\u9664\u67d0\u4e2a\u5bf9\u8c61</td>\u000a</tr>\u000a<tr class="row-odd"><td>__iter__(self)</td>\u000a<td>for x in self</td>\u000a<td>\u8fed\u4ee3</td>\u000a</tr>\u000a<tr class="row-even"><td>__contains__(self, value)</td>\u000a<td>value in self, value not in self</td>\u000a<td>\u4f7f\u7528in\u8fdb\u884c\u6210\u5458\u6d4b\u8bd5</td>\u000a</tr>\u000a<tr class="row-odd"><td>__call__(self [,...])</td>\u000a<td>self(args)</td>\u000a<td>\u201c\u8c03\u7528\u201d\u4e00\u4e2a\u5b9e\u4f8b</td>\u000a</tr>\u000a<tr class="row-even"><td>__enter__(self)</td>\u000a<td>with self as x:</td>\u000a<td>with\u58f0\u660e\u7684\u4e0a\u4e0b\u6587\u7ba1\u7406\u5668</td>\u000a</tr>\u000a<tr class="row-odd"><td>__exit__(self, exc, val, trace)</td>\u000a<td>with self as x:</td>\u000a<td>with\u58f0\u660e\u7684\u4e0a\u4e0b\u6587\u7ba1\u7406\u5668</td>\u000a</tr>\u000a<tr class="row-even"><td>__getstate__(self)</td>\u000a<td>pickle.dump(pkl_file, self)</td>\u000a<td>Pickling</td>\u000a</tr>\u000a<tr class="row-odd"><td>__setstate__(self)</td>\u000a<td>data = pickle.load(pkl_file)</td>\u000a<td>Pickling</td>\u000a</tr>\u000a</tbody>\u000a</table>\u000a</div>\u000a<div class="section" id="python-3">\u000a<h2><a class="toc-backref" href="#id57">11.16. \u9644\u5f552\uff1aPython 3\u4e2d\u7684\u53d8\u5316</a><a class="headerlink" href="#python-3" title="Permalink to this headline"></a></h2>\u000a<p>\u5728\u8fd9\u91cc\uff0c\u6211\u4eec\u8bb0\u5f55\u4e86\u51e0\u4e2a\u5728\u5bf9\u8c61\u6a21\u578b\u65b9\u9762 Python 3 \u548c Python 2.x \u4e4b\u95f4\u7684\u4e3b\u8981\u533a\u522b\u3002</p>\u000a<ul class="simple">\u000a<li>Python 3\u4e2dstring\u548cunicode\u7684\u533a\u522b\u4e0d\u590d\u5b58\u5728\uff0c\u56e0\u6b64 <cite>__unicode__</cite> \u88ab\u53d6\u6d88\u4e86\uff0c <cite>__bytes__</cite> \u52a0\u5165\u8fdb\u6765\uff08\u4e0ePython 2.7 \u4e2d\u7684 <cite>__str__</cite> \u548c <cite>__unicode__</cite> \u884c\u4e3a\u7c7b\u4f3c\uff09\uff0c\u7528\u4e8e\u65b0\u7684\u521b\u5efa\u5b57\u8282\u6570\u7ec4\u7684\u5185\u5efa\u65b9\u6cd5\u3002</li>\u000a<li>Python 3\u4e2d\u9ed8\u8ba4\u9664\u6cd5\u53d8\u6210\u4e86 true \u9664\u6cd5\uff0c\u56e0\u6b64 <cite>__div__</cite> \u88ab\u53d6\u6d88\u4e86\u3002</li>\u000a<li><cite>__coerce__</cite> \u88ab\u53d6\u6d88\u4e86\uff0c\u56e0\u4e3a\u548c\u5176\u4ed6\u9b54\u6cd5\u65b9\u6cd5\u6709\u529f\u80fd\u4e0a\u7684\u91cd\u590d\uff0c\u4ee5\u53ca\u672c\u8eab\u884c\u4e3a\u4ee4\u4eba\u8ff7\u60d1\u3002</li>\u000a<li><cite>__cmp__</cite> \u88ab\u53d6\u6d88\u4e86\uff0c\u56e0\u4e3a\u548c\u5176\u4ed6\u9b54\u6cd5\u65b9\u6cd5\u6709\u529f\u80fd\u4e0a\u7684\u91cd\u590d\u3002</li>\u000a<li><cite>__nonzero__</cite> \u88ab\u91cd\u547d\u540d\u6210 <cite>__bool__</cite> \u3002</li>\u000a</ul>\u000a</div>\u000a</div>\u000a\u000a\u000a            <div class="cut">***</div>\u000a          </div>\u000a       </div>\u000a     </div>\u000a  </div>\u000a      <div class="clearer"></div>\u000a    </div>\u000a  \u000a  <a href="http://github.com/hit9/PyZh">\u000a    <img style="position: fixed; top: 0; right: 0; border: 0;"\u000a    src="http://s3.amazonaws.com/github/ribbons/forkme_right_red_aa0000.png"\u000a    alt="Fork me on GitHub" />\u000a  </a>\u000a  \u000a\u000a  \u000a  <div class="footer">\u000a    &copy; Copyright 2013, hit9.\u000a    Created using <a href="http://sphinx.pocoo.org/">Sphinx</a>. Theme\u000a    <a href="https://github.com/hit9/sphinx-theme-rux">rux</a>.\u000a  </div>\u000a\u000a  </body>\u000a</html>
p3
a.