(lp0
S'http://slime-user-manual-cn.readthedocs.org/en/latest/contents.html'
p1
aS'\xe7\x9b\xae\xe5\xbd\x95 \xe2\x80\x94 SLIME 3.0 documentation'
p2
aI0
aV\u000a\u000a<!DOCTYPE html>\u000a<!--[if IE 8]><html class="no-js lt-ie9" lang="en" > <![endif]-->\u000a<!--[if gt IE 8]><!--> <html class="no-js" lang="en" > <!--<![endif]-->\u000a<head>\u000a  <meta charset="utf-8">\u000a  \u000a  <meta name="viewport" content="width=device-width, initial-scale=1.0">\u000a  \u000a  <title>\u76ee\u5f55 &mdash; SLIME 3.0 documentation</title>\u000a  \u000a\u000a  \u000a  \u000a\u000a  \u000a\u000a  \u000a  \u000a    \u000a\u000a  \u000a\u000a  \u000a  \u000a\u000a  \u000a    <link rel="stylesheet" href="https://media.readthedocs.org/css/sphinx_rtd_theme.css" type="text/css" />\u000a  \u000a    <link rel="stylesheet" href="https://media.readthedocs.org/css/readthedocs-doc-embed.css" type="text/css" />\u000a  \u000a\u000a  \u000a    <link rel="top" title="SLIME 3.0 documentation" href="index.html"/>\u000a        <link rel="next" title="\u4e00\u3001\u7b80\u4ecb" href="chapter-1.html"/>\u000a        <link rel="prev" title="Welcome to SLIME\u2019s documentation!" href="index.html"/>\u000a \u000a<!-- RTD Extra Head -->\u000a\u000a    \u000a    \u000a\u000a<!-- \u000aAlways link to the latest version, as canonical.\u000ahttp://docs.readthedocs.org/en/latest/canonical.html\u000a-->\u000a<link rel="canonical" href="http://slime-user-manual-cn.readthedocs.org/en/latest/contents.html" />\u000a<script type="text/javascript">\u000a  // This is included here because other places don't have access to the pagename variable.\u000a  var READTHEDOCS_DATA = {\u000a    project: "slime-user-manual-cn",\u000a    version: "latest",\u000a    language: "en",\u000a    page: "contents",\u000a    builder: "sphinx",\u000a    theme: "sphinx_rtd_theme",\u000a    docroot: "/./",\u000a    \u000a    source_suffix: ".rst",\u000a    \u000a    api_host: "https://readthedocs.org/",\u000a    commit: "5029418f"\u000a  }\u000a  // Old variables\u000a  var doc_version = "latest";\u000a  var doc_slug = "slime-user-manual-cn";\u000a  var page_name = "contents";\u000a  var html_theme = "sphinx_rtd_theme";\u000a</script>\u000a<!-- RTD Analytics Code -->\u000a<!-- Included in the header because you don't have a footer block. -->\u000a<script type="text/javascript">\u000a  var _gaq = _gaq || [];\u000a  _gaq.push(['_setAccount', 'UA-17997319-1']);\u000a  _gaq.push(['_trackPageview']);\u000a\u000a\u000a  (function() {\u000a    var ga = document.createElement('script'); ga.type = 'text/javascript'; ga.async = true;\u000a    ga.src = ('https:' == document.location.protocol ? 'https://ssl' : 'http://www') + '.google-analytics.com/ga.js';\u000a    var s = document.getElementsByTagName('script')[0]; s.parentNode.insertBefore(ga, s);\u000a  })();\u000a</script>\u000a<!-- end RTD Analytics Code -->\u000a<!-- end RTD <extrahead> -->\u000a\u000a\u000a  \u000a  <script src="_static/js/modernizr.min.js"></script>\u000a\u000a</head>\u000a\u000a<body class="wy-body-for-nav" role="document">\u000a\u000a  <div class="wy-grid-for-nav">\u000a\u000a    \u000a    <nav data-toggle="wy-nav-shift" class="wy-nav-side">\u000a      <div class="wy-side-scroll">\u000a        <div class="wy-side-nav-search">\u000a          \u000a\u000a          \u000a            <a href="index.html" class="icon icon-home"> SLIME\u000a          \u000a\u000a          \u000a          </a>\u000a\u000a          \u000a            \u000a            \u000a            \u000a              <div class="version">\u000a                latest\u000a              </div>\u000a            \u000a          \u000a\u000a          \u000a<div role="search">\u000a  <form id="rtd-search-form" class="wy-form" action="search.html" method="get">\u000a    <input type="text" name="q" placeholder="Search docs" />\u000a    <input type="hidden" name="check_keywords" value="yes" />\u000a    <input type="hidden" name="area" value="default" />\u000a  </form>\u000a</div>\u000a\u000a          \u000a        </div>\u000a\u000a        <div class="wy-menu wy-menu-vertical" data-spy="affix" role="navigation" aria-label="main navigation">\u000a          \u000a            \u000a            \u000a                <ul class="current">\u000a<li class="toctree-l1 current"><a class="current reference internal" href="">\u76ee\u5f55</a><ul>\u000a<li class="toctree-l2"><a class="reference internal" href="#id2">1 \u4ecb\u7ecd</a></li>\u000a<li class="toctree-l2"><a class="reference internal" href="#id3">2 \u5f00\u59cb</a></li>\u000a<li class="toctree-l2"><a class="reference internal" href="#slime">3 \u4f7f\u7528Slime\u6a21\u5f0f</a></li>\u000a<li class="toctree-l2"><a class="reference internal" href="#sldb-slime">4 SLDB\uff1aSlime\u8c03\u8bd5\u5668</a></li>\u000a<li class="toctree-l2"><a class="reference internal" href="#id6">5 \u6742\u9879</a></li>\u000a<li class="toctree-l2"><a class="reference internal" href="#id7">6 \u5b9a\u5236</a></li>\u000a<li class="toctree-l2"><a class="reference internal" href="#id8">7 \u5c0f\u6280\u5de7</a></li>\u000a<li class="toctree-l2"><a class="reference internal" href="#id9">8 \u6269\u5c55\u5305</a></li>\u000a<li class="toctree-l2"><a class="reference internal" href="#id10">9 \u81f4\u8c22</a></li>\u000a</ul>\u000a</li>\u000a<li class="toctree-l1"><a class="reference internal" href="chapter-1.html">\u4e00\u3001\u7b80\u4ecb</a></li>\u000a<li class="toctree-l1"><a class="reference internal" href="chapter-2.html">\u4e8c\u3001\u5f00\u59cb</a></li>\u000a<li class="toctree-l1"><a class="reference internal" href="chapter-3.html">\u4e09\u3001\u4f7f\u7528Slime\u6a21\u5f0f</a></li>\u000a<li class="toctree-l1"><a class="reference internal" href="chapter-4.html">\u56db\u3001SLDB\uff1aSlime\u8c03\u8bd5\u5668</a></li>\u000a<li class="toctree-l1"><a class="reference internal" href="chapter-5.html">\u4e94\u3001\u6742\u9879</a></li>\u000a<li class="toctree-l1"><a class="reference internal" href="chapter-6.html">\u516d\u3001\u5b9a\u5236</a></li>\u000a<li class="toctree-l1"><a class="reference internal" href="chapter-7.html">\u4e03\u3001\u5c0f\u6280\u5de7</a></li>\u000a<li class="toctree-l1"><a class="reference internal" href="chapter-8.html">\u516b\u3001\u6269\u5c55\u5305</a></li>\u000a<li class="toctree-l1"><a class="reference internal" href="chapter-9.html">\u4e5d\u3001\u81f4\u8c22</a></li>\u000a</ul>\u000a\u000a            \u000a          \u000a        </div>\u000a      </div>\u000a    </nav>\u000a\u000a    <section data-toggle="wy-nav-shift" class="wy-nav-content-wrap">\u000a\u000a      \u000a      <nav class="wy-nav-top" role="navigation" aria-label="top navigation">\u000a        <i data-toggle="wy-nav-top" class="fa fa-bars"></i>\u000a        <a href="index.html">SLIME</a>\u000a      </nav>\u000a\u000a\u000a      \u000a      <div class="wy-nav-content">\u000a        <div class="rst-content">\u000a          \u000a\u000a\u000a\u000a\u000a\u000a<div role="navigation" aria-label="breadcrumbs navigation">\u000a  <ul class="wy-breadcrumbs">\u000a    <li><a href="index.html">Docs</a> &raquo;</li>\u000a      \u000a    <li>\u76ee\u5f55</li>\u000a      <li class="wy-breadcrumbs-aside">\u000a        \u000a          \u000a            <a href="https://github.com/unionx/slime-user-manual-cn/blob/master/./contents.rst" class="fa fa-github"> Edit on GitHub</a>\u000a          \u000a        \u000a      </li>\u000a  </ul>\u000a  <hr/>\u000a</div>\u000a          <div role="main" class="document" itemscope="itemscope" itemtype="http://schema.org/Article">\u000a           <div itemprop="articleBody">\u000a            \u000a  <div class="section" id="id1">\u000a<h1>\u76ee\u5f55<a class="headerlink" href="#id1" title="Permalink to this headline"></a></h1>\u000a<div class="section" id="id2">\u000a<h2>1 \u4ecb\u7ecd<a class="headerlink" href="#id2" title="Permalink to this headline"></a></h2>\u000a</div>\u000a<div class="section" id="id3">\u000a<h2>2 \u5f00\u59cb<a class="headerlink" href="#id3" title="Permalink to this headline"></a></h2>\u000a<ul class="simple">\u000a<li>2.1 \u652f\u6301\u5e73\u53f0</li>\u000a<li>2.2 \u4e0b\u8f7dSlime<ul>\u000a<li>2.2.1 \u4eceCVS\u4e0b\u8f7d</li>\u000a<li>2.2.2 \u4f7f\u7528CVS</li>\u000a</ul>\u000a</li>\u000a<li>2.3 \u5b89\u88c5</li>\u000a<li>2.4 \u542f\u52a8Slime</li>\u000a<li>2.5 \u8c03\u6574\u8bbe\u7f6e<ul>\u000a<li>2.5.1 \u81ea\u52a8\u52a0\u8f7d</li>\u000a<li>2.5.2 \u591a\u79cdLisp</li>\u000a<li>2.5.3 \u66f4\u5feb\u5730\u52a0\u8f7dSwank</li>\u000a</ul>\u000a</li>\u000a</ul>\u000a</div>\u000a<div class="section" id="slime">\u000a<h2>3 \u4f7f\u7528Slime\u6a21\u5f0f<a class="headerlink" href="#slime" title="Permalink to this headline"></a></h2>\u000a<ul class="simple">\u000a<li>3.1 \u7528\u6237\u754c\u9762\u987b\u77e5<ul>\u000a<li>3.1.1 \u4e34\u65f6\u7f13\u51b2\u533a</li>\u000a<li>3.1.2 <a href="#id4"><span class="problematic" id="id5">*</span></a>inferior*lisp*\u7f13\u51b2\u533a</li>\u000a<li>3.1.3 \u591a\u7ebf\u7a0b</li>\u000a<li>3.1.4 \u952e\u7ed1\u5b9a</li>\u000a</ul>\u000a</li>\u000a<li>3.2 \u6c42\u503c\u547d\u4ee4</li>\u000a<li>3.3 \u7f16\u8bd1\u547d\u4ee4</li>\u000a<li>3.4 \u8865\u5168\u547d\u4ee4</li>\u000a<li>3.5 \u67e5\u627e\u5b9a\u4e49\uff08\u201cMeta*Point\u201d\u547d\u4ee4\uff09</li>\u000a<li>3.6 \u6587\u6863\u547d\u4ee4</li>\u000a<li>3.7 \u4ea4\u53c9\u5f15\u7528\u547d\u4ee4<ul>\u000a<li>3.7.1 XREF\u7f13\u51b2\u533a\u547d\u4ee4</li>\u000a</ul>\u000a</li>\u000a<li>3.8 \u5b8f\u6269\u5c55\u547d\u4ee4</li>\u000a<li>3.9 \u5206\u89e3\u547d\u4ee4</li>\u000a<li>3.10 \u4e2d\u6b62/\u6062\u590d\u547d\u4ee4</li>\u000a<li>3.11 \u68c0\u67e5\u547d\u4ee4</li>\u000a<li>3.12 \u5206\u6790\u547d\u4ee4</li>\u000a<li>3.13 \u906e\u76d6\u547d\u4ee4</li>\u000a<li>3.14 \u8bed\u4e49\u7f29\u8fdb</li>\u000a<li>3.15 \u6839\u636e\u8bfb\u53d6\u5668\u7684\u7ed3\u679c\u5b57\u7b26\u5316</li>\u000a</ul>\u000a</div>\u000a<div class="section" id="sldb-slime">\u000a<h2>4 SLDB\uff1aSlime\u8c03\u8bd5\u5668<a class="headerlink" href="#sldb-slime" title="Permalink to this headline"></a></h2>\u000a<ul class="simple">\u000a<li>4.1 \u68c0\u67e5\u7a97\u53e3</li>\u000a<li>4.2 \u91cd\u542f</li>\u000a<li>4.3 \u5728\u4e0d\u540c\u7684\u7a97\u53e3\u95f4\u64cd\u4f5c</li>\u000a<li>4.4 \u5355\u6b65\u8c03\u8bd5</li>\u000a<li>4.5 \u5176\u5b83\u547d\u4ee4</li>\u000a</ul>\u000a</div>\u000a<div class="section" id="id6">\u000a<h2>5 \u6742\u9879<a class="headerlink" href="#id6" title="Permalink to this headline"></a></h2>\u000a<ul class="simple">\u000a<li>5.1 slime-selector</li>\u000a<li>5.2 slime-macroexpansion-minor-mode</li>\u000a<li>5.3 \u591a\u91cd\u8fde\u63a5</li>\u000a</ul>\u000a</div>\u000a<div class="section" id="id7">\u000a<h2>6 \u5b9a\u5236<a class="headerlink" href="#id7" title="Permalink to this headline"></a></h2>\u000a<ul class="simple">\u000a<li>6.1 Emacs\u7aef<ul>\u000a<li>6.1.1 \u94a9\u5b50</li>\u000a</ul>\u000a</li>\u000a<li>6.2 Lisp\u7aef\uff08Swank\uff09<ul>\u000a<li>6.2.1 \u901a\u4fe1\u6a21\u5f0f</li>\u000a<li>6.2.2 \u5176\u5b83\u914d\u7f6e</li>\u000a</ul>\u000a</li>\u000a</ul>\u000a</div>\u000a<div class="section" id="id8">\u000a<h2>7 \u5c0f\u6280\u5de7<a class="headerlink" href="#id8" title="Permalink to this headline"></a></h2>\u000a<ul class="simple">\u000a<li>7.1 \u8fde\u63a5\u5230\u8fdc\u7a0bLisp<ul>\u000a<li>7.1.1 \u8bbe\u7f6eLisp\u955c\u50cf</li>\u000a<li>7.1.2 \u8bbe\u7f6eEmacs</li>\u000a<li>7.1.3 \u8bbe\u7f6e\u8def\u5f84\u540d\u7ffb\u8bd1</li>\u000a</ul>\u000a</li>\u000a<li>7.2 \u91cd\u5b9a\u5411\u5168\u5c40IO\u5230REPL</li>\u000a<li>7.3 \u81ea\u52a8\u8fde\u63a5\u5230Slime</li>\u000a</ul>\u000a</div>\u000a<div class="section" id="id9">\u000a<h2>8 \u6269\u5c55\u5305<a class="headerlink" href="#id9" title="Permalink to this headline"></a></h2>\u000a<ul class="simple">\u000a<li>8.1 \u52a0\u8f7d\u6269\u5c55\u5305</li>\u000a<li>8.2 REPL\uff1a\u201c\u9876\u5c42\u73af\u5883\u201d<ul>\u000a<li>8.2.1 REPL\u547d\u4ee4</li>\u000a<li>8.2.2 \u8f93\u5165\u5f15\u5bfc</li>\u000a<li>8.2.3 \u5feb\u6377\u547d\u4ee4</li>\u000a</ul>\u000a</li>\u000a<li>8.3 \u591aREPL</li>\u000a<li>8.4 inferior-slime-mode</li>\u000a<li>8.5 \u6df7\u5408\u8865\u5168</li>\u000a<li>8.6 \u6a21\u7cca\u8865\u5168</li>\u000a<li>8.7 slime-autodoc-mode</li>\u000a<li>8.8 ASDF</li>\u000a<li>8.9 \u5bfc\u822a\u6761</li>\u000a<li>8.10 \u7f16\u8f91\u547d\u4ee4</li>\u000a<li>8.11 \u66f4\u597d\u7684\u68c0\u67e5\u5668</li>\u000a<li>8.12 \u5bf9\u8c61\u63cf\u8ff0</li>\u000a<li>8.13 \u6253\u5370\u7a97\u53e3</li>\u000a<li>8.14 TRAMP</li>\u000a<li>8.15 \u6587\u6863\u94fe\u63a5</li>\u000a<li>8.16 \u4ea4\u53c9\u5f15\u7528\u548c\u7c7b\u67e5\u770b\u5668</li>\u000a<li>8.17 \u9ad8\u4eae\u7f16\u8f91</li>\u000a<li>8.18 \u7a7a\u767d\u7f13\u51b2\u533a</li>\u000a<li>8.19 slime-sprof</li>\u000a<li>8.20 slime-fancy</li>\u000a</ul>\u000a</div>\u000a<div class="section" id="id10">\u000a<h2>9 \u81f4\u8c22<a class="headerlink" href="#id10" title="Permalink to this headline"></a></h2>\u000a<ul class="simple">\u000a<li>\u9ed1\u5ba2\u4eec</li>\u000a<li>\u591a\u8c22\uff01</li>\u000a</ul>\u000a</div>\u000a</div>\u000a\u000a\u000a           </div>\u000a          </div>\u000a          <footer>\u000a  \u000a    <div class="rst-footer-buttons" role="navigation" aria-label="footer navigation">\u000a      \u000a        <a href="chapter-1.html" class="btn btn-neutral float-right" title="\u4e00\u3001\u7b80\u4ecb" accesskey="n">Next <span class="fa fa-arrow-circle-right"></span></a>\u000a      \u000a      \u000a        <a href="index.html" class="btn btn-neutral" title="Welcome to SLIME\u2019s documentation!" accesskey="p"><span class="fa fa-arrow-circle-left"></span> Previous</a>\u000a      \u000a    </div>\u000a  \u000a\u000a  <hr/>\u000a\u000a  <div role="contentinfo">\u000a    <p>\u000a        &copy; Copyright 2013, unionx.\u000a      \u000a        <span class="commit">\u000a          Revision <code>5029418f</code>.\u000a        </span>\u000a      \u000a\u000a    </p>\u000a  </div>\u000a  Built with <a href="http://sphinx-doc.org/">Sphinx</a> using a <a href="https://github.com/snide/sphinx_rtd_theme">theme</a> provided by <a href="https://readthedocs.org">Read the Docs</a>. \u000a\u000a</footer>\u000a\u000a        </div>\u000a      </div>\u000a\u000a    </section>\u000a\u000a  </div>\u000a  \u000a\u000a  <div class="rst-versions" data-toggle="rst-versions" role="note" aria-label="versions">\u000a    <span class="rst-current-version" data-toggle="rst-current-version">\u000a      <span class="fa fa-book"> Read the Docs</span>\u000a      v: latest\u000a      <span class="fa fa-caret-down"></span>\u000a    </span>\u000a    <div class="rst-other-versions">\u000a      <dl>\u000a        <dt>Versions</dt>\u000a        \u000a          <dd><a href="/en/latest/">latest</a></dd>\u000a        \u000a      </dl>\u000a      <dl>\u000a        <dt>Downloads</dt>\u000a        \u000a          <dd><a href="//readthedocs.org/projects/slime-user-manual-cn/downloads/htmlzip/latest/">htmlzip</a></dd>\u000a        \u000a          <dd><a href="//readthedocs.org/projects/slime-user-manual-cn/downloads/epub/latest/">epub</a></dd>\u000a        \u000a      </dl>\u000a      <dl>\u000a        <dt>On Read the Docs</dt>\u000a          <dd>\u000a            <a href="//readthedocs.org/projects/slime-user-manual-cn/?fromdocs=slime-user-manual-cn">Project Home</a>\u000a          </dd>\u000a          <dd>\u000a            <a href="//readthedocs.org/builds/slime-user-manual-cn/?fromdocs=slime-user-manual-cn">Builds</a>\u000a          </dd>\u000a      </dl>\u000a      <hr/>\u000a      Free document hosting provided by <a href="http://www.readthedocs.org">Read the Docs</a>.\u000a\u000a    </div>\u000a  </div>\u000a\u000a\u000a\u000a  \u000a\u000a    <script type="text/javascript">\u000a        var DOCUMENTATION_OPTIONS = {\u000a            URL_ROOT:'./',\u000a            VERSION:'3.0',\u000a            COLLAPSE_INDEX:false,\u000a            FILE_SUFFIX:'.html',\u000a            HAS_SOURCE:  true\u000a        };\u000a    </script>\u000a      <script type="text/javascript" src="https://media.readthedocs.org/javascript/jquery/jquery-2.0.3.min.js"></script>\u000a      <script type="text/javascript" src="https://media.readthedocs.org/javascript/jquery/jquery-migrate-1.2.1.min.js"></script>\u000a      <script type="text/javascript" src="https://media.readthedocs.org/javascript/underscore.js"></script>\u000a      <script type="text/javascript" src="https://media.readthedocs.org/javascript/doctools.js"></script>\u000a      <script type="text/javascript" src="https://media.readthedocs.org/javascript/readthedocs-doc-embed.js"></script>\u000a\u000a  \u000a\u000a  \u000a  \u000a\u000a  \u000a  \u000a  <script type="text/javascript">\u000a      jQuery(function () {\u000a          SphinxRtdTheme.StickyNav.enable();\u000a      });\u000a  </script>\u000a   \u000a\u000a</body>\u000a</html>
p3
a.