(lp0
S'http://acl.readthedocs.org/en/latest/index.html'
p1
aS'ANSI Common Lisp \xe4\xb8\xad\xe6\x96\x87\xe7\xbf\xbb\xe8\xad\xaf\xe7\x89\x88 \xe2\x80\x94 ANSI Common Lisp \xe4\xb8\xad\xe6\x96\x87\xe7\x89\x88'
p2
aI0
aV<!DOCTYPE html>\u000a\u000a\u000a<html>\u000a  <head>\u000a    <meta charset="utf-8" />\u000a    \u000a    <title>ANSI Common Lisp \u4e2d\u6587\u7ffb\u8b6f\u7248 &mdash; ANSI Common Lisp \u4e2d\u6587\u7248</title>\u000a    \u000a    <link rel="stylesheet" href="_static/pyramid.css" type="text/css" />\u000a    <link rel="stylesheet" href="_static/pygments.css" type="text/css" />\u000a    <link rel="stylesheet" href="https://media.readthedocs.org/css/badge_only.css" type="text/css" />\u000a    \u000a    <script type="text/javascript">\u000a      var DOCUMENTATION_OPTIONS = {\u000a        URL_ROOT:    './',\u000a        VERSION:     '1.0.0',\u000a        COLLAPSE_INDEX: false,\u000a        FILE_SUFFIX: '.html',\u000a        HAS_SOURCE:  true\u000a      };\u000a    </script>\u000a    <script type="text/javascript" src="https://media.readthedocs.org/javascript/jquery/jquery-2.0.3.min.js"></script>\u000a    <script type="text/javascript" src="https://media.readthedocs.org/javascript/jquery/jquery-migrate-1.2.1.min.js"></script>\u000a    <script type="text/javascript" src="https://media.readthedocs.org/javascript/underscore.js"></script>\u000a    <script type="text/javascript" src="https://media.readthedocs.org/javascript/doctools.js"></script>\u000a    <script type="text/javascript" src="https://cdn.mathjax.org/mathjax/latest/MathJax.js?config=TeX-AMS-MML_HTMLorMML"></script>\u000a    <script type="text/javascript" src="https://media.readthedocs.org/javascript/readthedocs-doc-embed.js"></script>\u000a    <link rel="top" title="ANSI Common Lisp \u4e2d\u6587\u7248" href="#" />\u000a    <link rel="next" title="\u6b63\u9ad4\u4e2d\u6587" href="zhTW/index.html" />\u000a\u000a<link rel="stylesheet" href="http://fonts.googleapis.com/css?family=Neuton&amp;subset=latin" type="text/css" media="screen" charset="utf-8" />\u000a<link rel="stylesheet" href="http://fonts.googleapis.com/css?family=Nobile:regular,italic,bold,bolditalic&amp;subset=latin" type="text/css" media="screen" charset="utf-8" />\u000a\u000a<link rel="stylesheet" href="../_static/github.css">\u000a\u000a<!--[if lte IE 6]>\u000a<link rel="stylesheet" href="_static/ie6.css" type="text/css" media="screen" charset="utf-8" />\u000a<![endif]-->\u000a\u000a\u000a  \u000a<!-- RTD Extra Head -->\u000a\u000a<!-- \u000aAlways link to the latest version, as canonical.\u000ahttp://docs.readthedocs.org/en/latest/canonical.html\u000a-->\u000a<link rel="canonical" href="http://acl.readthedocs.io/en/latest/" />\u000a\u000a<link rel="stylesheet" href="https://media.readthedocs.org/css/readthedocs-doc-embed.css" type="text/css" />\u000a\u000a<script type="text/javascript" src="_static/readthedocs-data.js"></script>\u000a\u000a<!-- Add page-specific data, which must exist in the page js, not global -->\u000a<script type="text/javascript">\u000aREADTHEDOCS_DATA['page'] = 'index'\u000a</script>\u000a\u000a<script type="text/javascript" src="_static/readthedocs-dynamic-include.js"></script>\u000a\u000a<!-- end RTD <extrahead> --></head>\u000a  <body>\u000a\u000a\u000a    <div class="related">\u000a      <h3>Navigation</h3>\u000a      <ul>\u000a        <li class="right" style="margin-right: 10px">\u000a          <a href="genindex.html" title="General Index"\u000a             accesskey="I">index</a></li>\u000a        <li class="right" >\u000a          <a href="zhTW/index.html" title="\u6b63\u9ad4\u4e2d\u6587"\u000a             accesskey="N">next</a> |</li>\u000a        <li><a href="#">ANSI Common Lisp \u4e2d\u6587\u7248</a> &raquo;</li> \u000a      </ul>\u000a    </div>  \u000a\u000a    <div class="document">\u000a      <div class="documentwrapper">\u000a        <div class="bodywrapper">\u000a          <div class="body">\u000a            \u000a  <div class="section" id="ansi-common-lisp">\u000a<h1>ANSI Common Lisp \u4e2d\u6587\u7ffb\u8b6f\u7248<a class="headerlink" href="#ansi-common-lisp" title="Permalink to this headline"></a></h1>\u000a<table border="1" class="docutils">\u000a<colgroup>\u000a<col width="49%" />\u000a<col width="51%" />\u000a</colgroup>\u000a<tbody valign="top">\u000a<tr class="row-odd"><td><div class="toctree-wrapper first last compound">\u000a<ul>\u000a<li class="toctree-l1"><a class="reference internal" href="zhTW/index.html">\u6b63\u9ad4\u4e2d\u6587</a><ul>\u000a<li class="toctree-l2"><a class="reference internal" href="zhTW/preface.html">\u524d\u8a00</a></li>\u000a<li class="toctree-l2"><a class="reference internal" href="zhTW/ch1.html">\u7b2c\u4e00\u7ae0\uff1a\u7c21\u4ecb</a></li>\u000a<li class="toctree-l2"><a class="reference internal" href="zhTW/ch2.html">\u7b2c\u4e8c\u7ae0\uff1a\u6b61\u8fce\u4f86\u5230 Lisp</a></li>\u000a<li class="toctree-l2"><a class="reference internal" href="zhTW/ch3.html">\u7b2c\u4e09\u7ae0\uff1a\u5217\u8868</a></li>\u000a<li class="toctree-l2"><a class="reference internal" href="zhTW/ch4.html">\u7b2c\u56db\u7ae0\uff1a\u7279\u6b8a\u8cc7\u6599\u7d50\u69cb</a></li>\u000a<li class="toctree-l2"><a class="reference internal" href="zhTW/ch5.html">\u7b2c\u4e94\u7ae0\uff1a\u63a7\u5236\u6d41</a></li>\u000a<li class="toctree-l2"><a class="reference internal" href="zhTW/ch6.html">\u7b2c\u516d\u7ae0\uff1a\u51fd\u6578</a></li>\u000a<li class="toctree-l2"><a class="reference internal" href="zhTW/ch7.html">\u7b2c\u4e03\u7ae0\uff1a\u8f38\u5165\u8207\u8f38\u51fa</a></li>\u000a<li class="toctree-l2"><a class="reference internal" href="zhTW/ch8.html">\u7b2c\u516b\u7ae0\uff1a\u7b26\u865f</a></li>\u000a<li class="toctree-l2"><a class="reference internal" href="zhTW/ch9.html">\u7b2c\u4e5d\u7ae0\uff1a\u6578\u5b57</a></li>\u000a<li class="toctree-l2"><a class="reference internal" href="zhTW/ch10.html">\u7b2c\u5341\u7ae0\uff1a\u5b8f</a></li>\u000a<li class="toctree-l2"><a class="reference internal" href="zhTW/ch11.html">\u7b2c\u5341\u4e00\u7ae0\uff1aCommon Lisp \u7269\u4ef6\u7cfb\u7d71</a></li>\u000a<li class="toctree-l2"><a class="reference internal" href="zhTW/ch12.html">\u7b2c\u5341\u4e8c\u7ae0\uff1a\u7d50\u69cb</a></li>\u000a<li class="toctree-l2"><a class="reference internal" href="zhTW/ch13.html">\u7b2c\u5341\u4e09\u7ae0\uff1a\u901f\u5ea6</a></li>\u000a<li class="toctree-l2"><a class="reference internal" href="zhTW/ch14.html">\u7b2c\u5341\u56db\u7ae0\uff1a\u9032\u968e\u8b70\u984c</a></li>\u000a<li class="toctree-l2"><a class="reference internal" href="zhTW/ch15.html">\u7b2c\u5341\u4e94\u7ae0\uff1a\u7bc4\u4f8b\uff1a\u63a8\u8ad6</a></li>\u000a<li class="toctree-l2"><a class="reference internal" href="zhTW/ch16.html">\u7b2c\u5341\u516d\u7ae0\uff1a\u7bc4\u4f8b\uff1a\u7522\u751f HTML</a></li>\u000a<li class="toctree-l2"><a class="reference internal" href="zhTW/ch17.html">\u7b2c\u5341\u4e03\u7ae0\uff1a\u7bc4\u4f8b\uff1a\u7269\u4ef6</a></li>\u000a<li class="toctree-l2"><a class="reference internal" href="zhTW/appendix-A.html">\u9644\u9304 A\uff1a\u9664\u932f</a></li>\u000a<li class="toctree-l2"><a class="reference internal" href="zhTW/appendix-B.html">\u9644\u9304 B\uff1aLisp in Lisp</a></li>\u000a<li class="toctree-l2"><a class="reference internal" href="zhTW/appendix-C.html">\u9644\u9304 C\uff1aCommon Lisp \u7684\u6539\u8b8a</a></li>\u000a<li class="toctree-l2"><a class="reference internal" href="zhTW/appendix-D.html">\u9644\u9304 D\uff1a\u8a9e\u8a00\u53c3\u8003\u624b\u518a</a></li>\u000a<li class="toctree-l2"><a class="reference internal" href="zhTW/notes.html">\u5099\u8a3b</a></li>\u000a</ul>\u000a</li>\u000a</ul>\u000a</div>\u000a</td>\u000a<td><div class="toctree-wrapper first last compound">\u000a<ul>\u000a<li class="toctree-l1"><a class="reference internal" href="zhCN/index.html">\u7b80\u4f53\u4e2d\u6587</a><ul>\u000a<li class="toctree-l2"><a class="reference internal" href="zhCN/preface-cn.html">\u524d\u8a00</a></li>\u000a<li class="toctree-l2"><a class="reference internal" href="zhCN/ch1-cn.html">\u7b2c\u4e00\u7ae0\uff1a\u7b80\u4ecb</a></li>\u000a<li class="toctree-l2"><a class="reference internal" href="zhCN/ch2-cn.html">\u7b2c\u4e8c\u7ae0\uff1a\u6b22\u8fce\u6765\u5230 Lisp</a></li>\u000a<li class="toctree-l2"><a class="reference internal" href="zhCN/ch3-cn.html">\u7b2c\u4e09\u7ae0\uff1a\u5217\u8868</a></li>\u000a<li class="toctree-l2"><a class="reference internal" href="zhCN/ch4-cn.html">\u7b2c\u56db\u7ae0\uff1a\u7279\u6b8a\u6570\u636e\u7ed3\u6784</a></li>\u000a<li class="toctree-l2"><a class="reference internal" href="zhCN/ch5-cn.html">\u7b2c\u4e94\u7ae0\uff1a\u63a7\u5236\u6d41</a></li>\u000a<li class="toctree-l2"><a class="reference internal" href="zhCN/ch6-cn.html">\u7b2c\u516d\u7ae0\uff1a\u51fd\u6570</a></li>\u000a<li class="toctree-l2"><a class="reference internal" href="zhCN/ch7-cn.html">\u7b2c\u4e03\u7ae0\uff1a\u8f93\u5165\u4e0e\u8f93\u51fa</a></li>\u000a<li class="toctree-l2"><a class="reference internal" href="zhCN/ch8-cn.html">\u7b2c\u516b\u7ae0\uff1a\u7b26\u53f7</a></li>\u000a<li class="toctree-l2"><a class="reference internal" href="zhCN/ch9-cn.html">\u7b2c\u4e5d\u7ae0\uff1a\u6570\u5b57</a></li>\u000a<li class="toctree-l2"><a class="reference internal" href="zhCN/ch10-cn.html">\u7b2c\u5341\u7ae0\uff1a\u5b8f</a></li>\u000a<li class="toctree-l2"><a class="reference internal" href="zhCN/ch11-cn.html">\u7b2c\u5341\u4e00\u7ae0\uff1aCommon Lisp \u5bf9\u8c61\u7cfb\u7edf</a></li>\u000a<li class="toctree-l2"><a class="reference internal" href="zhCN/ch12-cn.html">\u7b2c\u5341\u4e8c\u7ae0\uff1a\u7ed3\u6784</a></li>\u000a<li class="toctree-l2"><a class="reference internal" href="zhCN/ch13-cn.html">\u7b2c\u5341\u4e09\u7ae0\uff1a\u901f\u5ea6</a></li>\u000a<li class="toctree-l2"><a class="reference internal" href="zhCN/ch14-cn.html">\u7b2c\u5341\u56db\u7ae0\uff1a\u8fdb\u9636\u8bae\u9898</a></li>\u000a<li class="toctree-l2"><a class="reference internal" href="zhCN/ch15-cn.html">\u7b2c\u5341\u4e94\u7ae0\uff1a\u793a\u4f8b\uff1a\u63a8\u8bba</a></li>\u000a<li class="toctree-l2"><a class="reference internal" href="zhCN/ch16-cn.html">\u7b2c\u5341\u516d\u7ae0\uff1a\u793a\u4f8b\uff1a\u751f\u6210 HTML</a></li>\u000a<li class="toctree-l2"><a class="reference internal" href="zhCN/ch17-cn.html">\u7b2c\u5341\u4e03\u7ae0\uff1a\u793a\u4f8b\uff1a\u5bf9\u8c61</a></li>\u000a<li class="toctree-l2"><a class="reference internal" href="zhCN/appendix-A-cn.html">\u9644\u5f55 A\uff1a\u8c03\u8bd5</a></li>\u000a<li class="toctree-l2"><a class="reference internal" href="zhCN/appendix-B-cn.html">\u9644\u5f55 B\uff1aLisp in Lisp</a></li>\u000a<li class="toctree-l2"><a class="reference internal" href="zhCN/appendix-C-cn.html">\u9644\u5f55 C\uff1aCommon Lisp \u7684\u6539\u53d8</a></li>\u000a<li class="toctree-l2"><a class="reference internal" href="zhCN/appendix-D-cn.html">\u9644\u5f55 D\uff1a\u8bed\u8a00\u53c2\u8003\u624b\u518c</a></li>\u000a<li class="toctree-l2"><a class="reference internal" href="zhCN/notes-cn.html">\u5907\u6ce8</a></li>\u000a</ul>\u000a</li>\u000a</ul>\u000a</div>\u000a</td>\u000a</tr>\u000a</tbody>\u000a</table>\u000a<div class="section" id="id1">\u000a<h2>\u7fd2\u984c\u53c3\u8003\u89e3\u7b54<a class="headerlink" href="#id1" title="Permalink to this headline"></a></h2>\u000a<p><a class="reference external" href="http://www.shido.info/lisp/pacl2_e.html">P.Graham \u201cANSI Common LISP\u201d Answer for Practice</a> \u2500\u2500 by SHIDO, Takafumi (<a class="reference external" href="mailto:takafumi&#37;&#52;&#48;shido&#46;info">takafumi<span>&#64;</span>shido<span>&#46;</span>info</a>)</p>\u000a</div>\u000a<div class="section" id="id2">\u000a<h2>\u8b6f\u6587\u8a5e\u5f59<a class="headerlink" href="#id2" title="Permalink to this headline"></a></h2>\u000a<p>\u672c\u66f8\u8a5e\u5f59\u90e8\u5206\u53c3\u8003<a class="reference external" href="http://github.com/JuanitoFatas/Computer-Science-Glossary">\u8a08\u7b97\u6a5f\u79d1\u5b78\u8a5e\u5f59\u8868</a>\u3002</p>\u000a</div>\u000a<div class="section" id="id4">\u000a<h2>\u76f8\u95dc\u95b1\u8b80<a class="headerlink" href="#id4" title="Permalink to this headline"></a></h2>\u000a<p><a class="reference external" href="http://www.cs.northwestern.edu/academics/courses/325/readings/graham/graham-notes.html">Chris Riesbeck \u95dc\u65bc\u672c\u66f8\u7684\u5256\u6790</a></p>\u000a<p><a class="reference external" href="http://juanitofatas.com/Google-Common-Lisp-Style-Guide/GoogleCLSG-zhCN.xml">Google Common Lisp \u98a8\u683c\u6307\u5357</a>\u3002</p>\u000a</div>\u000a<div class="section" id="id5">\u000a<h2>\u4e0b\u8f09\u96e2\u7dda\u7248\u672c<a class="headerlink" href="#id5" title="Permalink to this headline"></a></h2>\u000a<p>\u6ce8\u610f\uff0c\u56e0\u70ba\u6587\u6a94\u7e3d\u662f\u5728\u4e0d\u65b7\u5730\u66f4\u65b0\u548c\u4fee\u6b63\u7576\u4e2d\uff0c\u8acb\u5b9a\u671f\u4e0b\u8f09\u6700\u65b0\u7684\u96e2\u7dda\u6587\u6a94\uff0c\u78ba\u4fdd\u7372\u5f97\u6700\u597d\u7684\u95b1\u8b80\u9ad4\u9a57\u3002</p>\u000a<p><a class="reference external" href="https://media.readthedocs.org/htmlzip/ansi-common-lisp/latest/ansi-common-lisp.zip">HTML \u683c\u5f0f\u4e0b\u8f09</a>\u3002</p>\u000a</div>\u000a<div class="section" id="id6">\u000a<h2>\u6a23\u5f0f<a class="headerlink" href="#id6" title="Permalink to this headline"></a></h2>\u000a<p>\u4f7f\u7528 <a class="reference external" href="http://huangz.me">huangz1990</a> \u6240\u958b\u767c\u7684 <a class="reference external" href="https://github.com/huangz1990/der">der</a> \u6a23\u5f0f\u3002</p>\u000a</div>\u000a<div class="section" id="id7">\u000a<h2>\u8ca2\u737b<a class="headerlink" href="#id7" title="Permalink to this headline"></a></h2>\u000a<p><a class="reference external" href="https://github.com/acl-translation/acl-chinese">\u8acb\u81f3 GitHub Repo</a>\u3002</p>\u000a</div>\u000a</div>\u000a\u000a\u000a\u000a            <div class="section" id="discuss">\u000a    <h2>\u000a        \u8ba8\u8bba\u000a        <a class="headerlink" href="#discuss" title="\u6c38\u4e45\u94fe\u63a5\u81f3\u6807\u9898"></a>\u000a    </h2>\u000a    <div id="disqus_thread"></div>\u000a    <script type="text/javascript">\u000a        /* * * CONFIGURATION VARIABLES: EDIT BEFORE PASTING INTO YOUR WEBPAGE * * */\u000a        var disqus_shortname = 'acl-chinese'; // required: replace example with your forum shortname\u000a\u000a        /* * * DON'T EDIT BELOW THIS LINE * * */\u000a        (function() {\u000a        var dsq = document.createElement('script'); dsq.type = 'text/javascript'; dsq.async = true;\u000a        dsq.src = '//' + disqus_shortname + '.disqus.com/embed.js';\u000a        (document.getElementsByTagName('head')[0] || document.getElementsByTagName('body')[0]).appendChild(dsq);\u000a        })();\u000a    </script>\u000a    <noscript>Please enable JavaScript to view the <a href="http://disqus.com/?ref_noscript">comments powered by Disqus.</a></noscript>\u000a    <a href="http://disqus.com" class="dsq-brlink">comments powered by <span class="logo-disqus">Disqus</span></a>\u000a</div>\u000a\u000a          </div>\u000a        </div>\u000a      </div>\u000a      <div class="clearer"></div>\u000a    </div>\u000a    <div class="related">\u000a      <h3>Navigation</h3>\u000a      <ul>\u000a        <li class="right" style="margin-right: 10px">\u000a          <a href="genindex.html" title="General Index"\u000a             >index</a></li>\u000a        <li class="right" >\u000a          <a href="zhTW/index.html" title="\u6b63\u9ad4\u4e2d\u6587"\u000a             >next</a> |</li>\u000a        <li><a href="#">ANSI Common Lisp \u4e2d\u6587\u7248</a> &raquo;</li> \u000a      </ul>\u000a    </div>\u000a    <div class="footer">\u000a        &copy; Copyright 2013, Juanito Fatas Huang.\u000a      Last updated on Oct 20, 2016.\u000a      Created using <a href="http://sphinx.pocoo.org/">Sphinx</a> 1.3.5.\u000a    </div>\u000a  </body>\u000a</html>
p3
a.