(lp0
S'https://www.zulip.org/?url_type=39&object_type=webpage&pos=1'
p1
aS'Zulip'
p2
aI0
aV<!doctype html>\u000a<html>\u000a  <head>\u000a    <meta charset="utf-8">\u000a    <title>Zulip</title>\u000a    <meta name="viewport" content="width=device-width, initial-scale=1">\u000a    <meta name="author" content="Zulip" />\u000a    <meta name="description" content="Zulip is a powerful open source group chat application.">\u000a    <meta property="og:type" content="website">\u000a    <meta property="og:site_name" content="Zulip"/>\u000a    <meta property="og:image" content="https://www.zulip.org/images/logos/zulip-icon-512x512.png">\u000a    <meta property="og:url" content="https://www.zulip.org/">\u000a    <meta property="og:description" content="Zulip is a powerful open source group chat application.">\u000a    <meta name="twitter:card" content="summary">\u000a    <meta name="twitter:site" content="@zulip">\u000a    <meta name="twitter:title" content="Zulip">\u000a    <meta name="twitter:description" content="Zulip is a powerful open source group chat application.">\u000a    <meta name="twitter:image" content="https://www.zulip.org/images/logos/zulip-twitter.png">\u000a\u000a    <link rel="icon" href="favicon.ico">\u000a    <link rel="stylesheet" href="css/normalize.css">\u000a    <link rel="stylesheet" href="css/fonts.css">\u000a    <link rel="stylesheet" href="css/main.css">\u000a    <link rel="stylesheet" href="css/media.css">\u000a  </head>\u000a  <body>\u000a    <!-- Navigation bar -->\u000a    <header>\u000a      <div class="container">\u000a        <div id="logo">\u000a          <a href="index.html"><img src="images/logos/zulip-icon-512x512.png" />zulip</a>\u000a        </div>\u000a        <nav>\u000a          <ul class="downloads">\u000a            <li><a href="server.html">Server</a></li>\u000a            <li><a href="clients.html">Clients</a></li>\u000a          </ul>\u000a          <ul>\u000a            <li><a href="https://blogs.dropbox.com/tech/2015/09/open-sourcing-zulip-a-dropbox-hack-week-project">About</a></li>\u000a            <li><a href="features.html">Features</a></li>\u000a            <li><a href="https://zulip.com/integrations">Integrations</a></li>\u000a            <li><a href="https://zulip.com/api">API</a></li>\u000a            <li><a href="contribute.html">Contribute</a></li>\u000a          </ul>\u000a        </nav>\u000a      </div>\u000a    </header>\u000a\u000a    <article class="container">\u000a      <h1>Powerful open source group chat</h1>\u000a      <img id="screenshot" src="images/laptop-screenshot.png"/>\u000a      <div class="half box">\u000a        <h2>Run your own server</h2>\u000a        <div class="call-to-action">\u000a          <a class="button" href="server.html">Get started</a> or <a class="button-link" href="features.html">check out the features</a>\u000a        </div>\u000a      </div>\u000a      <div class="half box download-options">\u000a        <h2>Download a client</h2>\u000a        <h6>(or use the web app)</h6>\u000a        <ul>\u000a          <li><a href="https://zulip.com/dist/apps/mac/Zulip-latest.dmg">Mac</a></li>\u000a          <li><a href="https://zulip.com/dist/apps/win/zulip-latest.exe">Windows</a></li>\u000a        </ul>\u000a        <ul>\u000a          <li><a href="https://itunes.apple.com/us/app/zulip/id714391349">iPhone</a></li>\u000a          <li><a href="https://play.google.com/store/apps/details?id=com.zulip.android">Android</a></li>\u000a        </ul>\u000a      </div>\u000a    </article>\u000a\u000a    <article class="features">\u000a      <h2>Here's why you'll love it:</h2>\u000a\u000a      <section>\u000a        <div class="container">\u000a          <div class="feature-img">\u000a            <img src="images/threads.png" />\u000a          </div>\u000a          <div class="feature-box">\u000a              <h3>Make sense of your messages</h3>\u000a              <p>Every conversation in Zulip has a topic, so it\u2019s easy to keep conversations straight. Are your coworkers discussing a software bug and the content of your website at the same time? No problem.</p>\u000a          </div>\u000a        </div>\u000a      </section>\u000a\u000a      <section>\u000a        <div class="container">\u000a          <div class="feature-img">\u000a            <img src="images/important-things.png" />\u000a          </div>\u000a          <div class="feature-box">\u000a            <h3>Never miss the conversations you care about.</h3>\u000a            <p>Sometimes, important things get discussed when you\u2019re not around. Unfortunately, so do a lot of unimportant things.</p>\u000a            <p>Zulip makes it easy to review the conversations you missed, so you can\u000a              focus on that important project without having to catch up\u000a              on how Jim&rsquo;s guitar lessons are going.</p>\u000a          </div>\u000a        </div>\u000a      </section>\u000a\u000a      <section>\u000a        <div class="container">\u000a          <div class="feature-img">\u000a            <img src="images/search.png" />\u000a          </div>\u000a          <div class="feature-box">\u000a            <h3>Fast and powerful search.</h3>\u000a            <p>An impressive amount of knowledge lives in your chat system. Zulip\u2019s Gmail-style search will delight you with how quickly you can find exactly what you\u2019re looking for.</p>\u000a          </div>\u000a        </div>\u000a      </section>\u000a\u000a      <section>\u000a        <div class="container">\u000a          <div class="feature-img">\u000a            <img src="images/integrations.png" />\u000a          </div>\u000a          <div class="feature-box">\u000a            <h3>Integrations that don\u2019t intrude.</h3>\u000a            <p>Zulip has many integrations and a powerful API to match. But here\u2019s where it gets interesting: thanks to how Zulip categorizes messages, automated messages never overwhelm you. As with any topic in Zulip, they\u2019re easy to focus on, skim, defer to later, or ignore\u2014as appropriate.</p>\u000a          </div>\u000a        </div>\u000a      </section>\u000a\u000a      <section>\u000a        <div class="container">\u000a          <div class="feature-img">\u000a            <img src="images/technical.png" />\u000a          </div>\u000a          <div class="feature-box">\u000a            <h3>As technical as you want to be.</h3>\u000a            <p>Keyboard shortcuts? Check.<br/>\u000a            Syntax highlighting? Check.<br/>\u000a            Discuss code and technical topics with ease.</p>\u000a          </div>\u000a        </div>\u000a      </section>\u000a\u000a      <section>\u000a        <div class="container">\u000a          <div class="feature-img">\u000a            <img src="images/features.png" />\u000a          </div>\u000a          <div class="feature-box">\u000a            <h3>Everything else you need to be productive</h3>\u000a            <p>Drag-and-drop file uploads, image pasting, group private messages, audible notifications, missed-message emails, desktop apps, and everything else you might want. Including emoji, naturally. And it's all open source under the Apache license!</p>\u000a          </div>\u000a        </div>\u000a      </section>\u000a    </article>\u000a    <script>\u000a      (function(i,s,o,g,r,a,m){i['GoogleAnalyticsObject']=r;i[r]=i[r]||function(){\u000a      (i[r].q=i[r].q||[]).push(arguments)},i[r].l=1*new Date();a=s.createElement(o),\u000a      m=s.getElementsByTagName(o)[0];a.async=1;a.src=g;m.parentNode.insertBefore(a,m)\u000a      })(window,document,'script','//www.google-analytics.com/analytics.js','ga');\u000a\u000a      ga('create', 'UA-79921909-2', 'auto');\u000a      ga('send', 'pageview');\u000a\u000a    </script>\u000a  </body>\u000a</html>\u000a
p3
a.