(lp0
S'https://www.zybuluo.com/qqiseeu/note/17692'
p1
aS'Emacs\xe9\x85\x8d\xe7\xbd\xae\xe6\x96\x87\xe4\xbb\xb6\xe2\x80\x94\xe2\x80\x94\xe6\x96\xb0\xe6\x89\x8b\xe6\x94\xbb\xe7\x95\xa5 - \xe4\xbd\x9c\xe4\xb8\x9a\xe9\x83\xa8\xe8\x90\xbd Cmd Markdown \xe7\xbc\x96\xe8\xbe\x91\xe9\x98\x85\xe8\xaf\xbb\xe5\x99\xa8'
p2
aI0
aV<!DOCTYPE html>\u000a\u000a<html class="theme">\u000a\u000a<head>\u000a    <meta charset="utf-8">\u000a    \u000a    <meta name="description" content="Cmd Markdown \u7f16\u8f91\u9605\u8bfb\u5668\uff0c\u652f\u6301\u5b9e\u65f6\u540c\u6b65\u9884\u89c8\uff0c\u533a\u5206\u5199\u4f5c\u548c\u9605\u8bfb\u6a21\u5f0f\uff0c\u652f\u6301\u5728\u7ebf\u5b58\u50a8\uff0c\u5206\u4eab\u6587\u7a3f\u7f51\u5740\u3002">\u000a    <meta name="author" content="Jiawei Zhang">\u000a\u000a    <meta name="viewport" content="width=device-width, initial-scale=1.0">\u000a\u000a    \u000a    <title>Emacs\u914d\u7f6e\u6587\u4ef6\u2014\u2014\u65b0\u624b\u653b\u7565 - \u4f5c\u4e1a\u90e8\u843d Cmd Markdown \u7f16\u8f91\u9605\u8bfb\u5668</title>\u000a\u000a\u000a    <link href="https://www.zybuluo.com/static/img/favicon.png" type="image/x-icon" rel="icon">\u000a\u000a    <link href="https://www.zybuluo.com/static/assets/1bc053c8.base.lib.min.css" rel="stylesheet" media="screen">\u000a\u000a\u000a    \u000a    <!-- id="prettify-style" will be used to get the link element below and change href to change prettify code, so it can't be in beginmin/endmin block. -->\u000a    <link id="prettify-style" href="https://www.zybuluo.com/static/editor/libs/google-code-prettify/prettify-cmd.css" type="text/css" rel="stylesheet">\u000a    <!--\u000a    <link id="mermaid-style" href="https://www.zybuluo.com/static/editor/libs/mermaid/mermaid.forest.css" type="text/css" rel="stylesheet">\u000a    -->\u000a    <link href="https://www.zybuluo.com/static/assets/mdeditor/45c7d56d.layout.min.css" rel="stylesheet" media="screen">\u000a\u000a\u000a    \u000a\u000a    <script>\u000a      (function(i,s,o,g,r,a,m){i['GoogleAnalyticsObject']=r;i[r]=i[r]||function(){\u000a      (i[r].q=i[r].q||[]).push(arguments)},i[r].l=1*new Date();a=s.createElement(o),\u000a      m=s.getElementsByTagName(o)[0];a.async=1;a.src=g;m.parentNode.insertBefore(a,m)\u000a      })(window,document,'script','//www.google-analytics.com/analytics.js','ga');\u000a\u000a      ga('create', 'UA-44461741-1', 'zybuluo.com');\u000a      ga('send', 'pageview');\u000a    </script>\u000a</head>\u000a\u000a<body class="theme">\u000a\u000a    <div id="global-prompt-alert" class="hide alert alert-warning">\u000a        <span id="global-prompt-message"></span>\u000a        <a id="close-global-prompt-alert" href="">[\u5173\u95ed]</a>\u000a    </div>\u000a\u000a    <!-- zybuluo's body -->\u000a    \u000a\u000a\u000a\u000a\u000a\u000a\u000a\u000a<!-- mdeditor's body -->\u000a\u000a\u000a\u000a\u000a\u000a\u000a<div id="editor-reader-full" class="editor-reader-full-shown" style="position: static;">\u000a    <div id="reader-full-topInfo" class="reader-full-topInfo-shown">\u000a        <span>\u000a            <code>@qqiseeu</code>\u000a        </span>\u000a        <code><span class="article-updated-date">2014-06-18T07:10:19.000000Z</span></code>\u000a        <code><span>\u5b57\u6570 </span><span class="article-characters">6532</span></code>\u000a        <code><span>\u9605\u8bfb </span><span class="article-read">15416</span></code>\u000a    </div>\u000a    <div id="wmd-preview" class="wmd-preview wmd-preview-full-reader"><div class="md-section-divider"></div>\u000a\u000a<div class="md-section-divider"></div>\u000a\u000a<h1 id="emacs\u914d\u7f6e\u6587\u4ef6\u65b0\u624b\u653b\u7565">Emacs\u914d\u7f6e\u6587\u4ef6\u2014\u2014\u65b0\u624b\u653b\u7565</h1>\u000a\u000a<p><code>Emacs</code></p>\u000a\u000a<hr>\u000a\u000a<div class="md-section-divider"></div>\u000a\u000a<h2 id="\u5f15\u8a00">\u5f15\u8a00</h2>\u000a\u000a<p>\u7528Emacs\u597d\u4e00\u6bb5\u65f6\u95f4\u4e86\uff0c\u7531\u4e8e\u81ea\u5df1\u4e00\u5411\u61d2\u5f97\u6298\u817e\uff0c\u4ee5\u524d\u7528\u7684\u914d\u7f6e\u6587\u4ef6\u76f4\u63a5\u5c31\u662f\u4ece<a target="_blank" href="https://github.com/purcell/emacs.d">Steve Purcell\u90a3\u91cc</a>fork\u8fc7\u6765\u7684\u3002\u4f46\u662f\u7531\u4e8eSteve Purcell\u4e3b\u8981\u505a\u524d\u7aef\uff0c\u6240\u4ee5\u914d\u7f6e\u6587\u4ef6\u91cc\u5404\u79cd\u9488\u5bf9HTML\u3001JavaScript\u3001Ruby\u4e4b\u7c7b\u7684\u63d2\u4ef6\uff08\u867d\u7136\u7edd\u5927\u90e8\u5206\u90fd\u88ab\u6211\u6ce8\u91ca\u6389\u4e86\uff09\uff0c\u8fd8\u6709\u4e07\u6076\u7684flymake\u7b49\u6211\u5b8c\u5168\u7528\u4e0d\u4e0a\u7684\u4e1c\u897f\u3002\u8eab\u4e3a\u4e00\u4e2a\u5f3a\u8feb\u75c7\u60a3\u8005\uff0c\u8fd9\u6837\u5b58\u5728\u5927\u91cf\u5197\u4f59\u7684\u914d\u7f6e\u6587\u4ef6\u6211\u5b9e\u5728\u662f\u5fcd\u65e0\u53ef\u5fcd\u4e86\uff0c\u6700\u8fd1\u53c8\u521a\u597d\u6709\u65f6\u95f4\uff0c\u9042\u51b3\u5fc3\u81ea\u5df1\u4ece\u5934\u914d\u8fc7\u4e00\u4e2a\u7b80\u5355\u70b9\u7684\u7248\u672c\uff1a</p>\u000a\u000a<ol>\u000a<li>\u5fc5\u987b\u4fdd\u7559Purcell\u7684\u914d\u7f6e\u91cc\u6211\u7528\u7684\u987a\u624b\u7684\u4e1c\u897f\uff0c\u5305\u62ec\u5e7f\u5927\u7fa4\u4f17\u559c\u95fb\u4e50\u89c1\u7684<a target="_blank" href="https://github.com/auto-complete/auto-complete">auto-complete</a>\uff0c<a target="_blank" href="https://github.com/capitaomorte/yasnippet">yasnippet</a>\uff0c\u4ee5\u53ca\u6781\u5927\u63d0\u5347\u751f\u6d3b\u8d28\u91cf\u7684<a target="_blank" href="https://github.com/DarwinAwardWinner/ido-ubiquitous">ido-ubiquitous</a>\u548c<a target="_blank" href="https://github.com/nonsequitur/smex">smex</a>\u3002</li>\u000a<li>\u5c31\u6574\u4e2a\u7ed3\u6784\u6765\u8bf4\uff0cPurcell\u7684\u914d\u7f6e\u53ef\u4ee5\u79f0\u5f97\u4e0a\u662f\u6e05\u6670\u660e\u4e86\uff0c\u5c3d\u7ba1\u6574\u4e2a\u914d\u7f6e\u4f53\u79ef\u6bd4\u8f83\u5e9e\u5927\uff0c\u4f46\u4e0d\u4f1a\u8ba9\u4eba\u6655\u5934\u8f6c\u5411\uff0c\u5404\u521d\u59cb\u5316\u6587\u4ef6\u7684\u529f\u80fd\u5212\u5206\u7684\u5f88\u660e\u786e\uff0c\u8026\u5408\u7684\u5730\u65b9\u5c11\uff0c\u6587\u4ef6\u7684\u547d\u540d\u4e5f\u5f88\u8bb2\u7a76\uff0c\u57fa\u672c\u4e00\u770b\u5c31\u77e5\u9053\u662f\u5728\u5e72\u5565\u3002<strong>\u4f5c\u4e3a\u65b0\u624b\uff0cPurcell\u7684\u914d\u7f6e\u6587\u4ef6\u662f\u6700\u597d\u4e0d\u8fc7\u7684\u6a21\u4eff\u5bf9\u8c61\u4e86</strong>\u3002</li>\u000a<li>\u6839\u636e\u6211\u4e2a\u4eba\u7684\u9700\u6c42\uff0c\u9700\u8981\u63d2\u4ef6\u63d0\u4f9b\u5bf9C/C++\u3001Matlab/Mathematica\u3001Python\u3001R\u3001LaTeX/Markdown\u7684\u589e\u5f3a\u652f\u6301\u3002</li>\u000a</ol>\u000a\u000a<p>\u672c\u4eba\u7684\u7cfb\u7edf\u73af\u5883\u5982\u4e0b\uff1a</p>\u000a\u000a<ul>\u000a<li>Debian sid\uff0cx86_64\uff0c\u5185\u6838\u7248\u672c3.14</li>\u000a<li>GNU Emacs 24.3.1</li>\u000a<li>clang 3.2-11</li>\u000a</ul>\u000a\u000a<div class="md-section-divider"></div>\u000a\u000a<h2 id="\u6574\u4e2a\u914d\u7f6e\u6587\u4ef6\u76ee\u5f55\u7684\u7ed3\u6784">\u6574\u4e2a\u914d\u7f6e\u6587\u4ef6\u76ee\u5f55\u7684\u7ed3\u6784</h2>\u000a\u000a<p>\u9996\u5148\uff0cEmacs\u7684\u521d\u59cb\u5316\u6587\u4ef6\u53ef\u4ee5\u6709<a target="_blank" href="http://www.emacswiki.org/emacs/InitFile">\u4e24\u79cd\u8bbe\u7f6e\u65b9\u6cd5</a>\uff1a</p>\u000a\u000a<ol>\u000a<li>\u4f7f\u7528\u5355\u4e2a\u6587\u4ef6\uff1a<code>~/.emacs</code>\u3002\u8fd9\u79cd\u65b9\u6cd5\u628a\u6240\u6709\u521d\u59cb\u5316\u51fd\u6570\u653e\u5728\u4e00\u4e2a\u6587\u4ef6\u91cc\uff0c\u8bbe\u7f6e\u8d77\u6765\u7b80\u5355\uff0c\u4f46\u662f\u4e00\u65e6\u63d2\u4ef6\u591a\u4e86\u8fd9\u4e2a\u6587\u4ef6\u5c31\u4f1a\u53d8\u5f97\u5f88\u957f\u5f88\u4e71\u3002</li>\u000a<li>\u4f7f\u7528\u76ee\u5f55\uff1a<code>~/.emacs.d/</code>\u3002\u6240\u6709\u914d\u7f6e\u6587\u4ef6\u90fd\u653e\u5728\u8be5\u76ee\u5f55\u4e0b\uff0c\u5e76\u4e14Emacs\u542f\u52a8\u65f6\u4f1a\u81ea\u52a8\u6267\u884c\u8be5\u76ee\u5f55\u4e0b\u540d\u4e3a<code>init.el</code>\u7684\u6587\u4ef6\u3002\u867d\u8bf4\u53ea\u6709\u4e00\u4e2a\u6587\u4ef6\u4f1a\u88ab\u81ea\u52a8\u6267\u884c\uff0c\u4f46\u53ef\u4ee5\u5728<code>init.el</code>\u91cc\u6267\u884c\u5176\u5b83\u7684\u51fd\u6570\uff0c\u6240\u4ee5<code>init.el</code>\u53ef\u4ee5\u53d8\u5f97\u5f88\u7b80\u6d01\uff1b\u4f7f\u7528Emacs\u7684<a target="_blank" href="http://www.emacswiki.org/emacs/RequiredFeature">Feature</a>\u673a\u5236\uff0c\u53ef\u4ee5\u5f88\u65b9\u4fbf\u5730\u628a\u5177\u4f53\u7684\u521d\u59cb\u5316\u5de5\u4f5c\u6309\u7c7b\u522b\u5206\u5728\u5176\u4f59\u6587\u4ef6\u4e2d\u3002<strong>\u8fd9\u4e5f\u662f\u6211\u9009\u62e9\u7684\u65b9\u6cd5</strong></li>\u000a</ol>\u000a\u000a<p>\u6211\u81ea\u5df1\u7684\u914d\u7f6e\u653e\u5728<a target="_blank" href="https://github.com/xyguo/emacs.d">\u8fd9\u91cc</a>\uff0c\u76ee\u5f55\u7ed3\u6784\u5982\u4e0b\uff08\u6ce8\u610f\u5176\u4e2d<code>elpa/</code>\u76ee\u5f55\u6ca1\u6709\u88abpush\u5230github\u4e0a\uff09\uff1a</p>\u000a\u000a<div class="md-section-divider"></div>\u000a\u000a<pre style="" class="prettyprint linenums prettyprinted"><ol class="linenums"><li class="L0"><code><span class="pln"> </span><span class="pun">~</span><span class="str">/.emacs.d/</span></code></li><li class="L1"><code><span class="pln">        README</span><span class="pun">.</span><span class="pln">md  </span><span class="com">#\u8bf7\u65e0\u89c6\u8be5\u6587\u4ef6</span></code></li><li class="L2"><code><span class="pln">        init</span><span class="pun">.</span><span class="pln">el    </span><span class="com">#Emacs\u4f1a\u81ea\u52a8\u4eceinit.el\u5f00\u59cb\u6267\u884c</span></code></li><li class="L3"><code><span class="pln">        snippets</span><span class="pun">/</span><span class="pln">  </span><span class="com">#yasnippet\u7684\u81ea\u5b9a\u4e49\u6a21\u677f\u4fdd\u5b58\u7684\u4f4d\u7f6e\uff0c\u4e0d\u91cd\u8981</span></code></li><li class="L4"><code><span class="pln">        elpa</span><span class="pun">/</span><span class="pln">      </span><span class="com">#\u901a\u8fc7ELPA\u4e0b\u8f7d\u7684\u63d2\u4ef6\u6240\u4fdd\u5b58\u7684\u4f4d\u7f6e</span></code></li><li class="L5"><code><span class="pln">        lisp</span><span class="pun">/</span><span class="pln">      </span><span class="com">#\u5c31\u662f\u52a0\u8f7d\u5404\u4e2a\u63d2\u4ef6\u7684\u521d\u59cb\u5316\u6587\u4ef6\u7684\u4f4d\u7f6e\u5566</span></code></li><li class="L6"><code><span class="pln">            init</span><span class="pun">-</span><span class="pln">xxx</span><span class="pun">.</span><span class="pln">el       </span><span class="com">#\u67d0\u521d\u59cb\u5316\u6587\u4ef6</span></code></li><li class="L7"><code><span class="pln">            editing</span><span class="pun">-</span><span class="pln">utils</span><span class="pun">/</span><span class="pln">    </span><span class="com">#\u6587\u672c\u7f16\u8f91\u7528\u7684\u4e00\u4e9b\u5c0f\u5de5\u5177</span></code></li><li class="L8"><code><span class="pln">            custom</span><span class="pun">-</span><span class="pln">themes</span><span class="pun">/</span><span class="pln">    </span><span class="com">#\u81ea\u5b9a\u4e49\u7684\u4e3b\u9898\uff0c\u4e0d\u91cd\u8981</span></code></li><li class="L9"><code><span class="pln">            custom</span><span class="pun">-</span><span class="pln">dicts</span><span class="pun">/</span><span class="pln">     </span><span class="com">#\u81ea\u5b9a\u4e49\u7684auto-complete\u8bcd\u5178\uff0c\u4e0d\u91cd\u8981</span></code></li></ol></pre>\u000a\u000a<div class="md-section-divider"></div>\u000a\u000a<h2 id="initel">init.el</h2>\u000a\u000a<p>\u4e3b\u8981\u5c31\u662f\u4e0b\u9762\u51e0\u53e5</p>\u000a\u000a<div class="md-section-divider"></div>\u000a\u000a<pre style="" class="prettyprint linenums prettyprinted"><ol class="linenums"><li class="L0"><code class="language-emacslisp"><span class="pun">;;</span><span class="pln"> init</span><span class="pun">.</span><span class="pln">el</span></code></li><li class="L1"><code class="language-emacslisp"></code></li><li class="L2"><code class="language-emacslisp"><span class="pun">;;</span><span class="pln"> </span><span class="pun">\u628a\u76ee\u5f55</span><span class="pln">lisp</span><span class="pun">/\u6dfb\u52a0\u5230\u641c\u7d22\u8def\u5f84\u4e2d\u53bb</span></code></li><li class="L3"><code class="language-emacslisp"><span class="pun">(</span><span class="pln">add</span><span class="pun">-</span><span class="pln">to</span><span class="pun">-</span><span class="pln">list</span></code></li><li class="L4"><code class="language-emacslisp"><span class="pln">    </span><span class="str">'load-path </span></code></li><li class="L5"><code class="language-emacslisp"><span class="str">    (expand-file-name "lisp" user-emacs-directory))</span></code></li><li class="L6"><code class="language-emacslisp"></code></li><li class="L7"><code class="language-emacslisp"><span class="str">;; \u4e0b\u9762\u6bcf\u4e00\u4e2a\u88abrequire\u7684feature\u90fd\u5bf9\u5e94\u4e00\u4e2alisp/\u76ee\u5f55\u4e0b\u7684\u540c\u540d</span></code></li><li class="L8"><code class="language-emacslisp"><span class="str">;; elisp\u6587\u4ef6\uff0c\u4f8b\u5982init-utils.el\u3001init-elpa.el</span></code></li><li class="L9"><code class="language-emacslisp"><span class="str">(require '</span><span class="pln">init</span><span class="pun">-</span><span class="pln">utils</span><span class="pun">)</span><span class="pln">   </span><span class="pun">;;</span><span class="pln"> </span><span class="pun">\u4e3a\u52a0\u8f7d\u521d\u59cb\u5316\u6587\u4ef6\u63d0\u4f9b\u4e00\u4e9b\u81ea\u5b9a\u4e49\u7684\u51fd\u6570\u548c\u5b8f</span></code></li><li class="L0"><code class="language-emacslisp"><span class="pun">(</span><span class="kwd">require</span><span class="pln"> </span><span class="str">'init-elpa)    ;; \u52a0\u8f7dELPA\uff0c\u5e76\u5b9a\u4e49\u4e86require-package\u51fd\u6570</span></code></li><li class="L1"><code class="language-emacslisp"><span class="str">(require '</span><span class="pln">init</span><span class="pun">-</span><span class="pln">fonts</span><span class="pun">)</span><span class="pln">   </span><span class="pun">;;</span><span class="pln"> </span><span class="pun">\u4ee5</span><span class="typ">Server</span><span class="pun">-</span><span class="typ">Client</span><span class="pun">\u6a21\u5f0f\u542f\u52a8\u65f6\u9700\u989d\u5916\u8bbe\u7f6e\u5b57\u4f53</span></code></li><li class="L2"><code class="language-emacslisp"><span class="pun">(</span><span class="kwd">require</span><span class="pln"> </span><span class="str">'init-editing-utils)  ;; \u4e00\u4e9b\u987a\u624b\u7684\u5c0f\u5de5\u5177</span></code></li><li class="L3"><code class="language-emacslisp"><span class="str"> ...</span></code></li><li class="L4"><code class="language-emacslisp"><span class="str">(require '</span><span class="pln">init</span><span class="pun">-</span><span class="pln">markdown</span><span class="pun">)</span></code></li><li class="L5"><code class="language-emacslisp"><span class="pun">(</span><span class="kwd">require</span><span class="pln"> </span><span class="str">'init-auctex)</span></code></li><li class="L6"><code class="language-emacslisp"></code></li><li class="L7"><code class="language-emacslisp"><span class="str">(provide '</span><span class="pln">init</span><span class="pun">)</span></code></li></ol></pre>\u000a\u000a<div class="md-section-divider"></div>\u000a\u000a<h2 id="init-utilsel">init-utils.el</h2>\u000a\u000a<p>\u6700\u4e3b\u8981\u7684\u4f5c\u7528\u662f\u63d0\u4f9b\u4e86\u4e00\u4e2a\u5b8f<code>after-load</code>\uff0c\u4f9b\u540e\u7eed\u7684\u5404\u521d\u59cb\u5316\u51fd\u6570\u4f7f\u7528\u3002\u8fd9\u4e2a\u51fd\u6570\u6765\u81ea<a target="_blank" href="https://github.com/purcell/emacs.d/blob/master/lisp/init-utils.el">Purcell</a>\uff0c\u76ee\u7684\u662f\u628a\u4e00\u4e9b\u76f8\u4e92\u4f9d\u8d56\u7684feature\u7684\u52a0\u8f7d\u987a\u5e8f\u7406\u987a\uff0c\u4f8b\u5982feature A\u4f9d\u8d56\u4e8efeature B\uff0c\u5219\u53ef\u4ee5\u5199\u6210<code>(after-load 'B 'A)</code>\uff0c\u8fd9\u6837\u5982\u679c\u9519\u8bef\u5730\u5728B\u4e4b\u524drequire\u4e86A\u4e5f\u4e0d\u4f1a\u5f71\u54cd\u6b63\u5e38\u542f\u52a8\u3002</p>\u000a\u000a<div class="md-section-divider"></div>\u000a\u000a<pre style="" class="prettyprint linenums prettyprinted"><ol class="linenums"><li class="L0"><code class="language-emacslisp"><span class="pun">;;</span><span class="pln"> after</span><span class="pun">-</span><span class="pln">load</span></code></li><li class="L1"><code class="language-emacslisp"><span class="pun">(</span><span class="pln">defmacro after</span><span class="pun">-</span><span class="pln">load </span><span class="pun">(</span><span class="pln">feature </span><span class="pun">&amp;</span><span class="pln">rest body</span><span class="pun">)</span></code></li><li class="L2"><code class="language-emacslisp"><span class="pln">  </span><span class="str">"After FEATURE is loaded, evaluate BODY."</span></code></li><li class="L3"><code class="language-emacslisp"><span class="pln">  </span><span class="pun">(</span><span class="pln">declare </span><span class="pun">(</span><span class="pln">indent defun</span><span class="pun">))</span></code></li><li class="L4"><code class="language-emacslisp"><span class="pln">  </span><span class="str">`(eval-after-load ,feature</span></code></li><li class="L5"><code class="language-emacslisp"><span class="str">     '(progn ,@body)))</span></code></li></ol></pre>\u000a\u000a<div class="md-section-divider"></div>\u000a\u000a<h2 id="init-elpael">init-elpa.el</h2>\u000a\u000a<p>\u8fd9\u4e2a\u6587\u4ef6\u6211\u4e5f\u662f\u4ece<a target="_blank" href="https://github.com/purcell/emacs.d/blob/master/lisp/init-elpa.el">Purcell</a>\u90a3\u91cc\u622a\u53d6\u8fc7\u6765\u7684\uff0c\u4f46\u662f\u53bb\u6389\u4e86\u5f88\u591a\u7528\u4e0d\u4e0a\u7684\u51fd\u6570\u3002\u8be5\u6587\u4ef6\u4e3b\u8981\u5de5\u4f5c\u662f\u521d\u59cb\u5316Emacs\u7684\u5305\u7ba1\u7406\u7cfb\u7edf<a target="_blank" href="http://www.emacswiki.org/emacs/ELPA">ELPA</a>\uff0c\u4f60\u53ef\u4ee5\u628aELPA\u7c7b\u6bd4\u4e3aEmacs\u7684\u8f6f\u4ef6\u6e90\uff0c\u5c31\u50cfDebian\u3001Ubuntu\u4e4b\u7c7b\u7684\u8f6f\u4ef6\u6e90\u4e00\u6837\u3002\u9700\u8981\u6ce8\u610f\u7684\u662f\uff0c<strong>\u4ec5\u4eceEmacs24\u5f00\u59cb\u9ed8\u8ba4\u652f\u6301ELPA</strong>\uff0c\u5982\u679cEmacs\u7248\u672c\u8fc7\u4f4e\uff0c\u5efa\u8bae\u5347\u7ea7\u4e00\u4e0b\uff1b\u4f46\u5982\u679c\u4f7f\u7528\u7684\u662fEmacs23\uff0c\u4e5f\u53ef\u4ee5\u4ece<a target="_blank" href="https://github.com/technomancy/package.el">\u8fd9\u91cc</a>\u4e0b\u8f7d<code>package.el</code>\u653e\u5728<code>lisp/</code>\u76ee\u5f55\u4e0b\uff0c\u7136\u540e\u5728<code>init-elpa.el</code>\u4e2d\u52a0\u5165\u5982\u4e0b\u4ee3\u7801:</p>\u000a\u000a<div class="md-section-divider"></div>\u000a\u000a<pre style="" class="prettyprint linenums prettyprinted"><ol class="linenums"><li class="L0"><code class="language-emacslisp"><span class="pun">(</span><span class="kwd">require</span><span class="pln"> </span><span class="str">'package)</span></code></li><li class="L1"><code class="language-emacslisp"><span class="str">(add-to-list '</span><span class="kwd">package</span><span class="pun">-</span><span class="pln">archives </span></code></li><li class="L2"><code class="language-emacslisp"><span class="pln">    </span><span class="str">'("marmalade" .</span></code></li><li class="L3"><code class="language-emacslisp"><span class="str">      "http://marmalade-repo.org/packages/"))</span></code></li><li class="L4"><code class="language-emacslisp"><span class="str">  ....</span></code></li><li class="L5"><code class="language-emacslisp"><span class="str">;;\u8fd9\u4e00\u53e5\u653e\u5728(provide '</span><span class="pln">init</span><span class="pun">-</span><span class="pln">elpa</span><span class="pun">)\u4e4b\u524d</span></code></li><li class="L6"><code class="language-emacslisp"><span class="pun">(</span><span class="kwd">package</span><span class="pun">-</span><span class="pln">initialize</span><span class="pun">)</span></code></li></ol></pre>\u000a\u000a<p><code>init-elpa</code>\u7684\u5173\u952e\u5185\u5bb9\u5982\u4e0b\uff1a</p>\u000a\u000a<div class="md-section-divider"></div>\u000a\u000a<pre style="" class="prettyprint linenums prettyprinted"><ol class="linenums"><li class="L0"><code class="language-emacslisp"><span class="pun">;;</span><span class="pln"> init</span><span class="pun">-</span><span class="pln">elpa</span><span class="pun">.</span><span class="pln">el</span></code></li><li class="L1"><code class="language-emacslisp"></code></li><li class="L2"><code class="language-emacslisp"><span class="pun">(</span><span class="kwd">require</span><span class="pln"> </span><span class="str">'package)</span></code></li><li class="L3"><code class="language-emacslisp"></code></li><li class="L4"><code class="language-emacslisp"></code></li><li class="L5"><code class="language-emacslisp"><span class="str">;; \u589e\u52a0\u8f6f\u4ef6\u5305\u4ed3\u5e93</span></code></li><li class="L6"><code class="language-emacslisp"><span class="str">(add-to-list '</span><span class="kwd">package</span><span class="pun">-</span><span class="pln">archives </span><span class="str">'("org" . "http://orgmode.org/elpa/"))</span></code></li><li class="L7"><code class="language-emacslisp"></code></li><li class="L8"><code class="language-emacslisp"><span class="str">(when (&lt; emacs-major-version 24)</span></code></li><li class="L9"><code class="language-emacslisp"><span class="str">  (add-to-list '</span><span class="kwd">package</span><span class="pun">-</span><span class="pln">archives </span><span class="str">'("gnu" . "http://elpa.gnu.org/packages/")))</span></code></li><li class="L0"><code class="language-emacslisp"></code></li><li class="L1"><code class="language-emacslisp"><span class="str">(add-to-list '</span><span class="kwd">package</span><span class="pun">-</span><span class="pln">archives </span><span class="str">'("melpa" . "http://melpa.milkbox.net/packages/"))</span></code></li><li class="L2"><code class="language-emacslisp"><span class="str">(add-to-list '</span><span class="kwd">package</span><span class="pun">-</span><span class="pln">archives </span><span class="str">'("melpa-stable" . "http://melpa-stable.milkbox.net/packages/"))</span></code></li><li class="L3"><code class="language-emacslisp"></code></li><li class="L4"><code class="language-emacslisp"><span class="str">;; \u5b9a\u4e49require-package\u51fd\u6570</span></code></li><li class="L5"><code class="language-emacslisp"><span class="str">(defun require-package (package &amp;optional min-version no-refresh)</span></code></li><li class="L6"><code class="language-emacslisp"><span class="str">  "Install given PACKAGE, optionally requiring MIN-VERSION.</span></code></li><li class="L7"><code class="language-emacslisp"><span class="str">If NO-REFRESH is non-nil, the available package lists will not be</span></code></li><li class="L8"><code class="language-emacslisp"><span class="str">re-downloaded in order to locate PACKAGE."</span></code></li><li class="L9"><code class="language-emacslisp"><span class="str">  (if (package-installed-p package min-version)</span></code></li><li class="L0"><code class="language-emacslisp"><span class="str">      t</span></code></li><li class="L1"><code class="language-emacslisp"><span class="str">    (if (or (assoc package package-archive-contents) no-refresh)</span></code></li><li class="L2"><code class="language-emacslisp"><span class="str">        (package-install package)</span></code></li><li class="L3"><code class="language-emacslisp"><span class="str">      (progn</span></code></li><li class="L4"><code class="language-emacslisp"><span class="str">        (package-refresh-contents)</span></code></li><li class="L5"><code class="language-emacslisp"><span class="str">        (require-package package min-version t)))))</span></code></li><li class="L6"><code class="language-emacslisp"></code></li><li class="L7"><code class="language-emacslisp"><span class="str">;; \u5f3a\u884c\u63d0\u524d\u521d\u59cb\u5316ELPA\u3002\u56e0\u4e3a\u9ed8\u8ba4\u60c5\u51b5\u4e0bEmacs\u5728init.el\u52a0\u8f7d\u5b8c\u4e4b\u540e\u624d\u5f00\u59cb\u521d\u59cb\u5316ELPA\uff0c</span></code></li><li class="L8"><code class="language-emacslisp"><span class="str">;; \u800c\u6211\u4eec\u628a\u5927\u591a\u6570\u5305\u7684\u521d\u59cb\u5316\u51fd\u6570\u90fd\u653e\u5728init.el\u4e2d\uff0c\u5982\u679c\u4e0d\u63d0\u524d\u521d\u59cb\u5316ELPA\u4f1a\u5bfc\u81f4\u540e\u9762\u7684</span></code></li><li class="L9"><code class="language-emacslisp"><span class="str">;; \u521d\u59cb\u5316\u8fc7\u7a0b\u51fa\u9519\uff08\u5bf9\u5e94\u7684\u5305\u6587\u4ef6\u8fd8\u6ca1\u6709\u52a0\u8f7d\u8fdb\u6765\uff09\u3002</span></code></li><li class="L0"><code class="language-emacslisp"><span class="str">(package-initialize)</span></code></li><li class="L1"><code class="language-emacslisp"><span class="str">(provide '</span><span class="pln">init</span><span class="pun">-</span><span class="pln">elpa</span><span class="pun">)</span></code></li></ol></pre>\u000a\u000a<p><code>require-package</code>\u51fd\u6570\u7684\u4f5c\u7528\u662f\uff0c\u5224\u65ad\u67d0\u4e2a\u5305\u662f\u5426\u5df2\u7ecf\u5b89\u88c5\uff0c\u5982\u679c\u6ca1\u6709\u5219\u81ea\u52a8\u4eceELPA\u4e2d\u5b89\u88c5\u5b83\uff08\u9700\u8981\u8054\u7f51\uff09\u3002\u5f53\u7136\uff0c\u5bf9\u4e8e\u81ea\u5b9a\u4e49\u7684\u63d2\u4ef6\u6216\u662f\u6ca1\u6709\u88abELPA\u6536\u5f55\u7684\u63d2\u4ef6\uff0c\u8fd9\u4e2a\u51fd\u6570\u5c31\u4e0d\u8d77\u4f5c\u7528\u4e86\u3002</p>\u000a\u000a<p>\u6709\u4e86ELPA\uff0c\u7ed9Emacs\u88c5\u63d2\u4ef6\u5c31\u53d8\u7684\u975e\u5e38\u5bb9\u6613\u4e86\u3002\u6bd4\u65b9\u8bf4\u4f60\u9700\u8981\u4e00\u4e2a\u53eb<code>example</code>\u7684\u63d2\u4ef6\uff0c\u90a3\u4e48\u53ef\u4ee5\u5728<code>lisp/</code>\u76ee\u5f55\u4e0b\u589e\u52a0\u4e00\u4e2a\u6587\u4ef6<code>init-example.el</code>\uff1a</p>\u000a\u000a<div class="md-section-divider"></div>\u000a\u000a<pre style="" class="prettyprint linenums prettyprinted"><ol class="linenums"><li class="L0"><code class="language-emacslisp"><span class="pun">;;</span><span class="pln"> init</span><span class="pun">-</span><span class="pln">example</span><span class="pun">.</span><span class="pln">el</span></code></li><li class="L1"><code class="language-emacslisp"></code></li><li class="L2"><code class="language-emacslisp"><span class="pun">(</span><span class="kwd">require</span><span class="pun">-</span><span class="kwd">package</span><span class="pln"> </span><span class="str">'example)</span></code></li><li class="L3"><code class="language-emacslisp"></code></li><li class="L4"><code class="language-emacslisp"><span class="str">;; ELPA\u4e2d\u7684\u63d2\u4ef6\u4e00\u822c\u90fd\u63d0\u4f9b\u4e00\u4e2a"autoloads"\u65b9\u6cd5\uff0c\u53ef\u4ee5\u5e2e\u7528\u6237\u81ea\u52a8\u52a0\u8f7d\u63d2\u4ef6\u5e76\u505a\u76f8\u5e94</span></code></li><li class="L5"><code class="language-emacslisp"><span class="str">;; \u7684\u914d\u7f6e\u3002\u4e0d\u8fc7\u5982\u679c\u6d89\u53ca\u5230\u7ec6\u8282\u7684\u914d\u7f6e\uff0c\u90a3\u8bf7\u81ea\u5df1\u770b\u8be5\u63d2\u4ef6\u7684\u5e2e\u52a9\u6587\u6863\u3002</span></code></li><li class="L6"><code class="language-emacslisp"><span class="str">(require '</span><span class="pln">example</span><span class="pun">-</span><span class="pln">autoloads</span><span class="pun">)</span></code></li><li class="L7"><code class="language-emacslisp"><span class="pun">(</span><span class="pln">provide </span><span class="str">'init-example)</span></code></li></ol></pre>\u000a\u000a<p>\u7136\u540e\u5728<code>init.el</code>\u4e2d\u52a0\u5165\u4e00\u53e5<code>(require 'init-example)</code>(\u6ce8\u610f\u8fd9\u4e00\u53e5\u8981\u653e\u5728<code>(require 'init-elpa)</code>\u4e4b\u540e)\u5373\u53ef\u3002</p>\u000a\u000a<div class="md-section-divider"></div>\u000a\u000a<h2 id="init-auto-completeel">init-auto-complete.el</h2>\u000a\u000a<p><a target="_blank" href="https://github.com/auto-complete/auto-complete">auto-complete</a>\u662f\u5fc5\u4e0d\u53ef\u5c11\u7684Emacs\u63d2\u4ef6\u4e4b\u4e00\uff0c\u5b83\u7684\u95ee\u9898\u4e3b\u8981\u96c6\u4e2d\u5728\u8bbe\u7f6e\u89e6\u53d1\u8865\u5168\u52a8\u4f5c\u7684\u5feb\u6377\u952e\u53ca\u6dfb\u52a0<code>ac-sources</code>\u4e0a\u3002\u9ed8\u8ba4\u60c5\u51b5\u4e0b\u8865\u5168\u52a8\u4f5c\u662f\u81ea\u52a8\u89e6\u53d1\u7684\uff0c\u4f46\u662f\u5982\u679c\u7528\u4e86clang\u4e4b\u7c7b\u7684\u6269\u5c55\uff0c\u7b2c\u4e00\u6b21\u89e6\u53d1\u53ef\u80fd\u9700\u8981\u6bd4\u8f83\u4e45\u7684\u65f6\u95f4\uff08\u5728\u6784\u9020ac-source\uff09\uff0c\u4e8e\u662f\u7ed9\u4eba\u4e00\u79cd\u5361\u51fa\u7fd4\u7684\u9519\u89c9\u3002\u6240\u4ee5\u9700\u8981\u5c06\u8865\u5168\u52a8\u4f5c\u6539\u4e3a\u624b\u52a8\u89e6\u53d1\u3002<code>ac-sources</code>\u662f<code>auto-complete</code>\u5728\u8865\u5168\u65f6\u81ea\u52a8\u641c\u7d22\u7684\u6a21\u677f\u7a7a\u95f4\uff0c\u88ab\u8865\u5168\u7684\u534a\u5355\u8bcd\u4f1a\u81ea\u52a8\u5728<code>ac-sources</code>\u91cc\u9762\u8fdb\u884c\u5339\u914d\u3002\u6839\u636e\u6240\u7f16\u8f91\u6587\u4ef6\u7c7b\u578b\u7684\u4e0d\u540c\uff0c<code>ac-sources</code>\u6700\u597d\u4e5f\u4e0d\u540c\uff08\u4f8b\u5982\u6211\u5728\u8865\u5168C\u8bed\u8a00\u5173\u952e\u5b57\u7684\u65f6\u5019<code>auto-complete</code>\u5c31\u4e0d\u5e94\u8be5\u53bb\u5339\u914dPython\u7684\u5173\u952e\u5b57\uff09\uff0c\u56e0\u6b64\u5e38\u89c1\u7684\u505a\u6cd5\u662f\u7ed9\u6bcf\u4e2a\u4e3b\u6a21\u5f0f\u7684hook\u4e0a\u6302\u4e00\u4e2a\u51fd\u6570\uff0c\u7531\u8be5\u51fd\u6570\u6765\u6267\u884c\u4fee\u6539<code>ac-sources</code>\u7684\u5de5\u4f5c\uff08\u5177\u4f53\u53ef\u89c1init-ac-source.el\u4e2d\u7684\u51fd\u6570<code>ac-latex-mode-setup</code>)\u3002</p>\u000a\u000a<div class="md-section-divider"></div>\u000a\u000a<pre style="" class="prettyprint linenums prettyprinted"><ol class="linenums"><li class="L0"><code class="language-emacslisp"><span class="pun">;;</span><span class="pln"> init</span><span class="pun">-</span><span class="kwd">auto</span><span class="pun">-</span><span class="pln">complete</span><span class="pun">.</span><span class="pln">el</span></code></li><li class="L1"><code class="language-emacslisp"></code></li><li class="L2"><code class="language-emacslisp"><span class="pun">...</span></code></li><li class="L3"><code class="language-emacslisp"></code></li><li class="L4"><code class="language-emacslisp"><span class="pun">(</span><span class="kwd">require</span><span class="pln"> </span><span class="str">'auto-complete-config)</span></code></li><li class="L5"><code class="language-emacslisp"><span class="str">(global-auto-complete-mode t)</span></code></li><li class="L6"><code class="language-emacslisp"></code></li><li class="L7"><code class="language-emacslisp"><span class="str">;; \u628a\u81ea\u5b9a\u4e49\u7684dict\u52a0\u5230auto-complete\u7684\u5b57\u5178\u4e2d\u53bb</span></code></li><li class="L8"><code class="language-emacslisp"><span class="str">(add-to-list '</span><span class="pln">ac</span><span class="pun">-</span><span class="pln">dictionary</span><span class="pun">-</span><span class="pln">directories</span></code></li><li class="L9"><code class="language-emacslisp"><span class="pln">             </span><span class="pun">(</span><span class="pln">expand</span><span class="pun">-</span><span class="pln">file</span><span class="pun">-</span><span class="pln">name </span><span class="str">"lisp/custom-dicts"</span><span class="pln"> user</span><span class="pun">-</span><span class="pln">emacs</span><span class="pun">-</span><span class="pln">directory</span><span class="pun">))</span></code></li><li class="L0"><code class="language-emacslisp"></code></li><li class="L1"><code class="language-emacslisp"><span class="pun">;;</span><span class="pln"> </span><span class="pun">\u6309\u4e0b</span><span class="pln">TAB</span><span class="pun">\u65f6\u9996\u5148\u7f29\u8fdb\u6240\u5728\u884c\uff0c\u7136\u540e\u5c1d\u8bd5\u8865\u5168</span></code></li><li class="L2"><code class="language-emacslisp"><span class="pun">(</span><span class="pln">setq tab</span><span class="pun">-</span><span class="pln">always</span><span class="pun">-</span><span class="pln">indent </span><span class="str">'complete)</span></code></li><li class="L3"><code class="language-emacslisp"></code></li><li class="L4"><code class="language-emacslisp"><span class="str">;; \u963b\u6b62\u81ea\u52a8\u89e6\u53d1\u8865\u5168\u52a8\u4f5c</span></code></li><li class="L5"><code class="language-emacslisp"><span class="str">(setq-default ac-expand-on-auto-complete nil)</span></code></li><li class="L6"><code class="language-emacslisp"><span class="str">(setq-default ac-auto-start nil)</span></code></li><li class="L7"><code class="language-emacslisp"><span class="str">;; \u7528TAB\u4f5c\u4e3a\u624b\u52a8\u89e6\u53d1\u8865\u5168\u52a8\u4f5c\u7684\u5feb\u6377\u952e</span></code></li><li class="L8"><code class="language-emacslisp"><span class="str">(ac-set-trigger-key "TAB")</span></code></li><li class="L9"><code class="language-emacslisp"></code></li><li class="L0"><code class="language-emacslisp"><span class="str">;; \u4f7f\u7528after-load\u6765\u786e\u4fddac-source-yasnippet\u5df2\u7ecf\u5b8c\u6210\u52a0\u8f7d</span></code></li><li class="L1"><code class="language-emacslisp"><span class="str">(after-load '</span><span class="pln">init</span><span class="pun">-</span><span class="pln">yasnippet</span></code></li><li class="L2"><code class="language-emacslisp"><span class="pln">  </span><span class="pun">(</span><span class="kwd">set</span><span class="pun">-</span><span class="kwd">default</span><span class="pln"> </span><span class="str">'ac-sources</span></code></li><li class="L3"><code class="language-emacslisp"><span class="str">             '</span><span class="pun">(</span><span class="pln">ac</span><span class="pun">-</span><span class="pln">source</span><span class="pun">-</span><span class="pln">dictionary</span></code></li><li class="L4"><code class="language-emacslisp"><span class="pln">               ac</span><span class="pun">-</span><span class="pln">source</span><span class="pun">-</span><span class="pln">words</span><span class="pun">-</span><span class="kwd">in</span><span class="pun">-</span><span class="pln">buffer</span></code></li><li class="L5"><code class="language-emacslisp"><span class="pln">               ac</span><span class="pun">-</span><span class="pln">source</span><span class="pun">-</span><span class="pln">words</span><span class="pun">-</span><span class="kwd">in</span><span class="pun">-</span><span class="pln">same</span><span class="pun">-</span><span class="pln">mode</span><span class="pun">-</span><span class="pln">buffers</span></code></li><li class="L6"><code class="language-emacslisp"><span class="pln">               ac</span><span class="pun">-</span><span class="pln">source</span><span class="pun">-</span><span class="pln">words</span><span class="pun">-</span><span class="kwd">in</span><span class="pun">-</span><span class="pln">all</span><span class="pun">-</span><span class="pln">buffer</span></code></li><li class="L7"><code class="language-emacslisp"><span class="pln">               ac</span><span class="pun">-</span><span class="pln">source</span><span class="pun">-</span><span class="pln">functions</span></code></li><li class="L8"><code class="language-emacslisp"><span class="pln">               ac</span><span class="pun">-</span><span class="pln">source</span><span class="pun">-</span><span class="pln">yasnippet</span><span class="pun">)))</span></code></li><li class="L9"><code class="language-emacslisp"></code></li><li class="L0"><code class="language-emacslisp"><span class="pun">(</span><span class="kwd">require</span><span class="pln"> </span><span class="str">'init-ac-source)</span></code></li><li class="L1"><code class="language-emacslisp"><span class="str">(provide '</span><span class="pln">init</span><span class="pun">-</span><span class="kwd">auto</span><span class="pun">-</span><span class="pln">complete</span><span class="pun">)</span></code></li></ol></pre>\u000a\u000a<div class="md-section-divider"></div>\u000a\u000a<h2 id="init-yasnippetel">init-yasnippet.el</h2>\u000a\u000a<p><a target="_blank" href="https://github.com/capitaomorte/yasnippet">yasnippet</a>\u662f<code>auto-complete</code>\u7684\u6700\u597d\u642d\u914d\u3002\u5b83\u7684\u89e6\u53d1\u5feb\u6377\u952e\u5305\u62ecTAB\uff0c\u8fd9\u548c\u4e4b\u524d\u8bbe\u7f6e\u7684<code>auto-complete</code>\u7684\u952e\u4f4d\u51b2\u7a81\uff0c\u6240\u4ee5\u505a\u5982\u4e0b\u914d\u7f6e\uff1a</p>\u000a\u000a<div class="md-section-divider"></div>\u000a\u000a<pre style="" class="prettyprint linenums prettyprinted"><ol class="linenums"><li class="L0"><code class="language-emacslisp"><span class="pun">(</span><span class="kwd">require</span><span class="pun">-</span><span class="kwd">package</span><span class="pln"> </span><span class="str">'yasnippet)</span></code></li><li class="L1"><code class="language-emacslisp"><span class="str">(require '</span><span class="pln">yasnippet</span><span class="pun">)</span></code></li><li class="L2"><code class="language-emacslisp"><span class="pun">;;</span><span class="pln"> </span><span class="pun">\u4f7f\u7528</span><span class="typ">Ctrl</span><span class="pun">-</span><span class="pln">c k</span><span class="pun">\u4f5c\u4e3a\u552f\u4e00\u7684\u89e6\u53d1\u5feb\u6377\u952e</span></code></li><li class="L3"><code class="language-emacslisp"><span class="pun">(</span><span class="pln">define</span><span class="pun">-</span><span class="pln">key yas</span><span class="pun">-</span><span class="pln">minor</span><span class="pun">-</span><span class="pln">mode</span><span class="pun">-</span><span class="pln">map </span><span class="pun">(</span><span class="pln">kbd </span><span class="str">"&lt;tab&gt;"</span><span class="pun">)</span><span class="pln"> </span><span class="kwd">nil</span><span class="pun">)</span></code></li><li class="L4"><code class="language-emacslisp"><span class="pun">(</span><span class="pln">define</span><span class="pun">-</span><span class="pln">key yas</span><span class="pun">-</span><span class="pln">minor</span><span class="pun">-</span><span class="pln">mode</span><span class="pun">-</span><span class="pln">map </span><span class="pun">(</span><span class="pln">kbd </span><span class="str">"TAB"</span><span class="pun">)</span><span class="pln"> </span><span class="kwd">nil</span><span class="pun">)</span></code></li><li class="L5"><code class="language-emacslisp"><span class="pun">(</span><span class="pln">define</span><span class="pun">-</span><span class="pln">key yas</span><span class="pun">-</span><span class="pln">minor</span><span class="pun">-</span><span class="pln">mode</span><span class="pun">-</span><span class="pln">map </span><span class="pun">(</span><span class="pln">kbd </span><span class="str">"C-c k"</span><span class="pun">)</span><span class="pln"> </span><span class="str">'yas-expand)</span></code></li><li class="L6"><code class="language-emacslisp"></code></li><li class="L7"><code class="language-emacslisp"><span class="str">(yas-global-mode t)</span></code></li><li class="L8"><code class="language-emacslisp"></code></li><li class="L9"><code class="language-emacslisp"><span class="str">(provide '</span><span class="pln">init</span><span class="pun">-</span><span class="pln">yasnippet</span><span class="pun">)</span></code></li></ol></pre>\u000a\u000a<div class="md-section-divider"></div>\u000a\u000a<h2 id="init-ac-sourceel-clang">init-ac-source.el : clang</h2>\u000a\u000a<p><a target="_blank" href="http://clang.llvm.org/">clang</a>\u662f\u4e00\u4e2aC/C++\u3001Obj-C/Obj-C++\u7684\u7f16\u8bd1\u5668\u524d\u7aef\uff0c\u5229\u7528\u5b83\u53ef\u4ee5<code>auto-complete</code>\u80fd\u591f\u8865\u5168C/C++\u7684\u5404\u79cd\u6807\u51c6\u5e93\u51fd\u6570\u3002\u9996\u5148\u9700\u8981\u6709<a target="_blank" href="https://github.com/brianjcj/auto-complete-clang">auto-complete-clang</a>\uff0c\u7136\u540e\u628a\u7cfb\u7edf\u4e2d\u5404\u5934\u6587\u4ef6\u7684\u8def\u5f84\u544a\u8bc9\u5b83\uff1a</p>\u000a\u000a<div class="md-section-divider"></div>\u000a\u000a<pre style="" class="prettyprint linenums prettyprinted"><ol class="linenums"><li class="L0"><code class="language-emacslisp"></code></li><li class="L1"><code class="language-emacslisp"><span class="pun">(</span><span class="kwd">require</span><span class="pun">-</span><span class="kwd">package</span><span class="pln"> </span><span class="str">'auto-complete-clang)</span></code></li><li class="L2"><code class="language-emacslisp"><span class="str">(require '</span><span class="kwd">auto</span><span class="pun">-</span><span class="pln">complete</span><span class="pun">-</span><span class="pln">clang</span><span class="pun">)</span></code></li><li class="L3"><code class="language-emacslisp"><span class="pun">(</span><span class="pln">setq ac</span><span class="pun">-</span><span class="pln">clang</span><span class="pun">-</span><span class="pln">flags</span></code></li><li class="L4"><code class="language-emacslisp"><span class="pln">      </span><span class="pun">(</span><span class="pln">mapcar </span><span class="pun">(</span><span class="kwd">lambda</span><span class="pln"> </span><span class="pun">(</span><span class="pln">item</span><span class="pun">)</span><span class="pln"> </span><span class="pun">(</span><span class="pln">concat </span><span class="str">"-I"</span><span class="pln"> item</span><span class="pun">))</span></code></li><li class="L5"><code class="language-emacslisp"><span class="pln">              </span><span class="pun">(</span><span class="pln">split</span><span class="pun">-</span><span class="kwd">string</span></code></li><li class="L6"><code class="language-emacslisp"><span class="pln">               </span><span class="str">"</span></code></li><li class="L7"><code class="language-emacslisp"><span class="str"> /usr/include/c++/4.8</span></code></li><li class="L8"><code class="language-emacslisp"><span class="str"> /usr/include/x86_64-linux-gnu/c++/4.8</span></code></li><li class="L9"><code class="language-emacslisp"><span class="str"> /usr/include/c++/4.8/backward</span></code></li><li class="L0"><code class="language-emacslisp"><span class="str"> /usr/lib/gcc/x86_64-linux-gnu/4.8/include</span></code></li><li class="L1"><code class="language-emacslisp"><span class="str"> /usr/local/include</span></code></li><li class="L2"><code class="language-emacslisp"><span class="str"> /usr/lib/gcc/x86_64-linux-gnu/4.8/include-fixed</span></code></li><li class="L3"><code class="language-emacslisp"><span class="str"> /usr/include/x86_64-linux-gnu</span></code></li><li class="L4"><code class="language-emacslisp"><span class="str"> /usr/include</span></code></li><li class="L5"><code class="language-emacslisp"><span class="str">"</span></code></li><li class="L6"><code class="language-emacslisp"><span class="pln">               </span><span class="pun">)))</span></code></li></ol></pre>\u000a\u000a<p>\u4e0a\u8ff0\u8def\u5f84\u53ef\u4ee5\u901a\u8fc7\u547d\u4ee4<code>echo "" | g++ -v -x c++ -E -</code>\u6765\u5f97\u5230\uff08\u8be6\u7ec6\u8bf4\u660e\u89c1<a target="_blank" href="https://github.com/brianjcj/auto-complete-clang">\u8fd9\u91cc</a>)\u3002</p>\u000a\u000a<div class="md-section-divider"></div>\u000a\u000a<h2 id="\u4f7f\u7528server-client\u7684\u65b9\u6cd5\u6765\u52a0\u901femacs\u7684\u542f\u52a8">\u4f7f\u7528Server-Client\u7684\u65b9\u6cd5\u6765\u201c\u52a0\u901f\u201dEmacs\u7684\u542f\u52a8</h2>\u000a\u000a<p>\u63d2\u4ef6\u591a\u4e86Emacs\u7684\u542f\u52a8\u901f\u5ea6\u5c31\u4f1a\u5f88\u6162\uff0c\u4e3a\u4e86\u63a9\u76d6\uff08\u6ca1\u9519\uff0c\u5c31\u662f\u63a9\u76d6\uff0c\u4e0d\u662f\u89e3\u51b3...\uff09\u8fd9\u4e2a\u95ee\u9898\uff0c\u53ef\u4ee5\u7528Server-Client\u7684\u65b9\u6cd5\u8425\u9020\u4e00\u79cd\u542f\u52a8\u5f88\u5feb\u7684\u9519\u89c9\uff0c\u7528\u5f00\u673a\u901f\u5ea6\u6362Emacs\u7684\u542f\u52a8\u901f\u5ea6\u3002</p>\u000a\u000a<p>\u5177\u4f53\u539f\u7406\u662f\uff0c\u5f00\u673a\u7684\u65f6\u5019\u4ee5daemon\u6a21\u5f0f\u542f\u52a8emacs\uff08\u8fd9\u65f6\u5c31\u4f1a\u8fdb\u884c\u63d2\u4ef6\u7684\u52a0\u8f7d\uff0c\u5e76\u6267\u884c\u521d\u59cb\u5316\u6587\u4ef6\uff09\uff0c\u8ba9\u5b83\u4f5c\u4e3aserver\u8fd0\u884c\u5728\u540e\u53f0\uff0c\u4e4b\u540e\u518d\u6253\u5f00Emacs\u7684\u65f6\u5019\u5c31\u4ee5client\u7684\u5f62\u5f0f\u8c03\u7528\uff0c\u6b64\u65f6\u5b83\u4f1a\u76f4\u63a5\u8fde\u63a5\u5230\u5728\u540e\u53f0\u8fd0\u884c\u7684server\u4e0a\uff0c\u7136\u540eserver\u7ed9\u4f60\u4e00\u4e2a\u7a97\u53e3\u7f16\u8f91\u6587\u4ef6\u3002\u7531\u4e8e\u521d\u59cb\u5316\u8fc7\u7a0b\u5df2\u7ecf\u5728\u542f\u52a8server\u65f6\u5b8c\u6210\u4e86\uff0c\u542f\u52a8client\u7684\u65f6\u5019\u51e0\u4e4e\u662f\u79d2\u5f00\u3002</p>\u000a\u000a<p>\u9700\u8981\u6ce8\u610f\u7684\u95ee\u9898\u662f\uff0cGTK\u7248\u672c\u7684Emacs\u4ee5daemon\u6a21\u5f0f\u542f\u52a8\u65f6\uff0c\u7531\u4e8e\u4e00\u4e2a<a target="_blank" href="https://bugzilla.gnome.org/show_bug.cgi?id=85715">Gtk+\u7684Bug</a>\uff0cemacsclient\u53ef\u80fd\u4f1a\u65f6\u4e0d\u65f6\u5730\u5d29\u6e83\u3002\u89e3\u51b3\u8fd9\u4e2a\u95ee\u9898\u7684\u529e\u6cd5\u662f\u6362\u7528<strong>emacs24-lucid</strong>\uff08\u53ef\u4ee5\u4eceDebian\u7684\u6e90\u91cc\u5b89\u88c5\uff09\u7ed5\u8fc7\u5b83\u3002</p>\u000a\u000a<p>\u5177\u4f53\u4e3a\uff0c\u5f00\u673a\u7684\u65f6\u5019\u542f\u52a8\u52a0\u8f7d\u4e0b\u8ff0\u811a\u672c\uff1a</p>\u000a\u000a<div class="md-section-divider"></div>\u000a\u000a<pre style="" class="prettyprint linenums prettyprinted"><ol class="linenums"><li class="L0"><code class="language-bash"><span class="com">#! /bin/sh</span></code></li><li class="L1"><code class="language-bash"><span class="pln">LC_CTYPE</span><span class="pun">=</span><span class="pln">zh_CN</span><span class="pun">.</span><span class="pln">utf8 emacs24</span><span class="pun">-</span><span class="pln">lucid </span><span class="pun">--</span><span class="pln">daemon</span></code></li></ol></pre>\u000a\u000a<p>\u7136\u540e\u7ed9<code>emacs</code>\u547d\u4ee4\u52a0\u6761alias\uff1a<code>emacsclient -a "" -c</code>\u5373\u53ef\u3002\u53e6\u5916\uff0c\u6839\u636e<a target="_blank" href="http://emacser.com/daemon.htm">\u8fd9\u7bc7\u6587\u7ae0</a>\uff0c\u7531\u4e8e\u542f\u52a8server\u7684\u65f6\u5019\u662f\u4ee5daemon\u6a21\u5f0f\u542f\u52a8\u7684\uff0c\u521d\u59cb\u5316\u6587\u4ef6\u4e2d\u6240\u6709\u4e0eX\u6709\u5173\u7684\u8bbe\u7f6e\u90fd\u5931\u6548\u4e86\u3002<em>\u8fd9\u662f\u56e0\u4e3a\u8fd9\u4e9b\u8bbe\u7f6e\u662f\u5728X\u4e0b\u7684frame\u521b\u5efa\u65f6\u624d\u6709\u6548\u7684\uff0c\u800c\u542f\u52a8\u670d\u52a1\u5668\u7684\u65f6\u5019\u662f\u6ca1\u6709\u521b\u5efaframe\u7684</em>\u3002\u5728\u6211\u7684\u673a\u5b50\u4e0a\uff0c\u5c31\u8868\u73b0\u4e3a\u4f7f\u7528client\u521b\u5efaframe\u540e\u5b57\u4f53\u5947\u4e11\u65e0\u6bd4\uff0c\u56e0\u6b64\u4f7f\u7528\u4e0b\u8ff0\u51fd\u6570\u6765\u8bbe\u7f6e\u5b57\u4f53\uff1a</p>\u000a\u000a<div class="md-section-divider"></div>\u000a\u000a<pre style="" class="prettyprint linenums prettyprinted"><ol class="linenums"><li class="L0"><code class="language-emacslisp"><span class="pun">;;</span><span class="pln"> init</span><span class="pun">-</span><span class="pln">fonts</span><span class="pun">.</span><span class="pln">el</span></code></li><li class="L1"><code class="language-emacslisp"></code></li><li class="L2"><code class="language-emacslisp"><span class="pun">(</span><span class="pln">setq window</span><span class="pun">-</span><span class="pln">system</span><span class="pun">-</span><span class="kwd">default</span><span class="pun">-</span><span class="pln">frame</span><span class="pun">-</span><span class="pln">alist</span></code></li><li class="L3"><code class="language-emacslisp"><span class="pln">      </span><span class="str">'((x (font . "\u6587\u6cc9\u9a7f\u7b49\u5bbd\u5fae\u7c73\u9ed1 11")) ;; \u82e5frame\u5728X\u4e0b\u521b\u5efa</span></code></li><li class="L4"><code class="language-emacslisp"><span class="str">        (nil))) ;; \u82e5frame\u5728terminal\u4e2d\u521b\u5efa</span></code></li><li class="L5"><code class="language-emacslisp"></code></li><li class="L6"><code class="language-emacslisp"><span class="str">(provide '</span><span class="pln">init</span><span class="pun">-</span><span class="pln">fonts</span><span class="pun">)</span></code></li></ol></pre>\u000a\u000a<div class="md-section-divider"></div>\u000a\u000a<h2 id="\u603b\u7ed3">\u603b\u7ed3</h2>\u000a\u000a<p>\u672c\u6587\u53ea\u662f\u4ecb\u7ecd\u4e86\u6211\u8ba4\u4e3a\u7684\u914d\u7f6e\u8fc7\u7a0b\u4e2d\u51e0\u4e2a\u6bd4\u8f83\u91cd\u8981\u7684\u6587\u4ef6\u3002\u5168\u90e8\u914d\u7f6e\u6587\u4ef6\u53ef\u4ee5\u5728<a target="_blank" href="https://github.com/xyguo/emacs.d">\u6211\u7684github repository</a>\u4e2d\u67e5\u770b\u3002\u5982\u679c\u4f60\u61d2\u5f97\u914d\u7f6e\uff0c\u53ef\u4ee5\u76f4\u63a5clone\u6216fork\u5b83\u3002</p></div>\u000a    <div class="remark-icons">\u000a    </div>\u000a</div>\u000a\u000a<!--in page preview buttons. -->\u000a<div class="in-page-preview-buttons in-page-preview-buttons-full-reader">\u000a    <ul>\u000a        <li class="in-page-button dropdown" id="preview-toc-button" title="\u5185\u5bb9\u76ee\u5f55 Ctrl+Alt+O">\u000a            <span class="dropdown-toggle icon-list" data-toggle="dropdown"></span>\u000a            <div id="toc-list" class="dropdown-menu theme pull-right"> <!-- Add theme means this element will be changed when apply theme color. -->\u000a                <h3>\u5185\u5bb9\u76ee\u5f55</h3>\u000a                <hr>\u000a                <div class="table-of-contents"></div>\u000a            </div>\u000a        </li>\u000a    </ul>\u000a</div>\u000a\u000a<div id="reader-full-toolbar" class="reader-full-toolbar-shown" style="padding-top: 0;">\u000a    <ul id="reader-full-toolbar-home" class="preview-button-row">\u000a        <li class="preview-button-full-reader" id="preview-editor-button" title="\u64b0\u5199\u6587\u672c Ctrl+Alt+M">\u000a            <span class="icon-pencil"></span>\u000a        </li>\u000a    </ul>\u000a    <ul id="preview-button-row" class="preview-button-row">\u000a        <li class="preview-button-full-reader dropdown" id="preview-list-button" title="\u6587\u672c\u5217\u8868 Ctrl+Alt+F">\u000a            <span class="dropdown-toggle icon-reorder" data-toggle="dropdown"></span>\u000a            <ul id="file-list" class="dropdown-menu theme-black pull-right" role="menu">\u000a                    <li>\u000a                    <ul class="tag-list">\u000a                        <li class="tag-item item" tag-name="Algorithm">\u000a                            <span class="pull-left"><i class="icon-tag"></i><span class="tag-name">Algorithm</span></span>\u000a                            <span class="tag-count pull-right">1</span>\u000a                            <div class="clearfix"></div>\u000a                        </li>\u000a                            \u000a    <li class="file-item item" file-created-date="2014-04-01T12:24:00.000000Z">\u000a        <a tabindex="-1" href="https://www.zybuluo.com/qqiseeu/note/7399" title="\u3010\u5df2\u53d1\u5e03\u3011 2014-04-01T12:24:00.000000Z">\u000a        <i class="icon-share-sign"></i>\u000a        <span id="7399">USACO 3.2.2 : Stringsobits</span>\u000a        </a>\u000a    </li>\u000a\u000a                    </ul>\u000a                    </li>\u000a                    <li>\u000a                    <ul class="tag-list">\u000a                        <li class="tag-item item" tag-name="ConcentrationInequality">\u000a                            <span class="pull-left"><i class="icon-tag"></i><span class="tag-name">ConcentrationInequality</span></span>\u000a                            <span class="tag-count pull-right">2</span>\u000a                            <div class="clearfix"></div>\u000a                        </li>\u000a                            \u000a    <li class="file-item item" file-created-date="2015-07-02T14:20:07.000000Z">\u000a        <a tabindex="-1" href="https://www.zybuluo.com/qqiseeu/note/122553" title="\u3010\u5df2\u53d1\u5e03\u3011 2015-07-03T06:12:43.000000Z">\u000a        <i class="icon-share-sign"></i>\u000a        <span id="122553">Methods of Bounded Difference (1)</span>\u000a        </a>\u000a    </li>\u000a\u000a                            \u000a    <li class="file-item item" file-created-date="2015-05-31T14:54:34.000000Z">\u000a        <a tabindex="-1" href="https://www.zybuluo.com/qqiseeu/note/109942" title="\u3010\u5df2\u53d1\u5e03\u3011 2015-06-26T12:18:33.000000Z">\u000a        <i class="icon-share-sign"></i>\u000a        <span id="109942">Chernoff-Hoeffding Bound</span>\u000a        </a>\u000a    </li>\u000a\u000a                    </ul>\u000a                    </li>\u000a                    <li>\u000a                    <ul class="tag-list">\u000a                        <li class="tag-item item" tag-name="Emacs">\u000a                            <span class="pull-left"><i class="icon-tag"></i><span class="tag-name">Emacs</span></span>\u000a                            <span class="tag-count pull-right">1</span>\u000a                            <div class="clearfix"></div>\u000a                        </li>\u000a                            \u000a    <li class="file-item item" file-created-date="2014-06-18T07:10:19.000000Z">\u000a        <a tabindex="-1" href="https://www.zybuluo.com/qqiseeu/note/17692" title="\u3010\u5df2\u53d1\u5e03\u3011 2014-06-18T07:10:19.000000Z">\u000a        <i class="icon-share-sign"></i>\u000a        <span id="17692" class="whiter-on-black">Emacs\u914d\u7f6e\u6587\u4ef6\u2014\u2014\u65b0\u624b\u653b\u7565</span>\u000a        </a>\u000a    </li>\u000a\u000a                    </ul>\u000a                    </li>\u000a                    <li>\u000a                    <ul class="tag-list">\u000a                        <li class="tag-item item" tag-name="Kernel">\u000a                            <span class="pull-left"><i class="icon-tag"></i><span class="tag-name">Kernel</span></span>\u000a                            <span class="tag-count pull-right">3</span>\u000a                            <div class="clearfix"></div>\u000a                        </li>\u000a                            \u000a    <li class="file-item item" file-created-date="2013-12-04T10:31:23.000000Z">\u000a        <a tabindex="-1" href="https://www.zybuluo.com/qqiseeu/note/1616" title="\u3010\u5df2\u53d1\u5e03\u3011 2013-12-04T10:31:23.000000Z">\u000a        <i class="icon-share-sign"></i>\u000a        <span id="1616">\u8c03\u8bd5\u572864\u4f4dDebian\u4e0a\u7f16\u8bd1\u597d\u7684Linux 0.11\uff08\u4e8c\uff09</span>\u000a        </a>\u000a    </li>\u000a\u000a                            \u000a    <li class="file-item item" file-created-date="2013-11-27T12:44:25.000000Z">\u000a        <a tabindex="-1" href="https://www.zybuluo.com/qqiseeu/note/1408" title="\u3010\u5df2\u53d1\u5e03\u3011 2013-11-27T12:44:25.000000Z">\u000a        <i class="icon-share-sign"></i>\u000a        <span id="1408">\u8c03\u8bd5\u572864\u4f4dDebian\u4e0a\u7f16\u8bd1\u597d\u7684Linux 0.11\uff08\u4e00\uff09</span>\u000a        </a>\u000a    </li>\u000a\u000a                            \u000a    <li class="file-item item" file-created-date="2013-11-23T01:45:49.000000Z">\u000a        <a tabindex="-1" href="https://www.zybuluo.com/qqiseeu/note/1255" title="\u3010\u5df2\u53d1\u5e03\u3011 2013-11-23T01:45:49.000000Z">\u000a        <i class="icon-share-sign"></i>\u000a        <span id="1255">64\u4f4dDebian Sid\u4e0b\u7f16\u8bd1Linux 0.11\u5185\u6838</span>\u000a        </a>\u000a    </li>\u000a\u000a                    </ul>\u000a                    </li>\u000a                    <li>\u000a                    <ul class="tag-list">\u000a                        <li class="tag-item item" tag-name="Linux">\u000a                            <span class="pull-left"><i class="icon-tag"></i><span class="tag-name">Linux</span></span>\u000a                            <span class="tag-count pull-right">3</span>\u000a                            <div class="clearfix"></div>\u000a                        </li>\u000a                            \u000a    <li class="file-item item" file-created-date="2013-12-04T10:31:23.000000Z">\u000a        <a tabindex="-1" href="https://www.zybuluo.com/qqiseeu/note/1616" title="\u3010\u5df2\u53d1\u5e03\u3011 2013-12-04T10:31:23.000000Z">\u000a        <i class="icon-share-sign"></i>\u000a        <span id="1616">\u8c03\u8bd5\u572864\u4f4dDebian\u4e0a\u7f16\u8bd1\u597d\u7684Linux 0.11\uff08\u4e8c\uff09</span>\u000a        </a>\u000a    </li>\u000a\u000a                            \u000a    <li class="file-item item" file-created-date="2013-11-27T12:44:25.000000Z">\u000a        <a tabindex="-1" href="https://www.zybuluo.com/qqiseeu/note/1408" title="\u3010\u5df2\u53d1\u5e03\u3011 2013-11-27T12:44:25.000000Z">\u000a        <i class="icon-share-sign"></i>\u000a        <span id="1408">\u8c03\u8bd5\u572864\u4f4dDebian\u4e0a\u7f16\u8bd1\u597d\u7684Linux 0.11\uff08\u4e00\uff09</span>\u000a        </a>\u000a    </li>\u000a\u000a                            \u000a    <li class="file-item item" file-created-date="2013-11-23T01:45:49.000000Z">\u000a        <a tabindex="-1" href="https://www.zybuluo.com/qqiseeu/note/1255" title="\u3010\u5df2\u53d1\u5e03\u3011 2013-11-23T01:45:49.000000Z">\u000a        <i class="icon-share-sign"></i>\u000a        <span id="1255">64\u4f4dDebian Sid\u4e0b\u7f16\u8bd1Linux 0.11\u5185\u6838</span>\u000a        </a>\u000a    </li>\u000a\u000a                    </ul>\u000a                    </li>\u000a                    <li>\u000a                    <ul class="tag-list">\u000a                        <li class="tag-item item" tag-name="Mathematics">\u000a                            <span class="pull-left"><i class="icon-tag"></i><span class="tag-name">Mathematics</span></span>\u000a                            <span class="tag-count pull-right">2</span>\u000a                            <div class="clearfix"></div>\u000a                        </li>\u000a                            \u000a    <li class="file-item item" file-created-date="2015-07-02T14:20:07.000000Z">\u000a        <a tabindex="-1" href="https://www.zybuluo.com/qqiseeu/note/122553" title="\u3010\u5df2\u53d1\u5e03\u3011 2015-07-03T06:12:43.000000Z">\u000a        <i class="icon-share-sign"></i>\u000a        <span id="122553">Methods of Bounded Difference (1)</span>\u000a        </a>\u000a    </li>\u000a\u000a                            \u000a    <li class="file-item item" file-created-date="2015-05-31T14:54:34.000000Z">\u000a        <a tabindex="-1" href="https://www.zybuluo.com/qqiseeu/note/109942" title="\u3010\u5df2\u53d1\u5e03\u3011 2015-06-26T12:18:33.000000Z">\u000a        <i class="icon-share-sign"></i>\u000a        <span id="109942">Chernoff-Hoeffding Bound</span>\u000a        </a>\u000a    </li>\u000a\u000a                    </ul>\u000a                    </li>\u000a                    <li>\u000a                    <ul class="tag-list">\u000a                        <li class="tag-item item" tag-name="USACO">\u000a                            <span class="pull-left"><i class="icon-tag"></i><span class="tag-name">USACO</span></span>\u000a                            <span class="tag-count pull-right">1</span>\u000a                            <div class="clearfix"></div>\u000a                        </li>\u000a                            \u000a    <li class="file-item item" file-created-date="2014-04-01T12:24:00.000000Z">\u000a        <a tabindex="-1" href="https://www.zybuluo.com/qqiseeu/note/7399" title="\u3010\u5df2\u53d1\u5e03\u3011 2014-04-01T12:24:00.000000Z">\u000a        <i class="icon-share-sign"></i>\u000a        <span id="7399">USACO 3.2.2 : Stringsobits</span>\u000a        </a>\u000a    </li>\u000a\u000a                    </ul>\u000a                    </li>\u000a                    <li>\u000a                    <ul class="tag-list">\u000a                        <li class="tag-item item" tag-name="\u8bfb\u4e66\u7b14\u8bb0">\u000a                            <span class="pull-left"><i class="icon-tag"></i><span class="tag-name">\u8bfb\u4e66\u7b14\u8bb0</span></span>\u000a                            <span class="tag-count pull-right">2</span>\u000a                            <div class="clearfix"></div>\u000a                        </li>\u000a                            \u000a    <li class="file-item item" file-created-date="2015-07-02T14:20:07.000000Z">\u000a        <a tabindex="-1" href="https://www.zybuluo.com/qqiseeu/note/122553" title="\u3010\u5df2\u53d1\u5e03\u3011 2015-07-03T06:12:43.000000Z">\u000a        <i class="icon-share-sign"></i>\u000a        <span id="122553">Methods of Bounded Difference (1)</span>\u000a        </a>\u000a    </li>\u000a\u000a                            \u000a    <li class="file-item item" file-created-date="2015-05-31T14:54:34.000000Z">\u000a        <a tabindex="-1" href="https://www.zybuluo.com/qqiseeu/note/109942" title="\u3010\u5df2\u53d1\u5e03\u3011 2015-06-26T12:18:33.000000Z">\u000a        <i class="icon-share-sign"></i>\u000a        <span id="109942">Chernoff-Hoeffding Bound</span>\u000a        </a>\u000a    </li>\u000a\u000a                    </ul>\u000a                    </li>\u000a                    <li>\u000a                    <ul class="tag-list">\u000a                        <li class="tag-item item" tag-name="\u672a\u5206\u7c7b">\u000a                            <span class="pull-left"><i class="icon-tag"></i><span class="tag-name">\u672a\u5206\u7c7b</span></span>\u000a                            <span class="tag-count pull-right">1</span>\u000a                            <div class="clearfix"></div>\u000a                        </li>\u000a                            \u000a    <li class="file-item item" file-created-date="2015-09-03T15:45:17.000000Z">\u000a        <a tabindex="-1" href="https://www.zybuluo.com/qqiseeu/note/165996" title="\u3010\u5df2\u53d1\u5e03\u3011 2015-10-29T06:43:48.000000Z">\u000a        <i class="icon-share-sign"></i>\u000a        <span id="165996">Numpy with Cython\uff1a\u8bb0\u4e00\u6b21\u5bf9SGD\u7b97\u6cd5\u7684\u4f18\u5316</span>\u000a        </a>\u000a    </li>\u000a\u000a                    </ul>\u000a                    </li>\u000a            </ul>\u000a            <ul id="file-list-topbar" class="dropdown-menu theme-black pull-right" role="menu">\u000a                <li id="search-file-bar">\u000a                    <i class="icon-search icon-large"></i>\u000a                    <input type="text" id="search-file-textbox" placeholder="\u641c\u7d22 qqiseeu \u7684\u6587\u7a3f\u6807\u9898\uff0c * \u663e\u793a\u5168\u90e8">\u000a                    <i class="icon-level-down icon-rotate-90 icon-large"></i>\u000a                </li>\u000a                <li id="tag-file-bar">\u000a                    \u4ee5\u4e0b\u3010\u6807\u7b7e\u3011\u5c06\u7528\u4e8e\u6807\u8bb0\u8fd9\u7bc7\u6587\u7a3f\uff1a\u000a                </li>\u000a            </ul>\u000a        </li>\u000a        <li class="preview-button-full-reader" id="preview-theme-button" title="\u4e3b\u9898\u5207\u6362 Ctrl+Alt+Y">\u000a            <span class="icon-adjust"></span>\u000a        </li>\u000a        <li class="preview-button-full-reader" id="preview-fullscreen-button" title="\u5168\u5c4f\u6a21\u5f0f F11">\u000a            <span class="icon-fullscreen"></span>\u000a        </li>\u000a        <li class="preview-button-full-reader wmd-spacer"></li>\u000a        <li class="preview-button-full-reader dropdown" id="preview-about-button" title="\u5173\u4e8e\u672c\u7ad9">\u000a            <span class="dropdown-toggle icon-info-sign" data-toggle="dropdown" data-hover="dropdown" data-delay="100" data-close-others="true"></span>\u000a            <ul id="about-menu" class="dropdown-menu theme-black pull-right" role="menu">\u000a                <li title="\u4e0b\u8f7d\u5168\u5e73\u53f0\u5ba2\u6237\u7aef"><a tabindex="-1" href="https://www.zybuluo.com/cmd" target="_blank"><i class="icon-laptop"></i>\u4e0b\u8f7d\u5ba2\u6237\u7aef</a></li>\u000a                <li title="@ghosert"><a tabindex="-1" href="http://www.weibo.com/ghosert" target="_blank"><i class="icon-weibo"></i>\u5173\u6ce8\u5f00\u53d1\u8005</a></li>\u000a                <li title=""><a tabindex="-1" href="https://github.com/ghosert/cmd-editor/issues" target="_blank"><i class="icon-github-alt"></i>\u62a5\u544a\u95ee\u9898\uff0c\u5efa\u8bae</a></li>\u000a                <li title="support@zybuluo.com"><a tabindex="-1" href="mailto:support@zybuluo.com" target="_blank"><i class="icon-envelope"></i>\u8054\u7cfb\u6211\u4eec</a></li>\u000a            </ul>\u000a        </li>\u000a    </ul>\u000a</div>\u000a<ul id="reader-full-toolbar-tail" class="reader-full-toolbar-tail-shown">\u000a    <li class="preview-button-full-reader" id="preview-hidden-button" title="\u9690\u85cf\u5de5\u5177\u680f Ctrl+Alt+I">\u000a        <span class="icon-chevron-sign-right"></span>\u000a    </li>\u000a</ul>\u000a\u000a\u000a\u000a\u000a\u000a\u000a<!-- side remark, hidden when loading. -->\u000a<div class="remark-list side-remark-hidden">\u000a    <div class="remark-items">\u000a    </div>\u000a    <div class="leave-remark unselectable"><span class='icon-plus-sign-alt'></span><span>\u6dfb\u52a0\u65b0\u6279\u6ce8</span></div>\u000a    <div class="new-remark">\u000a        <!-- clone the template $('.new-remark-reply').html() to here.-->\u000a        <div class="remark-notice">\u5728\u4f5c\u8005\u516c\u5f00\u6b64\u6279\u6ce8\u524d\uff0c\u53ea\u6709\u4f60\u548c\u4f5c\u8005\u53ef\u89c1\u3002</div>\u000a    </div>\u000a</div>\u000a\u000a<!-- template for new remark/reply -->\u000a<div class="new-remark-reply side-remark-hidden">\u000a    <div class="remark-head"><a><img src="https://www.zybuluo.com/static/img/default-head.jpg"></a></div>\u000a    <div class="remark-author unselectable"></div>\u000a    <div class="remark-editor" contentEditable="true" spellcheck="false"></div>\u000a    <!-- this will be filled up by js.\u000a    <div class="inline-error">402/400</div> for new remark\u000a    <div class="inline-error">202/200</div> for new reply\u000a    -->\u000a    <div class="remark-footer unselectable">\u000a        <button class="remark-save btn-link">\u4fdd\u5b58</button>\u000a        <button class="remark-cancel btn-link">\u53d6\u6d88</button>\u000a    </div>\u000a</div>\u000a\u000a<!-- template for .remark-item/.remark-reply -->\u000a<div class="remark-item-reply side-remark-hidden">\u000a    <div class="remark-head"><a><img src="https://www.zybuluo.com/static/img/default-head.jpg"></a></div>\u000a    <div class="remark-author unselectable"></div>\u000a    <div class="remark-delete-link unselectable"><span class="icon-remove"></span></div> <!--This is mainly for deleting remark-reply, shown when author/remark hovering on remark-reply.-->\u000a    <div class="remark-editor" contentEditable="true" spellcheck="false"></div>\u000a    <!-- this will be filled up by js.\u000a    <div class="inline-error">402/400</div> for new remark\u000a    <div class="inline-error">202/200</div> for new reply\u000a    -->\u000a    <div class="remark-footer unselectable">\u000a        <button class="remark-edit btn-link">\u4fee\u6539</button>\u000a        <button class="remark-save btn-link">\u4fdd\u5b58</button>\u000a        <button class="remark-cancel btn-link">\u53d6\u6d88</button>\u000a        <button class="remark-delete btn-link">\u5220\u9664</button>\u000a    </div>\u000a</div>\u000a\u000a<!-- template for remark-item-->\u000a<div class="remark-item side-remark-hidden" data-rand-id="" data-version-id="">\u000a    <div class="remark-published-link unselectable"><span class="icon-link icon-rotate-90"></span></div>\u000a    <ul class="remark-options theme unselectable">\u000a        <li class="remark-private"><span class="icon-eye-close"></span><span>\u79c1\u6709</span></li>\u000a        <li class="remark-public"><span class="icon-group"></span><span>\u516c\u5f00</span></li>\u000a        <li class="remark-delete"><span class="icon-remove"></span><span>\u5220\u9664</span></li>\u000a    </ul>\u000a\u000a    <!-- clone the template $('.remark-item-reply').html() to here.-->\u000a\u000a    <button class="remark-reply-view-more btn-link">\u67e5\u770b\u66f4\u65e9\u7684 5 \u6761\u56de\u590d</button>\u000a    <div class="remark-replies">\u000a        <!--\u000a        <div class="remark-reply">\u000a            clone the template $('.remark-item-reply').html() to here.\u000a        </div>\u000a        -->\u000a    </div>\u000a\u000a    <div class="leave-reply unselectable"><span>\u56de\u590d\u6279\u6ce8</span></div>\u000a    <div class="new-reply">\u000a        <!-- clone the template $('.new-remark-reply').html() to here.-->\u000a    </div>\u000a</div>\u000a\u000a<!-- jiawzhang NOTICE: .remark-icons will be put to mdeditor.mako and user_note.mako, where next to .wmd-preview -->\u000a<!-- <div class="remark-icons"></div> -->\u000a\u000a<!-- template for remark-icon -->\u000a<div class="remark-icon unselectable side-remark-hidden remark-icon-empty" style="display: none;">\u000a    <span class="icon-stack">\u000a        <i class="glyph-comment"></i>\u000a        <span class="remark-count"></span>\u000a    </span>\u000a</div>\u000a\u000a\u000a<!-- canvas, hidden always, this is used to convert svg to canvas and then convert canvas to png. -->\u000a<canvas id="svg-canvas-image" class="editor-reader-hidden-always"></canvas>\u000a\u000a<!-- This is the image panel to hold enlarged image/svg. -->\u000a<div id="large-image-panel">\u000a    <img id="large-image"/>\u000a</div>\u000a\u000a\u000a    \u000a\u000a\u000a    <!-- Hidden Popup Modal -->\u000a    <div id="notification-popup-window" class="modal hide fade theme" tabindex="-1" role="dialog" aria-labelledby="notification-title" aria-hidden="true">\u000a        <div class="modal-header theme">\u000a            <button type="button" class="close" data-dismiss="modal" aria-hidden="true"></button>\u000a            <h3 id="notification-title">\u901a\u77e5</h3>\u000a        </div>\u000a        <div class="modal-body theme">\u000a            <p></p>\u000a        </div>\u000a        <div class="modal-footer theme">\u000a            <button id="notification-cancel" class="btn" data-dismiss="modal" aria-hidden="true">\u53d6\u6d88</button>\u000a            <button id="notification-confirm" class="btn btn-primary">\u786e\u8ba4</button>\u000a        </div>\u000a    </div>\u000a\u000a    <!-- zybuluo's foot -->\u000a\u000a    <script src="https://www.zybuluo.com/static/assets/288313bb.base.lib.min.js"></script>\u000a\u000a    <script>\u000a        Namespace('com.zybuluo.base');\u000a        com.zybuluo.base.initData = {\u000a            globalPromptUrl: "https://www.zybuluo.com/global/prompt",\u000a        };\u000a    </script>\u000a\u000a    \u000a    <!--mathjax-->\u000a    <!--blacker: 1 below means font weight.-->\u000a    <script type="text/x-mathjax-config">\u000a        MathJax.Hub.Config({ tex2jax: { inlineMath: [['$','$'], ["\u005c\u005c(","\u005c\u005c)"]], processEscapes: true }, TeX: { equationNumbers: { autoNumber: "AMS" } }, messageStyle: "none", SVG: { blacker: 1 }});\u000a    </script>\u000a    <script src="https://www.zybuluo.com/static/editor/libs/mathJax.js"></script>\u000a    <!--mathjax source code is here: https://github.com/mathjax/MathJax.-->\u000a    <script src="https://www.zybuluo.com/static/MathJax/MathJax.js?config=TeX-AMS-MML_SVG"></script>\u000a\u000a    <script>\u000a        Namespace('com.zybuluo.mdeditor.layout');\u000a        com.zybuluo.mdeditor.layout.initData = {\u000a            // '' means not logged in, otherwise the logged in username, for mdeditor.mako, this value will be reset in render.js otherwise, for user_note.mako, it's rendered by server side.\u000a            loggedInUsername: '',\u000a            isPageOwner: 'False' === 'True' ? true : false,\u000a            loginComeFromUrl: 'https://www.zybuluo.com/login?return_to=https%3A%2F%2Fwww.zybuluo.com%2Fqqiseeu%2Fnote%2F17692',\u000a            noteRemarksUrl: "https://www.zybuluo.com/note/17692/remarks", \u000a            newNoteRemarkUrl: "https://www.zybuluo.com/note/17692/remark/new", \u000a            updateNoteRemarkUrl: "https://www.zybuluo.com/note/17692/remark/update", \u000a            deleteNoteRemarkUrl: "https://www.zybuluo.com/note/17692/remark/delete", \u000a            publishNoteRemarkUrl: "https://www.zybuluo.com/note/17692/remark/publish", \u000a            newNoteRemarkReplyUrl: "https://www.zybuluo.com/note/17692/remark_reply/new", \u000a            updateNoteRemarkReplyUrl: "https://www.zybuluo.com/note/17692/remark_reply/update", \u000a            deleteNoteRemarkReplyUrl: "https://www.zybuluo.com/note/17692/remark_reply/delete", \u000a        };\u000a\u000a        // BEGIN: pace.js configuration\u000a        window.paceOptions = {\u000a            // disable others, enable for ajax call only,\u000a            ajax: true,\u000a            document: false,\u000a            elements: false,\u000a            eventLag: false,\u000a        };\u000a        // jiawzhang NOTICE: to make sure pace.js is working for any ajax call especially the jquery ajax, add 'Pace.restart()' into jquery ajax call like '$.post'\u000a        // Originally, pace 0.5.6 doesn't support jquery ajax, see details in: https://github.com/HubSpot/pace/issues/29\u000a        // END: pace.js configuration\u000a\u000a    </script>\u000a\u000a    <script src="https://www.zybuluo.com/static/assets/mdeditor/7a70106e.layout.lib.min.js"></script>\u000a\u000a    <script src="https://www.zybuluo.com/static/assets/mdeditor/dc648f35.layout.min.js"></script>\u000a\u000a\u000a\u000a    \u000a\u000a    <!-- https://www.zybuluo.com/static/assets/mdeditor/user_note.lib.min.js -->\u000a    <!-- -->\u000a\u000a    <script>\u000a        Namespace('com.zybuluo.mdeditor.user_note');\u000a        com.zybuluo.mdeditor.user_note.initData = {\u000a            isLoggedIn: 'False',\u000a            mdeditorUrl: "https://www.zybuluo.com/mdeditor",\u000a            passwordPassed: 'True' === 'True' ? true : false,\u000a        };\u000a    </script>\u000a\u000a    <script src="https://www.zybuluo.com/static/assets/mdeditor/6cd3112e.user_note.min.js"></script>\u000a\u000a\u000a\u000a</body>\u000a</html>\u000a    \u000a
p3
a.