(lp0
S'http://daemianmack.com/magit-cheatsheet.html#sec-4'
p1
aS'Magit Cheatsheet'
p2
aI0
aV<?xml version="1.0" encoding="utf-8"?>\u000a<!DOCTYPE html PUBLIC "-//W3C//DTD XHTML 1.0 Strict//EN"\u000a"http://www.w3.org/TR/xhtml1/DTD/xhtml1-strict.dtd">\u000a<html xmlns="http://www.w3.org/1999/xhtml" lang="en" xml:lang="en">\u000a<head>\u000a<title>Magit Cheatsheet</title>\u000a<!-- 2015-10-30 Fri 14:12 -->\u000a<meta  http-equiv="Content-Type" content="text/html;charset=utf-8" />\u000a<meta  name="generator" content="Org-mode" />\u000a<style type="text/css">\u000a <!--/*--><![CDATA[/*><!--*/\u000a  html {font-family: Times, serif; font-size: 90%;}\u000a  .preamble {font-variant: italic; margin-bottom:40px;}\u000a  .title {text-align: center;}\u000a\u000a  h2 {margin-top:40px;\u000a      margin-bottom:1px;\u000a      font-variant: small-caps;\u000a      background-color:#A65B5B;\u000a      color:#FFFFFF;\u000a      font-size:1.5em;\u000a      text-align:center;\u000a  }\u000a\u000a  table {border: 0px solid transparent; width:100%;}\u000a  td {border-collapse:collapse; border: 1px solid #fff;}\u000a  td, th {vertical-align: top;}\u000a  td.command, td.description, td.notes {background-color: #F0E4E4;}\u000a  td.command, td.description {white-space: nowrap;}\u000a  td.command {font-family:monospace; font-size: 130%; font-weight: 600; width:10em;}\u000a  td.notes {color: #666; font-variant: italic;}\u000a  /*]]>*/-->\u000a</style>\u000a<script type="text/javascript">\u000a/*\u000a@licstart  The following is the entire license notice for the\u000aJavaScript code in this tag.\u000a\u000aCopyright (C) 2012-2013 Free Software Foundation, Inc.\u000a\u000aThe JavaScript code in this tag is free software: you can\u000aredistribute it and/or modify it under the terms of the GNU\u000aGeneral Public License (GNU GPL) as published by the Free Software\u000aFoundation, either version 3 of the License, or (at your option)\u000aany later version.  The code is distributed WITHOUT ANY WARRANTY;\u000awithout even the implied warranty of MERCHANTABILITY or FITNESS\u000aFOR A PARTICULAR PURPOSE.  See the GNU GPL for more details.\u000a\u000aAs additional permission under GNU GPL version 3 section 7, you\u000amay distribute non-source (e.g., minimized or compacted) forms of\u000athat code without the copy of the GNU GPL normally required by\u000asection 4, provided you include this license notice and a URL\u000athrough which recipients can access the Corresponding Source.\u000a\u000a\u000a@licend  The above is the entire license notice\u000afor the JavaScript code in this tag.\u000a*/\u000a<!--/*--><![CDATA[/*><!--*/\u000a function CodeHighlightOn(elem, id)\u000a {\u000a   var target = document.getElementById(id);\u000a   if(null != target) {\u000a     elem.cacheClassElem = elem.className;\u000a     elem.cacheClassTarget = target.className;\u000a     target.className = "code-highlighted";\u000a     elem.className   = "code-highlighted";\u000a   }\u000a }\u000a function CodeHighlightOff(elem, id)\u000a {\u000a   var target = document.getElementById(id);\u000a   if(elem.cacheClassElem)\u000a     elem.className = elem.cacheClassElem;\u000a   if(elem.cacheClassTarget)\u000a     target.className = elem.cacheClassTarget;\u000a }\u000a/*]]>*///-->\u000a</script>\u000a</head>\u000a<body>\u000a\u000a  <div class="preamble">\u000a    <h1 class="title">THIS CHEATSHEET IS OBSOLETE AS OF MAGIT V2</h2>\u000a    <p>\u000a      This cheatsheet is for <b>version 1</b> of Magit and many things\u000a      have changed considerably in <b>version 2</b>, including the key\u000a      bindings.  If you are using version 2 (which you should), then\u000a      instead head over to the\u000a      new <a href="http://magit.vc/">homepage</a>, which among other\u000a      things features a <a href="http://magit.vc/manual/magit">new\u000a        manual</a> and\u000a      a <a href="http://magit.vc/manual/magit-refcard.pdf">semi-official\u000a        refcard</a>.  If you are updating from version 1 to 2, then you\u000a      should also read\u000a      the <a href="http://magit.vc/manual/magit/Installation.html">update\u000a        instructions</a>.\u000a    </p>\u000a  </div>\u000a  \u000a<div id="content">\u000a<h1 class="title">Magit Cheatsheet</h1>\u000a<div id="table-of-contents">\u000a<h2>Table of Contents</h2>\u000a<div id="text-table-of-contents">\u000a<ul>\u000a<li><a href="#sec-1">Buffers</a></li>\u000a<li><a href="#sec-2">Section Visibility</a></li>\u000a<li><a href="#sec-3">Untracked Files</a></li>\u000a<li><a href="#sec-4">Staging and Committing</a></li>\u000a<li><a href="#sec-5">History</a></li>\u000a<li><a href="#sec-6">Reflogs</a></li>\u000a<li><a href="#sec-7">Diffing</a></li>\u000a<li><a href="#sec-8">Tagging</a></li>\u000a<li><a href="#sec-9">Resetting</a></li>\u000a<li><a href="#sec-10">Stashing</a></li>\u000a<li><a href="#sec-11">Branching</a></li>\u000a<li><a href="#sec-12">Wazzup</a></li>\u000a<li><a href="#sec-13">Merging</a></li>\u000a<li><a href="#sec-14">Rebasing</a></li>\u000a<li><a href="#sec-15">Rewriting</a></li>\u000a<li><a href="#sec-16">Pushing and Pulling</a></li>\u000a<li><a href="#sec-17">Interfacing with Subversion</a></li>\u000a</ul>\u000a</div>\u000a</div>\u000a\u000a\u000a\u000a\u000a<div id="outline-container-sec-1" class="outline-2">\u000a<h2 id="sec-1">Buffers</h2>\u000a<div class="outline-text-2" id="text-1">\u000a<table border="2" cellspacing="0" cellpadding="6" rules="groups" frame="hsides">\u000a\u000a\u000a<colgroup>\u000a<col  class="left" />\u000a\u000a<col  class="left" />\u000a\u000a<col  class="left" />\u000a</colgroup>\u000a<tbody>\u000a<tr>\u000a<td class="command">M-x magit-status</td>\u000a<td class="description">Magit's status buffer</td>\u000a<td class="notes">The main entry point to Magit, and the context where the commands described in this cheatsheet are meant to be executed. Probably a good idea to bind magit-status to a key.</td>\u000a</tr>\u000a\u000a<tr>\u000a<td class="command">$</td>\u000a<td class="description">magit-process buffer</td>\u000a<td class="notes">Behind-the-scenes. Displays the git command and its output.</td>\u000a</tr>\u000a\u000a<tr>\u000a<td class="command">g</td>\u000a<td class="description">reload status buffer</td>\u000a<td class="notes">Necessary to update an existing Magit status buffer after saving a file in emacs, or after making changes to repo outside of emacs.</td>\u000a</tr>\u000a</tbody>\u000a</table>\u000a</div>\u000a</div>\u000a\u000a\u000a\u000a<div id="outline-container-sec-2" class="outline-2">\u000a<h2 id="sec-2">Section Visibility</h2>\u000a<div class="outline-text-2" id="text-2">\u000a<table border="2" cellspacing="0" cellpadding="6" rules="groups" frame="hsides">\u000a\u000a\u000a<colgroup>\u000a<col  class="left" />\u000a\u000a<col  class="left" />\u000a\u000a<col  class="left" />\u000a</colgroup>\u000a<tbody>\u000a<tr>\u000a<td class="command">TAB</td>\u000a<td class="description">Toggle visibility of current section</td>\u000a<td class="notes">&#xa0;</td>\u000a</tr>\u000a\u000a<tr>\u000a<td class="command">S-TAB</td>\u000a<td class="description">Toggle visibility of current section and its children</td>\u000a<td class="notes">&#xa0;</td>\u000a</tr>\u000a\u000a<tr>\u000a<td class="command">1,2,3,4</td>\u000a<td class="description">Expand current section to the corresponding level of detail - 1, 2, 3 or 4</td>\u000a<td class="notes">e.g., 4 will show all detail for the current section.</td>\u000a</tr>\u000a\u000a<tr>\u000a<td class="command">M-1,2,3,4</td>\u000a<td class="description">Expand all sections to the corresponding level of detail - 1, 2, 3 or 4</td>\u000a<td class="notes">e.g., M-4 will show all detail for the entire buffer.</td>\u000a</tr>\u000a</tbody>\u000a</table>\u000a</div>\u000a</div>\u000a\u000a\u000a<div id="outline-container-sec-3" class="outline-2">\u000a<h2 id="sec-3">Untracked Files</h2>\u000a<div class="outline-text-2" id="text-3">\u000a<table border="2" cellspacing="0" cellpadding="6" rules="groups" frame="hsides">\u000a\u000a\u000a<colgroup>\u000a<col  class="left" />\u000a\u000a<col  class="left" />\u000a\u000a<col  class="left" />\u000a</colgroup>\u000a<tbody>\u000a<tr>\u000a<td class="command">s</td>\u000a<td class="description">Add untracked file to staging area</td>\u000a<td class="notes">&#xa0;</td>\u000a</tr>\u000a\u000a<tr>\u000a<td class="command">i</td>\u000a<td class="description">Add file to .gitignore</td>\u000a<td class="notes">&#xa0;</td>\u000a</tr>\u000a\u000a<tr>\u000a<td class="command">C-u i</td>\u000a<td class="description">Prompt for file/directory to add to .gitignore</td>\u000a<td class="notes">&#xa0;</td>\u000a</tr>\u000a\u000a<tr>\u000a<td class="command">I</td>\u000a<td class="description">Add file to .git/info/exclude instead of .gitignore</td>\u000a<td class="notes">&#xa0;</td>\u000a</tr>\u000a</tbody>\u000a</table>\u000a</div>\u000a</div>\u000a\u000a\u000a<div id="outline-container-sec-4" class="outline-2">\u000a<h2 id="sec-4">Staging and Committing</h2>\u000a<div class="outline-text-2" id="text-4">\u000a<table border="2" cellspacing="0" cellpadding="6" rules="groups" frame="hsides">\u000a\u000a\u000a<colgroup>\u000a<col  class="left" />\u000a\u000a<col  class="left" />\u000a\u000a<col  class="left" />\u000a</colgroup>\u000a<tbody>\u000a<tr>\u000a<td class="command">s</td>\u000a<td class="description">Stage current hunk</td>\u000a<td class="notes">If point is in diff header, will stage all hunks belonging to current diff. If a region is active, only lines in that region will be staged. This is a distinct improvement on the conventional 'git add -p', the splitting mechanics of which are&#x2026; 'imperfect'.</td>\u000a</tr>\u000a\u000a<tr>\u000a<td class="command">u</td>\u000a<td class="description">Unstage current hunk</td>\u000a<td class="notes">As with s command, only in reverse: diff headers and regions provide a corresponding context to the unstage action.</td>\u000a</tr>\u000a\u000a<tr>\u000a<td class="command">S</td>\u000a<td class="description">Stage all hunks</td>\u000a<td class="notes">&#xa0;</td>\u000a</tr>\u000a\u000a<tr>\u000a<td class="command">U</td>\u000a<td class="description">Unstage all hunks</td>\u000a<td class="notes">&#xa0;</td>\u000a</tr>\u000a\u000a<tr>\u000a<td class="command">k</td>\u000a<td class="description">Discard uncommitted changes</td>\u000a<td class="notes">As with s command.</td>\u000a</tr>\u000a\u000a<tr>\u000a<td class="command">c</td>\u000a<td class="description">Prepare for commit</td>\u000a<td class="notes">Pops up <b>magit-log-edit</b> buffer. to allow you to enter your commit message.</td>\u000a</tr>\u000a\u000a<tr>\u000a<td class="command">C-c C-c</td>\u000a<td class="description">Execute commit</td>\u000a<td class="notes">Actually triggers commit action. Fire this inside the <b>magit-log-edit</b> commit message buffer. To postpone the commit for later, just C-x b to a different buffer and come back to this buffer when you're ready,</td>\u000a</tr>\u000a\u000a<tr>\u000a<td class="command">C-c C-a</td>\u000a<td class="description">Make the next commit an amend</td>\u000a<td class="notes">&#xa0;</td>\u000a</tr>\u000a</tbody>\u000a</table>\u000a</div>\u000a</div>\u000a\u000a\u000a<div id="outline-container-sec-5" class="outline-2">\u000a<h2 id="sec-5">History</h2>\u000a<div class="outline-text-2" id="text-5">\u000a<table border="2" cellspacing="0" cellpadding="6" rules="groups" frame="hsides">\u000a\u000a\u000a<colgroup>\u000a<col  class="left" />\u000a\u000a<col  class="left" />\u000a\u000a<col  class="left" />\u000a</colgroup>\u000a<tbody>\u000a<tr>\u000a<td class="command">l</td>\u000a<td class="description">History</td>\u000a<td class="notes">Shows terse history for repository.</td>\u000a</tr>\u000a\u000a<tr>\u000a<td class="command">L</td>\u000a<td class="description">Verbose history</td>\u000a<td class="notes">&#xa0;</td>\u000a</tr>\u000a\u000a<tr>\u000a<td class="command">C-u l</td>\u000a<td class="description">History segment</td>\u000a<td class="notes">Will prompt for beginning and end points.</td>\u000a</tr>\u000a\u000a<tr>\u000a<td class="command">RET</td>\u000a<td class="description">Inspect commit</td>\u000a<td class="notes">Shows full information for commit and move point into the new buffer.</td>\u000a</tr>\u000a\u000a<tr>\u000a<td class="command">a</td>\u000a<td class="description">Stage current commit on your current branch</td>\u000a<td class="notes">Useful to cherrypick changes while browsing an alternative branch. Cherrypicked changes need to be committed manually.</td>\u000a</tr>\u000a\u000a<tr>\u000a<td class="command">A</td>\u000a<td class="description">Commit current commit on your current branch</td>\u000a<td class="notes">As with 'a', but will automatically commit changes when there aren't any conflicts.</td>\u000a</tr>\u000a\u000a<tr>\u000a<td class="command">C-w</td>\u000a<td class="description">Copy sha1 of current commit into kill ring</td>\u000a<td class="notes">&#xa0;</td>\u000a</tr>\u000a\u000a<tr>\u000a<td class="command">=</td>\u000a<td class="description">Show differences between current and marked commits</td>\u000a<td class="notes">&#xa0;</td>\u000a</tr>\u000a\u000a<tr>\u000a<td class="command">..</td>\u000a<td class="description">Mark current commit</td>\u000a<td class="notes">&#xa0;</td>\u000a</tr>\u000a\u000a<tr>\u000a<td class="command">.</td>\u000a<td class="description">Unmark current commit if marked</td>\u000a<td class="notes">&#xa0;</td>\u000a</tr>\u000a\u000a<tr>\u000a<td class="command">C-u ..</td>\u000a<td class="description">Unmark marked commit from anywhere</td>\u000a<td class="notes">&#xa0;</td>\u000a</tr>\u000a</tbody>\u000a</table>\u000a</div>\u000a</div>\u000a\u000a\u000a\u000a<div id="outline-container-sec-6" class="outline-2">\u000a<h2 id="sec-6">Reflogs</h2>\u000a<div class="outline-text-2" id="text-6">\u000a<table border="2" cellspacing="0" cellpadding="6" rules="groups" frame="hsides">\u000a\u000a\u000a<colgroup>\u000a<col  class="left" />\u000a\u000a<col  class="left" />\u000a\u000a<col  class="left" />\u000a</colgroup>\u000a<tbody>\u000a<tr>\u000a<td class="command">h</td>\u000a<td class="description">Browse reflog from HEAD</td>\u000a<td class="notes">Reflog buffer works just like History buffer described above.</td>\u000a</tr>\u000a\u000a<tr>\u000a<td class="command">H</td>\u000a<td class="description">Browse reflog from chosen point</td>\u000a<td class="notes">&#xa0;</td>\u000a</tr>\u000a</tbody>\u000a</table>\u000a</div>\u000a</div>\u000a\u000a\u000a\u000a<div id="outline-container-sec-7" class="outline-2">\u000a<h2 id="sec-7">Diffing</h2>\u000a<div class="outline-text-2" id="text-7">\u000a<table border="2" cellspacing="0" cellpadding="6" rules="groups" frame="hsides">\u000a\u000a\u000a<colgroup>\u000a<col  class="left" />\u000a\u000a<col  class="left" />\u000a\u000a<col  class="left" />\u000a</colgroup>\u000a<tbody>\u000a<tr>\u000a<td class="command">d</td>\u000a<td class="description">Show changes between working tree and HEAD</td>\u000a<td class="notes">&#xa0;</td>\u000a</tr>\u000a\u000a<tr>\u000a<td class="command">D</td>\u000a<td class="description">Show changes between two arbitrary revisions</td>\u000a<td class="notes">&#xa0;</td>\u000a</tr>\u000a\u000a<tr>\u000a<td class="command">a</td>\u000a<td class="description">Apply current changes to working tree</td>\u000a<td class="notes">Change-selection works as described in 'Staging and Committing' above.</td>\u000a</tr>\u000a\u000a<tr>\u000a<td class="command">v</td>\u000a<td class="description">Apply current changes to working tree in reverse</td>\u000a<td class="notes">&#xa0;</td>\u000a</tr>\u000a</tbody>\u000a</table>\u000a</div>\u000a</div>\u000a\u000a\u000a<div id="outline-container-sec-8" class="outline-2">\u000a<h2 id="sec-8">Tagging</h2>\u000a<div class="outline-text-2" id="text-8">\u000a<table border="2" cellspacing="0" cellpadding="6" rules="groups" frame="hsides">\u000a\u000a\u000a<colgroup>\u000a<col  class="left" />\u000a\u000a<col  class="left" />\u000a\u000a<col  class="left" />\u000a</colgroup>\u000a<tbody>\u000a<tr>\u000a<td class="command">t</td>\u000a<td class="description">Make lightweight tag</td>\u000a<td class="notes">&#xa0;</td>\u000a</tr>\u000a\u000a<tr>\u000a<td class="command">T</td>\u000a<td class="description">Prepare annotated tag</td>\u000a<td class="notes">Launches <b>magit-log-edit</b> buffer for writing annotation.</td>\u000a</tr>\u000a\u000a<tr>\u000a<td class="command">C-c C-c</td>\u000a<td class="description">Commit annotated tag</td>\u000a<td class="notes">Actually triggers annotated tag action.</td>\u000a</tr>\u000a</tbody>\u000a</table>\u000a</div>\u000a</div>\u000a\u000a\u000a\u000a<div id="outline-container-sec-9" class="outline-2">\u000a<h2 id="sec-9">Resetting</h2>\u000a<div class="outline-text-2" id="text-9">\u000a<table border="2" cellspacing="0" cellpadding="6" rules="groups" frame="hsides">\u000a\u000a\u000a<colgroup>\u000a<col  class="left" />\u000a\u000a<col  class="left" />\u000a\u000a<col  class="left" />\u000a</colgroup>\u000a<tbody>\u000a<tr>\u000a<td class="command">x</td>\u000a<td class="description">Reset your current head to chosen revision</td>\u000a<td class="notes">No changes will be made to working tree or staging area. Typing x while point is in a line describing a commit will offer this commit as the default revision to reset to.</td>\u000a</tr>\u000a\u000a<tr>\u000a<td class="command">X</td>\u000a<td class="description">Reset working tree and staging area to most recent committed state</td>\u000a<td class="notes">Destructive! Will discard all local modifications.</td>\u000a</tr>\u000a</tbody>\u000a</table>\u000a</div>\u000a</div>\u000a\u000a\u000a\u000a<div id="outline-container-sec-10" class="outline-2">\u000a<h2 id="sec-10">Stashing</h2>\u000a<div class="outline-text-2" id="text-10">\u000a<table border="2" cellspacing="0" cellpadding="6" rules="groups" frame="hsides">\u000a\u000a\u000a<colgroup>\u000a<col  class="left" />\u000a\u000a<col  class="left" />\u000a\u000a<col  class="left" />\u000a</colgroup>\u000a<tbody>\u000a<tr>\u000a<td class="command">z</td>\u000a<td class="description">Create new stash</td>\u000a<td class="notes">Stashes are listed in the status buffer.</td>\u000a</tr>\u000a\u000a<tr>\u000a<td class="command">Z</td>\u000a<td class="description">Create new stash and maintain state</td>\u000a<td class="notes">Leaves current changes in working tree and staging area.</td>\u000a</tr>\u000a\u000a<tr>\u000a<td class="command">RET</td>\u000a<td class="description">View stash</td>\u000a<td class="notes">&#xa0;</td>\u000a</tr>\u000a\u000a<tr>\u000a<td class="command">a</td>\u000a<td class="description">Apply stash</td>\u000a<td class="notes">&#xa0;</td>\u000a</tr>\u000a\u000a<tr>\u000a<td class="command">A</td>\u000a<td class="description">Pop stash</td>\u000a<td class="notes">&#xa0;</td>\u000a</tr>\u000a\u000a<tr>\u000a<td class="command">k</td>\u000a<td class="description">Drop stash</td>\u000a<td class="notes">&#xa0;</td>\u000a</tr>\u000a</tbody>\u000a</table>\u000a</div>\u000a</div>\u000a\u000a\u000a\u000a<div id="outline-container-sec-11" class="outline-2">\u000a<h2 id="sec-11">Branching</h2>\u000a<div class="outline-text-2" id="text-11">\u000a<table border="2" cellspacing="0" cellpadding="6" rules="groups" frame="hsides">\u000a\u000a\u000a<colgroup>\u000a<col  class="left" />\u000a\u000a<col  class="left" />\u000a\u000a<col  class="left" />\u000a</colgroup>\u000a<tbody>\u000a<tr>\u000a<td class="command">b</td>\u000a<td class="description">Switch to different branch</td>\u000a<td class="notes">Current branch is indicated in header of status buffer.</td>\u000a</tr>\u000a\u000a<tr>\u000a<td class="command">B</td>\u000a<td class="description">Create and switch to new branch</td>\u000a<td class="notes">&#xa0;</td>\u000a</tr>\u000a</tbody>\u000a</table>\u000a</div>\u000a</div>\u000a\u000a\u000a<div id="outline-container-sec-12" class="outline-2">\u000a<h2 id="sec-12">Wazzup</h2>\u000a<div class="outline-text-2" id="text-12">\u000a<table border="2" cellspacing="0" cellpadding="6" rules="groups" frame="hsides">\u000a\u000a\u000a<colgroup>\u000a<col  class="left" />\u000a\u000a<col  class="left" />\u000a\u000a<col  class="left" />\u000a</colgroup>\u000a<tbody>\u000a<tr>\u000a<td class="command">w</td>\u000a<td class="description">Show summary of how other branches relate to current branch</td>\u000a<td class="notes">&#xa0;</td>\u000a</tr>\u000a\u000a<tr>\u000a<td class="command">i</td>\u000a<td class="description">Toggle ignore branch</td>\u000a<td class="notes">&#xa0;</td>\u000a</tr>\u000a\u000a<tr>\u000a<td class="command">C-u w</td>\u000a<td class="description">Show all branches including ignored ones</td>\u000a<td class="notes">&#xa0;</td>\u000a</tr>\u000a</tbody>\u000a</table>\u000a</div>\u000a</div>\u000a\u000a<div id="outline-container-sec-13" class="outline-2">\u000a<h2 id="sec-13">Merging</h2>\u000a<div class="outline-text-2" id="text-13">\u000a<table border="2" cellspacing="0" cellpadding="6" rules="groups" frame="hsides">\u000a\u000a\u000a<colgroup>\u000a<col  class="left" />\u000a\u000a<col  class="left" />\u000a\u000a<col  class="left" />\u000a</colgroup>\u000a<tbody>\u000a<tr>\u000a<td class="command">m</td>\u000a<td class="description">Initiate manual merge</td>\u000a<td class="notes">Applies all changes to working area and index, without committing.</td>\u000a</tr>\u000a\u000a<tr>\u000a<td class="command">M</td>\u000a<td class="description">Initiate automatic merge</td>\u000a<td class="notes">Applies all changes to working area and index. Commits changes immediately.</td>\u000a</tr>\u000a</tbody>\u000a</table>\u000a</div>\u000a</div>\u000a\u000a<div id="outline-container-sec-14" class="outline-2">\u000a<h2 id="sec-14">Rebasing</h2>\u000a<div class="outline-text-2" id="text-14">\u000a<table border="2" cellspacing="0" cellpadding="6" rules="groups" frame="hsides">\u000a\u000a\u000a<colgroup>\u000a<col  class="left" />\u000a\u000a<col  class="left" />\u000a\u000a<col  class="left" />\u000a</colgroup>\u000a<tbody>\u000a<tr>\u000a<td class="command">R</td>\u000a<td class="description">Initiate or continue a rebase</td>\u000a<td class="notes">&#xa0;</td>\u000a</tr>\u000a\u000a<tr>\u000a<td class="command">E</td>\u000a<td class="description">Initiate an interactive rebase</td>\u000a<td class="notes">&#xa0;</td>\u000a</tr>\u000a</tbody>\u000a</table>\u000a</div>\u000a</div>\u000a\u000a<div id="outline-container-sec-15" class="outline-2">\u000a<h2 id="sec-15">Rewriting</h2>\u000a<div class="outline-text-2" id="text-15">\u000a<table border="2" cellspacing="0" cellpadding="6" rules="groups" frame="hsides">\u000a\u000a\u000a<colgroup>\u000a<col  class="left" />\u000a\u000a<col  class="left" />\u000a\u000a<col  class="left" />\u000a</colgroup>\u000a<tbody>\u000a<tr>\u000a<td class="command">r s</td>\u000a<td class="description">Start a rewrite</td>\u000a<td class="notes">&#xa0;</td>\u000a</tr>\u000a\u000a<tr>\u000a<td class="command">v</td>\u000a<td class="description">Revert a given commit</td>\u000a<td class="notes">&#xa0;</td>\u000a</tr>\u000a\u000a<tr>\u000a<td class="command">r t</td>\u000a<td class="description">Remove bookkeeping information from buffer</td>\u000a<td class="notes">&#xa0;</td>\u000a</tr>\u000a\u000a<tr>\u000a<td class="command">r a</td>\u000a<td class="description">Abort rewriting</td>\u000a<td class="notes">&#xa0;</td>\u000a</tr>\u000a\u000a<tr>\u000a<td class="command">r f</td>\u000a<td class="description">Finish rewriting</td>\u000a<td class="notes">Applies all unused commits.</td>\u000a</tr>\u000a\u000a<tr>\u000a<td class="command">r *</td>\u000a<td class="description">Toggle the * mark on a pending commit</td>\u000a<td class="notes">&#xa0;</td>\u000a</tr>\u000a\u000a<tr>\u000a<td class="command">r ..</td>\u000a<td class="description">Toggle the . mark on a pending commit</td>\u000a<td class="notes">&#xa0;</td>\u000a</tr>\u000a</tbody>\u000a</table>\u000a</div>\u000a</div>\u000a\u000a<div id="outline-container-sec-16" class="outline-2">\u000a<h2 id="sec-16">Pushing and Pulling</h2>\u000a<div class="outline-text-2" id="text-16">\u000a<table border="2" cellspacing="0" cellpadding="6" rules="groups" frame="hsides">\u000a\u000a\u000a<colgroup>\u000a<col  class="left" />\u000a\u000a<col  class="left" />\u000a\u000a<col  class="left" />\u000a</colgroup>\u000a<tbody>\u000a<tr>\u000a<td class="command">P</td>\u000a<td class="description">git push</td>\u000a<td class="notes">Uses default remote repository.</td>\u000a</tr>\u000a\u000a<tr>\u000a<td class="command">C-u P</td>\u000a<td class="description">git push to specified remote repository</td>\u000a<td class="notes">&#xa0;</td>\u000a</tr>\u000a\u000a<tr>\u000a<td class="command">C-u C-u P</td>\u000a<td class="description">git push to specified remote as specified branch</td>\u000a<td class="notes">&#xa0;</td>\u000a</tr>\u000a\u000a<tr>\u000a<td class="command">f</td>\u000a<td class="description">git remote update</td>\u000a<td class="notes">&#xa0;</td>\u000a</tr>\u000a\u000a<tr>\u000a<td class="command">F</td>\u000a<td class="description">git pull</td>\u000a<td class="notes">&#xa0;</td>\u000a</tr>\u000a</tbody>\u000a</table>\u000a</div>\u000a</div>\u000a\u000a<div id="outline-container-sec-17" class="outline-2">\u000a<h2 id="sec-17">Interfacing with Subversion</h2>\u000a<div class="outline-text-2" id="text-17">\u000a<table border="2" cellspacing="0" cellpadding="6" rules="groups" frame="hsides">\u000a\u000a\u000a<colgroup>\u000a<col  class="left" />\u000a\u000a<col  class="left" />\u000a\u000a<col  class="left" />\u000a</colgroup>\u000a<tbody>\u000a<tr>\u000a<td class="command">N r</td>\u000a<td class="description">git svn rebase</td>\u000a<td class="notes">&#xa0;</td>\u000a</tr>\u000a\u000a<tr>\u000a<td class="command">N c</td>\u000a<td class="description">git svn dcommit</td>\u000a<td class="notes">&#xa0;</td>\u000a</tr>\u000a</tbody>\u000a</table>\u000a</div>\u000a</div>\u000a</div>\u000a<div id="postamble" class="status">\u000a<p class="date">Created: 2015-10-30 Fri 14:12</p>\u000a<p class="creator"><a href="http://www.gnu.org/software/emacs/">Emacs</a> 24.5.1 (<a href="http://orgmode.org">Org</a> mode 8.2.10)</p>\u000a<p class="validation"><a href="http://validator.w3.org/check?uri=referer">Validate</a></p>\u000a</div>\u000a</body>\u000a</html>\u000a
p3
a.