(lp0
S'http://swifter.tips/buy/'
p1
aS'Swifter - Swift \xe5\xbf\x85\xe5\xa4\x87 tips'
p2
aI0
aV<!DOCTYPE html>\u000a<html>\u000a\u000a  \u000a\u000a<head>\u000a    <meta http-equiv="Content-Type" content="text/html" charset="UTF-8" />\u000a    <meta http-equiv="X-UA-Compatible" content="IE=edge,chrome=1" />\u000a    \u000a    <title>Swifter - Swift \u5fc5\u5907 tips</title>\u000a    <meta name="description" content="\u6bcf\u5468\u4e09\u66f4\u65b0\uff0c\u5411\u60a8\u4ecb\u7ecd SWIFT \u7684\u5fc5\u5907 TIP" />\u000a\u000a    <link rel="shortcut icon" href="/images/favico.png" />\u000a\u000a    <meta name="HandheldFriendly" content="True" />\u000a    <meta name="MobileOptimized" content="320" />\u000a    <meta name="viewport" content="width=device-width, initial-scale=1.0" />\u000a\u000a    <link rel="stylesheet" type="text/css" href="/css/normalize.css" />\u000a    <link rel="stylesheet" type="text/css" href="/css/nprogress.css" />\u000a    <link rel="stylesheet" type="text/css" href="/css/style.css" />\u000a    \u000a    <link href="http://netdna.bootstrapcdn.com/font-awesome/4.0.3/css/font-awesome.min.css" rel="stylesheet">\u000a    <link href="http://cdn.bootcss.com/semantic-ui/0.16.1/css/semantic.min.css" rel="stylesheet">\u000a    <link rel="stylesheet" type="text/css" href="/css/tomorrow.css">\u000a    \u000a    <link rel="alternate" type="application/rss+xml" title="Swifter" href="http://swifter.tips/feed.xml">\u000a\u000a</head>\u000a\u000a\u000a  <body>\u000a\u000a    <div id="wrapper">\u000a        <header class="site-header">\u000a    <div class="container">\u000a        <div class="site-title-wrapper">\u000a                <h1 class="site-title"><a class="js-ajax-link" title="Swifter" href="http://swifter.tips">Swifter</a></h1>\u000a                <a class="button-square" href="http://swifter.tips/feed.xml"><i class="fa fa-rss"></i></a>\u000a        </div>\u000a\u000a        <ul class="site-nav">\u000a            <li class="site-nav-item"><a class="js-ajax-link" href="http://swifter.tips">\u672c\u5468 Tip</a></li>\u000a            <li class="site-nav-item"><a class="js-ajax-link js-show-index" href="http://swifter.tips">Tip \u5217\u8868</a></li>\u000a            <li class="site-nav-item"><a class="js-ajax-link" title="\u8d2d\u4e70\u56fe\u4e66" href="http://swifter.tips/buy">\u8d2d\u4e70\u56fe\u4e66</a></li>\u000a            \u000a            \u000a            <li class="site-nav-item"><a title="English" href="http://en.swifter.tips">English</a></li>\u000a            \u000a        </ul>\u000a\u000a        <div class="site-subtitle">\u6bcf\u5468\u4e09\u66f4\u65b0\uff0c\u5411\u60a8\u4ecb\u7ecd SWIFT \u7684\u5fc5\u5907 TIP</div>\u000a    </div>\u000a</header>\u000a\u000a\u000a        <div id="ajax-container">\u000a            <div class="container">\u000a    <article class="post-container post">\u000a    <header class="post-header">\u000a        <h1 class="post-title">\u8d2d\u4e70\u56fe\u4e66</h1>\u000a\u000a        <p class="post-date">\u7531 <strong>\u738b\u5dcd (@onevcat)</strong> \u53d1\u5e03\u4e8e <time datetime="2014-08-17 18:17:54 +0900">2014-08-17</time></p>\u000a    </header>\u000a\u000a    <div class="post-content clearfix">\u000a        <p><center><img src="/images/2015/Mar/cover-1.jpg"></img></center></p>\u000a\u000a<p>\u611f\u8c22\u60a8\u5173\u6ce8\u548c\u8bbf\u95ee\u672c\u7ad9\uff0c\u8fd9\u4e2a\u7f51\u7ad9\u7684\u5185\u5bb9\u5176\u5b9e\u90fd\u6765\u81ea\u4e8e\u6211\u5199\u7684\u300aSwifter - 100 \u4e2a Swift \u5fc5\u5907 tips\u300b\u4e00\u4e66\u3002\u6211\u5728\u6bcf\u5468\u4e09\u4f1a\u4ece\u8fd9\u672c\u4e66\u4e2d\u6458\u9009\u4e00\u8282\u53d1\u5e03\u5728\u8fd9\u4e2a\u7ad9\u70b9\u4e0a\u4e0e\u5927\u5bb6\u5171\u4eab\u3002</p>\u000a\u000a<p>\u5728\u60a8\u51b3\u5b9a\u8d2d\u4e70\u8fd9\u672c\u4e66\u4e4b\u524d\uff0c\u60a8\u53ef\u4ee5\u5148\u770b\u4e00\u770b<a href="/introduction/">\u300a\u4ecb\u7ecd\u300b</a>\u4e00\u8282\u7684\u5185\u5bb9\u3002\u91cc\u9762\u5bf9\u8fd9\u672c\u4e66\u7684\u5199\u4f5c\u76ee\u7684\u548c\u9002\u8bfb\u4eba\u7fa4\u8fdb\u884c\u4e86\u5fc5\u8981\u7684\u8bf4\u660e\u3002</p>\u000a\u000a<h3>SelfStore \u8d2d\u4e70 (\u652f\u4ed8\u5b9d)</h3>\u000a\u000a<p>\u70b9\u51fb <a href="https://selfstore.io/products/171">\u8fd9\u91cc</a> \u5728 SelfStore \u8fdb\u884c\u8d2d\u4e70\u3002SelfStore \u652f\u6301\u652f\u4ed8\u5b9d\u652f\u4ed8\uff0c\u5bf9\u4e8e\u56fd\u5185\u8bfb\u8005\u6765\u8bf4\u5e94\u8be5\u662f\u6700\u65b9\u4fbf\u7684\u65b9\u5f0f\u3002\u672c\u4e66\u56fd\u5185\u6700\u4f4e\u552e\u4ef7\u4e3a\u4eba\u6c11\u5e01 <strong>35\u5143</strong>\uff0c\u540e\u7eed\u66f4\u65b0\u4e5f\u5c06\u53d1\u9001\u5230\u60a8\u7684\u90ae\u7bb1\u3002</p>\u000a\u000a<h3>Gumroad \u8d2d\u4e70 (\u4fe1\u7528\u5361)</h3>\u000a\u000a<p>\u70b9\u51fb <a href="https://gumroad.com/l/swifter">\u8fd9\u91cc</a> \u8fdb\u5165\u5546\u54c1\u9875\u9762\u3002<strong>\u6700\u4f4e\u552e\u4ef7\u4e3a 5.99 \u7f8e\u91d1</strong>\u3002\u53d1\u5e03\u4ee5\u540e\u7684\u7248\u672c\u66f4\u65b0\u4e5f\u5c06\u4f1a\u81ea\u52a8\u53d1\u9001\u5230\u60a8\u7684\u90ae\u7bb1\u3002</p>\u000a\u000a<h3>Leanpub \u8d2d\u4e70 (\u4fe1\u7528\u5361\u6216 Paypal)</h3>\u000a\u000a<p>\u70b9\u51fb <a href="https://leanpub.com/swifter/">\u8fd9\u91cc</a> \u5728 Leanpub \u8fdb\u884c\u8d2d\u4e70\uff0c\u4ef7\u683c\u548c\u66f4\u65b0\u7b56\u7565\u4e0a\u548c Gumroad \u4e00\u81f4\uff0c\u4f46\u662f\u9664\u4e86\u4fe1\u7528\u5361\u4ee5\u5916\uff0c\u8fd8\u652f\u6301 Paypal \u652f\u4ed8\u3002</p>\u000a\u000a<blockquote>\u000a<p>\u8fd9\u672c\u4e66\u91c7\u7528\u4e86\u6d6e\u52a8\u552e\u4ef7\u7684\u65b9\u5f0f\uff0c\u6700\u4f4e\u4e3a 35 \u5143\u6216\u7b49\u6548\u7684 5.99 \u7f8e\u5143\u3002\u5982\u679c\u60a8\u89c9\u5f97\u8fd9\u672c\u4e66\u7684\u4ef7\u503c\u8d85\u51fa\u8fd9\u4e2a\u5b9a\u4ef7\u7684\u8bdd\uff0c\u4e5f\u6b22\u8fce\u5728\u8d2d\u4e70\u65f6\u591a\u586b\u4e00\u4e24\u7f8e\u5143\uff0c\u8fd9\u4f1a\u662f\u5bf9\u6211\u5f88\u5927\u7684\u5e2e\u52a9\u548c\u9f13\u52b1\u3002</p>\u000a</blockquote>\u000a\u000a<hr>\u000a\u000a<div class="ui orange segment">\u000a<center><p>\u5982\u679c\u60a8\u5bf9 Swift \u7684\u79cd\u79cd\u5185\u5bb9\u611f\u5174\u8da3\u7684\u8bdd\uff0c\u76f8\u4fe1\u8fd9\u4f1a\u662f\u4e00\u672c\u60a8\u4e0d\u80fd\u9519\u8fc7\u7684\u5c0f\u518c\u5b50\u3002</p>\u000a<p>\u518d\u6b21\u611f\u8c22\u60a8\u4e00\u76f4\u4ee5\u6765\u7684\u5173\u7167\u548c\u652f\u6301\uff0c\u8eac\u8eab\u8c28\u62dc\u3002</p></center>\u000a</div>\u000a\u000a    </div>\u000a\u000a    <footer class="post-footer clearfix">\u000a        <div class="share">\u000a            <a class="icon-weibo" href="http://service.weibo.com/share/share.php?url=http://swifter.tips/buy/&appkey=&title=%23Swifter%23 Tip %E8%B4%AD%E4%B9%B0%E5%9B%BE%E4%B9%A6&pic=&ralateUid=&language=zh_cn"\u000a                onclick="window.open(this.href, 'weibo-share', 'width=550,height=235');return false;">\u000a                <i class="fa fa-weibo"></i>\u000a                <span class="hidden">Weibo</span>\u000a            </a>\u000a\u000a            <a class="icon-twitter" href="http://twitter.com/share?text=%E8%B4%AD%E4%B9%B0%E5%9B%BE%E4%B9%A6&url=http://swifter.tips/buy/"\u000a                onclick="window.open(this.href, 'twitter-share', 'width=550,height=235');return false;">\u000a                <i class="fa fa-twitter"></i>\u000a                <span class="hidden">Twitter</span>\u000a            </a>\u000a\u000a            <a class="icon-facebook" href="https://www.facebook.com/sharer/sharer.php?u=http://swifter.tips/buy/"\u000a                onclick="window.open(this.href, 'facebook-share','width=580,height=296');return false;">\u000a                <i class="fa fa-facebook"></i>\u000a                <span class="hidden">Facebook</span>\u000a            </a>\u000a\u000a            <a class="icon-google-plus" href="https://plus.google.com/share?url=http://swifter.tips/buy/"\u000a               onclick="window.open(this.href, 'google-plus-share', 'width=490,height=530');return false;">\u000a               <i class="fa fa-google-plus"></i>\u000a                <span class="hidden">Google+</span>\u000a            </a>\u000a        </div>\u000a    </footer>\u000a\u000a    <section class="author-profile">\u000a        <div class="author-heading">\u000a            <img class="author-avatar" src="/images/2014/Aug/ou-gi.jpg" width="120" height="120" alt="\u738b\u5dcd (@onevcat)">\u000a            <h4 class="author-name">\u672c\u6587\u7531 \u738b\u5dcd \u64b0\u5199</h4>\u000a        </div>\u000a        <p class="author-bio">\u738b\u5dcd (@onevcat) \u662f\u4e00\u540d iOS \u548c Unity3D \u5f00\u53d1\u8005\uff0c\u73b0\u65c5\u5c45\u65e5\u672c\uff0c\u6b63\u5728\u5bfb\u6c42\u521b\u610f\u4e4b\u6e90\u3002</p>\u000a        \u000a        <div class="author-meta">\u000a            <span><i class="fa fa-link"></i><a href="http://onev.cat/">http://onev.cat/</a></span>\u000a        </div>            \u000a</section>\u000a\u000a\u000a</article>\u000a\u000a</div>\u000a\u000a        </div>\u000a    </div>\u000a\u000a    <footer class="footer">\u000a    <div class="container">\u000a\u000a        <div class="site-title-wrapper">\u000a            <h1 class="site-title"><a class="js-ajax-link js-show-index" title="Tip \u5217\u8868" href="http://swifter.tips">Tip \u5217\u8868</a></h1>\u000a            <a class="button-square button-jump-top js-jump-top" href="#"><i class="fa fa-angle-up"></i></a>\u000a        </div>\u000a\u000a        <p class="footer-copyright">&copy; 2016 / <a href="http://swifter.tips">Swifter.tips</a> \u91c7\u7528 <a href="http://creativecommons.org/licenses/by-nc-sa/4.0/">\u77e5\u8bc6\u5171\u4eab \u7f72\u540d-\u975e\u5546\u4e1a\u6027\u4f7f\u7528-\u76f8\u540c\u65b9\u5f0f\u5171\u4eab 4.0 \u56fd\u9645</a> \u8bb8\u53ef\u534f\u8bae\u3002\u5141\u8bb8\u4fdd\u6301\u7f72\u540d\u53ca\u539f\u6587\u94fe\u63a5\u8f6c\u8f7d\uff0c\u4e0d\u5f97\u7528\u4e8e\u5546\u4e1a\u76ee\u7684</p>\u000a    </div>\u000a</footer>\u000a\u000a\u000a    <script src="//cdn.bootcss.com/jquery/1.11.3/jquery.min.js"></script>\u000a    <script type="text/javascript" src="/js/jquery.history.js"></script>\u000a    <script type="text/javascript" src="/js/nprogress.js"></script>\u000a    <script type="text/javascript" src="/js/jquery.fitvids.js"></script>\u000a    <script type="text/javascript" src="/js/scripts.js"></script>\u000a    <script src="http://cdn.bootcss.com/semantic-ui/0.16.1/javascript/semantic.min.js"></script>\u000a    <script type="text/javascript" src="/js/highlight.pack.js"></script>\u000a    <script>hljs.initHighlightingOnLoad();</script>\u000a\u000a    <script>\u000a    (function(i,s,o,g,r,a,m){i['GoogleAnalyticsObject']=r;i[r]=i[r]||function(){\u000a    (i[r].q=i[r].q||[]).push(arguments)},i[r].l=1*new Date();a=s.createElement(o),\u000a    m=s.getElementsByTagName(o)[0];a.async=1;a.src=g;m.parentNode.insertBefore(a,m)\u000a    })(window,document,'script','//www.google-analytics.com/analytics.js','ga');\u000a\u000a    ga('create', 'UA-53899458-1', 'auto');\u000a    ga('send', 'pageview');\u000a    </script>\u000a    \u000a  </body>\u000a\u000a</html>\u000a
p3
a.