(lp0
S'http://es6.ruanyifeng.com/#docs/symbol'
p1
aS'Symbol - ECMAScript 6\xe5\x85\xa5\xe9\x97\xa8'
p2
aI0
aV<!DOCTYPE html>\u000a<html>\u000a<head>\u000a  <meta http-equiv="Content-Type" content="text/html; charset=UTF-8" />\u000a  <meta name="viewport" content="width=device-width, initial-scale=1">\u000a  <link rel="stylesheet" href="app/bower_components/normalize-css/normalize.css">\u000a  <link rel="stylesheet" href="css/app.css">\u000a  <title>ECMAScript 6\u5165\u95e8</title>\u000a  <link rel="shortcut icon" href="/favicon.ico" type="image/x-icon">\u000a  <link rel="icon" href="/favicon.ico" type="image/x-icon">\u000a  <script src="js/jquery-1.11.0.min.js"></script>\u000a  <script src="js/jquery-ui.min.js"></script>\u000a  <script src="js/marked.js"></script>\u000a  <script src="js/store.js"></script>\u000a  <script src="js/ditto.js"></script>\u000a  <script src="js/prism.js"></script>\u000a</head>\u000a<body>\u000a  <!-- essential -->\u000a  <div id="sidebar"></div>\u000a  <div id="content"></div>\u000a  <!-- optional -->\u000a  <div id="back_to_top">back to top</div>\u000a  <div id="edit">edit</div>\u000a  <div id="loading">Loading ...</div>\u000a  <div id="error">Opps! ... File not found!</div>\u000a  <div id="flip"><div id="pageup">\u4e0a\u4e00\u7ae0</div><div id="pagedown">\u4e0b\u4e00\u7ae0</div></div>\u000a  <div class="progress-indicator-2"></div>\u000a\u000a  <script src="config.js"></script>\u000a  <script>\u000a    ditto.run();\u000a  </script>\u000a  <noscript>\u000a    <p>\u300aECMAScript 6\u5165\u95e8\u300b\u662f\u4e00\u672c\u5f00\u6e90\u7684JavaScript\u8bed\u8a00\u6559\u7a0b\uff0c\u5168\u9762\u4ecb\u7ecdECMAScript 6\u65b0\u589e\u7684\u8bed\u6cd5\u7279\u6027\u3002</p>\u000a    <p>\u672c\u4e66\u529b\u4e89\u8986\u76d6ES6\u4e0eES5\u7684\u6240\u6709\u4e0d\u540c\u4e4b\u5904\uff0c\u5bf9\u6d89\u53ca\u7684\u8bed\u6cd5\u77e5\u8bc6\u7ed9\u4e88\u8be6\u7ec6\u4ecb\u7ecd\uff0c\u5e76\u7ed9\u51fa\u5927\u91cf\u7b80\u6d01\u6613\u61c2\u7684\u793a\u4f8b\u4ee3\u7801\u3002</p>\u000a    <p>\u672c\u4e66\u4e3a\u4e2d\u7ea7\u96be\u5ea6\uff0c\u9002\u5408\u5df2\u6709\u4e00\u5b9aJavaScript\u8bed\u8a00\u57fa\u7840\u7684\u8bfb\u8005\uff0c\u4e86\u89e3\u8fd9\u95e8\u8bed\u8a00\u7684\u6700\u65b0\u8fdb\u5c55\uff1b\u4e5f\u53ef\u5f53\u4f5c\u53c2\u8003\u624b\u518c\uff0c\u67e5\u5bfb\u65b0\u589e\u7684\u8bed\u6cd5\u70b9\u3002</p>\u000a  </noscript>\u000a</body>\u000a</html>\u000a
p3
a.