(lp0
S'http://showcase.ngnice.com/#/input/file'
p1
aS'\xe6\x96\x87\xe4\xbb\xb6\xe4\xb8\x8a\xe4\xbc\xa0 - Angular\xe8\x8c\x83\xe4\xbe\x8b\xe7\xa8\x8b\xe5\xba\x8f'
p2
aI0
aV<!doctype html>\u000a<!--[if lt IE 7]>\u000a<html class="no-js lt-ie9 lt-ie8 lt-ie7"> <![endif]-->\u000a<!--[if IE 7]>\u000a<html class="no-js lt-ie9 lt-ie8"> <![endif]-->\u000a<!--[if IE 8]>\u000a<html class="no-js lt-ie9"> <![endif]-->\u000a<!--[if gt IE 8]><!-->\u000a<html class="no-js" ng-app="ngShowcaseApp"> <!--<![endif]-->\u000a<head>\u000a  <meta charset="utf-8">\u000a  <title>Angular\u8303\u4f8b\u7a0b\u5e8f</title>\u000a  <meta name="renderer" content="webkit">\u000a  <meta name="force-rendering" content="webkit">\u000a  <meta http-equiv="X-UA-Compatible" content="IE=edge,chrome=1"/>\u000a  <meta name="description" content="">\u000a  <meta name="viewport" content="width=device-width">\u000a\u000a  <!-- Place favicon.ico and apple-touch-icon.png in the root directory -->\u000a  <!-- build:css styles/vendor.css -->\u000a  <!-- bower:css -->\u000a  <link rel="stylesheet" href="bower_components/bootstrap/dist/css/bootstrap.css" />\u000a  <link rel="stylesheet" href="bower_components/highlightjs/styles/default.css" />\u000a  <link rel="stylesheet" href="bower_components/select2/select2.css" />\u000a  <link rel="stylesheet" href="bower_components/nvd3/src/nv.d3.css" />\u000a  <link rel="stylesheet" href="bower_components/animate.css/animate.css" />\u000a  <!-- endbower -->\u000a  <!-- endbuild -->\u000a  <!-- build:css({.tmp,app}) styles/main.css -->\u000a  <link rel="stylesheet" href="styles/main.css">\u000a  <!-- endbuild -->\u000a  <link rel="Shortcut Icon" href="favicon.ico"/>\u000a\u000a</head>\u000a<body>\u000a<!--[if lt IE 7]>\u000a<p class="browsehappy">You are using an <strong>outdated</strong> browser. Please <a href="http://browsehappy.com/">upgrade\u000a  your browser</a> to improve your experience.</p>\u000a<![endif]-->\u000a\u000a<!-- Add your site or application content here -->\u000a<app-header></app-header>\u000a<div class="main-content">\u000a  <div class="row">\u000a    <div class="col-md-2">\u000a      <app-nav></app-nav>\u000a    </div>\u000a    <div class="col-md-5">\u000a      <app-brief></app-brief>\u000a      <div ui-view>\u6b63\u5728\u52a0\u8f7d\uff0c\u8bf7\u7a0d\u5019\u2026\u2026</div>\u000a    </div>\u000a    <div class="col-md-5">\u000a      <app-view-status></app-view-status>\u000a      <app-view-source></app-view-source>\u000a    </div>\u000a  </div>\u000a</div>\u000a<app-footer></app-footer>\u000a\u000a<!--[if lt IE 9]>\u000a<script src="bower_components/es5-shim/es5-shim.js"></script>\u000a<script src="bower_components/json3/lib/json3.min.js"></script>\u000a<![endif]-->\u000a\u000a<!-- build:js scripts/vendor.js -->\u000a<!-- bower:js -->\u000a<script src="bower_components/jquery/dist/jquery.js"></script>\u000a<script src="bower_components/angular/angular.js"></script>\u000a<script src="bower_components/bootstrap/dist/js/bootstrap.js"></script>\u000a<script src="bower_components/angular-resource/angular-resource.js"></script>\u000a<script src="bower_components/angular-cookies/angular-cookies.js"></script>\u000a<script src="bower_components/angular-animate/angular-animate.js"></script>\u000a<script src="bower_components/angular-sanitize/angular-sanitize.js"></script>\u000a<script src="bower_components/angular-ui-router/release/angular-ui-router.js"></script>\u000a<script src="bower_components/underscore/underscore.js"></script>\u000a<script src="bower_components/angular-bootstrap/ui-bootstrap-tpls.js"></script>\u000a<script src="bower_components/moment/moment.js"></script>\u000a<script src="bower_components/highlightjs/highlight.pack.js"></script>\u000a<script src="bower_components/angular-highlightjs/angular-highlightjs.js"></script>\u000a<script src="bower_components/angular.easy-pie-chart/dist/angular.easypiechart.js"></script>\u000a<script src="bower_components/angular-file-upload/angular-file-upload.js"></script>\u000a<script src="bower_components/select2/select2.js"></script>\u000a<script src="bower_components/angular-ui-select2/src/select2.js"></script>\u000a<script src="bower_components/angular-tree-repeat/angular-tree-repeat.min.js"></script>\u000a<script src="bower_components/d3/d3.js"></script>\u000a<script src="bower_components/nvd3/nv.d3.js"></script>\u000a<script src="bower_components/angularjs-nvd3-directives/dist/angularjs-nvd3-directives.js"></script>\u000a<script src="bower_components/highcharts-release/highcharts.js"></script>\u000a<script src="bower_components/highcharts-release/highcharts-more.js"></script>\u000a<script src="bower_components/highcharts-release/modules/exporting.src.js"></script>\u000a<!-- endbower -->\u000a<!-- endbuild -->\u000a\u000a<!-- build:js({.tmp,app}) scripts/scripts.js -->\u000a<script src="scripts/scHelper.js" charset="utf-8"></script>\u000a<script src="scripts/app.js" charset="utf-8"></script>\u000a\u000a<script src="scripts/filters/paging.js" charset="utf-8"></script>\u000a<script src="scripts/filters/orderClass.js" charset="utf-8"></script>\u000a<script src="scripts/filters/size.js" charset="utf-8"></script>\u000a<script src="scripts/services/TreeData.js" charset="utf-8"></script>\u000a<script src="scripts/services/Rect.js" charset="utf-8"></script>\u000a<script src="scripts/services/Zoom.js" charset="utf-8"></script>\u000a<script src="scripts/services/DaoBook.js" charset="utf-8"></script>\u000a\u000a<script src="lib/angular-locale_zh-cn.js" charset="utf-8"></script>\u000a<script src="lib/ui-bootstrap-locale_zh-cn.js" charset="utf-8"></script>\u000a<script src="scripts/config/config.js" charset="utf-8"></script>\u000a<script src="scripts/config/authors.js" charset="utf-8"></script>\u000a<script src="scripts/config/nav-data.js" charset="utf-8"></script>\u000a<script src="scripts/config/city-data.js" charset="utf-8"></script>\u000a\u000a<script src="scripts/router.js" charset="utf-8"></script>\u000a<script src="scripts/directives/app/header.js" charset="utf-8"></script>\u000a<script src="scripts/directives/app/footer.js" charset="utf-8"></script>\u000a<script src="scripts/directives/app/nav.js" charset="utf-8"></script>\u000a<script src="scripts/directives/app/viewSource.js" charset="utf-8"></script>\u000a<script src="scripts/directives/app/viewStatus.js" charset="utf-8"></script>\u000a<script src="scripts/directives/app/brief.js" charset="utf-8"></script>\u000a<script src="scripts/directives/common/resize.js" charset="utf-8"></script>\u000a<script src="scripts/directives/common/position.js" charset="utf-8"></script>\u000a<script src="scripts/directives/common/masked.js" charset="utf-8"></script>\u000a<script src="scripts/directives/thirdparty/highcharts.js" charset="utf-8"></script>\u000a\u000a<script src="thirdparty-libs/ueditor1_3_6-utf8-jsp/ueditor.config.js"></script>\u000a<script src="thirdparty-libs/ueditor1_3_6-utf8-jsp/ueditor.all.min.js"></script>\u000a<script src="thirdparty-libs/ueditor1_3_6-utf8-jsp/lang/zh-cn/zh-cn.js"></script>\u000a<script src="scripts/directives/thirdparty/baiduueditor.js"></script>\u000a\u000a<script src="scripts/controllers/notFound.js" charset="utf-8"></script>\u000a\u000a<script src="scripts/controllers/home.js" charset="utf-8"></script>\u000a<script src="scripts/controllers/home/home.js" charset="utf-8"></script>\u000a<script src="scripts/controllers/home/about.js" charset="utf-8"></script>\u000a<script src="scripts/controllers/home/contact.js" charset="utf-8"></script>\u000a<script src="scripts/controllers/show.js" charset="utf-8"></script>\u000a<script src="scripts/controllers/show/tab.js" charset="utf-8"></script>\u000a<script src="scripts/controllers/show/progress.js" charset="utf-8"></script>\u000a<script src="scripts/controllers/show/panel.js" charset="utf-8"></script>\u000a<script src="scripts/controllers/show/alert.js" charset="utf-8"></script>\u000a<script src="scripts/controllers/input.js" charset="utf-8"></script>\u000a<script src="scripts/controllers/input/html5.js" charset="utf-8"></script>\u000a<script src="scripts/controllers/input/file.js" charset="utf-8"></script>\u000a<script src="scripts/controllers/input/maskedText.js" charset="utf-8"></script>\u000a<script src="scripts/controllers/input/checkbox.js" charset="utf-8"></script>\u000a<script src="scripts/controllers/input/radio.js" charset="utf-8"></script>\u000a<script src="scripts/controllers/input/date.js" charset="utf-8"></script>\u000a<script src="scripts/controllers/input/calendar.js" charset="utf-8"></script>\u000a<script src="scripts/controllers/input/datetime.js" charset="utf-8"></script>\u000a<script src="scripts/controllers/select.js" charset="utf-8"></script>\u000a<script src="scripts/controllers/select/basic.js" charset="utf-8"></script>\u000a<script src="scripts/controllers/select/cascade.js" charset="utf-8"></script>\u000a<script src="scripts/controllers/select/multiple.js" charset="utf-8"></script>\u000a<script src="scripts/controllers/select/custom.js" charset="utf-8"></script>\u000a<script src="scripts/controllers/select/typeAhead.js" charset="utf-8"></script>\u000a<script src="scripts/controllers/select/select2.js" charset="utf-8"></script>\u000a<script src="scripts/controllers/table.js" charset="utf-8"></script>\u000a<script src="scripts/controllers/table/basic.js" charset="utf-8"></script>\u000a<script src="scripts/controllers/table/local.js" charset="utf-8"></script>\u000a<script src="scripts/controllers/table/remote.js" charset="utf-8"></script>\u000a<script src="scripts/controllers/table/frozen.js" charset="utf-8"></script>\u000a<script src="scripts/controllers/table/virtual.js" charset="utf-8"></script>\u000a<script src="scripts/controllers/table/summary.js" charset="utf-8"></script>\u000a<script src="scripts/controllers/table/tree.js" charset="utf-8"></script>\u000a<script src="scripts/controllers/table/grouping.js" charset="utf-8"></script>\u000a<script src="scripts/controllers/table/expanding.js" charset="utf-8"></script>\u000a<script src="scripts/controllers/table/cascade.js" charset="utf-8"></script>\u000a<script src="scripts/controllers/tree.js" charset="utf-8"></script>\u000a<script src="scripts/controllers/tree/basic.js" charset="utf-8"></script>\u000a<script src="scripts/controllers/tree/checkbox.js" charset="utf-8"></script>\u000a<script src="scripts/controllers/tree/treeData.js" charset="utf-8"></script>\u000a<script src="scripts/controllers/tree/uiTree.js" charset="utf-8"></script>\u000a<script src="scripts/controllers/integrated.js" charset="utf-8"></script>\u000a<script src="scripts/controllers/integrated/cart.js" charset="utf-8"></script>\u000a<script src="scripts/controllers/form.js" charset="utf-8"></script>\u000a<script src="scripts/controllers/form/basic.js" charset="utf-8"></script>\u000a<script src="scripts/controllers/form/remoteValidation.js" charset="utf-8"></script>\u000a<script src="scripts/controllers/form/customValidation.js" charset="utf-8"></script>\u000a<script src="scripts/controllers/form/dependency.js" charset="utf-8"></script>\u000a<script src="scripts/controllers/stat.js" charset="utf-8"></script>\u000a<script src="scripts/controllers/stat/cube.js" charset="utf-8"></script>\u000a<script src="scripts/controllers/stat/chart.js" charset="utf-8"></script>\u000a<script src="scripts/controllers/stat/easypiechart.js" charset="utf-8"></script>\u000a<script src="scripts/controllers/animation.js" charset="utf-8"></script>\u000a<script src="scripts/controllers/animation/basic.js" charset="utf-8"></script>\u000a<script src="scripts/controllers/animation/custom.js" charset="utf-8"></script>\u000a<script src="scripts/controllers/utils.js" charset="utf-8"></script>\u000a<script src="scripts/controllers/utils/modal.js" charset="utf-8"></script>\u000a<script src="scripts/controllers/utils/dragAndDrop.js" charset="utf-8"></script>\u000a<script src="scripts/controllers/utils/portal.js" charset="utf-8"></script>\u000a<script src="scripts/controllers/utils/zoom.js" charset="utf-8"></script>\u000a\u000a<script src="scripts/controllers/thirdparty.js"></script>\u000a<script src="scripts/controllers/thirdparty/baiduueditor.js"></script>\u000a<!-- endbuild -->\u000a</body>\u000a</html>\u000a
p3
a.