(lp0
S'https://leohxj.gitbooks.io/front-end-database/content/html-and-css-basic/semantic-html.html'
p1
aS'HTML\xe8\xaf\xad\xe4\xb9\x89\xe5\x8c\x96 | \xe5\x89\x8d\xe7\xab\xaf\xe5\xb7\xa5\xe7\xa8\x8b\xe5\xb8\x88\xe6\x89\x8b\xe5\x86\x8c'
p2
aI0
aV<!DOCTYPE HTML>\u000a<html lang="zh-tw" >\u000a    \u000a    <head>\u000a        \u000a        <meta charset="UTF-8">\u000a        <meta http-equiv="X-UA-Compatible" content="IE=edge" />\u000a        <title>HTML\u8bed\u4e49\u5316 | \u524d\u7aef\u5de5\u7a0b\u5e08\u624b\u518c</title>\u000a        <meta content="text/html; charset=utf-8" http-equiv="Content-Type">\u000a        <meta name="description" content="">\u000a        <meta name="generator" content="GitBook 2.1.0">\u000a        <meta name="author" content="Leo Hui">\u000a        \u000a        <meta name="HandheldFriendly" content="true"/>\u000a        <meta name="viewport" content="width=device-width, initial-scale=1, user-scalable=no">\u000a        <meta name="apple-mobile-web-app-capable" content="yes">\u000a        <meta name="apple-mobile-web-app-status-bar-style" content="black">\u000a        <link rel="apple-touch-icon-precomposed" sizes="152x152" href="../gitbook/images/apple-touch-icon-precomposed-152.png">\u000a        <link rel="shortcut icon" href="../gitbook/images/favicon.ico" type="image/x-icon">\u000a        \u000a    <link rel="stylesheet" href="../gitbook/style.css">\u000a    \u000a    \u000a\u000a        \u000a    \u000a    \u000a    <link rel="next" href="../html-and-css-basic/doctype-and-brower-render.html" />\u000a    \u000a    \u000a    <link rel="prev" href="../html-and-css-basic/common-tag.html" />\u000a    \u000a\u000a        \u000a    </head>\u000a    <body>\u000a        \u000a        \u000a    <div class="book" data-level="1.2" data-basepath=".." data-revision="Sat Jul 18 2015 06:35:05 GMT+0000 (UTC)">\u000a    \u000a\u000a<div class="book-summary">\u000a    <div class="book-search">\u000a        <input type="text" placeholder="\u8f38\u5165\u4e26\u641c\u5c0b" class="form-control" />\u000a    </div>\u000a    <ul class="summary">\u000a        \u000a        \u000a        \u000a            \u000a            <li>\u000a                <a href="https://www.gitbook.com/book/leohxj/front-end-database" target="blank" class="custom-link">\u524d\u7aef\u5de5\u7a0b\u5e08\u624b\u518c</a>\u000a            </li>\u000a        \u000a        \u000a\u000a        \u000a        <li class="divider"></li>\u000a        \u000a\u000a        \u000a    \u000a        <li class="chapter " data-level="0" data-path="index.html">\u000a            \u000a                \u000a                    <a href="../index.html">\u000a                        <i class="fa fa-check"></i>\u000a                        \u000a                        \u4ecb\u7d39\u000a                    </a>\u000a                \u000a            \u000a            \u000a        </li>\u000a    \u000a        <li class="chapter " data-level="1" data-path="html-and-css-basic/index.html">\u000a            \u000a                \u000a                    <a href="../html-and-css-basic/index.html">\u000a                        <i class="fa fa-check"></i>\u000a                        \u000a                            <b>1.</b>\u000a                        \u000a                        HTML/CSS\u57fa\u7840\u000a                    </a>\u000a                \u000a            \u000a            \u000a            <ul class="articles">\u000a                \u000a    \u000a        <li class="chapter " data-level="1.1" data-path="html-and-css-basic/common-tag.html">\u000a            \u000a                \u000a                    <a href="../html-and-css-basic/common-tag.html">\u000a                        <i class="fa fa-check"></i>\u000a                        \u000a                            <b>1.1.</b>\u000a                        \u000a                        HTML\u5e38\u7528\u6807\u7b7e\u000a                    </a>\u000a                \u000a            \u000a            \u000a        </li>\u000a    \u000a        <li class="chapter active" data-level="1.2" data-path="html-and-css-basic/semantic-html.html">\u000a            \u000a                \u000a                    <a href="../html-and-css-basic/semantic-html.html">\u000a                        <i class="fa fa-check"></i>\u000a                        \u000a                            <b>1.2.</b>\u000a                        \u000a                        HTML\u8bed\u4e49\u5316\u000a                    </a>\u000a                \u000a            \u000a            \u000a        </li>\u000a    \u000a        <li class="chapter " data-level="1.3" data-path="html-and-css-basic/doctype-and-brower-render.html">\u000a            \u000a                \u000a                    <a href="../html-and-css-basic/doctype-and-brower-render.html">\u000a                        <i class="fa fa-check"></i>\u000a                        \u000a                            <b>1.3.</b>\u000a                        \u000a                        DOCTYPE\u548c\u6d4f\u89c8\u5668\u6e32\u67d3\u6a21\u5f0f\u000a                    </a>\u000a                \u000a            \u000a            \u000a        </li>\u000a    \u000a        <li class="chapter " data-level="1.4" data-path="html-and-css-basic/learn-dom-tree.html">\u000a            \u000a                \u000a                    <a href="../html-and-css-basic/learn-dom-tree.html">\u000a                        <i class="fa fa-check"></i>\u000a                        \u000a                            <b>1.4.</b>\u000a                        \u000a                        \u7406\u89e3DOM\u7ed3\u6784\u000a                    </a>\u000a                \u000a            \u000a            \u000a        </li>\u000a    \u000a        <li class="chapter " data-level="1.5" data-path="html-and-css-basic/what-is-html5.html">\u000a            \u000a                \u000a                    <a href="../html-and-css-basic/what-is-html5.html">\u000a                        <i class="fa fa-check"></i>\u000a                        \u000a                            <b>1.5.</b>\u000a                        \u000a                        HTML5\u65b0\u589e\u5185\u5bb9\u000a                    </a>\u000a                \u000a            \u000a            \u000a        </li>\u000a    \u000a        <li class="chapter " data-level="1.6" data-path="html-and-css-basic/common-use-css-property.html">\u000a            \u000a                \u000a                    <a href="../html-and-css-basic/common-use-css-property.html">\u000a                        <i class="fa fa-check"></i>\u000a                        \u000a                            <b>1.6.</b>\u000a                        \u000a                        \u5e38\u7528CSS\u5c5e\u6027\u000a                    </a>\u000a                \u000a            \u000a            \u000a        </li>\u000a    \u000a        <li class="chapter " data-level="1.7" data-path="html-and-css-basic/box-module.html">\u000a            \u000a                \u000a                    <a href="../html-and-css-basic/box-module.html">\u000a                        <i class="fa fa-check"></i>\u000a                        \u000a                            <b>1.7.</b>\u000a                        \u000a                        \u76d2\u6a21\u578b\u000a                    </a>\u000a                \u000a            \u000a            \u000a        </li>\u000a    \u000a        <li class="chapter " data-level="1.8" data-path="html-and-css-basic/css-normal-flow.html">\u000a            \u000a                \u000a                    <a href="../html-and-css-basic/css-normal-flow.html">\u000a                        <i class="fa fa-check"></i>\u000a                        \u000a                            <b>1.8.</b>\u000a                        \u000a                        CSS\u666e\u901a\u6d41\uff08\u6587\u6863\u6d41\uff09\u000a                    </a>\u000a                \u000a            \u000a            \u000a        </li>\u000a    \u000a        <li class="chapter " data-level="1.9" data-path="html-and-css-basic/css-position.html">\u000a            \u000a                \u000a                    <a href="../html-and-css-basic/css-position.html">\u000a                        <i class="fa fa-check"></i>\u000a                        \u000a                            <b>1.9.</b>\u000a                        \u000a                        CSS\u5b9a\u4f4d\u65b9\u5f0f\u000a                    </a>\u000a                \u000a            \u000a            \u000a        </li>\u000a    \u000a        <li class="chapter " data-level="1.10" data-path="html-and-css-basic/css-float.html">\u000a            \u000a                \u000a                    <a href="../html-and-css-basic/css-float.html">\u000a                        <i class="fa fa-check"></i>\u000a                        \u000a                            <b>1.10.</b>\u000a                        \u000a                        CSS\u6d6e\u52a8\u76f8\u5173\u000a                    </a>\u000a                \u000a            \u000a            \u000a        </li>\u000a    \u000a        <li class="chapter " data-level="1.11" data-path="html-and-css-basic/css-selector.html">\u000a            \u000a                \u000a                    <a href="../html-and-css-basic/css-selector.html">\u000a                        <i class="fa fa-check"></i>\u000a                        \u000a                            <b>1.11.</b>\u000a                        \u000a                        CSS\u9009\u62e9\u5668\u000a                    </a>\u000a                \u000a            \u000a            \u000a        </li>\u000a    \u000a        <li class="chapter " data-level="1.12" data-path="html-and-css-basic/css-layout.html">\u000a            \u000a                \u000a                    <a href="../html-and-css-basic/css-layout.html">\u000a                        <i class="fa fa-check"></i>\u000a                        \u000a                            <b>1.12.</b>\u000a                        \u000a                        CSS\u5e38\u89c1\u5e03\u5c40\u000a                    </a>\u000a                \u000a            \u000a            \u000a        </li>\u000a    \u000a        <li class="chapter " data-level="1.13" data-path="html-and-css-basic/css-write-and-name.html">\u000a            \u000a                \u000a                    <a href="../html-and-css-basic/css-write-and-name.html">\u000a                        <i class="fa fa-check"></i>\u000a                        \u000a                            <b>1.13.</b>\u000a                        \u000a                        CSS\u4e66\u5199\u4e0e\u547d\u540d\u000a                    </a>\u000a                \u000a            \u000a            \u000a        </li>\u000a    \u000a        <li class="chapter " data-level="1.14" data-path="html-and-css-basic/css3-news.html">\u000a            \u000a                \u000a                    <a href="../html-and-css-basic/css3-news.html">\u000a                        <i class="fa fa-check"></i>\u000a                        \u000a                            <b>1.14.</b>\u000a                        \u000a                        CSS3\u65b0\u589e\u7279\u6027\u000a                    </a>\u000a                \u000a            \u000a            \u000a        </li>\u000a    \u000a        <li class="chapter " data-level="1.15" data-path="html-and-css-basic/meta.html">\u000a            \u000a                \u000a                    <a href="../html-and-css-basic/meta.html">\u000a                        <i class="fa fa-check"></i>\u000a                        \u000a                            <b>1.15.</b>\u000a                        \u000a                        \u5e38\u7528meta\u6574\u7406\u000a                    </a>\u000a                \u000a            \u000a            \u000a        </li>\u000a    \u000a        <li class="chapter " data-level="1.16" data-path="html-and-css-basic/meta-viewport.html">\u000a            \u000a                \u000a                    <a href="../html-and-css-basic/meta-viewport.html">\u000a                        <i class="fa fa-check"></i>\u000a                        \u000a                            <b>1.16.</b>\u000a                        \u000a                        \u4ec0\u4e48\u662fViewport\u000a                    </a>\u000a                \u000a            \u000a            \u000a        </li>\u000a    \u000a\u000a            </ul>\u000a            \u000a        </li>\u000a    \u000a        <li class="chapter " data-level="2" data-path="html-and-css-advance/index.html">\u000a            \u000a                \u000a                    <a href="../html-and-css-advance/index.html">\u000a                        <i class="fa fa-check"></i>\u000a                        \u000a                            <b>2.</b>\u000a                        \u000a                        HTML/CSS\u8fdb\u9636\u000a                    </a>\u000a                \u000a            \u000a            \u000a            <ul class="articles">\u000a                \u000a    \u000a        <li class="chapter " data-level="2.1" data-path="html-and-css-advance/custom-fonts.html">\u000a            \u000a                \u000a                    <a href="../html-and-css-advance/custom-fonts.html">\u000a                        <i class="fa fa-check"></i>\u000a                        \u000a                            <b>2.1.</b>\u000a                        \u000a                        \u81ea\u5b9a\u4e49\u5b57\u4f53\u000a                    </a>\u000a                \u000a            \u000a            \u000a        </li>\u000a    \u000a        <li class="chapter " data-level="2.2" data-path="html-and-css-advance/css-baseline.html">\u000a            \u000a                \u000a                    <a href="../html-and-css-advance/css-baseline.html">\u000a                        <i class="fa fa-check"></i>\u000a                        \u000a                            <b>2.2.</b>\u000a                        \u000a                        CSS\u57fa\u7ebf\u000a                    </a>\u000a                \u000a            \u000a            \u000a        </li>\u000a    \u000a        <li class="chapter " data-level="2.3" data-path="html-and-css-advance/css-animations.html">\u000a            \u000a                \u000a                    <a href="../html-and-css-advance/css-animations.html">\u000a                        <i class="fa fa-check"></i>\u000a                        \u000a                            <b>2.3.</b>\u000a                        \u000a                        CSS\u52a8\u753b\u000a                    </a>\u000a                \u000a            \u000a            \u000a        </li>\u000a    \u000a        <li class="chapter " data-level="2.4" data-path="html-and-css-advance/ui-framework.html">\u000a            \u000a                \u000a                    <a href="../html-and-css-advance/ui-framework.html">\u000a                        <i class="fa fa-check"></i>\u000a                        \u000a                            <b>2.4.</b>\u000a                        \u000a                        \u524d\u7aefUI\u6846\u67b6\u000a                    </a>\u000a                \u000a            \u000a            \u000a        </li>\u000a    \u000a        <li class="chapter " data-level="2.5" data-path="html-and-css-advance/framework-bootstrap.html">\u000a            \u000a                \u000a                    <a href="../html-and-css-advance/framework-bootstrap.html">\u000a                        <i class="fa fa-check"></i>\u000a                        \u000a                            <b>2.5.</b>\u000a                        \u000a                        Bootstrap\u5b66\u4e60\u6307\u5357\u000a                    </a>\u000a                \u000a            \u000a            \u000a        </li>\u000a    \u000a\u000a            </ul>\u000a            \u000a        </li>\u000a    \u000a        <li class="chapter " data-level="3" data-path="javascript-basic/index.html">\u000a            \u000a                \u000a                    <a href="../javascript-basic/index.html">\u000a                        <i class="fa fa-check"></i>\u000a                        \u000a                            <b>3.</b>\u000a                        \u000a                        JavaScript\u57fa\u7840\u000a                    </a>\u000a                \u000a            \u000a            \u000a            <ul class="articles">\u000a                \u000a    \u000a        <li class="chapter " data-level="3.1" data-path="javascript-basic/scoping-and-hoisting.html">\u000a            \u000a                \u000a                    <a href="../javascript-basic/scoping-and-hoisting.html">\u000a                        <i class="fa fa-check"></i>\u000a                        \u000a                            <b>3.1.</b>\u000a                        \u000a                        \u4f5c\u7528\u57df\u95ee\u9898\u000a                    </a>\u000a                \u000a            \u000a            \u000a        </li>\u000a    \u000a        <li class="chapter " data-level="3.2" data-path="javascript-basic/operate-priority.html">\u000a            \u000a                \u000a                    <a href="../javascript-basic/operate-priority.html">\u000a                        <i class="fa fa-check"></i>\u000a                        \u000a                            <b>3.2.</b>\u000a                        \u000a                        \u8fd0\u7b97\u7b26\u7684\u4f18\u5148\u7ea7\u000a                    </a>\u000a                \u000a            \u000a            \u000a        </li>\u000a    \u000a        <li class="chapter " data-level="3.3" data-path="javascript-basic/variable-object.html">\u000a            \u000a                \u000a                    <a href="../javascript-basic/variable-object.html">\u000a                        <i class="fa fa-check"></i>\u000a                        \u000a                            <b>3.3.</b>\u000a                        \u000a                        \u53d8\u91cf\u5bf9\u8c61\u000a                    </a>\u000a                \u000a            \u000a            \u000a        </li>\u000a    \u000a        <li class="chapter " data-level="3.4" data-path="javascript-basic/difference-between-undefined-and-null.html">\u000a            \u000a                \u000a                    <a href="../javascript-basic/difference-between-undefined-and-null.html">\u000a                        <i class="fa fa-check"></i>\u000a                        \u000a                            <b>3.4.</b>\u000a                        \u000a                        undefined\u4e0enull\u7684\u533a\u522b\u000a                    </a>\u000a                \u000a            \u000a            \u000a        </li>\u000a    \u000a        <li class="chapter " data-level="3.5" data-path="javascript-basic/build-in-and-native-object.html">\u000a            \u000a                \u000a                    <a href="../javascript-basic/build-in-and-native-object.html">\u000a                        <i class="fa fa-check"></i>\u000a                        \u000a                            <b>3.5.</b>\u000a                        \u000a                        \u5185\u7f6e\u5bf9\u8c61\u4e0e\u539f\u751f\u5bf9\u8c61\u000a                    </a>\u000a                \u000a            \u000a            \u000a        </li>\u000a    \u000a        <li class="chapter " data-level="3.6" data-path="javascript-basic/function.html">\u000a            \u000a                \u000a                    <a href="../javascript-basic/function.html">\u000a                        <i class="fa fa-check"></i>\u000a                        \u000a                            <b>3.6.</b>\u000a                        \u000a                        \u5173\u4e8e\u51fd\u6570\u000a                    </a>\u000a                \u000a            \u000a            \u000a        </li>\u000a    \u000a        <li class="chapter " data-level="3.7" data-path="javascript-basic/immediately-invoked-function-expression.html">\u000a            \u000a                \u000a                    <a href="../javascript-basic/immediately-invoked-function-expression.html">\u000a                        <i class="fa fa-check"></i>\u000a                        \u000a                            <b>3.7.</b>\u000a                        \u000a                        \u7acb\u5373\u6267\u884c\u51fd\u6570\u000a                    </a>\u000a                \u000a            \u000a            \u000a        </li>\u000a    \u000a        <li class="chapter " data-level="3.8" data-path="javascript-basic/closure.html">\u000a            \u000a                \u000a                    <a href="../javascript-basic/closure.html">\u000a                        <i class="fa fa-check"></i>\u000a                        \u000a                            <b>3.8.</b>\u000a                        \u000a                        \u95ed\u5305\u000a                    </a>\u000a                \u000a            \u000a            \u000a        </li>\u000a    \u000a        <li class="chapter " data-level="3.9" data-path="javascript-basic/events.html">\u000a            \u000a                \u000a                    <a href="../javascript-basic/events.html">\u000a                        <i class="fa fa-check"></i>\u000a                        \u000a                            <b>3.9.</b>\u000a                        \u000a                        \u4e8b\u4ef6\u673a\u5236\u000a                    </a>\u000a                \u000a            \u000a            \u000a        </li>\u000a    \u000a        <li class="chapter " data-level="3.10" data-path="javascript-basic/prototypal-inheritance.html">\u000a            \u000a                \u000a                    <a href="../javascript-basic/prototypal-inheritance.html">\u000a                        <i class="fa fa-check"></i>\u000a                        \u000a                            <b>3.10.</b>\u000a                        \u000a                        \u539f\u578b\u7ee7\u627f\u000a                    </a>\u000a                \u000a            \u000a            \u000a        </li>\u000a    \u000a        <li class="chapter " data-level="3.11" data-path="javascript-basic/all-this.html">\u000a            \u000a                \u000a                    <a href="../javascript-basic/all-this.html">\u000a                        <i class="fa fa-check"></i>\u000a                        \u000a                            <b>3.11.</b>\u000a                        \u000a                        \u8be6\u89e3this\u000a                    </a>\u000a                \u000a            \u000a            \u000a        </li>\u000a    \u000a        <li class="chapter " data-level="3.12" data-path="javascript-basic/everthing-is-object.html">\u000a            \u000a                \u000a                    <a href="../javascript-basic/everthing-is-object.html">\u000a                        <i class="fa fa-check"></i>\u000a                        \u000a                            <b>3.12.</b>\u000a                        \u000a                        \u5728JavaScript\u4e2d\u4e00\u5207\u90fd\u662f\u5bf9\u8c61\u5417\uff1f\u000a                    </a>\u000a                \u000a            \u000a            \u000a        </li>\u000a    \u000a        <li class="chapter " data-level="3.13" data-path="javascript-basic/deal-with-dom.html">\u000a            \u000a                \u000a                    <a href="../javascript-basic/deal-with-dom.html">\u000a                        <i class="fa fa-check"></i>\u000a                        \u000a                            <b>3.13.</b>\u000a                        \u000a                        DOM\u64cd\u4f5c\u000a                    </a>\u000a                \u000a            \u000a            \u000a        </li>\u000a    \u000a        <li class="chapter " data-level="3.14" data-path="javascript-basic/json.html">\u000a            \u000a                \u000a                    <a href="../javascript-basic/json.html">\u000a                        <i class="fa fa-check"></i>\u000a                        \u000a                            <b>3.14.</b>\u000a                        \u000a                        JSON\u5bf9\u8c61\u000a                    </a>\u000a                \u000a            \u000a            \u000a        </li>\u000a    \u000a\u000a            </ul>\u000a            \u000a        </li>\u000a    \u000a        <li class="chapter " data-level="4" data-path="javascript-advance/index.html">\u000a            \u000a                \u000a                    <a href="../javascript-advance/index.html">\u000a                        <i class="fa fa-check"></i>\u000a                        \u000a                            <b>4.</b>\u000a                        \u000a                        JavaScript\u8fdb\u9636\u000a                    </a>\u000a                \u000a            \u000a            \u000a            <ul class="articles">\u000a                \u000a    \u000a        <li class="chapter " data-level="4.1" data-path="javascript-advance/scope-chain.html">\u000a            \u000a                \u000a                    <a href="../javascript-advance/scope-chain.html">\u000a                        <i class="fa fa-check"></i>\u000a                        \u000a                            <b>4.1.</b>\u000a                        \u000a                        \u7406\u89e3\u4f5c\u7528\u57df\u94fe\u000a                    </a>\u000a                \u000a            \u000a            \u000a        </li>\u000a    \u000a        <li class="chapter " data-level="4.2" data-path="javascript-advance/callback.html">\u000a            \u000a                \u000a                    <a href="../javascript-advance/callback.html">\u000a                        <i class="fa fa-check"></i>\u000a                        \u000a                            <b>4.2.</b>\u000a                        \u000a                        Callback\u95ee\u9898\u000a                    </a>\u000a                \u000a            \u000a            \u000a        </li>\u000a    \u000a        <li class="chapter " data-level="4.3" data-path="javascript-advance/promise.html">\u000a            \u000a                \u000a                    <a href="../javascript-advance/promise.html">\u000a                        <i class="fa fa-check"></i>\u000a                        \u000a                            <b>4.3.</b>\u000a                        \u000a                        Promise\u000a                    </a>\u000a                \u000a            \u000a            \u000a        </li>\u000a    \u000a        <li class="chapter " data-level="4.4" data-path="javascript-advance/template-engine.html">\u000a            \u000a                \u000a                    <a href="../javascript-advance/template-engine.html">\u000a                        <i class="fa fa-check"></i>\u000a                        \u000a                            <b>4.4.</b>\u000a                        \u000a                        \u6a21\u677f\u5f15\u64ce\u000a                    </a>\u000a                \u000a            \u000a            \u000a        </li>\u000a    \u000a        <li class="chapter " data-level="4.5" data-path="javascript-advance/underscore.html">\u000a            \u000a                \u000a                    <a href="../javascript-advance/underscore.html">\u000a                        <i class="fa fa-check"></i>\u000a                        \u000a                            <b>4.5.</b>\u000a                        \u000a                        Underscore\u000a                    </a>\u000a                \u000a            \u000a            \u000a        </li>\u000a    \u000a        <li class="chapter " data-level="4.6" data-path="javascript-advance/es6.html">\u000a            \u000a                \u000a                    <a href="../javascript-advance/es6.html">\u000a                        <i class="fa fa-check"></i>\u000a                        \u000a                            <b>4.6.</b>\u000a                        \u000a                        ES6\u000a                    </a>\u000a                \u000a            \u000a            \u000a        </li>\u000a    \u000a        <li class="chapter " data-level="4.7" data-path="javascript-advance/base64-code-and-decode.html">\u000a            \u000a                \u000a                    <a href="../javascript-advance/base64-code-and-decode.html">\u000a                        <i class="fa fa-check"></i>\u000a                        \u000a                            <b>4.7.</b>\u000a                        \u000a                        Base64\u7f16\u7801\u4e0e\u89e3\u7801\u000a                    </a>\u000a                \u000a            \u000a            \u000a        </li>\u000a    \u000a\u000a            </ul>\u000a            \u000a        </li>\u000a    \u000a        <li class="chapter " data-level="5" data-path="javascript-oop/index.html">\u000a            \u000a                \u000a                    <a href="../javascript-oop/index.html">\u000a                        <i class="fa fa-check"></i>\u000a                        \u000a                            <b>5.</b>\u000a                        \u000a                        JavaScript\u9762\u5411\u5bf9\u8c61\u000a                    </a>\u000a                \u000a            \u000a            \u000a            <ul class="articles">\u000a                \u000a    \u000a        <li class="chapter " data-level="5.1" data-path="javascript-oop/encapsulation.html">\u000a            \u000a                \u000a                    <a href="../javascript-oop/encapsulation.html">\u000a                        <i class="fa fa-check"></i>\u000a                        \u000a                            <b>5.1.</b>\u000a                        \u000a                        \u5c01\u88c5\u000a                    </a>\u000a                \u000a            \u000a            \u000a        </li>\u000a    \u000a        <li class="chapter " data-level="5.2" data-path="javascript-oop/inheritance.html">\u000a            \u000a                \u000a                    <a href="../javascript-oop/inheritance.html">\u000a                        <i class="fa fa-check"></i>\u000a                        \u000a                            <b>5.2.</b>\u000a                        \u000a                        \u7ee7\u627f\u000a                    </a>\u000a                \u000a            \u000a            \u000a        </li>\u000a    \u000a\u000a            </ul>\u000a            \u000a        </li>\u000a    \u000a        <li class="chapter " data-level="6" data-path="javascript-design-pattern/index.html">\u000a            \u000a                \u000a                    <a href="../javascript-design-pattern/index.html">\u000a                        <i class="fa fa-check"></i>\u000a                        \u000a                            <b>6.</b>\u000a                        \u000a                        JavaScript\u8bbe\u8ba1\u6a21\u5f0f\u000a                    </a>\u000a                \u000a            \u000a            \u000a            <ul class="articles">\u000a                \u000a    \u000a        <li class="chapter " data-level="6.1" data-path="javascript-design-pattern/singleton.html">\u000a            \u000a                \u000a                    <a href="../javascript-design-pattern/singleton.html">\u000a                        <i class="fa fa-check"></i>\u000a                        \u000a                            <b>6.1.</b>\u000a                        \u000a                        \u5355\u4f8b\u6a21\u5f0f: Singleton\u000a                    </a>\u000a                \u000a            \u000a            \u000a        </li>\u000a    \u000a\u000a            </ul>\u000a            \u000a        </li>\u000a    \u000a        <li class="chapter " data-level="7" data-path="javascript-library/index.html">\u000a            \u000a                \u000a                    <a href="../javascript-library/index.html">\u000a                        <i class="fa fa-check"></i>\u000a                        \u000a                            <b>7.</b>\u000a                        \u000a                        \u7f16\u5199JavaScript\u6846\u67b6\u000a                    </a>\u000a                \u000a            \u000a            \u000a            <ul class="articles">\u000a                \u000a    \u000a        <li class="chapter " data-level="7.1" data-path="javascript-library/library-framework.html">\u000a            \u000a                \u000a                    <a href="../javascript-library/library-framework.html">\u000a                        <i class="fa fa-check"></i>\u000a                        \u000a                            <b>7.1.</b>\u000a                        \u000a                        \u6846\u67b6\u7ed3\u6784\u000a                    </a>\u000a                \u000a            \u000a            \u000a        </li>\u000a    \u000a\u000a            </ul>\u000a            \u000a        </li>\u000a    \u000a        <li class="chapter " data-level="8" data-path="javascript-modules/index.html">\u000a            \u000a                \u000a                    <a href="../javascript-modules/index.html">\u000a                        <i class="fa fa-check"></i>\u000a                        \u000a                            <b>8.</b>\u000a                        \u000a                        JavaScript\u6a21\u5757\u7ba1\u7406\u000a                    </a>\u000a                \u000a            \u000a            \u000a            <ul class="articles">\u000a                \u000a    \u000a        <li class="chapter " data-level="8.1" data-path="javascript-modules/modules-intro.html">\u000a            \u000a                \u000a                    <a href="../javascript-modules/modules-intro.html">\u000a                        <i class="fa fa-check"></i>\u000a                        \u000a                            <b>8.1.</b>\u000a                        \u000a                        \u6a21\u5757\u5316\u7b80\u4ecb\u000a                    </a>\u000a                \u000a            \u000a            \u000a        </li>\u000a    \u000a        <li class="chapter " data-level="8.2" data-path="javascript-modules/modules-tools-compare.html">\u000a            \u000a                \u000a                    <a href="../javascript-modules/modules-tools-compare.html">\u000a                        <i class="fa fa-check"></i>\u000a                        \u000a                            <b>8.2.</b>\u000a                        \u000a                        \u6a21\u5757\u4f9d\u8d56\u7ba1\u7406\u5de5\u5177\u5bf9\u6bd4\u000a                    </a>\u000a                \u000a            \u000a            \u000a        </li>\u000a    \u000a        <li class="chapter " data-level="8.3" data-path="javascript-modules/about-amd.html">\u000a            \u000a                \u000a                    <a href="../javascript-modules/about-amd.html">\u000a                        <i class="fa fa-check"></i>\u000a                        \u000a                            <b>8.3.</b>\u000a                        \u000a                        AMD\u000a                    </a>\u000a                \u000a            \u000a            \u000a        </li>\u000a    \u000a        <li class="chapter " data-level="8.4" data-path="javascript-modules/about-umd.html">\u000a            \u000a                \u000a                    <a href="../javascript-modules/about-umd.html">\u000a                        <i class="fa fa-check"></i>\u000a                        \u000a                            <b>8.4.</b>\u000a                        \u000a                        UMD\u000a                    </a>\u000a                \u000a            \u000a            \u000a        </li>\u000a    \u000a        <li class="chapter " data-level="8.5" data-path="javascript-modules/requirejs/index.html">\u000a            \u000a                \u000a                    <a href="../javascript-modules/requirejs/index.html">\u000a                        <i class="fa fa-check"></i>\u000a                        \u000a                            <b>8.5.</b>\u000a                        \u000a                        requireJS\u000a                    </a>\u000a                \u000a            \u000a            \u000a            <ul class="articles">\u000a                \u000a    \u000a        <li class="chapter " data-level="8.5.1" data-path="javascript-modules/requirejs/requirejs-intro.html">\u000a            \u000a                \u000a                    <a href="../javascript-modules/requirejs/requirejs-intro.html">\u000a                        <i class="fa fa-check"></i>\u000a                        \u000a                            <b>8.5.1.</b>\u000a                        \u000a                        \u5165\u95e8\u4f7f\u7528\u000a                    </a>\u000a                \u000a            \u000a            \u000a        </li>\u000a    \u000a        <li class="chapter " data-level="8.5.2" data-path="javascript-modules/requirejs/requirejs-optimizer.html">\u000a            \u000a                \u000a                    <a href="../javascript-modules/requirejs/requirejs-optimizer.html">\u000a                        <i class="fa fa-check"></i>\u000a                        \u000a                            <b>8.5.2.</b>\u000a                        \u000a                        \u538b\u7f29\u4f18\u5316\u000a                    </a>\u000a                \u000a            \u000a            \u000a        </li>\u000a    \u000a\u000a            </ul>\u000a            \u000a        </li>\u000a    \u000a\u000a            </ul>\u000a            \u000a        </li>\u000a    \u000a        <li class="chapter " data-level="9" data-path="javascript-data-struct/index.html">\u000a            \u000a                \u000a                    <a href="../javascript-data-struct/index.html">\u000a                        <i class="fa fa-check"></i>\u000a                        \u000a                            <b>9.</b>\u000a                        \u000a                        JavaScript\u6570\u636e\u7ed3\u6784\u000a                    </a>\u000a                \u000a            \u000a            \u000a            <ul class="articles">\u000a                \u000a    \u000a        <li class="chapter " data-level="9.1" data-path="javascript-data-struct/type.html">\u000a            \u000a                \u000a                    <a href="../javascript-data-struct/type.html">\u000a                        <i class="fa fa-check"></i>\u000a                        \u000a                            <b>9.1.</b>\u000a                        \u000a                        \u6570\u636e\u7c7b\u578b\u000a                    </a>\u000a                \u000a            \u000a            \u000a        </li>\u000a    \u000a\u000a            </ul>\u000a            \u000a        </li>\u000a    \u000a        <li class="chapter " data-level="10" data-path="javascript-asynchronous/index.html">\u000a            \u000a                \u000a                    <a href="../javascript-asynchronous/index.html">\u000a                        <i class="fa fa-check"></i>\u000a                        \u000a                            <b>10.</b>\u000a                        \u000a                        JavaScript\u5f02\u6b65\u7f16\u7a0b\u000a                    </a>\u000a                \u000a            \u000a            \u000a            <ul class="articles">\u000a                \u000a    \u000a        <li class="chapter " data-level="10.1" data-path="javascript-asynchronous/Asynchronous-Programming-Model.html">\u000a            \u000a                \u000a                    <a href="../javascript-asynchronous/Asynchronous-Programming-Model.html">\u000a                        <i class="fa fa-check"></i>\u000a                        \u000a                            <b>10.1.</b>\u000a                        \u000a                        \u5e38\u89c1\u7684\u5f02\u6b65\u6a21\u5f0f\u000a                    </a>\u000a                \u000a            \u000a            \u000a        </li>\u000a    \u000a        <li class="chapter " data-level="10.2" data-path="javascript-asynchronous/what-is-promise.html">\u000a            \u000a                \u000a                    <a href="../javascript-asynchronous/what-is-promise.html">\u000a                        <i class="fa fa-check"></i>\u000a                        \u000a                            <b>10.2.</b>\u000a                        \u000a                        \u4ec0\u4e48\u662fPromise\u000a                    </a>\u000a                \u000a            \u000a            \u000a        </li>\u000a    \u000a        <li class="chapter " data-level="10.3" data-path="javascript-asynchronous/promise-standard.html">\u000a            \u000a                \u000a                    <a href="../javascript-asynchronous/promise-standard.html">\u000a                        <i class="fa fa-check"></i>\u000a                        \u000a                            <b>10.3.</b>\u000a                        \u000a                        Promise\u89c4\u8303\u000a                    </a>\u000a                \u000a            \u000a            \u000a        </li>\u000a    \u000a        <li class="chapter " data-level="10.4" data-path="javascript-asynchronous/use-promise.html">\u000a            \u000a                \u000a                    <a href="../javascript-asynchronous/use-promise.html">\u000a                        <i class="fa fa-check"></i>\u000a                        \u000a                            <b>10.4.</b>\u000a                        \u000a                        Promise\u5b9e\u6218\u000a                    </a>\u000a                \u000a            \u000a            \u000a        </li>\u000a    \u000a        <li class="chapter " data-level="10.5" data-path="javascript-asynchronous/use-async.html">\u000a            \u000a                \u000a                    <a href="../javascript-asynchronous/use-async.html">\u000a                        <i class="fa fa-check"></i>\u000a                        \u000a                            <b>10.5.</b>\u000a                        \u000a                        Async\u63a7\u5236\u5f02\u6b65\u6d41\u7a0b\u000a                    </a>\u000a                \u000a            \u000a            \u000a        </li>\u000a    \u000a        <li class="chapter " data-level="10.6" data-path="javascript-asynchronous/use-eventproxy.html">\u000a            \u000a                \u000a                    <a href="../javascript-asynchronous/use-eventproxy.html">\u000a                        <i class="fa fa-check"></i>\u000a                        \u000a                            <b>10.6.</b>\u000a                        \u000a                        EventProxy\u63a7\u5236\u5f02\u6b65\u6d41\u7a0b\u000a                    </a>\u000a                \u000a            \u000a            \u000a        </li>\u000a    \u000a        <li class="chapter " data-level="10.7" data-path="javascript-asynchronous/use-JSDeferred.html">\u000a            \u000a                \u000a                    <a href="../javascript-asynchronous/use-JSDeferred.html">\u000a                        <i class="fa fa-check"></i>\u000a                        \u000a                            <b>10.7.</b>\u000a                        \u000a                        JSDeferred\u63a7\u5236\u5f02\u6b65\u6d41\u7a0b\u000a                    </a>\u000a                \u000a            \u000a            \u000a        </li>\u000a    \u000a\u000a            </ul>\u000a            \u000a        </li>\u000a    \u000a        <li class="chapter " data-level="11" data-path="javascript-regular-expressions/index.html">\u000a            \u000a                \u000a                    <a href="../javascript-regular-expressions/index.html">\u000a                        <i class="fa fa-check"></i>\u000a                        \u000a                            <b>11.</b>\u000a                        \u000a                        JavaScript\u6b63\u5219\u8868\u8fbe\u5f0f\u000a                    </a>\u000a                \u000a            \u000a            \u000a            <ul class="articles">\u000a                \u000a    \u000a        <li class="chapter " data-level="11.1" data-path="javascript-regular-expressions/grammar.html">\u000a            \u000a                \u000a                    <a href="../javascript-regular-expressions/grammar.html">\u000a                        <i class="fa fa-check"></i>\u000a                        \u000a                            <b>11.1.</b>\u000a                        \u000a                        \u57fa\u672c\u8bed\u6cd5\u000a                    </a>\u000a                \u000a            \u000a            \u000a        </li>\u000a    \u000a        <li class="chapter " data-level="11.2" data-path="javascript-regular-expressions/practical-examples.html">\u000a            \u000a                \u000a                    <a href="../javascript-regular-expressions/practical-examples.html">\u000a                        <i class="fa fa-check"></i>\u000a                        \u000a                            <b>11.2.</b>\u000a                        \u000a                        \u5b9e\u7528\u6848\u4f8b\u000a                    </a>\u000a                \u000a            \u000a            \u000a        </li>\u000a    \u000a\u000a            </ul>\u000a            \u000a        </li>\u000a    \u000a        <li class="chapter " data-level="12" data-path="jQuery/index.html">\u000a            \u000a                \u000a                    <a href="../jQuery/index.html">\u000a                        <i class="fa fa-check"></i>\u000a                        \u000a                            <b>12.</b>\u000a                        \u000a                        jQuery\u76f8\u5173\u000a                    </a>\u000a                \u000a            \u000a            \u000a            <ul class="articles">\u000a                \u000a    \u000a        <li class="chapter " data-level="12.1" data-path="jQuery/attach-and-remove-handler.html">\u000a            \u000a                \u000a                    <a href="../jQuery/attach-and-remove-handler.html">\u000a                        <i class="fa fa-check"></i>\u000a                        \u000a                            <b>12.1.</b>\u000a                        \u000a                        jQuery\u4e8b\u4ef6\u6ce8\u518c\u548c\u53d6\u6d88\u000a                    </a>\u000a                \u000a            \u000a            \u000a        </li>\u000a    \u000a        <li class="chapter " data-level="12.2" data-path="jQuery/get-dom-index.html">\u000a            \u000a                \u000a                    <a href="../jQuery/get-dom-index.html">\u000a                        <i class="fa fa-check"></i>\u000a                        \u000a                            <b>12.2.</b>\u000a                        \u000a                        \u83b7\u53d6\u5143\u7d20\u5728DOM\u4e2d\u7684\u987a\u5e8f\u000a                    </a>\u000a                \u000a            \u000a            \u000a        </li>\u000a    \u000a        <li class="chapter " data-level="12.3" data-path="jQuery/deferred-object.html">\u000a            \u000a                \u000a                    <a href="../jQuery/deferred-object.html">\u000a                        <i class="fa fa-check"></i>\u000a                        \u000a                            <b>12.3.</b>\u000a                        \u000a                        Deferred\u5bf9\u8c61\u000a                    </a>\u000a                \u000a            \u000a            \u000a        </li>\u000a    \u000a        <li class="chapter " data-level="12.4" data-path="jQuery/writing-better-jquery-code.html">\u000a            \u000a                \u000a                    <a href="../jQuery/writing-better-jquery-code.html">\u000a                        <i class="fa fa-check"></i>\u000a                        \u000a                            <b>12.4.</b>\u000a                        \u000a                        jQuery\u4ee3\u7801\u6280\u5de7\u000a                    </a>\u000a                \u000a            \u000a            \u000a        </li>\u000a    \u000a        <li class="chapter " data-level="12.5" data-path="jQuery/jQuery-source-code/index.html">\u000a            \u000a                \u000a                    <a href="../jQuery/jQuery-source-code/index.html">\u000a                        <i class="fa fa-check"></i>\u000a                        \u000a                            <b>12.5.</b>\u000a                        \u000a                        jQuery\u6e90\u7801\u5206\u6790\u000a                    </a>\u000a                \u000a            \u000a            \u000a            <ul class="articles">\u000a                \u000a    \u000a        <li class="chapter " data-level="12.5.1" data-path="jQuery/jQuery-source-code/code-build.html">\u000a            \u000a                \u000a                    <a href="../jQuery/jQuery-source-code/code-build.html">\u000a                        <i class="fa fa-check"></i>\u000a                        \u000a                            <b>12.5.1.</b>\u000a                        \u000a                        \u6e90\u7801\u6784\u5efa\u000a                    </a>\u000a                \u000a            \u000a            \u000a        </li>\u000a    \u000a        <li class="chapter " data-level="12.5.2" data-path="jQuery/jQuery-source-code/architecture.html">\u000a            \u000a                \u000a                    <a href="../jQuery/jQuery-source-code/architecture.html">\u000a                        <i class="fa fa-check"></i>\u000a                        \u000a                            <b>12.5.2.</b>\u000a                        \u000a                        \u7406\u89e3\u67b6\u6784\u000a                    </a>\u000a                \u000a            \u000a            \u000a        </li>\u000a    \u000a\u000a            </ul>\u000a            \u000a        </li>\u000a    \u000a\u000a            </ul>\u000a            \u000a        </li>\u000a    \u000a        <li class="chapter " data-level="13" data-path="GSAP/index.html">\u000a            \u000a                \u000a                    <a href="../GSAP/index.html">\u000a                        <i class="fa fa-check"></i>\u000a                        \u000a                            <b>13.</b>\u000a                        \u000a                        GSAP\u76f8\u5173\u000a                    </a>\u000a                \u000a            \u000a            \u000a            <ul class="articles">\u000a                \u000a    \u000a        <li class="chapter " data-level="13.1" data-path="GSAP/fqa.html">\u000a            \u000a                \u000a                    <a href="../GSAP/fqa.html">\u000a                        <i class="fa fa-check"></i>\u000a                        \u000a                            <b>13.1.</b>\u000a                        \u000a                        \u5e38\u89c1\u95ee\u9898\u000a                    </a>\u000a                \u000a            \u000a            \u000a        </li>\u000a    \u000a\u000a            </ul>\u000a            \u000a        </li>\u000a    \u000a        <li class="chapter " data-level="14" data-path="network/index.html">\u000a            \u000a                \u000a                    <a href="../network/index.html">\u000a                        <i class="fa fa-check"></i>\u000a                        \u000a                            <b>14.</b>\u000a                        \u000a                        \u7f51\u7edc\u76f8\u5173\u000a                    </a>\u000a                \u000a            \u000a            \u000a            <ul class="articles">\u000a                \u000a    \u000a        <li class="chapter " data-level="14.1" data-path="network/http-status-code.html">\u000a            \u000a                \u000a                    <a href="../network/http-status-code.html">\u000a                        <i class="fa fa-check"></i>\u000a                        \u000a                            <b>14.1.</b>\u000a                        \u000a                        \u5e38\u89c1HTTP\u72b6\u6001\u7801\u000a                    </a>\u000a                \u000a            \u000a            \u000a        </li>\u000a    \u000a        <li class="chapter " data-level="14.2" data-path="network/web-cache.html">\u000a            \u000a                \u000a                    <a href="../network/web-cache.html">\u000a                        <i class="fa fa-check"></i>\u000a                        \u000a                            <b>14.2.</b>\u000a                        \u000a                        web\u7f13\u5b58\u673a\u5236\u000a                    </a>\u000a                \u000a            \u000a            \u000a        </li>\u000a    \u000a        <li class="chapter " data-level="14.3" data-path="network/404-page.html">\u000a            \u000a                \u000a                    <a href="../network/404-page.html">\u000a                        <i class="fa fa-check"></i>\u000a                        \u000a                            <b>14.3.</b>\u000a                        \u000a                        404\u9875\u9762\u000a                    </a>\u000a                \u000a            \u000a            \u000a        </li>\u000a    \u000a\u000a            </ul>\u000a            \u000a        </li>\u000a    \u000a        <li class="chapter " data-level="15" data-path="cross-domain/index.html">\u000a            \u000a                \u000a                    <a href="../cross-domain/index.html">\u000a                        <i class="fa fa-check"></i>\u000a                        \u000a                            <b>15.</b>\u000a                        \u000a                        \u8de8\u57df\u95ee\u9898\u000a                    </a>\u000a                \u000a            \u000a            \u000a            <ul class="articles">\u000a                \u000a    \u000a        <li class="chapter " data-level="15.1" data-path="cross-domain/same-origin-policy.html">\u000a            \u000a                \u000a                    <a href="../cross-domain/same-origin-policy.html">\u000a                        <i class="fa fa-check"></i>\u000a                        \u000a                            <b>15.1.</b>\u000a                        \u000a                        \u540c\u6e90\u7b56\u7565\u000a                    </a>\u000a                \u000a            \u000a            \u000a        </li>\u000a    \u000a        <li class="chapter " data-level="15.2" data-path="cross-domain/iframe-resize.html">\u000a            \u000a                \u000a                    <a href="../cross-domain/iframe-resize.html">\u000a                        <i class="fa fa-check"></i>\u000a                        \u000a                            <b>15.2.</b>\u000a                        \u000a                        iframe\u81ea\u9002\u5e94\u000a                    </a>\u000a                \u000a            \u000a            \u000a        </li>\u000a    \u000a        <li class="chapter " data-level="15.3" data-path="cross-domain/solution-web-service.html">\u000a            \u000a                \u000a                    <a href="../cross-domain/solution-web-service.html">\u000a                        <i class="fa fa-check"></i>\u000a                        \u000a                            <b>15.3.</b>\u000a                        \u000a                        WebService\u89e3\u51b3\u65b9\u6848\u000a                    </a>\u000a                \u000a            \u000a            \u000a        </li>\u000a    \u000a        <li class="chapter " data-level="15.4" data-path="cross-domain/solutions-jsonp.html">\u000a            \u000a                \u000a                    <a href="../cross-domain/solutions-jsonp.html">\u000a                        <i class="fa fa-check"></i>\u000a                        \u000a                            <b>15.4.</b>\u000a                        \u000a                        JSONP\u000a                    </a>\u000a                \u000a            \u000a            \u000a        </li>\u000a    \u000a\u000a            </ul>\u000a            \u000a        </li>\u000a    \u000a        <li class="chapter " data-level="16" data-path="about-test/index.html">\u000a            \u000a                \u000a                    <a href="../about-test/index.html">\u000a                        <i class="fa fa-check"></i>\u000a                        \u000a                            <b>16.</b>\u000a                        \u000a                        \u8c03\u8bd5\u4e0e\u6d4b\u8bd5\u000a                    </a>\u000a                \u000a            \u000a            \u000a            <ul class="articles">\u000a                \u000a    \u000a        <li class="chapter " data-level="16.1" data-path="about-test/blackbox.html">\u000a            \u000a                \u000a                    <a href="../about-test/blackbox.html">\u000a                        <i class="fa fa-check"></i>\u000a                        \u000a                            <b>16.1.</b>\u000a                        \u000a                        Blackbox\u000a                    </a>\u000a                \u000a            \u000a            \u000a        </li>\u000a    \u000a        <li class="chapter " data-level="16.2" data-path="about-test/mocha.html">\u000a            \u000a                \u000a                    <a href="../about-test/mocha.html">\u000a                        <i class="fa fa-check"></i>\u000a                        \u000a                            <b>16.2.</b>\u000a                        \u000a                        Mocha\u6d4b\u8bd5\u6846\u67b6\u000a                    </a>\u000a                \u000a            \u000a            \u000a        </li>\u000a    \u000a\u000a            </ul>\u000a            \u000a        </li>\u000a    \u000a        <li class="chapter " data-level="17" data-path="frontend-workflow/index.html">\u000a            \u000a                \u000a                    <a href="../frontend-workflow/index.html">\u000a                        <i class="fa fa-check"></i>\u000a                        \u000a                            <b>17.</b>\u000a                        \u000a                        \u524d\u7aef\u81ea\u52a8\u5316\u000a                    </a>\u000a                \u000a            \u000a            \u000a            <ul class="articles">\u000a                \u000a    \u000a        <li class="chapter " data-level="17.1" data-path="frontend-workflow/direction-organization.html">\u000a            \u000a                \u000a                    <a href="../frontend-workflow/direction-organization.html">\u000a                        <i class="fa fa-check"></i>\u000a                        \u000a                            <b>17.1.</b>\u000a                        \u000a                        \u9879\u76ee\u76ee\u5f55\u7ec4\u7ec7\u000a                    </a>\u000a                \u000a            \u000a            \u000a        </li>\u000a    \u000a        <li class="chapter " data-level="17.2" data-path="frontend-workflow/process.html">\u000a            \u000a                \u000a                    <a href="../frontend-workflow/process.html">\u000a                        <i class="fa fa-check"></i>\u000a                        \u000a                            <b>17.2.</b>\u000a                        \u000a                        \u81ea\u52a8\u5316\u6d41\u7a0b\u000a                    </a>\u000a                \u000a            \u000a            \u000a        </li>\u000a    \u000a        <li class="chapter " data-level="17.3" data-path="frontend-workflow/yeoman.html">\u000a            \u000a                \u000a                    <a href="../frontend-workflow/yeoman.html">\u000a                        <i class="fa fa-check"></i>\u000a                        \u000a                            <b>17.3.</b>\u000a                        \u000a                        yeoman\u000a                    </a>\u000a                \u000a            \u000a            \u000a        </li>\u000a    \u000a        <li class="chapter " data-level="17.4" data-path="frontend-workflow/yo.html">\u000a            \u000a                \u000a                    <a href="../frontend-workflow/yo.html">\u000a                        <i class="fa fa-check"></i>\u000a                        \u000a                            <b>17.4.</b>\u000a                        \u000a                        yo\u000a                    </a>\u000a                \u000a            \u000a            \u000a        </li>\u000a    \u000a        <li class="chapter " data-level="17.5" data-path="frontend-workflow/bower.html">\u000a            \u000a                \u000a                    <a href="../frontend-workflow/bower.html">\u000a                        <i class="fa fa-check"></i>\u000a                        \u000a                            <b>17.5.</b>\u000a                        \u000a                        bower\u000a                    </a>\u000a                \u000a            \u000a            \u000a        </li>\u000a    \u000a        <li class="chapter " data-level="17.6" data-path="frontend-workflow/gulp.html">\u000a            \u000a                \u000a                    <a href="../frontend-workflow/gulp.html">\u000a                        <i class="fa fa-check"></i>\u000a                        \u000a                            <b>17.6.</b>\u000a                        \u000a                        gulp\u000a                    </a>\u000a                \u000a            \u000a            \u000a        </li>\u000a    \u000a        <li class="chapter " data-level="17.7" data-path="frontend-workflow/gulp-plugins.html">\u000a            \u000a                \u000a                    <a href="../frontend-workflow/gulp-plugins.html">\u000a                        <i class="fa fa-check"></i>\u000a                        \u000a                            <b>17.7.</b>\u000a                        \u000a                        gulp\u63d2\u4ef6\u9009\u62e9\u000a                    </a>\u000a                \u000a            \u000a            \u000a        </li>\u000a    \u000a        <li class="chapter " data-level="17.8" data-path="frontend-workflow/yeoman-example.html">\u000a            \u000a                \u000a                    <a href="../frontend-workflow/yeoman-example.html">\u000a                        <i class="fa fa-check"></i>\u000a                        \u000a                            <b>17.8.</b>\u000a                        \u000a                        yeoman\u53c2\u8003\u6848\u4f8b\u000a                    </a>\u000a                \u000a            \u000a            \u000a        </li>\u000a    \u000a\u000a            </ul>\u000a            \u000a        </li>\u000a    \u000a        <li class="chapter " data-level="18" data-path="sap/index.html">\u000a            \u000a                \u000a                    <a href="../sap/index.html">\u000a                        <i class="fa fa-check"></i>\u000a                        \u000a                            <b>18.</b>\u000a                        \u000a                        SPA\u000a                    </a>\u000a                \u000a            \u000a            \u000a            <ul class="articles">\u000a                \u000a    \u000a        <li class="chapter " data-level="18.1" data-path="sap/what-is-sap.html">\u000a            \u000a                \u000a                    <a href="../sap/what-is-sap.html">\u000a                        <i class="fa fa-check"></i>\u000a                        \u000a                            <b>18.1.</b>\u000a                        \u000a                        \u4ec0\u4e48\u662fSPA\u000a                    </a>\u000a                \u000a            \u000a            \u000a        </li>\u000a    \u000a        <li class="chapter " data-level="18.2" data-path="sap/sap-seo.html">\u000a            \u000a                \u000a                    <a href="../sap/sap-seo.html">\u000a                        <i class="fa fa-check"></i>\u000a                        \u000a                            <b>18.2.</b>\u000a                        \u000a                        \u5355\u9875\u9762SEO\u89e3\u51b3\u65b9\u6848\u000a                    </a>\u000a                \u000a            \u000a            \u000a        </li>\u000a    \u000a        <li class="chapter " data-level="18.3" data-path="sap/sap-without-framework.html">\u000a            \u000a                \u000a                    <a href="../sap/sap-without-framework.html">\u000a                        <i class="fa fa-check"></i>\u000a                        \u000a                            <b>18.3.</b>\u000a                        \u000a                        \u5f00\u53d1\u65e0\u6846\u67b6\u5355\u9875\u9762\u5e94\u7528\u000a                    </a>\u000a                \u000a            \u000a            \u000a        </li>\u000a    \u000a        <li class="chapter " data-level="18.4" data-path="sap/isomorphic.html">\u000a            \u000a                \u000a                    <a href="../sap/isomorphic.html">\u000a                        <i class="fa fa-check"></i>\u000a                        \u000a                            <b>18.4.</b>\u000a                        \u000a                        \u53ef\u4f38\u7f29\u7684\u540c\u6784Javascript\u4ee3\u7801\u000a                    </a>\u000a                \u000a            \u000a            \u000a        </li>\u000a    \u000a        <li class="chapter " data-level="18.5" data-path="sap/pjax.html">\u000a            \u000a                \u000a                    <a href="../sap/pjax.html">\u000a                        <i class="fa fa-check"></i>\u000a                        \u000a                            <b>18.5.</b>\u000a                        \u000a                        PJAX\u000a                    </a>\u000a                \u000a            \u000a            \u000a        </li>\u000a    \u000a\u000a            </ul>\u000a            \u000a        </li>\u000a    \u000a        <li class="chapter " data-level="19" data-path="architecture-of-f2d/index.html">\u000a            \u000a                \u000a                    <a href="../architecture-of-f2d/index.html">\u000a                        <i class="fa fa-check"></i>\u000a                        \u000a                            <b>19.</b>\u000a                        \u000a                        \u7406\u89e3\u67b6\u6784\u000a                    </a>\u000a                \u000a            \u000a            \u000a        </li>\u000a    \u000a        <li class="chapter " data-level="20" data-path="midway/index.html">\u000a            \u000a                \u000a                    <a href="../midway/index.html">\u000a                        <i class="fa fa-check"></i>\u000a                        \u000a                            <b>20.</b>\u000a                        \u000a                        \u524d\u540e\u7aef\u5206\u79bb\u000a                    </a>\u000a                \u000a            \u000a            \u000a            <ul class="articles">\u000a                \u000a    \u000a        <li class="chapter " data-level="20.1" data-path="midway/simple-way.html">\u000a            \u000a                \u000a                    <a href="../midway/simple-way.html">\u000a                        <i class="fa fa-check"></i>\u000a                        \u000a                            <b>20.1.</b>\u000a                        \u000a                        \u4e00\u4e2a\u7b80\u5355\u7c97\u66b4\u7684\u524d\u540e\u7aef\u5206\u79bb\u65b9\u6848\u000a                    </a>\u000a                \u000a            \u000a            \u000a        </li>\u000a    \u000a\u000a            </ul>\u000a            \u000a        </li>\u000a    \u000a        <li class="chapter " data-level="21" data-path="user-interface/index.html">\u000a            \u000a                \u000a                    <a href="../user-interface/index.html">\u000a                        <i class="fa fa-check"></i>\u000a                        \u000a                            <b>21.</b>\u000a                        \u000a                        UI\u000a                    </a>\u000a                \u000a            \u000a            \u000a            <ul class="articles">\u000a                \u000a    \u000a        <li class="chapter " data-level="21.1" data-path="user-interface/about-retina.html">\u000a            \u000a                \u000a                    <a href="../user-interface/about-retina.html">\u000a                        <i class="fa fa-check"></i>\u000a                        \u000a                            <b>21.1.</b>\u000a                        \u000a                        \u5173\u4e8eRetina\u000a                    </a>\u000a                \u000a            \u000a            \u000a        </li>\u000a    \u000a        <li class="chapter " data-level="21.2" data-path="user-interface/responsive-images.html">\u000a            \u000a                \u000a                    <a href="../user-interface/responsive-images.html">\u000a                        <i class="fa fa-check"></i>\u000a                        \u000a                            <b>21.2.</b>\u000a                        \u000a                        \u54cd\u5e94\u5f0f\u56fe\u7247\u000a                    </a>\u000a                \u000a            \u000a            \u000a        </li>\u000a    \u000a        <li class="chapter " data-level="21.3" data-path="user-interface/responsive-fonts.html">\u000a            \u000a                \u000a                    <a href="../user-interface/responsive-fonts.html">\u000a                        <i class="fa fa-check"></i>\u000a                        \u000a                            <b>21.3.</b>\u000a                        \u000a                        \u54cd\u5e94\u5f0f\u5b57\u4f53\u000a                    </a>\u000a                \u000a            \u000a            \u000a        </li>\u000a    \u000a        <li class="chapter " data-level="21.4" data-path="user-interface/chinese-fonts.html">\u000a            \u000a                \u000a                    <a href="../user-interface/chinese-fonts.html">\u000a                        <i class="fa fa-check"></i>\u000a                        \u000a                            <b>21.4.</b>\u000a                        \u000a                        \u4e2d\u6587\u5b57\u4f53\u000a                    </a>\u000a                \u000a            \u000a            \u000a        </li>\u000a    \u000a        <li class="chapter " data-level="21.5" data-path="user-interface/mobile-fonts.html">\u000a            \u000a                \u000a                    <a href="../user-interface/mobile-fonts.html">\u000a                        <i class="fa fa-check"></i>\u000a                        \u000a                            <b>21.5.</b>\u000a                        \u000a                        \u79fb\u52a8\u7aef\u5b57\u4f53\u000a                    </a>\u000a                \u000a            \u000a            \u000a        </li>\u000a    \u000a        <li class="chapter " data-level="21.6" data-path="user-interface/responsive-principle.html">\u000a            \u000a                \u000a                    <a href="../user-interface/responsive-principle.html">\u000a                        <i class="fa fa-check"></i>\u000a                        \u000a                            <b>21.6.</b>\u000a                        \u000a                        \u54cd\u5e94\u5f0f\u8bbe\u8ba1\u539f\u5219\u000a                    </a>\u000a                \u000a            \u000a            \u000a        </li>\u000a    \u000a        <li class="chapter " data-level="21.7" data-path="user-interface/chinese-layout.html">\u000a            \u000a                \u000a                    <a href="../user-interface/chinese-layout.html">\u000a                        <i class="fa fa-check"></i>\u000a                        \u000a                            <b>21.7.</b>\u000a                        \u000a                        \u4e2d\u6587\u6392\u7248\u7684\u89c4\u8303\u000a                    </a>\u000a                \u000a            \u000a            \u000a        </li>\u000a    \u000a        <li class="chapter " data-level="21.8" data-path="user-interface/size-knowledge.html">\u000a            \u000a                \u000a                    <a href="../user-interface/size-knowledge.html">\u000a                        <i class="fa fa-check"></i>\u000a                        \u000a                            <b>21.8.</b>\u000a                        \u000a                        \u79fb\u52a8\u7aef\u5c3a\u5bf8\u000a                    </a>\u000a                \u000a            \u000a            \u000a        </li>\u000a    \u000a\u000a            </ul>\u000a            \u000a        </li>\u000a    \u000a        <li class="chapter " data-level="22" data-path="user-experience/index.html">\u000a            \u000a                \u000a                    <a href="../user-experience/index.html">\u000a                        <i class="fa fa-check"></i>\u000a                        \u000a                            <b>22.</b>\u000a                        \u000a                        UX\u000a                    </a>\u000a                \u000a            \u000a            \u000a            <ul class="articles">\u000a                \u000a    \u000a        <li class="chapter " data-level="22.1" data-path="user-experience/fix-jumping-scrollbar.html">\u000a            \u000a                \u000a                    <a href="../user-experience/fix-jumping-scrollbar.html">\u000a                        <i class="fa fa-check"></i>\u000a                        \u000a                            <b>22.1.</b>\u000a                        \u000a                        \u9875\u9762\u6eda\u52a8\u6761\u51fa\u73b0\u65f6\u4e0d\u8df3\u52a8\u000a                    </a>\u000a                \u000a            \u000a            \u000a        </li>\u000a    \u000a        <li class="chapter " data-level="22.2" data-path="user-experience/progressive-jpeg.html">\u000a            \u000a                \u000a                    <a href="../user-experience/progressive-jpeg.html">\u000a                        <i class="fa fa-check"></i>\u000a                        \u000a                            <b>22.2.</b>\u000a                        \u000a                        \u4f7f\u7528\u6e10\u8fdb\u5f0fJPEG\u6765\u63d0\u5347\u7528\u6237\u4f53\u9a8c\u000a                    </a>\u000a                \u000a            \u000a            \u000a        </li>\u000a    \u000a\u000a            </ul>\u000a            \u000a        </li>\u000a    \u000a        <li class="chapter " data-level="23" data-path="animation/index.html">\u000a            \u000a                \u000a                    <a href="../animation/index.html">\u000a                        <i class="fa fa-check"></i>\u000a                        \u000a                            <b>23.</b>\u000a                        \u000a                        \u52a8\u753b\u76f8\u5173\u000a                    </a>\u000a                \u000a            \u000a            \u000a            <ul class="articles">\u000a                \u000a    \u000a        <li class="chapter " data-level="23.1" data-path="animation/animation-type.html">\u000a            \u000a                \u000a                    <a href="../animation/animation-type.html">\u000a                        <i class="fa fa-check"></i>\u000a                        \u000a                            <b>23.1.</b>\u000a                        \u000a                        \u52a8\u753b\u7c7b\u578b\u000a                    </a>\u000a                \u000a            \u000a            \u000a        </li>\u000a    \u000a        <li class="chapter " data-level="23.2" data-path="animation/relative-math.html">\u000a            \u000a                \u000a                    <a href="../animation/relative-math.html">\u000a                        <i class="fa fa-check"></i>\u000a                        \u000a                            <b>23.2.</b>\u000a                        \u000a                        \u8ddf\u52a8\u753b\u6709\u5173\u7684\u6570\u5b66\u548c\u7269\u7406\u516c\u5f0f\u000a                    </a>\u000a                \u000a            \u000a            \u000a        </li>\u000a    \u000a        <li class="chapter " data-level="23.3" data-path="animation/easing.html">\u000a            \u000a                \u000a                    <a href="../animation/easing.html">\u000a                        <i class="fa fa-check"></i>\u000a                        \u000a                            <b>23.3.</b>\u000a                        \u000a                        \u7f13\u52a8\u539f\u7406\u4e0e\u5b9e\u73b0\u000a                    </a>\u000a                \u000a            \u000a            \u000a        </li>\u000a    \u000a        <li class="chapter " data-level="23.4" data-path="animation/effect-and-easing.html">\u000a            \u000a                \u000a                    <a href="../animation/effect-and-easing.html">\u000a                        <i class="fa fa-check"></i>\u000a                        \u000a                            <b>23.4.</b>\u000a                        \u000a                        \u5e38\u7528\u52a8\u753b\u6548\u679c\u4e0e\u7f13\u52a8\u000a                    </a>\u000a                \u000a            \u000a            \u000a        </li>\u000a    \u000a        <li class="chapter " data-level="23.5" data-path="animation/animation-svg.html">\u000a            \u000a                \u000a                    <a href="../animation/animation-svg.html">\u000a                        <i class="fa fa-check"></i>\u000a                        \u000a                            <b>23.5.</b>\u000a                        \u000a                        SVG\u52a8\u753b\u000a                    </a>\u000a                \u000a            \u000a            \u000a        </li>\u000a    \u000a\u000a            </ul>\u000a            \u000a        </li>\u000a    \u000a        <li class="chapter " data-level="24" data-path="theory/index.html">\u000a            \u000a                \u000a                    <a href="../theory/index.html">\u000a                        <i class="fa fa-check"></i>\u000a                        \u000a                            <b>24.</b>\u000a                        \u000a                        \u539f\u7406\u6027\u8d28\u000a                    </a>\u000a                \u000a            \u000a            \u000a            <ul class="articles">\u000a                \u000a    \u000a        <li class="chapter " data-level="24.1" data-path="theory/js-load-and-exec.html">\u000a            \u000a                \u000a                    <a href="../theory/js-load-and-exec.html">\u000a                        <i class="fa fa-check"></i>\u000a                        \u000a                            <b>24.1.</b>\u000a                        \u000a                        JavaScript\u7684\u52a0\u8f7d\u4e0e\u6267\u884c\u000a                    </a>\u000a                \u000a            \u000a            \u000a        </li>\u000a    \u000a        <li class="chapter " data-level="24.2" data-path="theory/single-thread.html">\u000a            \u000a                \u000a                    <a href="../theory/single-thread.html">\u000a                        <i class="fa fa-check"></i>\u000a                        \u000a                            <b>24.2.</b>\u000a                        \u000a                        \u5355\u7ebf\u7a0b\u7684Javascript\u000a                    </a>\u000a                \u000a            \u000a            \u000a        </li>\u000a    \u000a        <li class="chapter " data-level="24.3" data-path="theory/browser-engine.html">\u000a            \u000a                \u000a                    <a href="../theory/browser-engine.html">\u000a                        <i class="fa fa-check"></i>\u000a                        \u000a                            <b>24.3.</b>\u000a                        \u000a                        \u6d4f\u89c8\u5668\u89e3\u6790\u4ecb\u7ecd\u000a                    </a>\u000a                \u000a            \u000a            \u000a        </li>\u000a    \u000a        <li class="chapter " data-level="24.4" data-path="theory/v8.html">\u000a            \u000a                \u000a                    <a href="../theory/v8.html">\u000a                        <i class="fa fa-check"></i>\u000a                        \u000a                            <b>24.4.</b>\u000a                        \u000a                        v8\u5f15\u64ce\u000a                    </a>\u000a                \u000a            \u000a            \u000a        </li>\u000a    \u000a        <li class="chapter " data-level="24.5" data-path="theory/browser-work.html">\u000a            \u000a                \u000a                    <a href="../theory/browser-work.html">\u000a                        <i class="fa fa-check"></i>\u000a                        \u000a                            <b>24.5.</b>\u000a                        \u000a                        \u6d4f\u89c8\u5668\u6e32\u67d3\u000a                    </a>\u000a                \u000a            \u000a            \u000a        </li>\u000a    \u000a        <li class="chapter " data-level="24.6" data-path="theory/js-animation-performance.html">\u000a            \u000a                \u000a                    <a href="../theory/js-animation-performance.html">\u000a                        <i class="fa fa-check"></i>\u000a                        \u000a                            <b>24.6.</b>\u000a                        \u000a                        JS\u52a8\u753b\u6027\u80fd\u000a                    </a>\u000a                \u000a            \u000a            \u000a        </li>\u000a    \u000a        <li class="chapter " data-level="24.7" data-path="theory/repaint-and-reflow.html">\u000a            \u000a                \u000a                    <a href="../theory/repaint-and-reflow.html">\u000a                        <i class="fa fa-check"></i>\u000a                        \u000a                            <b>24.7.</b>\u000a                        \u000a                        Repaint\u548cReflow\u000a                    </a>\u000a                \u000a            \u000a            \u000a        </li>\u000a    \u000a        <li class="chapter " data-level="24.8" data-path="theory/URL-Encoding-Decoding.html">\u000a            \u000a                \u000a                    <a href="../theory/URL-Encoding-Decoding.html">\u000a                        <i class="fa fa-check"></i>\u000a                        \u000a                            <b>24.8.</b>\u000a                        \u000a                        URL\u7f16\u7801\u4e0e\u89e3\u7801\u000a                    </a>\u000a                \u000a            \u000a            \u000a        </li>\u000a    \u000a        <li class="chapter " data-level="24.9" data-path="theory/font-rendering.html">\u000a            \u000a                \u000a                    <a href="../theory/font-rendering.html">\u000a                        <i class="fa fa-check"></i>\u000a                        \u000a                            <b>24.9.</b>\u000a                        \u000a                        \u5b57\u4f53\u7684\u6e32\u67d3\u000a                    </a>\u000a                \u000a            \u000a            \u000a        </li>\u000a    \u000a        <li class="chapter " data-level="24.10" data-path="theory/img-format.html">\u000a            \u000a                \u000a                    <a href="../theory/img-format.html">\u000a                        <i class="fa fa-check"></i>\u000a                        \u000a                            <b>24.10.</b>\u000a                        \u000a                        \u56fe\u7247\u683c\u5f0f\u7684\u4f18\u7f3a\u70b9\u000a                    </a>\u000a                \u000a            \u000a            \u000a        </li>\u000a    \u000a\u000a            </ul>\u000a            \u000a        </li>\u000a    \u000a        <li class="chapter " data-level="25" data-path="preference/index.html">\u000a            \u000a                \u000a                    <a href="../preference/index.html">\u000a                        <i class="fa fa-check"></i>\u000a                        \u000a                            <b>25.</b>\u000a                        \u000a                        \u6027\u80fd\u4f18\u5316\u000a                    </a>\u000a                \u000a            \u000a            \u000a            <ul class="articles">\u000a                \u000a    \u000a        <li class="chapter " data-level="25.1" data-path="preference/code-style.html">\u000a            \u000a                \u000a                    <a href="../preference/code-style.html">\u000a                        <i class="fa fa-check"></i>\u000a                        \u000a                            <b>25.1.</b>\u000a                        \u000a                        \u7f16\u7801\u89c4\u8303\u000a                    </a>\u000a                \u000a            \u000a            \u000a        </li>\u000a    \u000a        <li class="chapter " data-level="25.2" data-path="preference/javascript-best-practise.html">\u000a            \u000a                \u000a                    <a href="../preference/javascript-best-practise.html">\u000a                        <i class="fa fa-check"></i>\u000a                        \u000a                            <b>25.2.</b>\u000a                        \u000a                        JavaScript\u4ee3\u7801\u6700\u4f73\u5b9e\u8df5\u000a                    </a>\u000a                \u000a            \u000a            \u000a        </li>\u000a    \u000a        <li class="chapter " data-level="25.3" data-path="preference/mobile-h5-performance.html">\u000a            \u000a                \u000a                    <a href="../preference/mobile-h5-performance.html">\u000a                        <i class="fa fa-check"></i>\u000a                        \u000a                            <b>25.3.</b>\u000a                        \u000a                        \u79fb\u52a8H5\u524d\u7aef\u6027\u80fd\u4f18\u5316\u6307\u5357\u000a                    </a>\u000a                \u000a            \u000a            \u000a        </li>\u000a    \u000a        <li class="chapter " data-level="25.4" data-path="preference/browser-rendering-performance.html">\u000a            \u000a                \u000a                    <a href="../preference/browser-rendering-performance.html">\u000a                        <i class="fa fa-check"></i>\u000a                        \u000a                            <b>25.4.</b>\u000a                        \u000a                        \u6d4f\u89c8\u5668\u6e32\u67d3\u6027\u80fd\u4f18\u5316\u000a                    </a>\u000a                \u000a            \u000a            \u000a        </li>\u000a    \u000a        <li class="chapter " data-level="25.5" data-path="preference/develop-and-deploy.html">\u000a            \u000a                \u000a                    <a href="../preference/develop-and-deploy.html">\u000a                        <i class="fa fa-check"></i>\u000a                        \u000a                            <b>25.5.</b>\u000a                        \u000a                        \u5f00\u53d1\u548c\u90e8\u7f72\u524d\u7aef\u4ee3\u7801\u000a                    </a>\u000a                \u000a            \u000a            \u000a        </li>\u000a    \u000a        <li class="chapter " data-level="25.6" data-path="preference/optimize-request.html">\u000a            \u000a                \u000a                    <a href="../preference/optimize-request.html">\u000a                        <i class="fa fa-check"></i>\u000a                        \u000a                            <b>25.6.</b>\u000a                        \u000a                        \u4f18\u5316\u7f51\u7edc\u8bf7\u6c42\u000a                    </a>\u000a                \u000a            \u000a            \u000a        </li>\u000a    \u000a        <li class="chapter " data-level="25.7" data-path="preference/optimize-load-speed.html">\u000a            \u000a                \u000a                    <a href="../preference/optimize-load-speed.html">\u000a                        <i class="fa fa-check"></i>\u000a                        \u000a                            <b>25.7.</b>\u000a                        \u000a                        \u9875\u9762\u63d0\u901f\u65b9\u6cd5\u000a                    </a>\u000a                \u000a            \u000a            \u000a        </li>\u000a    \u000a        <li class="chapter " data-level="25.8" data-path="preference/chrome-developer-tools.html">\u000a            \u000a                \u000a                    <a href="../preference/chrome-developer-tools.html">\u000a                        <i class="fa fa-check"></i>\u000a                        \u000a                            <b>25.8.</b>\u000a                        \u000a                        Chrome\u5f00\u53d1\u8005\u5de5\u5177\u7684\u4f7f\u7528\u000a                    </a>\u000a                \u000a            \u000a            \u000a        </li>\u000a    \u000a        <li class="chapter " data-level="25.9" data-path="preference/optimize-javascript.html">\u000a            \u000a                \u000a                    <a href="../preference/optimize-javascript.html">\u000a                        <i class="fa fa-check"></i>\u000a                        \u000a                            <b>25.9.</b>\u000a                        \u000a                        JavaScript\u5185\u5b58\u4f18\u5316\u000a                    </a>\u000a                \u000a            \u000a            \u000a        </li>\u000a    \u000a        <li class="chapter " data-level="25.10" data-path="preference/optimize-events.html">\u000a            \u000a                \u000a                    <a href="../preference/optimize-events.html">\u000a                        <i class="fa fa-check"></i>\u000a                        \u000a                            <b>25.10.</b>\u000a                        \u000a                        javascript\u4e8b\u4ef6\u4f18\u5316\u000a                    </a>\u000a                \u000a            \u000a            \u000a        </li>\u000a    \u000a        <li class="chapter " data-level="25.11" data-path="preference/page-scroll-rendering.html">\u000a            \u000a                \u000a                    <a href="../preference/page-scroll-rendering.html">\u000a                        <i class="fa fa-check"></i>\u000a                        \u000a                            <b>25.11.</b>\u000a                        \u000a                        \u9875\u9762\u6eda\u52a8\u6027\u80fd\u000a                    </a>\u000a                \u000a            \u000a            \u000a        </li>\u000a    \u000a        <li class="chapter " data-level="25.12" data-path="preference/canvas-rendering.html">\u000a            \u000a                \u000a                    <a href="../preference/canvas-rendering.html">\u000a                        <i class="fa fa-check"></i>\u000a                        \u000a                            <b>25.12.</b>\u000a                        \u000a                        canvas\u6e32\u67d3\u6027\u80fd\u000a                    </a>\u000a                \u000a            \u000a            \u000a        </li>\u000a    \u000a\u000a            </ul>\u000a            \u000a        </li>\u000a    \u000a        <li class="chapter " data-level="26" data-path="problems-in-develop-webapp/index.html">\u000a            \u000a                \u000a                    <a href="../problems-in-develop-webapp/index.html">\u000a                        <i class="fa fa-check"></i>\u000a                        \u000a                            <b>26.</b>\u000a                        \u000a                        web\u5f00\u53d1\u4e2d\u7684\u5751or\u6280\u5de7\u000a                    </a>\u000a                \u000a            \u000a            \u000a            <ul class="articles">\u000a                \u000a    \u000a        <li class="chapter " data-level="26.1" data-path="problems-in-develop-webapp/layout-compatibility.html">\u000a            \u000a                \u000a                    <a href="../problems-in-develop-webapp/layout-compatibility.html">\u000a                        <i class="fa fa-check"></i>\u000a                        \u000a                            <b>26.1.</b>\u000a                        \u000a                        \u6392\u7248\u517c\u5bb9\u6027\u95ee\u9898\u000a                    </a>\u000a                \u000a            \u000a            \u000a        </li>\u000a    \u000a        <li class="chapter " data-level="26.2" data-path="problems-in-develop-webapp/errors-in-browser.html">\u000a            \u000a                \u000a                    <a href="../problems-in-develop-webapp/errors-in-browser.html">\u000a                        <i class="fa fa-check"></i>\u000a                        \u000a                            <b>26.2.</b>\u000a                        \u000a                        \u6d4f\u89c8\u5668\u62a5\u9519\u000a                    </a>\u000a                \u000a            \u000a            \u000a        </li>\u000a    \u000a        <li class="chapter " data-level="26.3" data-path="problems-in-develop-webapp/bugs-in-ipad.html">\u000a            \u000a                \u000a                    <a href="../problems-in-develop-webapp/bugs-in-ipad.html">\u000a                        <i class="fa fa-check"></i>\u000a                        \u000a                            <b>26.3.</b>\u000a                        \u000a                        iPad\u7684bug\u5408\u96c6\u000a                    </a>\u000a                \u000a            \u000a            \u000a        </li>\u000a    \u000a        <li class="chapter " data-level="26.4" data-path="problems-in-develop-webapp/addEventListener-and-handleEvent.html">\u000a            \u000a                \u000a                    <a href="../problems-in-develop-webapp/addEventListener-and-handleEvent.html">\u000a                        <i class="fa fa-check"></i>\u000a                        \u000a                            <b>26.4.</b>\u000a                        \u000a                        addEventListener\u4e0ehandleEvent\u5173\u7cfb\u000a                    </a>\u000a                \u000a            \u000a            \u000a        </li>\u000a    \u000a        <li class="chapter " data-level="26.5" data-path="problems-in-develop-webapp/localStorage.html">\u000a            \u000a                \u000a                    <a href="../problems-in-develop-webapp/localStorage.html">\u000a                        <i class="fa fa-check"></i>\u000a                        \u000a                            <b>26.5.</b>\u000a                        \u000a                        localStorage\u7684\u4f7f\u7528\u000a                    </a>\u000a                \u000a            \u000a            \u000a        </li>\u000a    \u000a        <li class="chapter " data-level="26.6" data-path="problems-in-develop-webapp/web-position-fixed.html">\u000a            \u000a                \u000a                    <a href="../problems-in-develop-webapp/web-position-fixed.html">\u000a                        <i class="fa fa-check"></i>\u000a                        \u000a                            <b>26.6.</b>\u000a                        \u000a                        \u79fb\u52a8\u7aeffixed\u5e03\u5c40\u000a                    </a>\u000a                \u000a            \u000a            \u000a        </li>\u000a    \u000a        <li class="chapter " data-level="26.7" data-path="problems-in-develop-webapp/event-touch.html">\u000a            \u000a                \u000a                    <a href="../problems-in-develop-webapp/event-touch.html">\u000a                        <i class="fa fa-check"></i>\u000a                        \u000a                            <b>26.7.</b>\u000a                        \u000a                        touch\u4e8b\u4ef6\u000a                    </a>\u000a                \u000a            \u000a            \u000a        </li>\u000a    \u000a        <li class="chapter " data-level="26.8" data-path="problems-in-develop-webapp/handle-browser-input.html">\u000a            \u000a                \u000a                    <a href="../problems-in-develop-webapp/handle-browser-input.html">\u000a                        <i class="fa fa-check"></i>\u000a                        \u000a                            <b>26.8.</b>\u000a                        \u000a                        \u5904\u7406\u8f93\u5165\u4e8b\u4ef6\u000a                    </a>\u000a                \u000a            \u000a            \u000a        </li>\u000a    \u000a        <li class="chapter " data-level="26.9" data-path="problems-in-develop-webapp/touch-and-mouse.html">\u000a            \u000a                \u000a                    <a href="../problems-in-develop-webapp/touch-and-mouse.html">\u000a                        <i class="fa fa-check"></i>\u000a                        \u000a                            <b>26.9.</b>\u000a                        \u000a                        \u89e6\u6478\u548c\u9f20\u6807\u5728\u4e00\u8d77\u000a                    </a>\u000a                \u000a            \u000a            \u000a        </li>\u000a    \u000a        <li class="chapter " data-level="26.10" data-path="problems-in-develop-webapp/delay-fire-event.html">\u000a            \u000a                \u000a                    <a href="../problems-in-develop-webapp/delay-fire-event.html">\u000a                        <i class="fa fa-check"></i>\u000a                        \u000a                            <b>26.10.</b>\u000a                        \u000a                        \u5982\u4f55\u5ef6\u65f6\u89e6\u53d1\u4e8b\u4ef6\u000a                    </a>\u000a                \u000a            \u000a            \u000a        </li>\u000a    \u000a        <li class="chapter " data-level="26.11" data-path="problems-in-develop-webapp/operate-array.html">\u000a            \u000a                \u000a                    <a href="../problems-in-develop-webapp/operate-array.html">\u000a                        <i class="fa fa-check"></i>\u000a                        \u000a                            <b>26.11.</b>\u000a                        \u000a                        \u6570\u7ec4\u7684\u64cd\u4f5c\u000a                    </a>\u000a                \u000a            \u000a            \u000a        </li>\u000a    \u000a        <li class="chapter " data-level="26.12" data-path="problems-in-develop-webapp/operate-object.html">\u000a            \u000a                \u000a                    <a href="../problems-in-develop-webapp/operate-object.html">\u000a                        <i class="fa fa-check"></i>\u000a                        \u000a                            <b>26.12.</b>\u000a                        \u000a                        \u5bf9\u8c61\u7684\u64cd\u4f5c\u000a                    </a>\u000a                \u000a            \u000a            \u000a        </li>\u000a    \u000a        <li class="chapter " data-level="26.13" data-path="problems-in-develop-webapp/detect-orientation-change-on-mobile.html">\u000a            \u000a                \u000a                    <a href="../problems-in-develop-webapp/detect-orientation-change-on-mobile.html">\u000a                        <i class="fa fa-check"></i>\u000a                        \u000a                            <b>26.13.</b>\u000a                        \u000a                        mobile\u8bbe\u5907\u7684\u6a2a\u7ad6\u5c4f\u5207\u6362\u68c0\u6d4b\u000a                    </a>\u000a                \u000a            \u000a            \u000a        </li>\u000a    \u000a        <li class="chapter " data-level="26.14" data-path="problems-in-develop-webapp/generate-random.html">\u000a            \u000a                \u000a                    <a href="../problems-in-develop-webapp/generate-random.html">\u000a                        <i class="fa fa-check"></i>\u000a                        \u000a                            <b>26.14.</b>\u000a                        \u000a                        \u751f\u6210\u968f\u673a\u6570\u5b57\u000a                    </a>\u000a                \u000a            \u000a            \u000a        </li>\u000a    \u000a        <li class="chapter " data-level="26.15" data-path="problems-in-develop-webapp/problem-with-settimeout.html">\u000a            \u000a                \u000a                    <a href="../problems-in-develop-webapp/problem-with-settimeout.html">\u000a                        <i class="fa fa-check"></i>\u000a                        \u000a                            <b>26.15.</b>\u000a                        \u000a                        setTimeout\u7684\u8bef\u533a\u000a                    </a>\u000a                \u000a            \u000a            \u000a        </li>\u000a    \u000a        <li class="chapter " data-level="26.16" data-path="problems-in-develop-webapp/useful-api.html">\u000a            \u000a                \u000a                    <a href="../problems-in-develop-webapp/useful-api.html">\u000a                        <i class="fa fa-check"></i>\u000a                        \u000a                            <b>26.16.</b>\u000a                        \u000a                        \u597d\u7528\u7684\u539f\u751fAPI\u64cd\u4f5c\u000a                    </a>\u000a                \u000a            \u000a            \u000a        </li>\u000a    \u000a\u000a            </ul>\u000a            \u000a        </li>\u000a    \u000a        <li class="chapter " data-level="27" data-path="interview/index.html">\u000a            \u000a                \u000a                    <a href="../interview/index.html">\u000a                        <i class="fa fa-check"></i>\u000a                        \u000a                            <b>27.</b>\u000a                        \u000a                        \u524d\u7aef\u9762\u8bd5\u000a                    </a>\u000a                \u000a            \u000a            \u000a            <ul class="articles">\u000a                \u000a    \u000a        <li class="chapter " data-level="27.1" data-path="interview/skill-path.html">\u000a            \u000a                \u000a                    <a href="../interview/skill-path.html">\u000a                        <i class="fa fa-check"></i>\u000a                        \u000a                            <b>27.1.</b>\u000a                        \u000a                        \u524d\u7aef\u6280\u80fd\u56fe\u8c31\u000a                    </a>\u000a                \u000a            \u000a            \u000a        </li>\u000a    \u000a        <li class="chapter " data-level="27.2" data-path="interview/the-key-of-frontend-knowledge.html">\u000a            \u000a                \u000a                    <a href="../interview/the-key-of-frontend-knowledge.html">\u000a                        <i class="fa fa-check"></i>\u000a                        \u000a                            <b>27.2.</b>\u000a                        \u000a                        \u524d\u7aef\u77e5\u8bc6\u70b9\u000a                    </a>\u000a                \u000a            \u000a            \u000a        </li>\u000a    \u000a        <li class="chapter " data-level="27.3" data-path="interview/interview-principle-and-skill.html">\u000a            \u000a                \u000a                    <a href="../interview/interview-principle-and-skill.html">\u000a                        <i class="fa fa-check"></i>\u000a                        \u000a                            <b>27.3.</b>\u000a                        \u000a                        \u539f\u5219\u4e0e\u6280\u5de7\u000a                    </a>\u000a                \u000a            \u000a            \u000a        </li>\u000a    \u000a        <li class="chapter " data-level="27.4" data-path="interview/interview-exercises-with-html-and-css.html">\u000a            \u000a                \u000a                    <a href="../interview/interview-exercises-with-html-and-css.html">\u000a                        <i class="fa fa-check"></i>\u000a                        \u000a                            <b>27.4.</b>\u000a                        \u000a                        html/css\u9762\u8bd5\u9898\u000a                    </a>\u000a                \u000a            \u000a            \u000a        </li>\u000a    \u000a        <li class="chapter " data-level="27.5" data-path="interview/interview-exercises-with-JavaScript.html">\u000a            \u000a                \u000a                    <a href="../interview/interview-exercises-with-JavaScript.html">\u000a                        <i class="fa fa-check"></i>\u000a                        \u000a                            <b>27.5.</b>\u000a                        \u000a                        JavaScript\u9762\u8bd5\u9898\u000a                    </a>\u000a                \u000a            \u000a            \u000a        </li>\u000a    \u000a        <li class="chapter " data-level="27.6" data-path="interview/interview-exercises-with-jquery.html">\u000a            \u000a                \u000a                    <a href="../interview/interview-exercises-with-jquery.html">\u000a                        <i class="fa fa-check"></i>\u000a                        \u000a                            <b>27.6.</b>\u000a                        \u000a                        jQuery\u9762\u8bd5\u9898\u000a                    </a>\u000a                \u000a            \u000a            \u000a        </li>\u000a    \u000a        <li class="chapter " data-level="27.7" data-path="interview/interview-exercises-with-network.html">\u000a            \u000a                \u000a                    <a href="../interview/interview-exercises-with-network.html">\u000a                        <i class="fa fa-check"></i>\u000a                        \u000a                            <b>27.7.</b>\u000a                        \u000a                        \u7f51\u7edc\u76f8\u5173\u9762\u8bd5\u9898\u000a                    </a>\u000a                \u000a            \u000a            \u000a        </li>\u000a    \u000a        <li class="chapter " data-level="27.8" data-path="interview/interview-exercises.html">\u000a            \u000a                \u000a                    <a href="../interview/interview-exercises.html">\u000a                        <i class="fa fa-check"></i>\u000a                        \u000a                            <b>27.8.</b>\u000a                        \u000a                        \u9762\u8bd5\u9898\u96c6\u5408\u000a                    </a>\u000a                \u000a            \u000a            \u000a        </li>\u000a    \u000a\u000a            </ul>\u000a            \u000a        </li>\u000a    \u000a        <li class="chapter " data-level="28" data-path="appendix/index.html">\u000a            \u000a                \u000a                    <a href="../appendix/index.html">\u000a                        <i class="fa fa-check"></i>\u000a                        \u000a                            <b>28.</b>\u000a                        \u000a                        \u53c2\u8003\u8d44\u6599\u000a                    </a>\u000a                \u000a            \u000a            \u000a            <ul class="articles">\u000a                \u000a    \u000a        <li class="chapter " data-level="28.1" data-path="appendix/ebooks.html">\u000a            \u000a                \u000a                    <a href="../appendix/ebooks.html">\u000a                        <i class="fa fa-check"></i>\u000a                        \u000a                            <b>28.1.</b>\u000a                        \u000a                        \u56fe\u4e66\u8d44\u6599\u000a                    </a>\u000a                \u000a            \u000a            \u000a        </li>\u000a    \u000a        <li class="chapter " data-level="28.2" data-path="appendix/videos.html">\u000a            \u000a                \u000a                    <a href="../appendix/videos.html">\u000a                        <i class="fa fa-check"></i>\u000a                        \u000a                            <b>28.2.</b>\u000a                        \u000a                        \u89c6\u9891\u6559\u7a0b\u000a                    </a>\u000a                \u000a            \u000a            \u000a        </li>\u000a    \u000a        <li class="chapter " data-level="28.3" data-path="appendix/design.html">\u000a            \u000a                \u000a                    <a href="../appendix/design.html">\u000a                        <i class="fa fa-check"></i>\u000a                        \u000a                            <b>28.3.</b>\u000a                        \u000a                        \u8bbe\u8ba1\u65b9\u5411\u000a                    </a>\u000a                \u000a            \u000a            \u000a        </li>\u000a    \u000a        <li class="chapter " data-level="28.4" data-path="appendix/js-library.html">\u000a            \u000a                \u000a                    <a href="../appendix/js-library.html">\u000a                        <i class="fa fa-check"></i>\u000a                        \u000a                            <b>28.4.</b>\u000a                        \u000a                        JS\u5e93\u000a                    </a>\u000a                \u000a            \u000a            \u000a        </li>\u000a    \u000a        <li class="chapter " data-level="28.5" data-path="appendix/css-library.html">\u000a            \u000a                \u000a                    <a href="../appendix/css-library.html">\u000a                        <i class="fa fa-check"></i>\u000a                        \u000a                            <b>28.5.</b>\u000a                        \u000a                        CSS\u76f8\u5173\u5e93\u000a                    </a>\u000a                \u000a            \u000a            \u000a        </li>\u000a    \u000a        <li class="chapter " data-level="28.6" data-path="appendix/bootstrap.html">\u000a            \u000a                \u000a                    <a href="../appendix/bootstrap.html">\u000a                        <i class="fa fa-check"></i>\u000a                        \u000a                            <b>28.6.</b>\u000a                        \u000a                        Bootstrap\u8d44\u6599\u000a                    </a>\u000a                \u000a            \u000a            \u000a        </li>\u000a    \u000a        <li class="chapter " data-level="28.7" data-path="appendix/mobile-library.html">\u000a            \u000a                \u000a                    <a href="../appendix/mobile-library.html">\u000a                        <i class="fa fa-check"></i>\u000a                        \u000a                            <b>28.7.</b>\u000a                        \u000a                        \u79fb\u52a8\u5f00\u53d1\u6846\u67b6\u000a                    </a>\u000a                \u000a            \u000a            \u000a        </li>\u000a    \u000a        <li class="chapter " data-level="28.8" data-path="appendix/animation-loading.html">\u000a            \u000a                \u000a                    <a href="../appendix/animation-loading.html">\u000a                        <i class="fa fa-check"></i>\u000a                        \u000a                            <b>28.8.</b>\u000a                        \u000a                        Loading\u52a8\u753b\u000a                    </a>\u000a                \u000a            \u000a            \u000a        </li>\u000a    \u000a        <li class="chapter " data-level="28.9" data-path="appendix/tools.html">\u000a            \u000a                \u000a                    <a href="../appendix/tools.html">\u000a                        <i class="fa fa-check"></i>\u000a                        \u000a                            <b>28.9.</b>\u000a                        \u000a                        \u8f85\u52a9\u5de5\u5177\u000a                    </a>\u000a                \u000a            \u000a            \u000a        </li>\u000a    \u000a\u000a            </ul>\u000a            \u000a        </li>\u000a    \u000a\u000a\u000a        \u000a        <li class="divider"></li>\u000a        <li>\u000a            <a href="https://www.gitbook.com" target="blank" class="gitbook-link">\u000a                \u672c\u66f8\u4f7f\u7528 GitBook \u91cb\u51fa\u000a            </a>\u000a        </li>\u000a        \u000a    </ul>\u000a</div>\u000a\u000a    <div class="book-body">\u000a        <div class="body-inner">\u000a            <div class="book-header">\u000a    <!-- Actions Left -->\u000a    <a href="#" class="btn pull-left toggle-summary" aria-label="\u76ee\u9304"><i class="fa fa-align-justify"></i></a>\u000a    <a href="#" class="btn pull-left toggle-search" aria-label="\u641c\u5c0b"><i class="fa fa-search"></i></a>\u000a    \u000a    <div id="font-settings-wrapper" class="dropdown pull-left">\u000a        <a href="#" class="btn toggle-dropdown" aria-label="\u5b57\u578b\u8a2d\u5b9a"><i class="fa fa-font"></i>\u000a        </a>\u000a        <div class="dropdown-menu font-settings">\u000a    <div class="dropdown-caret">\u000a        <span class="caret-outer"></span>\u000a        <span class="caret-inner"></span>\u000a    </div>\u000a\u000a    <div class="buttons">\u000a        <button type="button" id="reduce-font-size" class="button size-2">A</button>\u000a        <button type="button" id="enlarge-font-size" class="button size-2">A</button>\u000a    </div>\u000a\u000a    <div class="buttons font-family-list">\u000a        <button type="button" data-font="0" class="button">\u896f\u7dda\u9ad4</button>\u000a        <button type="button" data-font="1" class="button">\u7121\u896f\u7dda\u9ad4</button>\u000a    </div>\u000a\u000a    <div class="buttons color-theme-list">\u000a        <button type="button" id="color-theme-preview-0" class="button size-3" data-theme="0">\u767d\u8272</button>\u000a        <button type="button" id="color-theme-preview-1" class="button size-3" data-theme="1">\u68d5\u8910\u8272</button>\u000a        <button type="button" id="color-theme-preview-2" class="button size-3" data-theme="2">\u591c\u9593</button>\u000a    </div>\u000a</div>\u000a\u000a    </div>\u000a\u000a    <!-- Actions Right -->\u000a    \u000a    <div class="dropdown pull-right">\u000a        <a href="#" class="btn toggle-dropdown" aria-label="\u5206\u4eab"><i class="fa fa-share-alt"></i>\u000a        </a>\u000a        <div class="dropdown-menu font-settings dropdown-left">\u000a            <div class="dropdown-caret">\u000a                <span class="caret-outer"></span>\u000a                <span class="caret-inner"></span>\u000a            </div>\u000a            <div class="buttons">\u000a                <button type="button" data-sharing="twitter" class="button">\u000a                    \u5206\u4eab\u5230 Twitter\u000a                </button>\u000a                <button type="button" data-sharing="google-plus" class="button">\u000a                    \u5206\u4eab\u5230 Google\u000a                </button>\u000a                <button type="button" data-sharing="facebook" class="button">\u000a                    \u5206\u4eab\u5230 Facebook\u000a                </button>\u000a                <button type="button" data-sharing="weibo" class="button">\u000a                    \u5206\u4eab\u5230 Weibo\u000a                </button>\u000a                <button type="button" data-sharing="instapaper" class="button">\u000a                    \u5206\u4eab\u5230 Instapaper\u000a                </button>\u000a            </div>\u000a        </div>\u000a    </div>\u000a    \u000a\u000a    \u000a    <a href="#" target="_blank" class="btn pull-right google-plus-sharing-link sharing-link" data-sharing="google-plus" aria-label="Google"><i class="fa fa-google-plus"></i></a>\u000a    \u000a    \u000a    <a href="#" target="_blank" class="btn pull-right facebook-sharing-link sharing-link" data-sharing="facebook" aria-label="Facebook"><i class="fa fa-facebook"></i></a>\u000a    \u000a    \u000a    <a href="#" target="_blank" class="btn pull-right twitter-sharing-link sharing-link" data-sharing="twitter" aria-label="Twitter"><i class="fa fa-twitter"></i></a>\u000a    \u000a    \u000a    \u000a\u000a\u000a    <!-- Title -->\u000a    <h1>\u000a        <i class="fa fa-circle-o-notch fa-spin"></i>\u000a        <a href="../" >\u524d\u7aef\u5de5\u7a0b\u5e08\u624b\u518c</a>\u000a    </h1>\u000a</div>\u000a\u000a            <div class="page-wrapper" tabindex="-1">\u000a                <div class="page-inner">\u000a                \u000a                \u000a                    <section class="normal" id="section-">\u000a                    \u000a                        <h1 id="html%E8%AF%AD%E4%B9%89%E5%8C%96">HTML&#x8BED;&#x4E49;&#x5316;</h1>\u000a<p>&#x8BED;&#x4E49;&#x5316;&#x7684;&#x542B;&#x4E49;&#x5C31;&#x662F;&#x7528;&#x6B63;&#x786E;&#x7684;&#x6807;&#x7B7E;&#x505A;&#x6B63;&#x786E;&#x7684;&#x4E8B;&#x60C5;&#xFF0C;html&#x8BED;&#x4E49;&#x5316;&#x5C31;&#x662F;&#x8BA9;&#x9875;&#x9762;&#x7684;&#x5185;&#x5BB9;&#x7ED3;&#x6784;&#x5316;&#xFF0C;&#x4FBF;&#x4E8E;&#x5BF9;&#x6D4F;&#x89C8;&#x5668;&#x3001;&#x641C;&#x7D22;&#x5F15;&#x64CE;&#x89E3;&#x6790;&#xFF1B;&#x5728;&#x6CA1;&#x6709;&#x6837;&#x5F0F;CCS&#x60C5;&#x51B5;&#x4E0B;&#x4E5F;&#x4EE5;&#x4E00;&#x79CD;&#x6587;&#x6863;&#x683C;&#x5F0F;&#x663E;&#x793A;&#xFF0C;&#x5E76;&#x4E14;&#x662F;&#x5BB9;&#x6613;&#x9605;&#x8BFB;&#x7684;&#x3002;&#x641C;&#x7D22;&#x5F15;&#x64CE;&#x7684;&#x722C;&#x866B;&#x4F9D;&#x8D56;&#x4E8E;&#x6807;&#x8BB0;&#x6765;&#x786E;&#x5B9A;&#x4E0A;&#x4E0B;&#x6587;&#x548C;&#x5404;&#x4E2A;&#x5173;&#x952E;&#x5B57;&#x7684;&#x6743;&#x91CD;&#xFF0C;&#x5229;&#x4E8E; SEO&#x3002;&#x4F7F;&#x9605;&#x8BFB;&#x6E90;&#x4EE3;&#x7801;&#x7684;&#x4EBA;&#x5BF9;&#x7F51;&#x7AD9;&#x66F4;&#x5BB9;&#x6613;&#x5C06;&#x7F51;&#x7AD9;&#x5206;&#x5757;&#xFF0C;&#x4FBF;&#x4E8E;&#x9605;&#x8BFB;&#x7EF4;&#x62A4;&#x7406;&#x89E3;&#x3002;</p>\u000a<h2 id="%E5%8F%82%E8%80%83%E8%B5%84%E6%96%99">&#x53C2;&#x8003;&#x8D44;&#x6599;</h2>\u000a<ul>\u000a<li><a href="http://justineo.github.io/slideshows/semantic-html/" target="_blank">semantic-html</a></li>\u000a<li><a href="http://www.oschina.net/translate/about-html-semantics-front-end-architecture" target="_blank">&#x5173;&#x4E8E;&#x8BED;&#x4E49;&#x5316; HTML &#x4EE5;&#x53CA;&#x524D;&#x7AEF;&#x67B6;&#x6784;&#x7684;&#x4E00;&#x70B9;&#x601D;&#x8003;</a></li>\u000a<li><a href="http://www.zhihu.com/question/20455165" target="_blank">&#x5982;&#x4F55;&#x7406;&#x89E3; web &#x8BED;&#x4E49;&#x5316;</a></li>\u000a</ul>\u000a\u000a                    \u000a                    </section>\u000a                \u000a                \u000a                </div>\u000a            </div>\u000a        </div>\u000a\u000a        \u000a        <a href="../html-and-css-basic/common-tag.html" class="navigation navigation-prev " aria-label="Previous page: HTML\u5e38\u7528\u6807\u7b7e"><i class="fa fa-angle-left"></i></a>\u000a        \u000a        \u000a        <a href="../html-and-css-basic/doctype-and-brower-render.html" class="navigation navigation-next " aria-label="Next page: DOCTYPE\u548c\u6d4f\u89c8\u5668\u6e32\u67d3\u6a21\u5f0f"><i class="fa fa-angle-right"></i></a>\u000a        \u000a    </div>\u000a</div>\u000a\u000a        \u000a<script src="../gitbook/app.js"></script>\u000a\u000a<script>\u000arequire(["gitbook"], function(gitbook) {\u000a    var config = {"fontSettings":{"theme":null,"family":"sans","size":2}};\u000a    gitbook.start(config);\u000a});\u000a</script>\u000a\u000a        \u000a    \u000a<div><script style="display: none;" type="application/javascript">\u000a  (function(i,s,o,g,r,a,m){i['GoogleAnalyticsObject']=r;i[r]=i[r]||function(){\u000a  (i[r].q=i[r].q||[]).push(arguments)},i[r].l=1*new Date();a=s.createElement(o),\u000a  m=s.getElementsByTagName(o)[0];a.async=1;a.src=g;m.parentNode.insertBefore(a,m)\u000a  })(window,document,'script','https://www.google-analytics.com/analytics.js','ga');\u000a\u000a  ga('create', 'UA-57505611-7', 'auto', {name: 'microcdn'});\u000a  ga('microcdn.send', 'pageview');\u000a\u000a  var _cdn_prev_loc = window.location.pathname;\u000a  window.setInterval(function () {\u000a    if (window.location.pathname !== _cdn_prev_loc) {\u000a      _cdn_prev_loc = window.location.pathname;\u000a      ga('microcdn.send', 'pageview');\u000a    }\u000a  }, 100);\u000a\u000a</script></div>\u000a</body>\u000a    \u000a</html>\u000a
p3
a.