(lp0
S'http://speedtest.googlefiber.net/'
p1
aS'speedtest.googlefiber.net'
p2
aI0
aV<!DOCTYPE html>\u000a<html><head><meta charset="utf-8"><link href="http://fonts.googleapis.com/css?family=Roboto:500,300,700,400" rel="stylesheet" type="text/css"><meta name="viewport" content="width=device-width, initial-scale=1"><script type="text/javascript" src="feedback_bin.js"></script><script src="foam.js"></script></head><body style="margin:0px"><foam model="com.google.fiber.speedtest.SpeedTestApp"></foam></body></html>
p3
a.