(lp0
S'http://list.docer.com/PPT%E6%A8%A1%E6%9D%BF/'
p1
aS'\xe6\x9c\x80\xe5\xa4\x9a\xe6\x94\xb6\xe8\x97\x8f\xe7\x9a\x84PPT\xe6\xa8\xa1\xe6\x9d\xbf\xe7\xb4\xa0\xe6\x9d\x90-PPT\xe6\xa8\xa1\xe6\x9d\xbf\xe4\xb8\x8b\xe8\xbd\xbd-PPT\xe5\x9b\xbe\xe7\x89\x87\xe7\xb4\xa0\xe6\x9d\x90\xe5\xba\x93-Docer\xe7\xa8\xbb\xe5\xa3\xb3\xe5\x84\xbf'
p2
aI0
aV<!DOCTYPE html PUBLIC "-//W3C//DTD XHTML 1.0 Transitional//EN" "http://www.w3.org/TR/xhtml1/DTD/xhtml1-transitional.dtd">\u000a<html xmlns:wb="http://open.weibo.com/wb">\u000a<head>\u000a<meta charset="UTF-8" ms-skip="true">\u000a<title>\u6700\u591a\u6536\u85cf\u7684PPT\u6a21\u677f\u7d20\u6750-PPT\u6a21\u677f\u4e0b\u8f7d-PPT\u56fe\u7247\u7d20\u6750\u5e93-Docer\u7a3b\u58f3\u513f</title>\u000a<meta name="Keywords" content="\u6700\u591a\u6536\u85cfPPT\u6a21\u677f\uff0cPPT\u6a21\u677f\u7d20\u6750\uff0cPPT\u6a21\u677f\u4e0b\u8f7d\uff0cPPT\u56fe\u7247\u7d20\u6750\u5e93" />\u000a<meta name="Description" content="Docer\u7a3b\u58f3\u513f\u63d0\u4f9b\u6d77\u91cf\u70ed\u95e8\u7684PPT\u6a21\u677f\u3001PPT\u56fe\u7247\u7d20\u6750\u4e0b\u8f7d\uff0c\u7d20\u6750\u5236\u4f5c\u4e13\u4e1a\u3001\u7cbe\u7f8e\u3001\u5b9e\u7528\uff0c\u8bf7\u5c3d\u60c5\u6311\u9009\uff01" />\u000a<link rel="stylesheet" href="//www.docer.com/application/styles/main.css?v=2016011041">\u000a<script type="text/javascript" src="http://cbjs.baidu.com/js/m.js"></script>\u000a<style>\u000a</style>\u000a</head>\u000a<body ms-controller="MainCtrl" class="client_body">\u000a<script type="text/javascript">\u000a// \u53ea\u6709\u5f53\u6d4f\u89c8\u5668\u4e3aIE8/7/6/5\u65f6\uff0c\u624d\u4f1a\u8fd4\u56deIE\u7684\u7248\u672c\u53f7(8/7/6/5)\u3002\u5176\u5b83\u6d4f\u89c8\u5668\u4f8b\u5982IE9/10/11/FF/Chrome \u90fd\u8fd4\u56de false\u000avar getIeVersion = function (){\u000areturn ('ActiveXObject' in window) && !-[1,] && document.documentMode;\u000a}\u000aif(getIeVersion() === 8) {\u000avar c = new Image();\u000ac.onload = function() {\u000awindow.location.href = '//www.docer.com/login/auto?c=cb0799c571f19e1633f1a9a56efd1fd3&goto=' + encodeURIComponent(window.location.href);\u000ac = null;\u000a}\u000ac.src = 'https://vip.wps.cn/login/sso_gif/cb0799c571f19e1633f1a9a56efd1fd3';\u000a} else {\u000avar script = document.createElement("script");\u000ascript.src = "//account.wps.cn/p/session/correlate/cb0799c571f19e1633f1a9a56efd1fd3";\u000ascript.onload = function() {\u000awindow.location.href = '//www.docer.com/login/auto?c=cb0799c571f19e1633f1a9a56efd1fd3&goto=' + encodeURIComponent(window.location.href);\u000a};\u000adocument.body.appendChild(script);\u000a}\u000a</script>\u000a<div class="layout">\u000a<style>\u000a</style>\u000a<script>\u000a(function() {\u000avar s = "_" + Math.random().toString(36).slice(2);\u000adocument.write('<div id="' + s + '"></div>');\u000a(window.slotbydup=window.slotbydup || []).push({\u000aid: '3064808',\u000acontainer: s,\u000asize: '295,356',\u000adisplay: 'float'\u000a});\u000a})();\u000a</script>\u000a<div class="top" ms-important="MainCtrl">\u000a<div class="top_main">\u000a<a href="http://www.docer.com/" title="\u7a3b\u58f3\u513f\u9996\u9875">\u7a3b\u58f3\u513f\u9996\u9875</a>|\u000a<a href="http://licai.docer.com/?from=docer.com_top" target="_blank">\u7a3b\u58f3\u513f\u7406\u8d22</a>|\u000a<a href="http://edu.docer.com/?from=docer.com_top" target="_blank">\u7a3b\u58f3\u513f\u6559\u80b2</a>|\u000a<a href="http://meihua.docer.com/?from=docer.com_top" target="_blank">PPT\u7f8e\u5316\u5927\u5e08</a>|\u000a<a href="http://zdm.wps.cn/?from=docer.com_top" target="_blank">\u503c\u5f97\u4e70</a>\u000a<a class="top_collect_btn" style="display: none;" href="javascript:void(0)" ms-important="MainCtrl" ms-visible="favorite" ms-click-1="addFavorite(this)" ms-click-2="sendCount('action', '\u9876\u90e8\u7acb\u5373\u6536\u85cf')">\u7acb\u5373\u6536\u85cf</a>\u000a</div>\u000a</div>\u000a<div class="header">\u000a<a href="http://www.docer.com" class="logo" title="\u7a3b\u58f3\u513f">www.docer.com</a>\u000a<a href="http://chn.docer.com/card/?from=logoright" class="gif_recommend" target="_blank">\u000a<img src="/application/styles/images/logo_recommend.gif" alt="">\u000a</a>\u000a<div class="header_conter" style="display:" ms-widget="searchbar" data-searchbar-value="" data-searchbar-radiovalue="PPT\u6a21\u677f" data-searchbar-readioselector="#searchRadio" data-searchbar-tags="" data-searchbar-saletype="0">\u000a<div class="search">\u000a<a rel="nofollow" href="#" class="search_btn" ms-click-1="search" ms-click-2="sendCount('action', '\u641c\u7d22 | '+searchContent)"></a>\u000a<input type="text" class="search_input" ms-duplex="searchContent" ms-click="clickText" ms-blur="blurText" ms-keydown="keyupText">\u000a<span class="search_input_text" ms-visible="searchTipMark" ms-click="clickText">\u8f93\u5165\u60a8\u60f3\u8981\u7684\u5546\u54c1</span>\u000a<ul class="search_input_ul" style="display:none;" ms-visible="searchData.length">\u000a<li ms-repeat-data="searchData" ms-class="li_select:selectIndex===$index" ms-text="data.data" ms-click="select(data.data)"></li>\u000a</ul>\u000a<div class="search_radio" id="searchRadio" ms-visible="searchTypeMark" ms-click="checkRadio">\u000a<input type="radio" id="tag1" name="tag" value="\u6240\u6709"><label for="tag1">\u6240\u6709</label>\u000a<input type="radio" id="tag2" name="tag" value="PPT\u6a21\u677f"><label for="tag2">PPT\u6a21\u677f</label>\u000a<input type="radio" id="tag3" name="tag" value="PPT\u56fe\u8868"><label for="tag3">PPT\u56fe\u8868</label>\u000a<input type="radio" id="tag4" name="tag" value="\u5e94\u7528\u6587\u4e66"><label for="tag4">\u5e94\u7528\u6587\u4e66</label>\u000a<input type="radio" id="tag5" name="tag" value="\u56fe\u7247\u7d20\u6750"><label for="tag5">\u56fe\u7247\u7d20\u6750</label>\u000a</div>\u000a</div>\u000a<div class="tag">\u000a\u70ed\u95e8\u641c\u7d22\uff1a\u000a<a href="http://search.docer.com/PPT%E6%A8%A1%E6%9D%BF/?sale_type=1&keyword=%E5%95%86%E5%8A%A1&orderby=new"  ms-click="sendCount('label', 'http://search.docer.com/PPT%E6%A8%A1%E6%9D%BF/?sale_type=1&keyword=%E5%95%86%E5%8A%A1&orderby=new')">\u5546\u52a1PPT</a>\u000a<a href="http://search.docer.com/%E6%89%80%E6%9C%89/?keyword=%E4%B8%AA%E6%80%A7%E7%AE%80%E5%8E%86&orderby=new"  ms-click="sendCount('label', 'http://search.docer.com/%E6%89%80%E6%9C%89/?keyword=%E4%B8%AA%E6%80%A7%E7%AE%80%E5%8E%86&orderby=new')">\u4e2a\u6027\u7b80\u5386</a>\u000a<a href="http://search.docer.com/%E6%89%80%E6%9C%89/?keyword=%E5%90%88%E5%90%8C&orderby=new"  ms-click="sendCount('label', 'http://search.docer.com/%E6%89%80%E6%9C%89/?keyword=%E5%90%88%E5%90%8C&orderby=new')">\u5408\u540c\u534f\u8bae</a>\u000a<a href="http://search.docer.com/%E8%A1%A8%E6%A0%BC/?sale_type=1&keyword=%E8%B4%A2%E5%8A%A1%E6%8A%A5%E8%A1%A8&orderby=mix"  ms-click="sendCount('label', 'http://search.docer.com/%E8%A1%A8%E6%A0%BC/?sale_type=1&keyword=%E8%B4%A2%E5%8A%A1%E6%8A%A5%E8%A1%A8&orderby=mix')">\u8d22\u52a1\u62a5\u8868</a>\u000a<a href="http://search.docer.com/%E6%89%80%E6%9C%89/?sale_type=1&keyword=%E8%80%83%E7%A0%94&orderby=new"  ms-click="sendCount('label', 'http://search.docer.com/%E6%89%80%E6%9C%89/?sale_type=1&keyword=%E8%80%83%E7%A0%94&orderby=new')">\u8003\u7814</a>\u000a</div>\u000a</div>\u000a<div class="top_right" ms-controller="ShopCartCtrl">\u000a<a rel="nofollow" href="https://cart.docer.com" ms-click="sendCount('cart', '\u8d2d\u7269\u8f66\u6309\u94ae')" class="shopping_cart" style="display:"  ms-class="shopping_cart_active:cartVisible || loginTips" ms-mouseenter="showCart" ms-mouseleave="hideCart">\u8d2d\u7269\u8f66<span id="docerCartBtn" class="yellow" ms-text="cartCount"></span></a>\u000a<div class="sc_goods" style="display: none;" ms-visible="loading && cartVisible">\u000a<div class="my_shopping_car_loadding" ></div>\u000a</div>\u000a<div class="sc_goods" ms-visible="cartList.length && cartVisible && !loading" ms-mouseenter="overCart" ms-mouseleave="outCart">\u000a<ul class="sc_goods_ul">\u000a<li ms-repeat-good="cartList" ms-attr-id="cartgood_{{good.id}}">\u000a<a ms-href="http://detail.docer.com/{{good.id}}.html">\u000a<img ms-src="good.src" ms-attr-alt="good.name" class="sc_goods_img">\u000a</a>\u000a<div class="sc_good_info">\u000a<a ms-href="http://detail.docer.com/{{good.id}}.html" class="sc_good_name" ms-attr-title="good.name" ms-text="good.name"></a>\u000a<span class="sc_good_num">\u7f16\u53f7\uff1a{{good.id}} </span>\u000a</div>\u000a<div class="sc_good_operate">\u000a<span class="sc_good_price">\u000a\uffe5<span class="price_red">{{good.discount_price}}</span>\uff08<span class="red">{{good.discount_price | exchangeDaomi}}</span>\u7c73\uff09\u000a</span>\u000a<a rel="nofollow" href="javascript:void(0);" ms-click="showDel($event,good.meta_origin_id)">\u5220\u9664</a>\u000a<div class="delect_warnning" ms-visible="delVisible(good.meta_origin_id)">\u000a<div class="dw_content">\u000a<span class="warnning_logo"></span>\u000a<div class="dwc_right">\u000a<p>\u5220\u9664\u540e\u4e0d\u53ef\u6062\u590d\uff01</p>\u000a<a rel="nofollow" href="javascript:void(0);" class="warnning_btn" ms-click="confirmDel">\u786e\u5b9a</a>\u000a<a rel="nofollow" href="javascript:void(0);" class="warnning_btn" ms-click="cancelDel">\u53d6\u6d88</a>\u000a</div>\u000a</div>\u000a</div>\u000a</div>\u000a<div class="cb"></div>\u000a</li>\u000a</ul>\u000a<div class="sc_goods_foot">\u000a<p class="fwb" ms-visible="cartLeave">\u8d2d\u7269\u8f66\u91cc\u8fd8\u6709<span class="red">{{cartLeave}}</span>\u4ef6\u5b9d\u8d1d</p>\u000a<a rel="nofollow" href="https://cart.docer.com" class="my_shopping_cart_btn" ms-click="sendCount('cart', '\u67e5\u770b\u6211\u7684\u8d2d\u7269\u8f66\u6309\u94ae')">\u67e5\u770b\u6211\u7684\u8d2d\u7269\u8f66</a>\u000a</div>\u000a</div>\u000a<div class="sc_goods" ms-visible="!cartList.length && cartVisible && !loading" ms-mouseenter="overCart" ms-mouseleave="outCart">\u000a<p class="sc_goods_none">\u60a8\u7684\u8d2d\u7269\u8f66\u8fd8\u662f\u7a7a\u7684\uff0c\u8d76\u7d27\u884c\u52a8\u5427\uff01</p>\u000a</div>\u000a<div class="sc_goods2" ms-visible="loginTips" ms-mouseenter="overCart" ms-mouseleave="outCart">\u000a<div class="sc_no_login"></div>\u000a</div>\u000a<ul class="shopcart_procedure" style="display:none;">\u000a<li class="">\u786e\u8ba4\u8ba2\u5355</li>\u000a<li class="">\u5728\u7ebf\u652f\u4ed8</li>\u000a<li class="">\u4e0b\u8f7d</li>\u000a</ul>\u000a<div class="top_login" ms-controller="LoginCtrl">\u000a<div class="top_lg_link" style="display: none;" ms-visible="!isLogin" >\u000a<a class="header_login" rel="nofollow" href="javascript:void(0)" ms-click="showLogin" rel="nofollow">\u767b\u5f55</a>\u000a</div>\u000a<div class="top_lg_info" style="display: none;" ms-visible="isLogin" ms-mouseenter="showCenter" ms-mouseleave="hideCenter">\u6b22\u8fce\u60a8\uff0c<a class="tli_name" href="http://www.docer.com/center#!/memberCenter" >{{userInfo.name}}</a>\u000a<ul class="top_lg_info_down" ms-visible="userCenterVisible" ms-mouseenter="overCenter" ms-mouseleave="outCenter">\u000a<li><a rel="nofollow" href="https://my.docer.com">\u6211\u7684\u8ba2\u5355</a></li>\u000a<li><a rel="nofollow" href="https://my.docer.com/center/#!/myCollection">\u6211\u7684\u6536\u85cf</a></li>\u000a<li><a rel="nofollow" href="http://www.docer.com/user/logout/">\u9000\u51fa\u767b\u5f55</a></li>\u000a</ul>\u000a</div>\u000a</div>\u000a</div>\u000a<div class="cb"></div>\u000a</div>\u000a<div class="navbar">\u000a<ul class="nav" ms-widget="navbar">\u000a<li  class="nav_li"  ms-mouseenter="showAllClass" ms-mouseleave="hideAllClass"><a rel="nofollow" href="javascript:;" class="nav_li_a all_class" title="\u5168\u90e8\u5206\u7c7b">\u5168\u90e8\u5206\u7c7b<span  class="all_class_arrow" ></span></a>\u000a<div ms-widget="navbar" class="nav_left">\u000a<ul class="nav_left_ul">\u000a<li class="" ms-hover-1="nl_active" ms-hover-2="nl_active_show">\u000a<div class="nll_li_div">\u000a<h3><a href="http://list.docer.com/\u5e94\u7528\u6587\u4e66/">WORD\u6a21\u677f</a>\u000a</h3>\u000a<span class="arrow"></span>\u000a</div>\u000a<div class="nll_ul_all">\u000a<h3>\u6587\u6863\u7528\u9014</h3>\u000a<ul class="nll_ul">\u000a<li><a href="http://list.docer.com/\u5e94\u7528\u6587\u4e66/?tags=\u7b80\u5386\u6c42\u804c" ms-click="sendCount('label', 'http://list.docer.com/\u5e94\u7528\u6587\u4e66/?tags=\u7b80\u5386\u6c42\u804c')" style="color:#FF3C00">\u7b80\u5386\u6c42\u804c</a></li>\u000a<li><a href="http://list.docer.com/\u5e94\u7528\u6587\u4e66/?tags=\u5e74\u7ec8\u603b\u7ed3" ms-click="sendCount('label', 'http://list.docer.com/\u5e94\u7528\u6587\u4e66/?tags=\u5e74\u7ec8\u603b\u7ed3')" style="color:">\u5e74\u7ec8\u603b\u7ed3</a></li>\u000a<li><a href="http://list.docer.com/\u5e94\u7528\u6587\u4e66/?tags=\u529e\u516c\u8303\u6587" ms-click="sendCount('label', 'http://list.docer.com/\u5e94\u7528\u6587\u4e66/?tags=\u529e\u516c\u8303\u6587')" >\u529e\u516c\u8303\u6587</a></li>\u000a<li><a href="http://list.docer.com/\u5e94\u7528\u6587\u4e66/?tags=\u6559\u80b2\u6559\u5b66" ms-click="sendCount('label', 'http://list.docer.com/\u5e94\u7528\u6587\u4e66/?tags=\u6559\u80b2\u6559\u5b66')" >\u6559\u80b2\u6559\u5b66</a></li>\u000a<li><a href="http://list.docer.com/\u5e94\u7528\u6587\u4e66/?tags=\u5408\u540c" ms-click="sendCount('label', 'http://list.docer.com/\u5e94\u7528\u6587\u4e66/?tags=\u5408\u540c')" style="color:#FF3C00">\u5408\u540c</a></li>\u000a<li><a href="http://list.docer.com/\u5e94\u7528\u6587\u4e66/?tags=\u751f\u6d3b\u4f11\u95f2" ms-click="sendCount('label', 'http://list.docer.com/\u5e94\u7528\u6587\u4e66/?tags=\u751f\u6d3b\u4f11\u95f2')" style="color:">\u751f\u6d3b\u4f11\u95f2</a></li>\u000a<li><a href="http://list.docer.com/\u5e94\u7528\u6587\u4e66/?tags=\u4fe1\u7eb8" ms-click="sendCount('label', 'http://list.docer.com/\u5e94\u7528\u6587\u4e66/?tags=\u4fe1\u7eb8')" >\u4fe1\u7eb8</a></li>\u000a<li><a href="http://list.docer.com/\u5e94\u7528\u6587\u4e66/?tags=\u6f14\u8bb2\u7a3f" ms-click="sendCount('label', 'http://list.docer.com/\u5e94\u7528\u6587\u4e66/?tags=\u6f14\u8bb2\u7a3f')" >\u6f14\u8bb2\u7a3f</a></li>\u000a<li><a href="http://list.docer.com/\u5e94\u7528\u6587\u4e66/?tags=\u8bba\u6587" ms-click="sendCount('label', 'http://list.docer.com/\u5e94\u7528\u6587\u4e66/?tags=\u8bba\u6587')" >\u8bba\u6587</a></li>\u000a<li><a href="http://list.docer.com/\u5e94\u7528\u6587\u4e66/?tags=\u515a\u56e2\u8303\u6587" ms-click="sendCount('label', 'http://list.docer.com/\u5e94\u7528\u6587\u4e66/?tags=\u515a\u56e2\u8303\u6587')" style="color:#FF3C00">\u515a\u56e2\u8303\u6587</a></li>\u000a<li><a href="http://list.docer.com/\u5e94\u7528\u6587\u4e66/?tags=\u4eba\u529b\u8d44\u6e90" ms-click="sendCount('label', 'http://list.docer.com/\u5e94\u7528\u6587\u4e66/?tags=\u4eba\u529b\u8d44\u6e90')" >\u4eba\u529b\u8d44\u6e90</a></li>\u000a<li><a href="http://list.docer.com/\u5e94\u7528\u6587\u4e66/?tags=\u7b56\u5212\u4e66" ms-click="sendCount('label', 'http://list.docer.com/\u5e94\u7528\u6587\u4e66/?tags=\u7b56\u5212\u4e66')" >\u7b56\u5212\u4e66</a></li>\u000a<li><a href="http://list.docer.com/\u5e94\u7528\u6587\u4e66/?tags=\u8d3a\u5361" ms-click="sendCount('label', 'http://list.docer.com/\u5e94\u7528\u6587\u4e66/?tags=\u8d3a\u5361')" style="color:#FF3C00">\u8d3a\u5361</a></li>\u000a</ul>\u000a<h3>\u7b80\u5386\u6c42\u804c</h3>\u000a<ul class="nll_ul">\u000a<li><a href="http://list.docer.com/\u5e94\u7528\u6587\u4e66/?tags=\u670d\u52a1\u4e1a\u7b80\u5386" ms-click="sendCount('label', 'http://list.docer.com/\u5e94\u7528\u6587\u4e66/?tags=\u670d\u52a1\u4e1a\u7b80\u5386')" >\u670d\u52a1\u4e1a\u7b80\u5386</a></li>\u000a<li><a href="http://list.docer.com/\u5e94\u7528\u6587\u4e66/?tags=\u8425\u9500\u7b80\u5386" ms-click="sendCount('label', 'http://list.docer.com/\u5e94\u7528\u6587\u4e66/?tags=\u8425\u9500\u7b80\u5386')" >\u8425\u9500\u7b80\u5386</a></li>\u000a<li><a href="http://list.docer.com/\u5e94\u7528\u6587\u4e66/?tags=\u82f1\u6587\u7b80\u5386" ms-click="sendCount('label', 'http://list.docer.com/\u5e94\u7528\u6587\u4e66/?tags=\u82f1\u6587\u7b80\u5386')" >\u82f1\u6587\u7b80\u5386</a></li>\u000a<li><a href="http://list.docer.com/\u5e94\u7528\u6587\u4e66/?tags=\u521b\u610f\u7b80\u5386" ms-click="sendCount('label', 'http://list.docer.com/\u5e94\u7528\u6587\u4e66/?tags=\u521b\u610f\u7b80\u5386')" >\u521b\u610f\u7b80\u5386</a></li>\u000a<li><a href="http://list.docer.com/\u5e94\u7528\u6587\u4e66/?tags=\u5e94\u5c4a\u751f\u7b80\u5386" ms-click="sendCount('label', 'http://list.docer.com/\u5e94\u7528\u6587\u4e66/?tags=\u5e94\u5c4a\u751f\u7b80\u5386')" >\u5e94\u5c4a\u751f\u7b80\u5386</a></li>\u000a<li><a href="http://list.docer.com/\u5e94\u7528\u6587\u4e66/?tags=\u4e00\u9875\u7eb8\u7b80\u5386" ms-click="sendCount('label', 'http://list.docer.com/\u5e94\u7528\u6587\u4e66/?tags=\u4e00\u9875\u7eb8\u7b80\u5386')" >\u4e00\u9875\u7eb8\u7b80\u5386</a></li>\u000a</ul>\u000a<h3>\u7cbe\u9009\u673a\u6784</h3>\u000a<ul class="nll_ul">\u000a<li><a href="http://list.docer.com/\u5e94\u7528\u6587\u4e66/?tags=\u5f00\u8bb2\u5566" ms-click="sendCount('label', 'http://list.docer.com/\u5e94\u7528\u6587\u4e66/?tags=\u5f00\u8bb2\u5566')" >\u5f00\u8bb2\u5566</a></li>\u000a<li><a href="http://list.docer.com/\u5e94\u7528\u6587\u4e66/?tags=\u51fa\u56fd\u7559\u5b66\u7f51" ms-click="sendCount('label', 'http://list.docer.com/\u5e94\u7528\u6587\u4e66/?tags=\u51fa\u56fd\u7559\u5b66\u7f51')" >\u51fa\u56fd\u7559\u5b66\u7f51</a></li>\u000a<li><a href="http://list.docer.com/\u5e94\u7528\u6587\u4e66/?tags=\u7c73\u5f8b\u5408\u540c" ms-click="sendCount('label', 'http://list.docer.com/\u5e94\u7528\u6587\u4e66/?tags=\u7c73\u5f8b\u5408\u540c')" >\u7c73\u5f8b\u5408\u540c</a></li>\u000a<li><a href="http://list.docer.com/\u5e94\u7528\u6587\u4e66/?tags=\u96ea\u7403\u4e13\u520a" ms-click="sendCount('label', 'http://list.docer.com/\u5e94\u7528\u6587\u4e66/?tags=\u96ea\u7403\u4e13\u520a')" >\u96ea\u7403\u4e13\u520a</a></li>\u000a<li><a href="http://list.docer.com/\u5e94\u7528\u6587\u4e66/?tags=\u5b69\u5b69\u4f18" ms-click="sendCount('label', 'http://list.docer.com/\u5e94\u7528\u6587\u4e66/?tags=\u5b69\u5b69\u4f18')" >\u5b69\u5b69\u4f18</a></li>\u000a</ul>\u000a</div>\u000a</li>\u000a<li class="" ms-hover-1="nl_active" ms-hover-2="nl_active_show">\u000a<div class="nll_li_div">\u000a<h3><a href="http://list.docer.com/PPT\u6a21\u677f/">PPT\u6a21\u677f</a>\u000a</h3>\u000a<span class="arrow"></span>\u000a</div>\u000a<div class="nll_ul_all">\u000a<h3>\u6309\u7528\u9014</h3>\u000a<ul class="nll_ul">\u000a<li><a href="http://list.docer.com/PPT\u6a21\u677f/?tags=\u62a5\u544a" ms-click="sendCount('label', 'http://list.docer.com/PPT\u6a21\u677f/?tags=\u62a5\u544a')" style="color:#FF3C00">\u62a5\u544a</a></li>\u000a<li><a href="http://list.docer.com/PPT\u6a21\u677f/?tags=\u603b\u7ed3" ms-click="sendCount('label', 'http://list.docer.com/PPT\u6a21\u677f/?tags=\u603b\u7ed3')" style="color:">\u603b\u7ed3</a></li>\u000a<li><a href="http://list.docer.com/PPT\u6a21\u677f/?tags=\u7b80\u5386" ms-click="sendCount('label', 'http://list.docer.com/PPT\u6a21\u677f/?tags=\u7b80\u5386')" style="color:">\u7b80\u5386</a></li>\u000a<li><a href="http://list.docer.com/PPT\u6a21\u677f/?tags=\u6f14\u8bb2" ms-click="sendCount('label', 'http://list.docer.com/PPT\u6a21\u677f/?tags=\u6f14\u8bb2')" style="color:">\u6f14\u8bb2</a></li>\u000a<li><a href="http://list.docer.com/PPT\u6a21\u677f/?tags=\u57f9\u8bad" ms-click="sendCount('label', 'http://list.docer.com/PPT\u6a21\u677f/?tags=\u57f9\u8bad')" style="color:">\u57f9\u8bad</a></li>\u000a<li><a href="http://list.docer.com/PPT\u6a21\u677f/?tags=\u7ed3\u5a5a" ms-click="sendCount('label', 'http://list.docer.com/PPT\u6a21\u677f/?tags=\u7ed3\u5a5a')" style="color:">\u7ed3\u5a5a</a></li>\u000a<li><a href="http://list.docer.com/PPT\u6a21\u677f/?tags=\u6bd5\u4e1a\u7b54\u8fa9" ms-click="sendCount('label', 'http://list.docer.com/PPT\u6a21\u677f/?tags=\u6bd5\u4e1a\u7b54\u8fa9')" style="color:">\u6bd5\u4e1a\u7b54\u8fa9</a></li>\u000a<li><a href="http://list.docer.com/PPT\u6a21\u677f/?tags=\u54c1\u724c\u5ba3\u8bb2" ms-click="sendCount('label', 'http://list.docer.com/PPT\u6a21\u677f/?tags=\u54c1\u724c\u5ba3\u8bb2')" >\u54c1\u724c\u5ba3\u8bb2</a></li>\u000a<li><a href="http://list.docer.com/PPT\u6a21\u677f/?tags=\u5546\u4e1a\u8ba1\u5212\u4e66" ms-click="sendCount('label', 'http://list.docer.com/PPT\u6a21\u677f/?tags=\u5546\u4e1a\u8ba1\u5212\u4e66')" >\u5546\u4e1a\u8ba1\u5212\u4e66</a></li>\u000a<li><a href="http://list.docer.com/PPT\u6a21\u677f/?tags=\u5e86\u5178\u4eea\u5f0f" ms-click="sendCount('label', 'http://list.docer.com/PPT\u6a21\u677f/?tags=\u5e86\u5178\u4eea\u5f0f')" >\u5e86\u5178\u4eea\u5f0f</a></li>\u000a<li><a href="http://list.docer.com/PPT\u6a21\u677f/?tags=\u8282\u65e5\u5e86\u795d" ms-click="sendCount('label', 'http://list.docer.com/PPT\u6a21\u677f/?tags=\u8282\u65e5\u5e86\u795d')" >\u8282\u65e5\u5e86\u795d</a></li>\u000a<li><a href="http://list.docer.com/PPT\u6a21\u677f/?tags=\u53d1\u5e03\u4f1a" ms-click="sendCount('label', 'http://list.docer.com/PPT\u6a21\u677f/?tags=\u53d1\u5e03\u4f1a')" >\u53d1\u5e03\u4f1a</a></li>\u000a</ul>\u000a<h3>\u6309\u884c\u4e1a</h3>\u000a<ul class="nll_ul">\u000a<li><a href="http://list.docer.com/PPT\u6a21\u677f/?tags=\u79d1\u6280" ms-click="sendCount('label', 'http://list.docer.com/PPT\u6a21\u677f/?tags=\u79d1\u6280')" >\u79d1\u6280</a></li>\u000a<li><a href="http://list.docer.com/PPT\u6a21\u677f/?tags=\u6559\u80b2" ms-click="sendCount('label', 'http://list.docer.com/PPT\u6a21\u677f/?tags=\u6559\u80b2')" >\u6559\u80b2</a></li>\u000a<li><a href="http://list.docer.com/PPT\u6a21\u677f/?tags=\u4e92\u8054\u7f51" ms-click="sendCount('label', 'http://list.docer.com/PPT\u6a21\u677f/?tags=\u4e92\u8054\u7f51')" >\u4e92\u8054\u7f51</a></li>\u000a<li><a href="http://list.docer.com/PPT\u6a21\u677f/?tags=\u515a\u653f" ms-click="sendCount('label', 'http://list.docer.com/PPT\u6a21\u677f/?tags=\u515a\u653f')" >\u515a\u653f</a></li>\u000a<li><a href="http://list.docer.com/PPT\u6a21\u677f/?tags=\u80fd\u6e90" ms-click="sendCount('label', 'http://list.docer.com/PPT\u6a21\u677f/?tags=\u80fd\u6e90')" >\u80fd\u6e90</a></li>\u000a<li><a href="http://list.docer.com/PPT\u6a21\u677f/?tags=\u533b\u836f" ms-click="sendCount('label', 'http://list.docer.com/PPT\u6a21\u677f/?tags=\u533b\u836f')" >\u533b\u836f</a></li>\u000a<li><a href="http://list.docer.com/PPT\u6a21\u677f/?tags=\u623f\u5730\u4ea7" ms-click="sendCount('label', 'http://list.docer.com/PPT\u6a21\u677f/?tags=\u623f\u5730\u4ea7')" >\u623f\u5730\u4ea7</a></li>\u000a<li><a href="http://list.docer.com/PPT\u6a21\u677f/?tags=\u91d1\u878d" ms-click="sendCount('label', 'http://list.docer.com/PPT\u6a21\u677f/?tags=\u91d1\u878d')" >\u91d1\u878d</a></li>\u000a<li><a href="http://list.docer.com/PPT\u6a21\u677f/?tags=\u4ea4\u901a" ms-click="sendCount('label', 'http://list.docer.com/PPT\u6a21\u677f/?tags=\u4ea4\u901a')" >\u4ea4\u901a</a></li>\u000a<li><a href="http://list.docer.com/PPT\u6a21\u677f/?tags=\u827a\u672f" ms-click="sendCount('label', 'http://list.docer.com/PPT\u6a21\u677f/?tags=\u827a\u672f')" >\u827a\u672f</a></li>\u000a<li><a href="http://list.docer.com/PPT\u6a21\u677f/?tags=\u5f71\u89c6" ms-click="sendCount('label', 'http://list.docer.com/PPT\u6a21\u677f/?tags=\u5f71\u89c6')" >\u5f71\u89c6</a></li>\u000a<li><a href="http://list.docer.com/PPT\u6a21\u677f/?tags=\u65c5\u6e38" ms-click="sendCount('label', 'http://list.docer.com/PPT\u6a21\u677f/?tags=\u65c5\u6e38')" >\u65c5\u6e38</a></li>\u000a<li><a href="http://list.docer.com/PPT\u6a21\u677f/?tags=\u5e7f\u544a" ms-click="sendCount('label', 'http://list.docer.com/PPT\u6a21\u677f/?tags=\u5e7f\u544a')" >\u5e7f\u544a</a></li>\u000a</ul>\u000a<h3>\u6309\u98ce\u683c</h3>\u000a<ul class="nll_ul">\u000a<li><a href="http://list.docer.com/PPT\u6a21\u677f/?tags=\u4e2d\u56fd\u98ce" ms-click="sendCount('label', 'http://list.docer.com/PPT\u6a21\u677f/?tags=\u4e2d\u56fd\u98ce')" style="color:">\u4e2d\u56fd\u98ce</a></li>\u000a<li><a href="http://list.docer.com/PPT\u6a21\u677f/?tags=\u7b80\u7ea6" ms-click="sendCount('label', 'http://list.docer.com/PPT\u6a21\u677f/?tags=\u7b80\u7ea6')" style="color:#FF3C00">\u7b80\u7ea6</a></li>\u000a<li><a href="http://list.docer.com/PPT\u6a21\u677f/?tags=\u6b27\u7f8e\u98ce" ms-click="sendCount('label', 'http://list.docer.com/PPT\u6a21\u677f/?tags=\u6b27\u7f8e\u98ce')" >\u6b27\u7f8e\u98ce</a></li>\u000a<li><a href="http://list.docer.com/PPT\u6a21\u677f/?tags=\u53ef\u7231" ms-click="sendCount('label', 'http://list.docer.com/PPT\u6a21\u677f/?tags=\u53ef\u7231')" >\u53ef\u7231</a></li>\u000a<li><a href="http://list.docer.com/PPT\u6a21\u677f/?tags=\u9177\u70ab" ms-click="sendCount('label', 'http://list.docer.com/PPT\u6a21\u677f/?tags=\u9177\u70ab')" >\u9177\u70ab</a></li>\u000a<li><a href="http://list.docer.com/PPT\u6a21\u677f/?tags=\u590d\u53e4\u98ce" ms-click="sendCount('label', 'http://list.docer.com/PPT\u6a21\u677f/?tags=\u590d\u53e4\u98ce')" >\u590d\u53e4\u98ce</a></li>\u000a<li><a href="http://list.docer.com/PPT\u6a21\u677f/?tags=\u6e05\u65b0\u6de1\u96c5" ms-click="sendCount('label', 'http://list.docer.com/PPT\u6a21\u677f/?tags=\u6e05\u65b0\u6de1\u96c5')" >\u6e05\u65b0\u6de1\u96c5</a></li>\u000a<li><a href="http://list.docer.com/PPT\u6a21\u677f/?tags=\u5546\u52a1" ms-click="sendCount('label', 'http://list.docer.com/PPT\u6a21\u677f/?tags=\u5546\u52a1')" >\u5546\u52a1</a></li>\u000a<li><a href="http://list.docer.com/PPT\u6a21\u677f/?tags=\u521b\u610f\u8bbe\u8ba1" ms-click="sendCount('label', 'http://list.docer.com/PPT\u6a21\u677f/?tags=\u521b\u610f\u8bbe\u8ba1')" >\u521b\u610f\u8bbe\u8ba1</a></li>\u000a<li><a href="http://list.docer.com/PPT\u6a21\u677f/?tags=\u97e9\u8303\u513f" ms-click="sendCount('label', 'http://list.docer.com/PPT\u6a21\u677f/?tags=\u97e9\u8303\u513f')" >\u97e9\u8303\u513f</a></li>\u000a</ul>\u000a<h3>\u5176\u4ed6</h3>\u000a<ul class="nll_ul">\u000a<li><a href="http://list.docer.com/PPT\u6a21\u677f/?tags=\u4eba\u7269" ms-click="sendCount('label', 'http://list.docer.com/PPT\u6a21\u677f/?tags=\u4eba\u7269')" >\u4eba\u7269</a></li>\u000a<li><a href="http://list.docer.com/PPT\u6a21\u677f/?tags=\u52a8\u7269" ms-click="sendCount('label', 'http://list.docer.com/PPT\u6a21\u677f/?tags=\u52a8\u7269')" >\u52a8\u7269</a></li>\u000a<li><a href="http://list.docer.com/PPT\u6a21\u677f/?tags=\u98ce\u666f" ms-click="sendCount('label', 'http://list.docer.com/PPT\u6a21\u677f/?tags=\u98ce\u666f')" >\u98ce\u666f</a></li>\u000a<li><a href="http://list.docer.com/PPT\u6a21\u677f/?tags=\u82b1\u6735" ms-click="sendCount('label', 'http://list.docer.com/PPT\u6a21\u677f/?tags=\u82b1\u6735')" >\u82b1\u6735</a></li>\u000a</ul>\u000a</div>\u000a</li>\u000a<li class="" ms-hover-1="nl_active" ms-hover-2="nl_active_show">\u000a<div class="nll_li_div">\u000a<h3><a href="http://list.docer.com/\u8868\u683c/">EXCEL\u6a21\u677f</a>\u000a</h3>\u000a<span class="arrow"></span>\u000a</div>\u000a<div class="nll_ul_all">\u000a<h3>\u56fe\u8868\u6a21\u677f</h3>\u000a<ul class="nll_ul">\u000a<li><a href="http://list.docer.com/\u8868\u683c/?tags=\u67f1\u5f62\u56fe" ms-click="sendCount('label', 'http://list.docer.com/\u8868\u683c/?tags=\u67f1\u5f62\u56fe')" >\u67f1\u5f62\u56fe</a></li>\u000a<li><a href="http://list.docer.com/\u8868\u683c/?tags=\u6298\u7ebf\u56fe" ms-click="sendCount('label', 'http://list.docer.com/\u8868\u683c/?tags=\u6298\u7ebf\u56fe')" >\u6298\u7ebf\u56fe</a></li>\u000a<li><a href="http://list.docer.com/\u8868\u683c/?tags=\u6761\u5f62\u56fe" ms-click="sendCount('label', 'http://list.docer.com/\u8868\u683c/?tags=\u6761\u5f62\u56fe')" >\u6761\u5f62\u56fe</a></li>\u000a<li><a href="http://list.docer.com/\u8868\u683c/?tags=\u997c\u56fe" ms-click="sendCount('label', 'http://list.docer.com/\u8868\u683c/?tags=\u997c\u56fe')" >\u997c\u56fe</a></li>\u000a<li><a href="http://list.docer.com/\u8868\u683c/?tags=\u9762\u79ef\u56fe" ms-click="sendCount('label', 'http://list.docer.com/\u8868\u683c/?tags=\u9762\u79ef\u56fe')" >\u9762\u79ef\u56fe</a></li>\u000a<li><a href="http://list.docer.com/\u8868\u683c/?tags=\u5706\u73af\u56fe" ms-click="sendCount('label', 'http://list.docer.com/\u8868\u683c/?tags=\u5706\u73af\u56fe')" >\u5706\u73af\u56fe</a></li>\u000a</ul>\u000a<h3>\u8d39\u7528\u62a5\u8868</h3>\u000a<ul class="nll_ul">\u000a<li><a href="http://list.docer.com/\u8868\u683c/?tags=\u8d22\u52a1\u62a5\u8868" ms-click="sendCount('label', 'http://list.docer.com/\u8868\u683c/?tags=\u8d22\u52a1\u62a5\u8868')" >\u8d22\u52a1\u62a5\u8868</a></li>\u000a<li><a href="http://list.docer.com/\u8868\u683c/?tags=\u9884\u7b97\u8868" ms-click="sendCount('label', 'http://list.docer.com/\u8868\u683c/?tags=\u9884\u7b97\u8868')" >\u9884\u7b97\u8868</a></li>\u000a<li><a href="http://list.docer.com/\u8868\u683c/?tags=\u62a5\u9500\u5355\u6a21\u677f" ms-click="sendCount('label', 'http://list.docer.com/\u8868\u683c/?tags=\u62a5\u9500\u5355\u6a21\u677f')" >\u62a5\u9500\u5355\u6a21\u677f</a></li>\u000a<li><a href="http://list.docer.com/\u8868\u683c/?tags=\u660e\u7ec6\u8868" ms-click="sendCount('label', 'http://list.docer.com/\u8868\u683c/?tags=\u660e\u7ec6\u8868')" >\u660e\u7ec6\u8868</a></li>\u000a<li><a href="http://list.docer.com/\u8868\u683c/?tags=\u5bf9\u8d26\u5355" ms-click="sendCount('label', 'http://list.docer.com/\u8868\u683c/?tags=\u5bf9\u8d26\u5355')" >\u5bf9\u8d26\u5355</a></li>\u000a</ul>\u000a<h3>\u4eba\u529b\u8d44\u6e90</h3>\u000a<ul class="nll_ul">\u000a<li><a href="http://list.docer.com/\u8868\u683c/?tags=\u8003\u52e4\u8868" ms-click="sendCount('label', 'http://list.docer.com/\u8868\u683c/?tags=\u8003\u52e4\u8868')" >\u8003\u52e4\u8868</a></li>\u000a<li><a href="http://list.docer.com/\u8868\u683c/?tags=\u4eba\u4e8b\u6863\u6848" ms-click="sendCount('label', 'http://list.docer.com/\u8868\u683c/?tags=\u4eba\u4e8b\u6863\u6848')" >\u4eba\u4e8b\u6863\u6848</a></li>\u000a<li><a href="http://list.docer.com/\u8868\u683c/?tags=\u4eba\u4e8b\u62a5\u8868" ms-click="sendCount('label', 'http://list.docer.com/\u8868\u683c/?tags=\u4eba\u4e8b\u62a5\u8868')" >\u4eba\u4e8b\u62a5\u8868</a></li>\u000a<li><a href="http://list.docer.com/\u8868\u683c/?tags=\u85aa\u916c\u7ba1\u7406" ms-click="sendCount('label', 'http://list.docer.com/\u8868\u683c/?tags=\u85aa\u916c\u7ba1\u7406')" >\u85aa\u916c\u7ba1\u7406</a></li>\u000a<li><a href="http://list.docer.com/\u8868\u683c/?tags=\u7ee9\u6548\u8003\u6838" ms-click="sendCount('label', 'http://list.docer.com/\u8868\u683c/?tags=\u7ee9\u6548\u8003\u6838')" >\u7ee9\u6548\u8003\u6838</a></li>\u000a<li><a href="http://list.docer.com/\u8868\u683c/?tags=\u5458\u5de5\u5173\u7cfb" ms-click="sendCount('label', 'http://list.docer.com/\u8868\u683c/?tags=\u5458\u5de5\u5173\u7cfb')" >\u5458\u5de5\u5173\u7cfb</a></li>\u000a</ul>\u000a<h3>\u8d2d\u9500\u53d1\u8d27</h3>\u000a<ul class="nll_ul">\u000a<li><a href="http://list.docer.com/\u8868\u683c/?tags=\u91c7\u8d2d\u5355" ms-click="sendCount('label', 'http://list.docer.com/\u8868\u683c/?tags=\u91c7\u8d2d\u5355')" >\u91c7\u8d2d\u5355</a></li>\u000a<li><a href="http://list.docer.com/\u8868\u683c/?tags=\u62a5\u4ef7\u5355" ms-click="sendCount('label', 'http://list.docer.com/\u8868\u683c/?tags=\u62a5\u4ef7\u5355')" >\u62a5\u4ef7\u5355</a></li>\u000a<li><a href="http://list.docer.com/\u8868\u683c/?tags=\u53d1\u8d27\u5355" ms-click="sendCount('label', 'http://list.docer.com/\u8868\u683c/?tags=\u53d1\u8d27\u5355')" >\u53d1\u8d27\u5355</a></li>\u000a<li><a href="http://list.docer.com/\u8868\u683c/?tags=\u8d2d\u9500\u5b58" ms-click="sendCount('label', 'http://list.docer.com/\u8868\u683c/?tags=\u8d2d\u9500\u5b58')" >\u8d2d\u9500\u5b58</a></li>\u000a<li><a href="http://list.docer.com/\u8868\u683c/?tags=\u9000\u6362\u8d27" ms-click="sendCount('label', 'http://list.docer.com/\u8868\u683c/?tags=\u9000\u6362\u8d27')" >\u9000\u6362\u8d27</a></li>\u000a</ul>\u000a<h3>\u529e\u516c\u5e38\u7528</h3>\u000a<ul class="nll_ul">\u000a<li><a href="http://list.docer.com/\u8868\u683c/?tags=\u884c\u4e1a\u8868\u683c" ms-click="sendCount('label', 'http://list.docer.com/\u8868\u683c/?tags=\u884c\u4e1a\u8868\u683c')" >\u884c\u4e1a\u8868\u683c</a></li>\u000a<li><a href="http://list.docer.com/\u8868\u683c/?tags=\u65e5\u7a0b\u8868" ms-click="sendCount('label', 'http://list.docer.com/\u8868\u683c/?tags=\u65e5\u7a0b\u8868')" >\u65e5\u7a0b\u8868</a></li>\u000a<li><a href="http://list.docer.com/\u8868\u683c/?tags=\u4f1a\u8bae\u8bb0\u5f55" ms-click="sendCount('label', 'http://list.docer.com/\u8868\u683c/?tags=\u4f1a\u8bae\u8bb0\u5f55')" >\u4f1a\u8bae\u8bb0\u5f55</a></li>\u000a<li><a href="http://list.docer.com/\u8868\u683c/?tags=\u5de5\u4f5c\u8ba1\u5212\u8868" ms-click="sendCount('label', 'http://list.docer.com/\u8868\u683c/?tags=\u5de5\u4f5c\u8ba1\u5212\u8868')" >\u5de5\u4f5c\u8ba1\u5212\u8868</a></li>\u000a<li><a href="http://list.docer.com/\u8868\u683c/?tags=\u884c\u653f\u8868\u683c" ms-click="sendCount('label', 'http://list.docer.com/\u8868\u683c/?tags=\u884c\u653f\u8868\u683c')" >\u884c\u653f\u8868\u683c</a></li>\u000a</ul>\u000a</div>\u000a</li>\u000a<li ms-hover-1="nl_active" ms-hover-2="nl_active_show">\u000a<div class="nll_li_div">\u000a<h3>\u000a<a href="http://chn.docer.com/custom/resume.html?from=nav_left">\u9ad8\u7aef\u5b9a\u5236</a>\u000a</h3>\u000a<span class="arrow"></span>\u000a</div>\u000a<div class="nll_ul_all nll_ul_logo">\u000a<a href="/custom/ppt.html?from=docerlist" class="nav_custom nav_custom_ppt" title="PPT\u62a5\u544a\u8bbe\u8ba1">PPT\u62a5\u544a\u8bbe\u8ba1</a>\u000a<a href="/custom/resume.html?from=docerlist" class="nav_custom nav_custom_resume" title="\u4e2a\u4eba\u7b80\u5386\u8bbe\u8ba1">\u4e2a\u4eba\u7b80\u5386\u8bbe\u8ba1</a>\u000a<a href="/custom/chart.html?from=docerlist" class="nav_custom nav_custom_chart" title="\u62a5\u8868\u56fe\u8868\u8bbe\u8ba1">\u62a5\u8868\u56fe\u8868\u8bbe\u8ba1</a>\u000a<a href="/fanyi/?from=docerlist" class="nav_custom nav_custom_fanyi" title="\u4eba\u5de5\u6587\u6863\u7ffb\u8bd1">\u4eba\u5de5\u6587\u6863\u7ffb\u8bd1</a>\u000a</div>\u000a</li>\u000a<li ms-hover-1="nl_active" ms-hover-2="nl_active_show">\u000a<div class="nll_li_div">\u000a<h3>\u000a<a href="http://www.docer.com/study/?from=nav_left">\u7a3b\u58f3\u4e91\u8bfe\u5802</a>\u000a</h3>\u000a<span class="arrow"></span>\u000a</div>\u000a<div class="nll_ul_all nll_ul_logo">\u000a<a href="http://chn.docer.com/study/%E6%89%80%E6%9C%89/?tags=@%E7%BA%A7%E5%88%AB_%E5%88%9D%E7%BA%A7&orderby=mix/?from=docerlist" class="nav_custom nav_custom4" title="\u57fa\u7840office\u57f9\u8bad">\u57fa\u7840office\u57f9\u8bad</a>\u000a<a href="http://chn.docer.com/study/%E6%89%80%E6%9C%89/?tags=@%E7%BA%A7%E5%88%AB_%E4%B8%AD%E7%BA%A7&orderby=mix/?from=docerlist" class="nav_custom nav_custom5" title="\u8fdb\u9636office\u57f9\u8bad">\u8fdb\u9636office\u57f9\u8bad</a>\u000a</div>\u000a</li>\u000a<li ms-hover-1="nl_active" ms-hover-2="nl_active_show">\u000a<div class="nll_li_div">\u000a<h3>\u000a<a href="http://www.docer.com/zhoubian/?from=nav_left">\u7a3b\u58f3\u5468\u8fb9</a>\u000a</h3>\u000a<span class="arrow"></span>\u000a</div>\u000a<div class="nll_ul_all nll_ul_logo">\u000a<a href="http://list.docer.com/zhoubian?from=docerlist" class="nav_custom nav_custom1" title="\u6c34\u679c\u8272\u65c5\u884c\u80cc\u5305">\u6c34\u679c\u8272\u65c5\u884c\u80cc\u5305</a>\u000a<a href="http://list.docer.com/zhoubian?from=docerlist" class="nav_custom nav_custom2" title="Docer\u5b9a\u5236T\u6064">Docer\u5b9a\u5236T\u6064</a>\u000a</div>\u000a</li>\u000a</ul>\u000a</div>\u000a</li>\u000a<li class="nav_li"><a title="\u9996\u9875" rel="nofollow" ms-click="sendCount('action', '\u9876\u90e8\u5bfc\u822a | \u9996\u9875')" href="http://www.docer.com" class="nav_li_a active">\u9996\u9875</a></li>\u000a<li class="nav_li"><a title="\u7a3b\u58f3\u6708\u5361" ms-click="sendCount('action', '\u9876\u90e8\u5bfc\u822a | \u6708\u5361_\u5bfc\u822a\u5165\u53e3')" href="http://chn.docer.com/card/?from=mall_chn" class="nav_li_a ">\u7a3b\u58f3\u6708\u5361<span class="yearcard_new"></span></a></li>\u000a<li class="nav_li"><a title="PPT\u5b9a\u5236" href="http://chn.docer.com/custom/ppt.html?from=mall_chn" ms-click="sendCount('action', '\u9876\u90e8\u5bfc\u822a | PPT\u5b9a\u5236')" class="nav_li_a ">PPT\u5b9a\u5236<span class="hot"></span></a></li>\u000a<li class="nav_li"><a href="http://chn.docer.com/custom/resume.html?from=mall_chn" ms-click="sendCount('action', '\u9876\u90e8\u5bfc\u822a | \u7b80\u5386\u8bbe\u8ba1')" class="nav_li_a " title="\u7b80\u5386\u8bbe\u8ba1">\u7b80\u5386\u8bbe\u8ba1</a></li>\u000a<li class="nav_li"><a href="http://chn.docer.com/custom/chart.html?from=mall_chn" ms-click="sendCount('action', '\u9876\u90e8\u5bfc\u822a | \u62a5\u8868\u5b9a\u5236')" class="nav_li_a " title="\u62a5\u8868\u5b9a\u5236">\u62a5\u8868\u5b9a\u5236</a></li>\u000a<li class="nav_li"><a title="\u7cbe\u9009\u4e13\u9898" ms-click="sendCount('action', '\u9876\u90e8\u5bfc\u822a | \u7cbe\u9009\u4e13\u9898')" href="http://zt.docer.com/all/?type=market" class="nav_li_a ">\u4e13\u9898</a></li>\u000a<li class="nav_li"><a title="\u514d\u8d39\u6a21\u677f" href="http://chn.docer.com/free/ppt/" class="nav_li_a ">\u514d\u8d39</a></li>\u000a<li class="nav_li"><a title="\u52a0\u76df\u7a3b\u58f3" ms-click="sendCount('action', '\u9876\u90e8\u5bfc\u822a | \u52a0\u76df\u6211\u4eec')" href="http://www.docer.com/per-certificate.html" class="nav_li_a ">\u52a0\u76df\u6211\u4eec</a></li>\u000a</ul>\u000a</div>\u000a<div class="main" ms-controller="SearchCtrl">\u000a<div class="recommend" style="display: block;">\u000a<script type="text/javascript">BAIDU_CLB_fillSlot("1086419");</script>\u000a</div>\u000a<div class="search_main_top">\u000a<div class="main_nav">\u000a<a rel="nofollow" href="http://www.docer.com">\u9996\u9875</a>>\u000a<p>PPT\u6a21\u677f</p>\u000a<p><span class="gray">\u5171<span class="red">10000</span>\u4e2a\u5546\u54c1</span></p>\u000a</div>\u000a<div class="ml_search_top">\u000a<div class="ml_top">\u000a<h2 class="mlt_title">\u5728\u4ee5\u4e0b\u5206\u7c7b\u4e2d\u627e </h2>\u000a<div class="mlt_link">\u000a<label><a href="http://search.docer.com/\u6240\u6709/?sale_type=0&orderby=mix" ms-click="sendCount('label','/search/\u6240\u6709/?sale_type=0&orderby=mix')">\u6240\u6709</a></label>\u000a<span class="sep">|</span>\u000a<label class="red">PPT\u6a21\u677f</label>\u000a<span class="sep">|</span>\u000a<label><a href="http://search.docer.com/PPT\u56fe\u8868/?sale_type=0&orderby=mix" ms-click="sendCount('label','/search/PPT\u56fe\u8868/?sale_type=0&orderby=mix')">PPT\u56fe\u8868</a></label>\u000a<span class="sep">|</span>\u000a<label><a href="http://search.docer.com/\u5e94\u7528\u6587\u4e66/?sale_type=0&orderby=mix" ms-click="sendCount('label','/search/\u5e94\u7528\u6587\u4e66/?sale_type=0&orderby=mix')">\u5e94\u7528\u6587\u4e66</a></label>\u000a<span class="sep">|</span>\u000a<label><a href="http://search.docer.com/\u8868\u683c/?sale_type=0&orderby=mix" ms-click="sendCount('label','/search/\u8868\u683c/?sale_type=0&orderby=mix')">\u8868\u683c</a></label>\u000a<span class="sep">|</span>\u000a<label><a href="http://search.docer.com/\u56fe\u7247\u7d20\u6750/?sale_type=0&orderby=mix" ms-click="sendCount('label','/search/\u56fe\u7247\u7d20\u6750/?sale_type=0&orderby=mix')">\u56fe\u7247\u7d20\u6750</a></label>\u000a<span class="sep">|</span>\u000a<label><a href="http://search.docer.com/PDF/?sale_type=0&orderby=mix" ms-click="sendCount('label','/search/PDF/?sale_type=0&orderby=mix')">PDF</a></label>\u000a</div>\u000a<div class="cb"></div>\u000a</div>\u000a<div ms-widget="selectfilter" class="mb-1" data-selectfilter-tags="" data-selectfilter-url="?sale_type=0&orderby=mix">\u000a<div class="ml_list"><h2 class="mlt_title">\u7c7b\u578b\uff1a</h2>\u000a<div class="mlt_link mlt_link_more">\u000a<div class="mlt_link_list">\u000a<a  class="red" >\u4e0d\u9650</a>\u000a<a  href="http://search.docer.com/PPT\u6a21\u677f/?sale_type=1&orderby=mix" >VIP\u6a21\u677f</a>\u000a<a  href="http://search.docer.com/PPT\u6a21\u677f/?sale_type=2&orderby=mix" >\u514d\u8d39\u6a21\u677f</a>\u000a</div>\u000a</div>\u000a<div class="cb"></div>\u000a</div>\u000a<div class="ml_list">\u000a<h2 class="mlt_title">\u6309\u7528\u9014\uff1a</h2>\u000a<div class="mlt_link mlt_link_more">\u000a<div class="mlt_link_list" ms-class-1="mlt_link_list_more:moreFilter(0)" ms-class-2="mlt_link_list_show:checkboxFilter(0)">\u000a<a class="mlt_link_list_check" ms-class="mlt_link_list_checked:isChecked(0)" href="http://search.docer.com/PPT\u6a21\u677f/?tags=@\u6309\u7528\u9014_\u62a5\u544a&orderby=mix" ms-click-1="selectFilterText($event, 0, 0, '\u6309\u7528\u9014', '\u62a5\u544a')" ms-click-2="sendCount('label', '/search/PPT\u6a21\u677f/?&tags=@\u6309\u7528\u9014_\u62a5\u544a&orderby=mix')">\u62a5\u544a</a>\u000a<a class="mlt_link_list_check" ms-class="mlt_link_list_checked:isChecked(1)" href="http://search.docer.com/PPT\u6a21\u677f/?tags=@\u6309\u7528\u9014_\u53d1\u5e03\u4f1a&orderby=mix" ms-click-1="selectFilterText($event, 0, 1, '\u6309\u7528\u9014', '\u53d1\u5e03\u4f1a')" ms-click-2="sendCount('label', '/search/PPT\u6a21\u677f/?&tags=@\u6309\u7528\u9014_\u53d1\u5e03\u4f1a&orderby=mix')">\u53d1\u5e03\u4f1a</a>\u000a<a class="mlt_link_list_check" ms-class="mlt_link_list_checked:isChecked(2)" href="http://search.docer.com/PPT\u6a21\u677f/?tags=@\u6309\u7528\u9014_\u5e86\u5178\u4eea\u5f0f&orderby=mix" ms-click-1="selectFilterText($event, 0, 2, '\u6309\u7528\u9014', '\u5e86\u5178\u4eea\u5f0f')" ms-click-2="sendCount('label', '/search/PPT\u6a21\u677f/?&tags=@\u6309\u7528\u9014_\u5e86\u5178\u4eea\u5f0f&orderby=mix')">\u5e86\u5178\u4eea\u5f0f</a>\u000a<a class="mlt_link_list_check" ms-class="mlt_link_list_checked:isChecked(3)" href="http://search.docer.com/PPT\u6a21\u677f/?tags=@\u6309\u7528\u9014_\u7ed3\u5a5a&orderby=mix" ms-click-1="selectFilterText($event, 0, 3, '\u6309\u7528\u9014', '\u7ed3\u5a5a')" ms-click-2="sendCount('label', '/search/PPT\u6a21\u677f/?&tags=@\u6309\u7528\u9014_\u7ed3\u5a5a&orderby=mix')">\u7ed3\u5a5a</a>\u000a<a class="mlt_link_list_check" ms-class="mlt_link_list_checked:isChecked(4)" href="http://search.docer.com/PPT\u6a21\u677f/?tags=@\u6309\u7528\u9014_\u8282\u65e5\u5e86\u5178&orderby=mix" ms-click-1="selectFilterText($event, 0, 4, '\u6309\u7528\u9014', '\u8282\u65e5\u5e86\u5178')" ms-click-2="sendCount('label', '/search/PPT\u6a21\u677f/?&tags=@\u6309\u7528\u9014_\u8282\u65e5\u5e86\u5178&orderby=mix')">\u8282\u65e5\u5e86\u5178</a>\u000a<a class="mlt_link_list_check" ms-class="mlt_link_list_checked:isChecked(5)" href="http://search.docer.com/PPT\u6a21\u677f/?tags=@\u6309\u7528\u9014_\u6f14\u8bb2&orderby=mix" ms-click-1="selectFilterText($event, 0, 5, '\u6309\u7528\u9014', '\u6f14\u8bb2')" ms-click-2="sendCount('label', '/search/PPT\u6a21\u677f/?&tags=@\u6309\u7528\u9014_\u6f14\u8bb2&orderby=mix')">\u6f14\u8bb2</a>\u000a<a class="mlt_link_list_check" ms-class="mlt_link_list_checked:isChecked(6)" href="http://search.docer.com/PPT\u6a21\u677f/?tags=@\u6309\u7528\u9014_\u54c1\u724c\u5ba3\u8bb2&orderby=mix" ms-click-1="selectFilterText($event, 0, 6, '\u6309\u7528\u9014', '\u54c1\u724c\u5ba3\u8bb2')" ms-click-2="sendCount('label', '/search/PPT\u6a21\u677f/?&tags=@\u6309\u7528\u9014_\u54c1\u724c\u5ba3\u8bb2&orderby=mix')">\u54c1\u724c\u5ba3\u8bb2</a>\u000a<a class="mlt_link_list_check" ms-class="mlt_link_list_checked:isChecked(7)" href="http://search.docer.com/PPT\u6a21\u677f/?tags=@\u6309\u7528\u9014_\u603b\u7ed3&orderby=mix" ms-click-1="selectFilterText($event, 0, 7, '\u6309\u7528\u9014', '\u603b\u7ed3')" ms-click-2="sendCount('label', '/search/PPT\u6a21\u677f/?&tags=@\u6309\u7528\u9014_\u603b\u7ed3&orderby=mix')">\u603b\u7ed3</a>\u000a<a class="mlt_link_list_check" ms-class="mlt_link_list_checked:isChecked(8)" href="http://search.docer.com/PPT\u6a21\u677f/?tags=@\u6309\u7528\u9014_\u57f9\u8bad&orderby=mix" ms-click-1="selectFilterText($event, 0, 8, '\u6309\u7528\u9014', '\u57f9\u8bad')" ms-click-2="sendCount('label', '/search/PPT\u6a21\u677f/?&tags=@\u6309\u7528\u9014_\u57f9\u8bad&orderby=mix')">\u57f9\u8bad</a>\u000a<a class="mlt_link_list_check" ms-class="mlt_link_list_checked:isChecked(9)" href="http://search.docer.com/PPT\u6a21\u677f/?tags=@\u6309\u7528\u9014_\u6bd5\u4e1a\u7b54\u8fa9&orderby=mix" ms-click-1="selectFilterText($event, 0, 9, '\u6309\u7528\u9014', '\u6bd5\u4e1a\u7b54\u8fa9')" ms-click-2="sendCount('label', '/search/PPT\u6a21\u677f/?&tags=@\u6309\u7528\u9014_\u6bd5\u4e1a\u7b54\u8fa9&orderby=mix')">\u6bd5\u4e1a\u7b54\u8fa9</a>\u000a<a class="mlt_link_list_check" ms-class="mlt_link_list_checked:isChecked(10)" href="http://search.docer.com/PPT\u6a21\u677f/?tags=@\u6309\u7528\u9014_\u7b80\u5386&orderby=mix" ms-click-1="selectFilterText($event, 0, 10, '\u6309\u7528\u9014', '\u7b80\u5386')" ms-click-2="sendCount('label', '/search/PPT\u6a21\u677f/?&tags=@\u6309\u7528\u9014_\u7b80\u5386&orderby=mix')">\u7b80\u5386</a>\u000a<div class="mlt_link_list_btn" ms-visible="checkboxFilter(0)">\u000a<a rel="nofollow" href="#" ms-class-1="mlt_link_list_btn1:!disConfirmBtn(0)" ms-class-2="mlt_link_list_btn1_gray:disConfirmBtn(0)" ms-click="confirm">\u786e\u5b9a</a>\u000a<a rel="nofollow" href="#" class="mlt_link_list_btn2" ms-click-1="toggleCheckboxFilter($event, 0)">\u53d6\u6d88</a>\u000a</div>\u000a</div>\u000a</div>\u000a<div class="mlt_btn" style="display:none;" ms-visible="checkShowMore(0)">\u000a<a rel="nofollow" href="#" class="mlt_btn1" ms-class-1="mlt_btn1_more:moreFilter(0)" ms-visible="!checkboxFilter(0)" ms-click="toggleMoreFilter($event, 0)" ms-text="moreFilter(0) ? '\u6536\u8d77': '\u66f4\u591a'"></a>\u000a</div>\u000a<div class="mlt_btn">\u000a<a rel="nofollow" href="#" class="mlt_btn2" ms-visible="!checkboxFilter(0)" ms-click-1="toggleCheckboxFilter($event, 0)">\u591a\u9009</a>\u000a</div>\u000a<div class="cb"></div>\u000a</div>\u000a<div class="ml_list">\u000a<h2 class="mlt_title">\u6309\u884c\u4e1a\uff1a</h2>\u000a<div class="mlt_link mlt_link_more">\u000a<div class="mlt_link_list" ms-class-1="mlt_link_list_more:moreFilter(1)" ms-class-2="mlt_link_list_show:checkboxFilter(1)">\u000a<a class="mlt_link_list_check" ms-class="mlt_link_list_checked:isChecked(0)" href="http://search.docer.com/PPT\u6a21\u677f/?tags=@\u6309\u884c\u4e1a_\u4e92\u8054\u7f51&orderby=mix" ms-click-1="selectFilterText($event, 1, 0, '\u6309\u884c\u4e1a', '\u4e92\u8054\u7f51')" ms-click-2="sendCount('label', '/search/PPT\u6a21\u677f/?&tags=@\u6309\u884c\u4e1a_\u4e92\u8054\u7f51&orderby=mix')">\u4e92\u8054\u7f51</a>\u000a<a class="mlt_link_list_check" ms-class="mlt_link_list_checked:isChecked(1)" href="http://search.docer.com/PPT\u6a21\u677f/?tags=@\u6309\u884c\u4e1a_\u79d1\u6280&orderby=mix" ms-click-1="selectFilterText($event, 1, 1, '\u6309\u884c\u4e1a', '\u79d1\u6280')" ms-click-2="sendCount('label', '/search/PPT\u6a21\u677f/?&tags=@\u6309\u884c\u4e1a_\u79d1\u6280&orderby=mix')">\u79d1\u6280</a>\u000a<a class="mlt_link_list_check" ms-class="mlt_link_list_checked:isChecked(2)" href="http://search.docer.com/PPT\u6a21\u677f/?tags=@\u6309\u884c\u4e1a_\u4ea4\u901a&orderby=mix" ms-click-1="selectFilterText($event, 1, 2, '\u6309\u884c\u4e1a', '\u4ea4\u901a')" ms-click-2="sendCount('label', '/search/PPT\u6a21\u677f/?&tags=@\u6309\u884c\u4e1a_\u4ea4\u901a&orderby=mix')">\u4ea4\u901a</a>\u000a<a class="mlt_link_list_check" ms-class="mlt_link_list_checked:isChecked(3)" href="http://search.docer.com/PPT\u6a21\u677f/?tags=@\u6309\u884c\u4e1a_\u6559\u80b2&orderby=mix" ms-click-1="selectFilterText($event, 1, 3, '\u6309\u884c\u4e1a', '\u6559\u80b2')" ms-click-2="sendCount('label', '/search/PPT\u6a21\u677f/?&tags=@\u6309\u884c\u4e1a_\u6559\u80b2&orderby=mix')">\u6559\u80b2</a>\u000a<a class="mlt_link_list_check" ms-class="mlt_link_list_checked:isChecked(4)" href="http://search.docer.com/PPT\u6a21\u677f/?tags=@\u6309\u884c\u4e1a_\u533b\u836f&orderby=mix" ms-click-1="selectFilterText($event, 1, 4, '\u6309\u884c\u4e1a', '\u533b\u836f')" ms-click-2="sendCount('label', '/search/PPT\u6a21\u677f/?&tags=@\u6309\u884c\u4e1a_\u533b\u836f&orderby=mix')">\u533b\u836f</a>\u000a<a class="mlt_link_list_check" ms-class="mlt_link_list_checked:isChecked(5)" href="http://search.docer.com/PPT\u6a21\u677f/?tags=@\u6309\u884c\u4e1a_\u827a\u672f&orderby=mix" ms-click-1="selectFilterText($event, 1, 5, '\u6309\u884c\u4e1a', '\u827a\u672f')" ms-click-2="sendCount('label', '/search/PPT\u6a21\u677f/?&tags=@\u6309\u884c\u4e1a_\u827a\u672f&orderby=mix')">\u827a\u672f</a>\u000a<a class="mlt_link_list_check" ms-class="mlt_link_list_checked:isChecked(6)" href="http://search.docer.com/PPT\u6a21\u677f/?tags=@\u6309\u884c\u4e1a_\u5e7f\u544a&orderby=mix" ms-click-1="selectFilterText($event, 1, 6, '\u6309\u884c\u4e1a', '\u5e7f\u544a')" ms-click-2="sendCount('label', '/search/PPT\u6a21\u677f/?&tags=@\u6309\u884c\u4e1a_\u5e7f\u544a&orderby=mix')">\u5e7f\u544a</a>\u000a<a class="mlt_link_list_check" ms-class="mlt_link_list_checked:isChecked(7)" href="http://search.docer.com/PPT\u6a21\u677f/?tags=@\u6309\u884c\u4e1a_\u91d1\u878d&orderby=mix" ms-click-1="selectFilterText($event, 1, 7, '\u6309\u884c\u4e1a', '\u91d1\u878d')" ms-click-2="sendCount('label', '/search/PPT\u6a21\u677f/?&tags=@\u6309\u884c\u4e1a_\u91d1\u878d&orderby=mix')">\u91d1\u878d</a>\u000a<a class="mlt_link_list_check" ms-class="mlt_link_list_checked:isChecked(8)" href="http://search.docer.com/PPT\u6a21\u677f/?tags=@\u6309\u884c\u4e1a_\u623f\u5730\u4ea7&orderby=mix" ms-click-1="selectFilterText($event, 1, 8, '\u6309\u884c\u4e1a', '\u623f\u5730\u4ea7')" ms-click-2="sendCount('label', '/search/PPT\u6a21\u677f/?&tags=@\u6309\u884c\u4e1a_\u623f\u5730\u4ea7&orderby=mix')">\u623f\u5730\u4ea7</a>\u000a<a class="mlt_link_list_check" ms-class="mlt_link_list_checked:isChecked(9)" href="http://search.docer.com/PPT\u6a21\u677f/?tags=@\u6309\u884c\u4e1a_\u515a\u653f&orderby=mix" ms-click-1="selectFilterText($event, 1, 9, '\u6309\u884c\u4e1a', '\u515a\u653f')" ms-click-2="sendCount('label', '/search/PPT\u6a21\u677f/?&tags=@\u6309\u884c\u4e1a_\u515a\u653f&orderby=mix')">\u515a\u653f</a>\u000a<a class="mlt_link_list_check" ms-class="mlt_link_list_checked:isChecked(10)" href="http://search.docer.com/PPT\u6a21\u677f/?tags=@\u6309\u884c\u4e1a_\u5f71\u89c6&orderby=mix" ms-click-1="selectFilterText($event, 1, 10, '\u6309\u884c\u4e1a', '\u5f71\u89c6')" ms-click-2="sendCount('label', '/search/PPT\u6a21\u677f/?&tags=@\u6309\u884c\u4e1a_\u5f71\u89c6&orderby=mix')">\u5f71\u89c6</a>\u000a<a class="mlt_link_list_check" ms-class="mlt_link_list_checked:isChecked(11)" href="http://search.docer.com/PPT\u6a21\u677f/?tags=@\u6309\u884c\u4e1a_\u80fd\u6e90&orderby=mix" ms-click-1="selectFilterText($event, 1, 11, '\u6309\u884c\u4e1a', '\u80fd\u6e90')" ms-click-2="sendCount('label', '/search/PPT\u6a21\u677f/?&tags=@\u6309\u884c\u4e1a_\u80fd\u6e90&orderby=mix')">\u80fd\u6e90</a>\u000a<div class="mlt_link_list_btn" ms-visible="checkboxFilter(1)">\u000a<a rel="nofollow" href="#" ms-class-1="mlt_link_list_btn1:!disConfirmBtn(1)" ms-class-2="mlt_link_list_btn1_gray:disConfirmBtn(1)" ms-click="confirm">\u786e\u5b9a</a>\u000a<a rel="nofollow" href="#" class="mlt_link_list_btn2" ms-click-1="toggleCheckboxFilter($event, 1)">\u53d6\u6d88</a>\u000a</div>\u000a</div>\u000a</div>\u000a<div class="mlt_btn" style="display:none;" ms-visible="checkShowMore(1)">\u000a<a rel="nofollow" href="#" class="mlt_btn1" ms-class-1="mlt_btn1_more:moreFilter(1)" ms-visible="!checkboxFilter(1)" ms-click="toggleMoreFilter($event, 1)" ms-text="moreFilter(1) ? '\u6536\u8d77': '\u66f4\u591a'"></a>\u000a</div>\u000a<div class="mlt_btn">\u000a<a rel="nofollow" href="#" class="mlt_btn2" ms-visible="!checkboxFilter(1)" ms-click-1="toggleCheckboxFilter($event, 1)">\u591a\u9009</a>\u000a</div>\u000a<div class="cb"></div>\u000a</div>\u000a<div class="ml_list">\u000a<h2 class="mlt_title">\u6309\u98ce\u683c\uff1a</h2>\u000a<div class="mlt_link mlt_link_more">\u000a<div class="mlt_link_list" ms-class-1="mlt_link_list_more:moreFilter(2)" ms-class-2="mlt_link_list_show:checkboxFilter(2)">\u000a<a class="mlt_link_list_check" ms-class="mlt_link_list_checked:isChecked(0)" href="http://search.docer.com/PPT\u6a21\u677f/?tags=@\u6309\u98ce\u683c_\u5546\u52a1&orderby=mix" ms-click-1="selectFilterText($event, 2, 0, '\u6309\u98ce\u683c', '\u5546\u52a1')" ms-click-2="sendCount('label', '/search/PPT\u6a21\u677f/?&tags=@\u6309\u98ce\u683c_\u5546\u52a1&orderby=mix')">\u5546\u52a1</a>\u000a<a class="mlt_link_list_check" ms-class="mlt_link_list_checked:isChecked(1)" href="http://search.docer.com/PPT\u6a21\u677f/?tags=@\u6309\u98ce\u683c_\u7b80\u7ea6&orderby=mix" ms-click-1="selectFilterText($event, 2, 1, '\u6309\u98ce\u683c', '\u7b80\u7ea6')" ms-click-2="sendCount('label', '/search/PPT\u6a21\u677f/?&tags=@\u6309\u98ce\u683c_\u7b80\u7ea6&orderby=mix')">\u7b80\u7ea6</a>\u000a<a class="mlt_link_list_check" ms-class="mlt_link_list_checked:isChecked(2)" href="http://search.docer.com/PPT\u6a21\u677f/?tags=@\u6309\u98ce\u683c_\u590d\u53e4\u98ce&orderby=mix" ms-click-1="selectFilterText($event, 2, 2, '\u6309\u98ce\u683c', '\u590d\u53e4\u98ce')" ms-click-2="sendCount('label', '/search/PPT\u6a21\u677f/?&tags=@\u6309\u98ce\u683c_\u590d\u53e4\u98ce&orderby=mix')">\u590d\u53e4\u98ce</a>\u000a<a class="mlt_link_list_check" ms-class="mlt_link_list_checked:isChecked(3)" href="http://search.docer.com/PPT\u6a21\u677f/?tags=@\u6309\u98ce\u683c_\u521b\u610f\u8bbe\u8ba1&orderby=mix" ms-click-1="selectFilterText($event, 2, 3, '\u6309\u98ce\u683c', '\u521b\u610f\u8bbe\u8ba1')" ms-click-2="sendCount('label', '/search/PPT\u6a21\u677f/?&tags=@\u6309\u98ce\u683c_\u521b\u610f\u8bbe\u8ba1&orderby=mix')">\u521b\u610f\u8bbe\u8ba1</a>\u000a<a class="mlt_link_list_check" ms-class="mlt_link_list_checked:isChecked(4)" href="http://search.docer.com/PPT\u6a21\u677f/?tags=@\u6309\u98ce\u683c_\u6b27\u7f8e\u98ce&orderby=mix" ms-click-1="selectFilterText($event, 2, 4, '\u6309\u98ce\u683c', '\u6b27\u7f8e\u98ce')" ms-click-2="sendCount('label', '/search/PPT\u6a21\u677f/?&tags=@\u6309\u98ce\u683c_\u6b27\u7f8e\u98ce&orderby=mix')">\u6b27\u7f8e\u98ce</a>\u000a<a class="mlt_link_list_check" ms-class="mlt_link_list_checked:isChecked(5)" href="http://search.docer.com/PPT\u6a21\u677f/?tags=@\u6309\u98ce\u683c_\u6e05\u65b0\u6de1\u96c5&orderby=mix" ms-click-1="selectFilterText($event, 2, 5, '\u6309\u98ce\u683c', '\u6e05\u65b0\u6de1\u96c5')" ms-click-2="sendCount('label', '/search/PPT\u6a21\u677f/?&tags=@\u6309\u98ce\u683c_\u6e05\u65b0\u6de1\u96c5&orderby=mix')">\u6e05\u65b0\u6de1\u96c5</a>\u000a<a class="mlt_link_list_check" ms-class="mlt_link_list_checked:isChecked(6)" href="http://search.docer.com/PPT\u6a21\u677f/?tags=@\u6309\u98ce\u683c_\u53ef\u7231&orderby=mix" ms-click-1="selectFilterText($event, 2, 6, '\u6309\u98ce\u683c', '\u53ef\u7231')" ms-click-2="sendCount('label', '/search/PPT\u6a21\u677f/?&tags=@\u6309\u98ce\u683c_\u53ef\u7231&orderby=mix')">\u53ef\u7231</a>\u000a<a class="mlt_link_list_check" ms-class="mlt_link_list_checked:isChecked(7)" href="http://search.docer.com/PPT\u6a21\u677f/?tags=@\u6309\u98ce\u683c_\u4e2d\u56fd\u98ce&orderby=mix" ms-click-1="selectFilterText($event, 2, 7, '\u6309\u98ce\u683c', '\u4e2d\u56fd\u98ce')" ms-click-2="sendCount('label', '/search/PPT\u6a21\u677f/?&tags=@\u6309\u98ce\u683c_\u4e2d\u56fd\u98ce&orderby=mix')">\u4e2d\u56fd\u98ce</a>\u000a<a class="mlt_link_list_check" ms-class="mlt_link_list_checked:isChecked(8)" href="http://search.docer.com/PPT\u6a21\u677f/?tags=@\u6309\u98ce\u683c_\u97e9\u8303\u513f&orderby=mix" ms-click-1="selectFilterText($event, 2, 8, '\u6309\u98ce\u683c', '\u97e9\u8303\u513f')" ms-click-2="sendCount('label', '/search/PPT\u6a21\u677f/?&tags=@\u6309\u98ce\u683c_\u97e9\u8303\u513f&orderby=mix')">\u97e9\u8303\u513f</a>\u000a<a class="mlt_link_list_check" ms-class="mlt_link_list_checked:isChecked(9)" href="http://search.docer.com/PPT\u6a21\u677f/?tags=@\u6309\u98ce\u683c_\u9177\u70ab&orderby=mix" ms-click-1="selectFilterText($event, 2, 9, '\u6309\u98ce\u683c', '\u9177\u70ab')" ms-click-2="sendCount('label', '/search/PPT\u6a21\u677f/?&tags=@\u6309\u98ce\u683c_\u9177\u70ab&orderby=mix')">\u9177\u70ab</a>\u000a<div class="mlt_link_list_btn" ms-visible="checkboxFilter(2)">\u000a<a rel="nofollow" href="#" ms-class-1="mlt_link_list_btn1:!disConfirmBtn(2)" ms-class-2="mlt_link_list_btn1_gray:disConfirmBtn(2)" ms-click="confirm">\u786e\u5b9a</a>\u000a<a rel="nofollow" href="#" class="mlt_link_list_btn2" ms-click-1="toggleCheckboxFilter($event, 2)">\u53d6\u6d88</a>\u000a</div>\u000a</div>\u000a</div>\u000a<div class="mlt_btn" style="display:none;" ms-visible="checkShowMore(2)">\u000a<a rel="nofollow" href="#" class="mlt_btn1" ms-class-1="mlt_btn1_more:moreFilter(2)" ms-visible="!checkboxFilter(2)" ms-click="toggleMoreFilter($event, 2)" ms-text="moreFilter(2) ? '\u6536\u8d77': '\u66f4\u591a'"></a>\u000a</div>\u000a<div class="mlt_btn">\u000a<a rel="nofollow" href="#" class="mlt_btn2" ms-visible="!checkboxFilter(2)" ms-click-1="toggleCheckboxFilter($event, 2)">\u591a\u9009</a>\u000a</div>\u000a<div class="cb"></div>\u000a</div>\u000a<div class="ml_list">\u000a<h2 class="mlt_title">\u989c\u8272\uff1a</h2>\u000a<div class="mlt_link mlt_link_more">\u000a<div class="mlt_link_list" ms-class-1="mlt_link_list_more:moreFilter(3)" ms-class-2="mlt_link_list_show:checkboxFilter(3)">\u000a<a class="mlt_link_list_check" ms-class="mlt_link_list_checked:isChecked(0)" href="http://search.docer.com/PPT\u6a21\u677f/?tags=@\u989c\u8272_\u7eff\u8272&orderby=mix" ms-click-1="selectFilterText($event, 3, 0, '\u989c\u8272', '\u7eff\u8272')" ms-click-2="sendCount('label', '/search/PPT\u6a21\u677f/?&tags=@\u989c\u8272_\u7eff\u8272&orderby=mix')">\u7eff\u8272</a>\u000a<a class="mlt_link_list_check" ms-class="mlt_link_list_checked:isChecked(1)" href="http://search.docer.com/PPT\u6a21\u677f/?tags=@\u989c\u8272_\u84dd\u8272&orderby=mix" ms-click-1="selectFilterText($event, 3, 1, '\u989c\u8272', '\u84dd\u8272')" ms-click-2="sendCount('label', '/search/PPT\u6a21\u677f/?&tags=@\u989c\u8272_\u84dd\u8272&orderby=mix')">\u84dd\u8272</a>\u000a<a class="mlt_link_list_check" ms-class="mlt_link_list_checked:isChecked(2)" href="http://search.docer.com/PPT\u6a21\u677f/?tags=@\u989c\u8272_\u7d2b\u8272&orderby=mix" ms-click-1="selectFilterText($event, 3, 2, '\u989c\u8272', '\u7d2b\u8272')" ms-click-2="sendCount('label', '/search/PPT\u6a21\u677f/?&tags=@\u989c\u8272_\u7d2b\u8272&orderby=mix')">\u7d2b\u8272</a>\u000a<a class="mlt_link_list_check" ms-class="mlt_link_list_checked:isChecked(3)" href="http://search.docer.com/PPT\u6a21\u677f/?tags=@\u989c\u8272_\u9ed1\u8272&orderby=mix" ms-click-1="selectFilterText($event, 3, 3, '\u989c\u8272', '\u9ed1\u8272')" ms-click-2="sendCount('label', '/search/PPT\u6a21\u677f/?&tags=@\u989c\u8272_\u9ed1\u8272&orderby=mix')">\u9ed1\u8272</a>\u000a<a class="mlt_link_list_check" ms-class="mlt_link_list_checked:isChecked(4)" href="http://search.docer.com/PPT\u6a21\u677f/?tags=@\u989c\u8272_\u7c89\u8272&orderby=mix" ms-click-1="selectFilterText($event, 3, 4, '\u989c\u8272', '\u7c89\u8272')" ms-click-2="sendCount('label', '/search/PPT\u6a21\u677f/?&tags=@\u989c\u8272_\u7c89\u8272&orderby=mix')">\u7c89\u8272</a>\u000a<a class="mlt_link_list_check" ms-class="mlt_link_list_checked:isChecked(5)" href="http://search.docer.com/PPT\u6a21\u677f/?tags=@\u989c\u8272_\u7ea2\u8272&orderby=mix" ms-click-1="selectFilterText($event, 3, 5, '\u989c\u8272', '\u7ea2\u8272')" ms-click-2="sendCount('label', '/search/PPT\u6a21\u677f/?&tags=@\u989c\u8272_\u7ea2\u8272&orderby=mix')">\u7ea2\u8272</a>\u000a<a class="mlt_link_list_check" ms-class="mlt_link_list_checked:isChecked(6)" href="http://search.docer.com/PPT\u6a21\u677f/?tags=@\u989c\u8272_\u9ec4\u8272&orderby=mix" ms-click-1="selectFilterText($event, 3, 6, '\u989c\u8272', '\u9ec4\u8272')" ms-click-2="sendCount('label', '/search/PPT\u6a21\u677f/?&tags=@\u989c\u8272_\u9ec4\u8272&orderby=mix')">\u9ec4\u8272</a>\u000a<a class="mlt_link_list_check" ms-class="mlt_link_list_checked:isChecked(7)" href="http://search.docer.com/PPT\u6a21\u677f/?tags=@\u989c\u8272_\u767d\u8272&orderby=mix" ms-click-1="selectFilterText($event, 3, 7, '\u989c\u8272', '\u767d\u8272')" ms-click-2="sendCount('label', '/search/PPT\u6a21\u677f/?&tags=@\u989c\u8272_\u767d\u8272&orderby=mix')">\u767d\u8272</a>\u000a<a class="mlt_link_list_check" ms-class="mlt_link_list_checked:isChecked(8)" href="http://search.docer.com/PPT\u6a21\u677f/?tags=@\u989c\u8272_\u7070\u8272&orderby=mix" ms-click-1="selectFilterText($event, 3, 8, '\u989c\u8272', '\u7070\u8272')" ms-click-2="sendCount('label', '/search/PPT\u6a21\u677f/?&tags=@\u989c\u8272_\u7070\u8272&orderby=mix')">\u7070\u8272</a>\u000a<a class="mlt_link_list_check" ms-class="mlt_link_list_checked:isChecked(9)" href="http://search.docer.com/PPT\u6a21\u677f/?tags=@\u989c\u8272_\u5f69\u8272&orderby=mix" ms-click-1="selectFilterText($event, 3, 9, '\u989c\u8272', '\u5f69\u8272')" ms-click-2="sendCount('label', '/search/PPT\u6a21\u677f/?&tags=@\u989c\u8272_\u5f69\u8272&orderby=mix')">\u5f69\u8272</a>\u000a<div class="mlt_link_list_btn" ms-visible="checkboxFilter(3)">\u000a<a rel="nofollow" href="#" ms-class-1="mlt_link_list_btn1:!disConfirmBtn(3)" ms-class-2="mlt_link_list_btn1_gray:disConfirmBtn(3)" ms-click="confirm">\u786e\u5b9a</a>\u000a<a rel="nofollow" href="#" class="mlt_link_list_btn2" ms-click-1="toggleCheckboxFilter($event, 3)">\u53d6\u6d88</a>\u000a</div>\u000a</div>\u000a</div>\u000a<div class="mlt_btn" style="display:none;" ms-visible="checkShowMore(3)">\u000a<a rel="nofollow" href="#" class="mlt_btn1" ms-class-1="mlt_btn1_more:moreFilter(3)" ms-visible="!checkboxFilter(3)" ms-click="toggleMoreFilter($event, 3)" ms-text="moreFilter(3) ? '\u6536\u8d77': '\u66f4\u591a'"></a>\u000a</div>\u000a<div class="mlt_btn">\u000a<a rel="nofollow" href="#" class="mlt_btn2" ms-visible="!checkboxFilter(3)" ms-click-1="toggleCheckboxFilter($event, 3)">\u591a\u9009</a>\u000a</div>\u000a<div class="cb"></div>\u000a</div>\u000a<div class="ml_list">\u000a<h2 class="mlt_title">\u6bd4\u4f8b\uff1a</h2>\u000a<div class="mlt_link mlt_link_more">\u000a<div class="mlt_link_list" ms-class-1="mlt_link_list_more:moreFilter(4)" ms-class-2="mlt_link_list_show:checkboxFilter(4)">\u000a<a class="mlt_link_list_check" ms-class="mlt_link_list_checked:isChecked(0)" href="http://search.docer.com/PPT\u6a21\u677f/?tags=@\u6bd4\u4f8b_\u666e\u5c4f&orderby=mix" ms-click-1="selectFilterText($event, 4, 0, '\u6bd4\u4f8b', '\u666e\u5c4f')" ms-click-2="sendCount('label', '/search/PPT\u6a21\u677f/?&tags=@\u6bd4\u4f8b_\u666e\u5c4f&orderby=mix')">\u666e\u5c4f</a>\u000a<a class="mlt_link_list_check" ms-class="mlt_link_list_checked:isChecked(1)" href="http://search.docer.com/PPT\u6a21\u677f/?tags=@\u6bd4\u4f8b_\u5bbd\u5c4f&orderby=mix" ms-click-1="selectFilterText($event, 4, 1, '\u6bd4\u4f8b', '\u5bbd\u5c4f')" ms-click-2="sendCount('label', '/search/PPT\u6a21\u677f/?&tags=@\u6bd4\u4f8b_\u5bbd\u5c4f&orderby=mix')">\u5bbd\u5c4f</a>\u000a</div>\u000a</div>\u000a<div class="mlt_btn" style="display:none;" ms-visible="checkShowMore(4)">\u000a<a rel="nofollow" href="#" class="mlt_btn1" ms-class-1="mlt_btn1_more:moreFilter(4)" ms-visible="!checkboxFilter(4)" ms-click="toggleMoreFilter($event, 4)" ms-text="moreFilter(4) ? '\u6536\u8d77': '\u66f4\u591a'"></a>\u000a</div>\u000a<div class="cb"></div>\u000a</div>\u000a<div class="ml_list">\u000a<h2 class="mlt_title">\u4ef7\u683c\uff1a</h2>\u000a<div class="mlt_link mlt_link_more">\u000a<div class="mlt_link_list" ms-class-1="mlt_link_list_more:moreFilter(5)" ms-class-2="mlt_link_list_show:checkboxFilter(5)">\u000a<a class="mlt_link_list_check" ms-class="mlt_link_list_checked:isChecked(0)" href="http://search.docer.com/PPT\u6a21\u677f/?tags=@\u4ef7\u683c_1\u5143-5\u5143&orderby=mix" ms-click-1="selectFilterText($event, 5, 0, '\u4ef7\u683c', '1\u5143-5\u5143')" ms-click-2="sendCount('label', '/search/PPT\u6a21\u677f/?&tags=@\u4ef7\u683c_1\u5143-5\u5143&orderby=mix')">1\u5143-5\u5143</a>\u000a<a class="mlt_link_list_check" ms-class="mlt_link_list_checked:isChecked(1)" href="http://search.docer.com/PPT\u6a21\u677f/?tags=@\u4ef7\u683c_5\u5143-10\u5143&orderby=mix" ms-click-1="selectFilterText($event, 5, 1, '\u4ef7\u683c', '5\u5143-10\u5143')" ms-click-2="sendCount('label', '/search/PPT\u6a21\u677f/?&tags=@\u4ef7\u683c_5\u5143-10\u5143&orderby=mix')">5\u5143-10\u5143</a>\u000a<a class="mlt_link_list_check" ms-class="mlt_link_list_checked:isChecked(2)" href="http://search.docer.com/PPT\u6a21\u677f/?tags=@\u4ef7\u683c_10\u5143-15\u5143&orderby=mix" ms-click-1="selectFilterText($event, 5, 2, '\u4ef7\u683c', '10\u5143-15\u5143')" ms-click-2="sendCount('label', '/search/PPT\u6a21\u677f/?&tags=@\u4ef7\u683c_10\u5143-15\u5143&orderby=mix')">10\u5143-15\u5143</a>\u000a<a class="mlt_link_list_check" ms-class="mlt_link_list_checked:isChecked(3)" href="http://search.docer.com/PPT\u6a21\u677f/?tags=@\u4ef7\u683c_>15\u5143&orderby=mix" ms-click-1="selectFilterText($event, 5, 3, '\u4ef7\u683c', '>15\u5143')" ms-click-2="sendCount('label', '/search/PPT\u6a21\u677f/?&tags=@\u4ef7\u683c_>15\u5143&orderby=mix')">>15\u5143</a>\u000a<span class="mll_input">\u000a\uffe5<input type="text" ms-duplex="minPrice" ms-keyup="priceFilterKeyup">\u000a</span>\u000a-\u000a<span class="mll_input">\u000a\uffe5<input type="text" ms-duplex="maxPrice" ms-keyup="priceFilterKeyup">\u000a</span>\u000a<a href="#" class="mll_btn" ms-click="confirmPrice">\u786e\u5b9a</a>\u000a</div>\u000a</div>\u000a<div class="mlt_btn" style="display:none;" ms-visible="checkShowMore(5)">\u000a<a rel="nofollow" href="#" class="mlt_btn1" ms-class-1="mlt_btn1_more:moreFilter(5)" ms-visible="!checkboxFilter(5)" ms-click="toggleMoreFilter($event, 5)" ms-text="moreFilter(5) ? '\u6536\u8d77': '\u66f4\u591a'"></a>\u000a</div>\u000a<div class="cb"></div>\u000a</div>\u000a</div>\u000a</div>\u000a</div>\u000a<div class="ml_content" ms-widget="collect, searchCollect">\u000a<ul class="ml_content_top">\u000a<li><a rel="nofollow" href="javascript:void(0);" class="mct_a active">\u63a8\u8350</a></li>\u000a<li><a rel="nofollow" href="http://search.docer.com/PPT\u6a21\u677f/?orderby=hot" ms-click="sendCount('label', 'http://list.docer.com/PPT\u6a21\u677f/?orderby=hot')" class="mct_a">\u4e0b\u8f7d</a></li>\u000a<li><a rel="nofollow" href="http://search.docer.com/PPT\u6a21\u677f/?orderby=new" ms-click="sendCount('label', 'http://list.docer.com/PPT\u6a21\u677f/?orderby=new')" class="mct_a">\u6700\u65b0</a></li>\u000a</ul>\u000a<ul class="ml_content_main ml_content_main_ppt">\u000a<li ms-hover="hover">\u000a<a href="http://detail.docer.com/18702.html" target="_blank" class="mcm_img" title="\u7eff\u8272\u542b\u7f9e\u8349.dpt"><img src="/application/styles/images/loading48.gif" lazyLoadSrc="http://img1.template.cache.wps.cn/wps/cdnwps/upload/official/template/2012-4-23/4f94fa558d183.png/210x157.jpg" alt="\u7eff\u8272\u542b\u7f9e\u8349.dpt"></a>\u000a<p>\u000a<a href="http://detail.docer.com/18702.html" target="_blank" class="mcm_title" title="\u7eff\u8272\u542b\u7f9e\u8349.dpt">\u7eff\u8272\u542b\u7f9e\u8349</a>\u000a</p>\u000a<div class="mcm_show">\u000a<p>\u000a<span class="gray" title="\u9884\u89c8\uff1a797560">\u9884\u89c8\uff1a797560</span>\u000a<a href="javascript:void(0)" class="collect" ms-click="clickCollect($event, 18702, 1, 3)" title="\u6536\u85cf"></a>\u000a</p>\u000a</div>\u000a</li>\u000a<li ms-hover="hover">\u000a<a href="http://detail.docer.com/6466.html" target="_blank" class="mcm_img" title="\u5546\u52a1\u9636\u68af\uff08\u52a8\u753b\uff09.dpt"><img src="/application/styles/images/loading48.gif" lazyLoadSrc="http://img1.template.cache.wps.cn/wps/cdnwps/upload/official/template/2009-11-30/4b13220fe992b.png/210x157.jpg" alt="\u5546\u52a1\u9636\u68af\uff08\u52a8\u753b\uff09.dpt"></a>\u000a<p>\u000a<a href="http://detail.docer.com/6466.html" target="_blank" class="mcm_title" title="\u5546\u52a1\u9636\u68af\uff08\u52a8\u753b\uff09.dpt">\u5546\u52a1\u9636\u68af\uff08\u52a8\u753b\uff09</a>\u000a</p>\u000a<div class="mcm_show">\u000a<p>\u000a<span class="gray" title="\u9884\u89c8\uff1a500235">\u9884\u89c8\uff1a500235</span>\u000a<a href="javascript:void(0)" class="collect" ms-click="clickCollect($event, 6466, 1, 3)" title="\u6536\u85cf"></a>\u000a</p>\u000a</div>\u000a</li>\u000a<li ms-hover="hover">\u000a<a href="http://detail.docer.com/6104.html" target="_blank" class="mcm_img" title="\u89e3\u5f00\u7591\u95ee_\u8bfe\u4ef6PPT\u6a21\u677f.dpt"><img src="/application/styles/images/loading48.gif" lazyLoadSrc="http://img1.template.cache.wps.cn/wps/cdnwps/upload/official/template/2009-9-8/4aa5ef5fbd988.png/210x157.jpg" alt="\u89e3\u5f00\u7591\u95ee_\u8bfe\u4ef6PPT\u6a21\u677f.dpt"></a>\u000a<p>\u000a<a href="http://detail.docer.com/6104.html" target="_blank" class="mcm_title" title="\u89e3\u5f00\u7591\u95ee_\u8bfe\u4ef6PPT\u6a21\u677f.dpt">\u89e3\u5f00\u7591\u95ee_\u8bfe\u4ef6PPT\u6a21\u677f</a>\u000a</p>\u000a<div class="mcm_show">\u000a<p>\u000a<span class="gray" title="\u9884\u89c8\uff1a511081">\u9884\u89c8\uff1a511081</span>\u000a<a href="javascript:void(0)" class="collect" ms-click="clickCollect($event, 6104, 1, 3)" title="\u6536\u85cf"></a>\u000a</p>\u000a</div>\u000a</li>\u000a<li ms-hover="hover">\u000a<a href="http://detail.docer.com/190875.html" target="_blank" class="mcm_img" title="\u6f2b\u753b\u98ce\u683c\u6a21\u677f.dpt"><img src="/application/styles/images/loading48.gif" lazyLoadSrc="http://img1.template.cache.wps.cn/wps/cdnwps/upload/official/preview/2013-5-28/51a4799dc158d_1.png/210x157.jpg" alt="\u6f2b\u753b\u98ce\u683c\u6a21\u677f.dpt"></a>\u000a<p>\u000a<a href="http://detail.docer.com/190875.html" target="_blank" class="mcm_title" title="\u6f2b\u753b\u98ce\u683c\u6a21\u677f.dpt">\u6f2b\u753b\u98ce\u683c\u6a21\u677f</a>\u000a</p>\u000a<div class="mcm_show">\u000a<p>\u000a<span class="gray" title="\u9884\u89c8\uff1a505209">\u9884\u89c8\uff1a505209</span>\u000a<a href="javascript:void(0)" class="collect" ms-click="clickCollect($event, 190875, 1, 3)" title="\u6536\u85cf"></a>\u000a</p>\u000a</div>\u000a</li>\u000a<li ms-hover="hover">\u000a<a href="http://detail.docer.com/10387.html" target="_blank" class="mcm_img" title="\u5e74\u7ec8\u603b\u7ed3.dpt"><img src="/application/styles/images/loading48.gif" lazyLoadSrc="http://img1.template.cache.wps.cn/wps/cdnwps/upload/official/template/2011-8-10/4e426c4588224.png/210x157.jpg" alt="\u5e74\u7ec8\u603b\u7ed3.dpt"></a>\u000a<p>\u000a<a href="http://detail.docer.com/10387.html" target="_blank" class="mcm_title" title="\u5e74\u7ec8\u603b\u7ed3.dpt">\u5e74\u7ec8\u603b\u7ed3</a>\u000a</p>\u000a<div class="mcm_show">\u000a<p>\u000a<span class="gray" title="\u9884\u89c8\uff1a1064821">\u9884\u89c8\uff1a1064821</span>\u000a<a href="javascript:void(0)" class="collect" ms-click="clickCollect($event, 10387, 1, 3)" title="\u6536\u85cf"></a>\u000a</p>\u000a</div>\u000a</li>\u000a<li ms-hover="hover">\u000a<a href="http://detail.docer.com/1064442.html" target="_blank" class="mcm_img" title="\u7b80\u7ea6\u5927\u6c14\u901a\u7528\u5546\u52a1\u6a21\u677f.pptx"><img src="/application/styles/images/loading48.gif" lazyLoadSrc="http://img1.template.cache.wps.cn/wps/cdnwps//upload/partner/previews/5/6/0/1/4/64386536-3536-3538-2d34-3462332d3966.png/210x117.png" alt="\u7b80\u7ea6\u5927\u6c14\u901a\u7528\u5546\u52a1\u6a21\u677f.pptx"></a>\u000a<p>\u000a<a href="http://detail.docer.com/1064442.html" target="_blank" class="mcm_title" title="\u7b80\u7ea6\u5927\u6c14\u901a\u7528\u5546\u52a1\u6a21\u677f.pptx">\u7b80\u7ea6\u5927\u6c14\u901a\u7528\u5546\u52a1\u6a21\u677f</a>\u000a</p>\u000a<div class="mcm_show">\u000a<p>\u000a<span class="fwb mcm_title_price">\uffe5<span class="red">19.99</span></span>\u000a<span class="gray" title="\u9884\u89c8\uff1a33">\u9884\u89c8\uff1a33</span>\u000a<a href="javascript:void(0)" class="collect" ms-click="clickCollect($event, 1064442, 3, 3)" title="\u6536\u85cf"></a>\u000a</p>\u000a</div>\u000a</li>\u000a<li ms-hover="hover">\u000a<a href="http://detail.docer.com/1064284.html" target="_blank" class="mcm_img" title="2017\u5546\u52a1\u98ce\u5927\u6c14\u5e74\u7ec8\u5de5\u4f5c\u603b\u7ed3\u6c47\u62a5ppt\u6a21\u677f49\uff08\u52a8\u6001\uff09.pptx"><img src="/application/styles/images/loading48.gif" lazyLoadSrc="http://img1.template.cache.wps.cn/wps/cdnwps//upload/partner/previews/3/d/f/b/5/33643235-3061-3737-2d62-3933382d6138.jpg/210x117.jpg" alt="2017\u5546\u52a1\u98ce\u5927\u6c14\u5e74\u7ec8\u5de5\u4f5c\u603b\u7ed3\u6c47\u62a5ppt\u6a21\u677f49\uff08\u52a8\u6001\uff09.pptx"></a>\u000a<p>\u000a<a href="http://detail.docer.com/1064284.html" target="_blank" class="mcm_title" title="2017\u5546\u52a1\u98ce\u5927\u6c14\u5e74\u7ec8\u5de5\u4f5c\u603b\u7ed3\u6c47\u62a5ppt\u6a21\u677f49\uff08\u52a8\u6001\uff09.pptx">2017\u5546\u52a1\u98ce\u5927\u6c14\u5e74\u7ec8\u5de5\u4f5c\u603b\u7ed3\u6c47\u62a5ppt\u6a21\u677f49\uff08\u52a8\u6001\uff09</a>\u000a</p>\u000a<div class="mcm_show">\u000a<p>\u000a<span class="fwb mcm_title_price">\uffe5<span class="red">25.99</span></span>\u000a<span class="gray" title="\u9884\u89c8\uff1a75">\u9884\u89c8\uff1a75</span>\u000a<a href="javascript:void(0)" class="collect" ms-click="clickCollect($event, 1064284, 3, 3)" title="\u6536\u85cf"></a>\u000a</p>\u000a</div>\u000a</li>\u000a<li ms-hover="hover">\u000a<a href="http://detail.docer.com/21250.html" target="_blank" class="mcm_img" title="\u81ea\u7136\u5143\u7d20\u7cfb\u5217PPT\u2014\u96e8\u96fe.dpt"><img src="/application/styles/images/loading48.gif" lazyLoadSrc="http://img1.template.cache.wps.cn/wps/cdnwps/upload/official/template/2012-6-19/4fe03b96d04a6.png/210x157.jpg" alt="\u81ea\u7136\u5143\u7d20\u7cfb\u5217PPT\u2014\u96e8\u96fe.dpt"></a>\u000a<p>\u000a<a href="http://detail.docer.com/21250.html" target="_blank" class="mcm_title" title="\u81ea\u7136\u5143\u7d20\u7cfb\u5217PPT\u2014\u96e8\u96fe.dpt">\u81ea\u7136\u5143\u7d20\u7cfb\u5217PPT\u2014\u96e8\u96fe</a>\u000a</p>\u000a<div class="mcm_show">\u000a<p>\u000a<span class="gray" title="\u9884\u89c8\uff1a1227420">\u9884\u89c8\uff1a1227420</span>\u000a<a href="javascript:void(0)" class="collect" ms-click="clickCollect($event, 21250, 1, 3)" title="\u6536\u85cf"></a>\u000a</p>\u000a</div>\u000a</li>\u000a<li ms-hover="hover">\u000a<a href="http://detail.docer.com/190419.html" target="_blank" class="mcm_img" title="\u6bd5\u4e1a\u7b54\u8fa9\u6a21\u677f.dpt"><img src="/application/styles/images/loading48.gif" lazyLoadSrc="http://img1.template.cache.wps.cn/wps/cdnwps/upload/official/preview/2013-5-9/518b18e8d8401_1.png/210x157.jpg" alt="\u6bd5\u4e1a\u7b54\u8fa9\u6a21\u677f.dpt"></a>\u000a<p>\u000a<a href="http://detail.docer.com/190419.html" target="_blank" class="mcm_title" title="\u6bd5\u4e1a\u7b54\u8fa9\u6a21\u677f.dpt">\u6bd5\u4e1a\u7b54\u8fa9\u6a21\u677f</a>\u000a</p>\u000a<div class="mcm_show">\u000a<p>\u000a<span class="gray" title="\u9884\u89c8\uff1a585865">\u9884\u89c8\uff1a585865</span>\u000a<a href="javascript:void(0)" class="collect" ms-click="clickCollect($event, 190419, 1, 3)" title="\u6536\u85cf"></a>\u000a</p>\u000a</div>\u000a</li>\u000a<li ms-hover="hover">\u000a<a href="http://detail.docer.com/12580.html" target="_blank" class="mcm_img" title="\u62a5\u544a\u6f14\u793a\u6a21\u677f.dpt"><img src="/application/styles/images/loading48.gif" lazyLoadSrc="http://img1.template.cache.wps.cn/wps/cdnwps/upload/official/template/2012-1-10/4f0ba324cfcc8.png/210x157.jpg" alt="\u62a5\u544a\u6f14\u793a\u6a21\u677f.dpt"></a>\u000a<p>\u000a<a href="http://detail.docer.com/12580.html" target="_blank" class="mcm_title" title="\u62a5\u544a\u6f14\u793a\u6a21\u677f.dpt">\u62a5\u544a\u6f14\u793a\u6a21\u677f</a>\u000a</p>\u000a<div class="mcm_show">\u000a<p>\u000a<span class="gray" title="\u9884\u89c8\uff1a543738">\u9884\u89c8\uff1a543738</span>\u000a<a href="javascript:void(0)" class="collect" ms-click="clickCollect($event, 12580, 1, 3)" title="\u6536\u85cf"></a>\u000a</p>\u000a</div>\u000a</li>\u000a<li ms-hover="hover">\u000a<a href="http://detail.docer.com/7742.html" target="_blank" class="mcm_img" title="\u7a97\u53f0\u98ce\u666f_\u52a8\u753b.dpt"><img src="/application/styles/images/loading48.gif" lazyLoadSrc="http://img1.template.cache.wps.cn/wps/cdnwps/upload/official/template/2010-12-8/4cff3a5987205.png/210x157.jpg" alt="\u7a97\u53f0\u98ce\u666f_\u52a8\u753b.dpt"></a>\u000a<p>\u000a<a href="http://detail.docer.com/7742.html" target="_blank" class="mcm_title" title="\u7a97\u53f0\u98ce\u666f_\u52a8\u753b.dpt">\u7a97\u53f0\u98ce\u666f_\u52a8\u753b</a>\u000a</p>\u000a<div class="mcm_show">\u000a<p>\u000a<span class="gray" title="\u9884\u89c8\uff1a998138">\u9884\u89c8\uff1a998138</span>\u000a<a href="javascript:void(0)" class="collect" ms-click="clickCollect($event, 7742, 1, 3)" title="\u6536\u85cf"></a>\u000a</p>\u000a</div>\u000a</li>\u000a<li ms-hover="hover">\u000a<a href="http://detail.docer.com/1064528.html" target="_blank" class="mcm_img" title="2017\u6e05\u65b0\u7b80\u7ea6\u84dd\u7eff\u8272\u5e74\u7ec8\u5de5\u4f5c\u603b\u7ed3\u66a8\u65b0\u5e74\u8ba1\u5212\u52a8\u6001PPT.pptx"><img src="/application/styles/images/loading48.gif" lazyLoadSrc="http://img1.template.cache.wps.cn/wps/cdnwps//upload/partner/previews/a/1/a/5/4/63323266-6632-6632-2d35-3063612d3762.jpg/210x117.jpg" alt="2017\u6e05\u65b0\u7b80\u7ea6\u84dd\u7eff\u8272\u5e74\u7ec8\u5de5\u4f5c\u603b\u7ed3\u66a8\u65b0\u5e74\u8ba1\u5212\u52a8\u6001PPT.pptx"></a>\u000a<p>\u000a<a href="http://detail.docer.com/1064528.html" target="_blank" class="mcm_title" title="2017\u6e05\u65b0\u7b80\u7ea6\u84dd\u7eff\u8272\u5e74\u7ec8\u5de5\u4f5c\u603b\u7ed3\u66a8\u65b0\u5e74\u8ba1\u5212\u52a8\u6001PPT.pptx">2017\u6e05\u65b0\u7b80\u7ea6\u84dd\u7eff\u8272\u5e74\u7ec8\u5de5\u4f5c\u603b\u7ed3\u66a8\u65b0\u5e74\u8ba1\u5212\u52a8\u6001PPT</a>\u000a</p>\u000a<div class="mcm_show">\u000a<p>\u000a<span class="fwb mcm_title_price">\uffe5<span class="red">29.99</span></span>\u000a<span class="gray" title="\u9884\u89c8\uff1a3">\u9884\u89c8\uff1a3</span>\u000a<a href="javascript:void(0)" class="collect" ms-click="clickCollect($event, 1064528, 3, 3)" title="\u6536\u85cf"></a>\u000a</p>\u000a</div>\u000a</li>\u000a<li ms-hover="hover">\u000a<a href="http://detail.docer.com/1064526.html" target="_blank" class="mcm_img" title="2017\u7ea2\u84dd\u8272\u7b80\u7ea6\u5927\u6c14\u5e74\u7ec8\u5de5\u4f5c\u603b\u7ed3\u6c47\u62a5\u8ba1\u5212\u8ff0\u804c\u62a5\u544aPPT.pptx"><img src="/application/styles/images/loading48.gif" lazyLoadSrc="http://img1.template.cache.wps.cn/wps/cdnwps//upload/partner/previews/c/7/2/7/9/37333832-3765-6430-2d61-6663622d3632.jpg/210x117.jpg" alt="2017\u7ea2\u84dd\u8272\u7b80\u7ea6\u5927\u6c14\u5e74\u7ec8\u5de5\u4f5c\u603b\u7ed3\u6c47\u62a5\u8ba1\u5212\u8ff0\u804c\u62a5\u544aPPT.pptx"></a>\u000a<p>\u000a<a href="http://detail.docer.com/1064526.html" target="_blank" class="mcm_title" title="2017\u7ea2\u84dd\u8272\u7b80\u7ea6\u5927\u6c14\u5e74\u7ec8\u5de5\u4f5c\u603b\u7ed3\u6c47\u62a5\u8ba1\u5212\u8ff0\u804c\u62a5\u544aPPT.pptx">2017\u7ea2\u84dd\u8272\u7b80\u7ea6\u5927\u6c14\u5e74\u7ec8\u5de5\u4f5c\u603b\u7ed3\u6c47\u62a5\u8ba1\u5212\u8ff0\u804c\u62a5\u544aPPT</a>\u000a</p>\u000a<div class="mcm_show">\u000a<p>\u000a<span class="fwb mcm_title_price">\uffe5<span class="red">29.99</span></span>\u000a<span class="gray" title="\u9884\u89c8\uff1a7">\u9884\u89c8\uff1a7</span>\u000a<a href="javascript:void(0)" class="collect" ms-click="clickCollect($event, 1064526, 3, 3)" title="\u6536\u85cf"></a>\u000a</p>\u000a</div>\u000a</li>\u000a<li ms-hover="hover">\u000a<a href="http://detail.docer.com/1064275.html" target="_blank" class="mcm_img" title="\u4e2a\u4eba\u7ade\u516c\u53f8\u8ff0\u804c\u5de5\u4f5c\u6c47\u62a5\u4e3b\u9898PPT\u6a21\u677f.pptx"><img src="/application/styles/images/loading48.gif" lazyLoadSrc="http://img1.template.cache.wps.cn/wps/cdnwps//upload/partner/previews/1/c/2/d/7/35643364-6232-3839-2d64-6337302d3039.jpg/210x117.jpg" alt="\u4e2a\u4eba\u7ade\u516c\u53f8\u8ff0\u804c\u5de5\u4f5c\u6c47\u62a5\u4e3b\u9898PPT\u6a21\u677f.pptx"></a>\u000a<p>\u000a<a href="http://detail.docer.com/1064275.html" target="_blank" class="mcm_title" title="\u4e2a\u4eba\u7ade\u516c\u53f8\u8ff0\u804c\u5de5\u4f5c\u6c47\u62a5\u4e3b\u9898PPT\u6a21\u677f.pptx">\u4e2a\u4eba\u7ade\u516c\u53f8\u8ff0\u804c\u5de5\u4f5c\u6c47\u62a5\u4e3b\u9898PPT\u6a21\u677f</a>\u000a</p>\u000a<div class="mcm_show">\u000a<p>\u000a<span class="fwb mcm_title_price">\uffe5<span class="red">19.99</span></span>\u000a<span class="gray" title="\u9884\u89c8\uff1a75">\u9884\u89c8\uff1a75</span>\u000a<a href="javascript:void(0)" class="collect" ms-click="clickCollect($event, 1064275, 3, 3)" title="\u6536\u85cf"></a>\u000a</p>\u000a</div>\u000a</li>\u000a<li ms-hover="hover">\u000a<a href="http://detail.docer.com/11764.html" target="_blank" class="mcm_img" title="\u79cb\u5929\u80cc\u666f\u53ef\u7528\u4e8e\u4e2a\u4eba\u6a21\u677f.dpt"><img src="/application/styles/images/loading48.gif" lazyLoadSrc="http://img1.template.cache.wps.cn/wps/cdnwps/upload/official/template/2011-11-10/4ebb976434d10.png/210x157.jpg" alt="\u79cb\u5929\u80cc\u666f\u53ef\u7528\u4e8e\u4e2a\u4eba\u6a21\u677f.dpt"></a>\u000a<p>\u000a<a href="http://detail.docer.com/11764.html" target="_blank" class="mcm_title" title="\u79cb\u5929\u80cc\u666f\u53ef\u7528\u4e8e\u4e2a\u4eba\u6a21\u677f.dpt">\u79cb\u5929\u80cc\u666f\u53ef\u7528\u4e8e\u4e2a\u4eba\u6a21\u677f</a>\u000a</p>\u000a<div class="mcm_show">\u000a<p>\u000a<span class="gray" title="\u9884\u89c8\uff1a580898">\u9884\u89c8\uff1a580898</span>\u000a<a href="javascript:void(0)" class="collect" ms-click="clickCollect($event, 11764, 1, 3)" title="\u6536\u85cf"></a>\u000a</p>\u000a</div>\u000a</li>\u000a<li ms-hover="hover">\u000a<a href="http://detail.docer.com/6246.html" target="_blank" class="mcm_img" title="\u78a7\u7a7a\u6674\u5929.dpt"><img src="/application/styles/images/loading48.gif" lazyLoadSrc="http://img1.template.cache.wps.cn/wps/cdnwps/upload/official/template/2009-10-21/4ade87e51b996.png/210x157.jpg" alt="\u78a7\u7a7a\u6674\u5929.dpt"></a>\u000a<p>\u000a<a href="http://detail.docer.com/6246.html" target="_blank" class="mcm_title" title="\u78a7\u7a7a\u6674\u5929.dpt">\u78a7\u7a7a\u6674\u5929</a>\u000a</p>\u000a<div class="mcm_show">\u000a<p>\u000a<span class="gray" title="\u9884\u89c8\uff1a679648">\u9884\u89c8\uff1a679648</span>\u000a<a href="javascript:void(0)" class="collect" ms-click="clickCollect($event, 6246, 1, 3)" title="\u6536\u85cf"></a>\u000a</p>\u000a</div>\u000a</li>\u000a<li ms-hover="hover">\u000a<a href="http://detail.docer.com/1064271.html" target="_blank" class="mcm_img" title="\u7eaf\u8bbe\u8ba1\u6de1\u7eff\u901a\u7528\u6f14\u793a\u6a21\u677f.pptx"><img src="/application/styles/images/loading48.gif" lazyLoadSrc="http://img1.template.cache.wps.cn/wps/cdnwps//upload/partner/previews/7/e/4/5/e/66343230-3132-3937-2d62-3331372d6163.jpg/210x117.jpg" alt="\u7eaf\u8bbe\u8ba1\u6de1\u7eff\u901a\u7528\u6f14\u793a\u6a21\u677f.pptx"></a>\u000a<p>\u000a<a href="http://detail.docer.com/1064271.html" target="_blank" class="mcm_title" title="\u7eaf\u8bbe\u8ba1\u6de1\u7eff\u901a\u7528\u6f14\u793a\u6a21\u677f.pptx">\u7eaf\u8bbe\u8ba1\u6de1\u7eff\u901a\u7528\u6f14\u793a\u6a21\u677f</a>\u000a</p>\u000a<div class="mcm_show">\u000a<p>\u000a<span class="fwb mcm_title_price">\uffe5<span class="red">20.99</span></span>\u000a<span class="gray" title="\u9884\u89c8\uff1a52">\u9884\u89c8\uff1a52</span>\u000a<a href="javascript:void(0)" class="collect" ms-click="clickCollect($event, 1064271, 3, 3)" title="\u6536\u85cf"></a>\u000a</p>\u000a</div>\u000a</li>\u000a<li ms-hover="hover">\u000a<a href="http://detail.docer.com/1064266.html" target="_blank" class="mcm_img" title="\u5723\u8bde\u6d3b\u52a8\u7b56\u5212\u65b9\u6848\u4e3b\u9898\u6c47\u62a5\u5de5\u4f5c\u6c47\u62a5\u63d0\u6848PPT\u6a21\u677f.pptx"><img src="/application/styles/images/loading48.gif" lazyLoadSrc="http://img1.template.cache.wps.cn/wps/cdnwps//upload/partner/previews/c/9/b/f/e/65353234-3439-6632-2d38-6639312d3331.jpg/210x117.jpg" alt="\u5723\u8bde\u6d3b\u52a8\u7b56\u5212\u65b9\u6848\u4e3b\u9898\u6c47\u62a5\u5de5\u4f5c\u6c47\u62a5\u63d0\u6848PPT\u6a21\u677f.pptx"></a>\u000a<p>\u000a<a href="http://detail.docer.com/1064266.html" target="_blank" class="mcm_title" title="\u5723\u8bde\u6d3b\u52a8\u7b56\u5212\u65b9\u6848\u4e3b\u9898\u6c47\u62a5\u5de5\u4f5c\u6c47\u62a5\u63d0\u6848PPT\u6a21\u677f.pptx">\u5723\u8bde\u6d3b\u52a8\u7b56\u5212\u65b9\u6848\u4e3b\u9898\u6c47\u62a5\u5de5\u4f5c\u6c47\u62a5\u63d0\u6848PPT\u6a21\u677f</a>\u000a</p>\u000a<div class="mcm_show">\u000a<p>\u000a<span class="fwb mcm_title_price">\uffe5<span class="red">29.99</span></span>\u000a<span class="gray" title="\u9884\u89c8\uff1a62">\u9884\u89c8\uff1a62</span>\u000a<a href="javascript:void(0)" class="collect" ms-click="clickCollect($event, 1064266, 3, 3)" title="\u6536\u85cf"></a>\u000a</p>\u000a</div>\u000a</li>\u000a<li ms-hover="hover">\u000a<a href="http://detail.docer.com/7119.html" target="_blank" class="mcm_img" title="\u6de1\u96c5\u5c0f\u82b1.dpt"><img src="/application/styles/images/loading48.gif" lazyLoadSrc="http://img1.template.cache.wps.cn/wps/cdnwps/upload/official/template/2010-7-16/4c3f65a7bf49f.png/210x157.jpg" alt="\u6de1\u96c5\u5c0f\u82b1.dpt"></a>\u000a<p>\u000a<a href="http://detail.docer.com/7119.html" target="_blank" class="mcm_title" title="\u6de1\u96c5\u5c0f\u82b1.dpt">\u6de1\u96c5\u5c0f\u82b1</a>\u000a</p>\u000a<div class="mcm_show">\u000a<p>\u000a<span class="gray" title="\u9884\u89c8\uff1a1167220">\u9884\u89c8\uff1a1167220</span>\u000a<a href="javascript:void(0)" class="collect" ms-click="clickCollect($event, 7119, 1, 3)" title="\u6536\u85cf"></a>\u000a</p>\u000a</div>\u000a</li>\u000a<li ms-hover="hover">\u000a<a href="http://detail.docer.com/1064274.html" target="_blank" class="mcm_img" title="25\u5957\u590d\u53e4\u914d\u8272\u5546\u52a1\u5e74\u7ec8\u6c47\u62a5\u56fe\u8868\u5408\u96c6\u7b2c\u4e00\u5b63.pptx"><img src="/application/styles/images/loading48.gif" lazyLoadSrc="http://img1.template.cache.wps.cn/wps/cdnwps//upload/partner/previews/6/6/b/3/3/61666639-3166-6630-2d31-3935372d6238.jpg/210x117.jpg" alt="25\u5957\u590d\u53e4\u914d\u8272\u5546\u52a1\u5e74\u7ec8\u6c47\u62a5\u56fe\u8868\u5408\u96c6\u7b2c\u4e00\u5b63.pptx"></a>\u000a<p>\u000a<a href="http://detail.docer.com/1064274.html" target="_blank" class="mcm_title" title="25\u5957\u590d\u53e4\u914d\u8272\u5546\u52a1\u5e74\u7ec8\u6c47\u62a5\u56fe\u8868\u5408\u96c6\u7b2c\u4e00\u5b63.pptx">25\u5957\u590d\u53e4\u914d\u8272\u5546\u52a1\u5e74\u7ec8\u6c47\u62a5\u56fe\u8868\u5408\u96c6\u7b2c\u4e00\u5b63</a>\u000a</p>\u000a<div class="mcm_show">\u000a<p>\u000a<span class="fwb mcm_title_price">\uffe5<span class="red">24.99</span></span>\u000a<span class="gray" title="\u9884\u89c8\uff1a27">\u9884\u89c8\uff1a27</span>\u000a<a href="javascript:void(0)" class="collect" ms-click="clickCollect($event, 1064274, 3, 3)" title="\u6536\u85cf"></a>\u000a</p>\u000a</div>\u000a</li>\u000a<li ms-hover="hover">\u000a<a href="http://detail.docer.com/1064539.html" target="_blank" class="mcm_img" title="2017\u7b80\u7ea6\u5927\u6c14\u5fae\u7acb\u4f53\u5de5\u4f5c\u603b\u7ed3\u6c47\u62a5\u65b0\u5e74\u8ba1\u5212\u52a8\u6001PPT\u6a21\u677f.pptx"><img src="/application/styles/images/loading48.gif" lazyLoadSrc="http://img1.template.cache.wps.cn/wps/cdnwps//upload/partner/previews/6/8/8/0/8/37633830-3939-6238-2d33-3565662d6330.jpg/210x117.jpg" alt="2017\u7b80\u7ea6\u5927\u6c14\u5fae\u7acb\u4f53\u5de5\u4f5c\u603b\u7ed3\u6c47\u62a5\u65b0\u5e74\u8ba1\u5212\u52a8\u6001PPT\u6a21\u677f.pptx"></a>\u000a<p>\u000a<a href="http://detail.docer.com/1064539.html" target="_blank" class="mcm_title" title="2017\u7b80\u7ea6\u5927\u6c14\u5fae\u7acb\u4f53\u5de5\u4f5c\u603b\u7ed3\u6c47\u62a5\u65b0\u5e74\u8ba1\u5212\u52a8\u6001PPT\u6a21\u677f.pptx">2017\u7b80\u7ea6\u5927\u6c14\u5fae\u7acb\u4f53\u5de5\u4f5c\u603b\u7ed3\u6c47\u62a5\u65b0\u5e74\u8ba1\u5212\u52a8\u6001PPT\u6a21\u677f</a>\u000a</p>\u000a<div class="mcm_show">\u000a<p>\u000a<span class="fwb mcm_title_price">\uffe5<span class="red">19.99</span></span>\u000a<span class="gray" title="\u9884\u89c8\uff1a10">\u9884\u89c8\uff1a10</span>\u000a<a href="javascript:void(0)" class="collect" ms-click="clickCollect($event, 1064539, 3, 3)" title="\u6536\u85cf"></a>\u000a</p>\u000a</div>\u000a</li>\u000a<li ms-hover="hover">\u000a<a href="http://detail.docer.com/1064621.html" target="_blank" class="mcm_img" title="\u7b80\u7ea6\u79d1\u6280\u98ce\u901a\u7528\u6c47\u62a5\u6a21\u677f"><img src="/application/styles/images/loading48.gif" lazyLoadSrc="http://img1.template.cache.wps.cn/wps/cdnwps//upload/partner/previews/c/1/a/c/4/36333666-6436-6233-2d32-6661622d3435.jpg/210x117.jpg" alt="\u7b80\u7ea6\u79d1\u6280\u98ce\u901a\u7528\u6c47\u62a5\u6a21\u677f"></a>\u000a<p>\u000a<a href="http://detail.docer.com/1064621.html" target="_blank" class="mcm_title" title="\u7b80\u7ea6\u79d1\u6280\u98ce\u901a\u7528\u6c47\u62a5\u6a21\u677f">\u7b80\u7ea6\u79d1\u6280\u98ce\u901a\u7528\u6c47\u62a5\u6a21\u677f</a>\u000a</p>\u000a<div class="mcm_show">\u000a<p>\u000a<span class="fwb mcm_title_price">\uffe5<span class="red">30.99</span></span>\u000a<span class="gray" title="\u9884\u89c8\uff1a3">\u9884\u89c8\uff1a3</span>\u000a<a href="javascript:void(0)" class="collect" ms-click="clickCollect($event, 1064621, 3, 3)" title="\u6536\u85cf"></a>\u000a</p>\u000a</div>\u000a</li>\u000a<li ms-hover="hover">\u000a<a href="http://detail.docer.com/1064527.html" target="_blank" class="mcm_img" title="2017\u7eff\u8272\u7b80\u7ea6\u521b\u610f\u5e74\u5ea6\u5de5\u4f5c\u603b\u7ed3\u5e74\u7ec8\u6c47\u62a5\u660e\u5e74\u8ba1\u5212PPT.pptx"><img src="/application/styles/images/loading48.gif" lazyLoadSrc="http://img1.template.cache.wps.cn/wps/cdnwps//upload/partner/previews/7/d/1/4/9/66633930-6231-3135-2d39-6438662d3038.jpg/210x117.jpg" alt="2017\u7eff\u8272\u7b80\u7ea6\u521b\u610f\u5e74\u5ea6\u5de5\u4f5c\u603b\u7ed3\u5e74\u7ec8\u6c47\u62a5\u660e\u5e74\u8ba1\u5212PPT.pptx"></a>\u000a<p>\u000a<a href="http://detail.docer.com/1064527.html" target="_blank" class="mcm_title" title="2017\u7eff\u8272\u7b80\u7ea6\u521b\u610f\u5e74\u5ea6\u5de5\u4f5c\u603b\u7ed3\u5e74\u7ec8\u6c47\u62a5\u660e\u5e74\u8ba1\u5212PPT.pptx">2017\u7eff\u8272\u7b80\u7ea6\u521b\u610f\u5e74\u5ea6\u5de5\u4f5c\u603b\u7ed3\u5e74\u7ec8\u6c47\u62a5\u660e\u5e74\u8ba1\u5212PPT</a>\u000a</p>\u000a<div class="mcm_show">\u000a<p>\u000a<span class="fwb mcm_title_price">\uffe5<span class="red">29.99</span></span>\u000a<span class="gray" title="\u9884\u89c8\uff1a9">\u9884\u89c8\uff1a9</span>\u000a<a href="javascript:void(0)" class="collect" ms-click="clickCollect($event, 1064527, 3, 3)" title="\u6536\u85cf"></a>\u000a</p>\u000a</div>\u000a</li>\u000a<li ms-hover="hover">\u000a<a href="http://detail.docer.com/1064545.html" target="_blank" class="mcm_img" title="\u521b\u610f\u7b80\u7ea6\u5b9e\u7528\u6bd5\u4e1a\u8bba\u6587\u7b54\u8fa9\u52a8\u6001PPT\u6a21\u677f.pptx"><img src="/application/styles/images/loading48.gif" lazyLoadSrc="http://img1.template.cache.wps.cn/wps/cdnwps//upload/partner/previews/e/5/d/2/2/31303036-6431-3632-2d38-6565342d6634.jpg/210x117.jpg" alt="\u521b\u610f\u7b80\u7ea6\u5b9e\u7528\u6bd5\u4e1a\u8bba\u6587\u7b54\u8fa9\u52a8\u6001PPT\u6a21\u677f.pptx"></a>\u000a<p>\u000a<a href="http://detail.docer.com/1064545.html" target="_blank" class="mcm_title" title="\u521b\u610f\u7b80\u7ea6\u5b9e\u7528\u6bd5\u4e1a\u8bba\u6587\u7b54\u8fa9\u52a8\u6001PPT\u6a21\u677f.pptx">\u521b\u610f\u7b80\u7ea6\u5b9e\u7528\u6bd5\u4e1a\u8bba\u6587\u7b54\u8fa9\u52a8\u6001PPT\u6a21\u677f</a>\u000a</p>\u000a<div class="mcm_show">\u000a<p>\u000a<span class="fwb mcm_title_price">\uffe5<span class="red">19.99</span></span>\u000a<span class="gray" title="\u9884\u89c8\uff1a5">\u9884\u89c8\uff1a5</span>\u000a<a href="javascript:void(0)" class="collect" ms-click="clickCollect($event, 1064545, 3, 3)" title="\u6536\u85cf"></a>\u000a</p>\u000a</div>\u000a</li>\u000a<li ms-hover="hover">\u000a<a href="http://detail.docer.com/12782.html" target="_blank" class="mcm_img" title="\u9879\u76ee\u6c47\u62a5\u6a21\u677f.dpt"><img src="/application/styles/images/loading48.gif" lazyLoadSrc="http://img1.template.cache.wps.cn/wps/cdnwps/upload/official/template/2012-2-6/4f2f2def3287d.png/210x157.jpg" alt="\u9879\u76ee\u6c47\u62a5\u6a21\u677f.dpt"></a>\u000a<p>\u000a<a href="http://detail.docer.com/12782.html" target="_blank" class="mcm_title" title="\u9879\u76ee\u6c47\u62a5\u6a21\u677f.dpt">\u9879\u76ee\u6c47\u62a5\u6a21\u677f</a>\u000a</p>\u000a<div class="mcm_show">\u000a<p>\u000a<span class="gray" title="\u9884\u89c8\uff1a485905">\u9884\u89c8\uff1a485905</span>\u000a<a href="javascript:void(0)" class="collect" ms-click="clickCollect($event, 12782, 1, 3)" title="\u6536\u85cf"></a>\u000a</p>\u000a</div>\u000a</li>\u000a<li ms-hover="hover">\u000a<a href="http://detail.docer.com/1064361.html" target="_blank" class="mcm_img" title="2017\u5b8c\u6574\u6846\u67b6\u9ed1\u767d\u91d1\u5c5e\u73bb\u7483\u8d28\u611f\u5de5\u4f5c\u6c47\u62a5\u603b\u7ed3PPT\u6a21\u677f.pptx"><img src="/application/styles/images/loading48.gif" lazyLoadSrc="http://img1.template.cache.wps.cn/wps/cdnwps//upload/partner/previews/9/9/9/5/f/63616362-6562-3132-2d63-3034622d6532.jpg/210x117.jpg" alt="2017\u5b8c\u6574\u6846\u67b6\u9ed1\u767d\u91d1\u5c5e\u73bb\u7483\u8d28\u611f\u5de5\u4f5c\u6c47\u62a5\u603b\u7ed3PPT\u6a21\u677f.pptx"></a>\u000a<p>\u000a<a href="http://detail.docer.com/1064361.html" target="_blank" class="mcm_title" title="2017\u5b8c\u6574\u6846\u67b6\u9ed1\u767d\u91d1\u5c5e\u73bb\u7483\u8d28\u611f\u5de5\u4f5c\u6c47\u62a5\u603b\u7ed3PPT\u6a21\u677f.pptx">2017\u5b8c\u6574\u6846\u67b6\u9ed1\u767d\u91d1\u5c5e\u73bb\u7483\u8d28\u611f\u5de5\u4f5c\u6c47\u62a5\u603b\u7ed3PPT\u6a21\u677f</a>\u000a</p>\u000a<div class="mcm_show">\u000a<p>\u000a<span class="fwb mcm_title_price">\uffe5<span class="red">24.99</span></span>\u000a<span class="gray" title="\u9884\u89c8\uff1a23">\u9884\u89c8\uff1a23</span>\u000a<a href="javascript:void(0)" class="collect" ms-click="clickCollect($event, 1064361, 3, 3)" title="\u6536\u85cf"></a>\u000a</p>\u000a</div>\u000a</li>\u000a<li ms-hover="hover">\u000a<a href="http://detail.docer.com/7135.html" target="_blank" class="mcm_img" title="\u9189\u7eff_PPT\u52a8\u753b.dpt"><img src="/application/styles/images/loading48.gif" lazyLoadSrc="http://img1.template.cache.wps.cn/wps/cdnwps/upload/official/template/2010-7-21/4c462949ef672.png/210x157.jpg" alt="\u9189\u7eff_PPT\u52a8\u753b.dpt"></a>\u000a<p>\u000a<a href="http://detail.docer.com/7135.html" target="_blank" class="mcm_title" title="\u9189\u7eff_PPT\u52a8\u753b.dpt">\u9189\u7eff_PPT\u52a8\u753b</a>\u000a</p>\u000a<div class="mcm_show">\u000a<p>\u000a<span class="gray" title="\u9884\u89c8\uff1a938892">\u9884\u89c8\uff1a938892</span>\u000a<a href="javascript:void(0)" class="collect" ms-click="clickCollect($event, 7135, 1, 3)" title="\u6536\u85cf"></a>\u000a</p>\u000a</div>\u000a</li>\u000a<li ms-hover="hover">\u000a<a href="http://detail.docer.com/9948.html" target="_blank" class="mcm_img" title="\u98ce\u5411\u6807.dpt"><img src="/application/styles/images/loading48.gif" lazyLoadSrc="http://img1.template.cache.wps.cn/wps/cdnwps/upload/official/template/2011-7-11/4e1ae506dbece.png/210x157.jpg" alt="\u98ce\u5411\u6807.dpt"></a>\u000a<p>\u000a<a href="http://detail.docer.com/9948.html" target="_blank" class="mcm_title" title="\u98ce\u5411\u6807.dpt">\u98ce\u5411\u6807</a>\u000a</p>\u000a<div class="mcm_show">\u000a<p>\u000a<span class="gray" title="\u9884\u89c8\uff1a550048">\u9884\u89c8\uff1a550048</span>\u000a<a href="javascript:void(0)" class="collect" ms-click="clickCollect($event, 9948, 1, 3)" title="\u6536\u85cf"></a>\u000a</p>\u000a</div>\u000a</li>\u000a<li ms-hover="hover">\u000a<a href="http://detail.docer.com/1064267.html" target="_blank" class="mcm_img" title="\u7cbe\u7f8e\u6bd5\u4e1a\u7b54\u8fa9\u8bfe\u9898\u62a5\u544a\u672c\u79d1\u7814\u7a76\u751f\u8bba\u6587\u7ecf\u5178\u7b54\u8fa984.pptx"><img src="/application/styles/images/loading48.gif" lazyLoadSrc="http://img1.template.cache.wps.cn/wps/cdnwps//upload/partner/previews/3/a/f/f/5/31653662-3565-6666-2d33-3330302d3336.jpg/210x117.jpg" alt="\u7cbe\u7f8e\u6bd5\u4e1a\u7b54\u8fa9\u8bfe\u9898\u62a5\u544a\u672c\u79d1\u7814\u7a76\u751f\u8bba\u6587\u7ecf\u5178\u7b54\u8fa984.pptx"></a>\u000a<p>\u000a<a href="http://detail.docer.com/1064267.html" target="_blank" class="mcm_title" title="\u7cbe\u7f8e\u6bd5\u4e1a\u7b54\u8fa9\u8bfe\u9898\u62a5\u544a\u672c\u79d1\u7814\u7a76\u751f\u8bba\u6587\u7ecf\u5178\u7b54\u8fa984.pptx">\u7cbe\u7f8e\u6bd5\u4e1a\u7b54\u8fa9\u8bfe\u9898\u62a5\u544a\u672c\u79d1\u7814\u7a76\u751f\u8bba\u6587\u7ecf\u5178\u7b54\u8fa984</a>\u000a</p>\u000a<div class="mcm_show">\u000a<p>\u000a<span class="fwb mcm_title_price">\uffe5<span class="red">29.99</span></span>\u000a<span class="gray" title="\u9884\u89c8\uff1a43">\u9884\u89c8\uff1a43</span>\u000a<a href="javascript:void(0)" class="collect" ms-click="clickCollect($event, 1064267, 3, 3)" title="\u6536\u85cf"></a>\u000a</p>\u000a</div>\u000a</li>\u000a<li ms-hover="hover">\u000a<a href="http://detail.docer.com/42103.html" target="_blank" class="mcm_img" title="\u82b1\u5f00.dpt"><img src="/application/styles/images/loading48.gif" lazyLoadSrc="http://img1.template.cache.wps.cn/wps/cdnwps/upload/official/template/2012-12-10/50c56b2a3aa16.png/210x157.jpg" alt="\u82b1\u5f00.dpt"></a>\u000a<p>\u000a<a href="http://detail.docer.com/42103.html" target="_blank" class="mcm_title" title="\u82b1\u5f00.dpt">\u82b1\u5f00</a>\u000a</p>\u000a<div class="mcm_show">\u000a<p>\u000a<span class="gray" title="\u9884\u89c8\uff1a479251">\u9884\u89c8\uff1a479251</span>\u000a<a href="javascript:void(0)" class="collect" ms-click="clickCollect($event, 42103, 1, 3)" title="\u6536\u85cf"></a>\u000a</p>\u000a</div>\u000a</li>\u000a<li ms-hover="hover">\u000a<a href="http://detail.docer.com/7722.html" target="_blank" class="mcm_img" title="\u6e05\u65b0\u81ea\u7136_\u7eff.dpt"><img src="/application/styles/images/loading48.gif" lazyLoadSrc="http://img1.template.cache.wps.cn/wps/cdnwps/upload/official/template/2010-11-24/4cec80ae0c618.png/210x157.jpg" alt="\u6e05\u65b0\u81ea\u7136_\u7eff.dpt"></a>\u000a<p>\u000a<a href="http://detail.docer.com/7722.html" target="_blank" class="mcm_title" title="\u6e05\u65b0\u81ea\u7136_\u7eff.dpt">\u6e05\u65b0\u81ea\u7136_\u7eff</a>\u000a</p>\u000a<div class="mcm_show">\u000a<p>\u000a<span class="gray" title="\u9884\u89c8\uff1a713077">\u9884\u89c8\uff1a713077</span>\u000a<a href="javascript:void(0)" class="collect" ms-click="clickCollect($event, 7722, 1, 3)" title="\u6536\u85cf"></a>\u000a</p>\u000a</div>\u000a</li>\u000a<li ms-hover="hover">\u000a<a href="http://detail.docer.com/22563.html" target="_blank" class="mcm_img" title="\u5f53\u5e7f\u544a\u9047\u4e0a\u63d2\u753b--\u949f\u4e91\u7ffc.dpt"><img src="/application/styles/images/loading48.gif" lazyLoadSrc="http://img1.template.cache.wps.cn/wps/cdnwps/upload/official/template/2012-7-13/4fffb3fc8e73c.png/210x157.jpg" alt="\u5f53\u5e7f\u544a\u9047\u4e0a\u63d2\u753b--\u949f\u4e91\u7ffc.dpt"></a>\u000a<p>\u000a<a href="http://detail.docer.com/22563.html" target="_blank" class="mcm_title" title="\u5f53\u5e7f\u544a\u9047\u4e0a\u63d2\u753b--\u949f\u4e91\u7ffc.dpt">\u5f53\u5e7f\u544a\u9047\u4e0a\u63d2\u753b--\u949f\u4e91\u7ffc</a>\u000a</p>\u000a<div class="mcm_show">\u000a<p>\u000a<span class="gray" title="\u9884\u89c8\uff1a776613">\u9884\u89c8\uff1a776613</span>\u000a<a href="javascript:void(0)" class="collect" ms-click="clickCollect($event, 22563, 1, 3)" title="\u6536\u85cf"></a>\u000a</p>\u000a</div>\u000a</li>\u000a<li ms-hover="hover">\u000a<a href="http://detail.docer.com/6111.html" target="_blank" class="mcm_img" title="\u7ffb\u5f00\u4e66\u9875_\u8bfe\u4ef6\u6a21\u677fPPT\u6a21\u677f.dpt"><img src="/application/styles/images/loading48.gif" lazyLoadSrc="http://img1.template.cache.wps.cn/wps/cdnwps/upload/official/template/2009-9-8/4aa5ef5fc46e2.png/210x157.jpg" alt="\u7ffb\u5f00\u4e66\u9875_\u8bfe\u4ef6\u6a21\u677fPPT\u6a21\u677f.dpt"></a>\u000a<p>\u000a<a href="http://detail.docer.com/6111.html" target="_blank" class="mcm_title" title="\u7ffb\u5f00\u4e66\u9875_\u8bfe\u4ef6\u6a21\u677fPPT\u6a21\u677f.dpt">\u7ffb\u5f00\u4e66\u9875_\u8bfe\u4ef6\u6a21\u677fPPT\u6a21\u677f</a>\u000a</p>\u000a<div class="mcm_show">\u000a<p>\u000a<span class="gray" title="\u9884\u89c8\uff1a1341598">\u9884\u89c8\uff1a1341598</span>\u000a<a href="javascript:void(0)" class="collect" ms-click="clickCollect($event, 6111, 1, 3)" title="\u6536\u85cf"></a>\u000a</p>\u000a</div>\u000a</li>\u000a<li ms-hover="hover">\u000a<a href="http://detail.docer.com/8197.html" target="_blank" class="mcm_img" title="\u6e05\u723dPPT\u6a21\u677f.dpt"><img src="/application/styles/images/loading48.gif" lazyLoadSrc="http://img1.template.cache.wps.cn/wps/cdnwps/upload/official/template/2011-3-22/4d88569d7c3f0.png/210x157.jpg" alt="\u6e05\u723dPPT\u6a21\u677f.dpt"></a>\u000a<p>\u000a<a href="http://detail.docer.com/8197.html" target="_blank" class="mcm_title" title="\u6e05\u723dPPT\u6a21\u677f.dpt">\u6e05\u723dPPT\u6a21\u677f</a>\u000a</p>\u000a<div class="mcm_show">\u000a<p>\u000a<span class="gray" title="\u9884\u89c8\uff1a486719">\u9884\u89c8\uff1a486719</span>\u000a<a href="javascript:void(0)" class="collect" ms-click="clickCollect($event, 8197, 1, 3)" title="\u6536\u85cf"></a>\u000a</p>\u000a</div>\u000a</li>\u000a<li ms-hover="hover">\u000a<a href="http://detail.docer.com/1064439.html" target="_blank" class="mcm_img" title="\u7b80\u7ea6\u6e05\u65b0\u901a\u7528\u5546\u52a1\u6a21\u677f.pptx"><img src="/application/styles/images/loading48.gif" lazyLoadSrc="http://img1.template.cache.wps.cn/wps/cdnwps//upload/partner/previews/1/7/1/9/d/61656366-6463-6661-2d66-3661642d6562.png/210x117.png" alt="\u7b80\u7ea6\u6e05\u65b0\u901a\u7528\u5546\u52a1\u6a21\u677f.pptx"></a>\u000a<p>\u000a<a href="http://detail.docer.com/1064439.html" target="_blank" class="mcm_title" title="\u7b80\u7ea6\u6e05\u65b0\u901a\u7528\u5546\u52a1\u6a21\u677f.pptx">\u7b80\u7ea6\u6e05\u65b0\u901a\u7528\u5546\u52a1\u6a21\u677f</a>\u000a</p>\u000a<div class="mcm_show">\u000a<p>\u000a<span class="fwb mcm_title_price">\uffe5<span class="red">19.99</span></span>\u000a<span class="gray" title="\u9884\u89c8\uff1a33">\u9884\u89c8\uff1a33</span>\u000a<a href="javascript:void(0)" class="collect" ms-click="clickCollect($event, 1064439, 3, 3)" title="\u6536\u85cf"></a>\u000a</p>\u000a</div>\u000a</li>\u000a<li ms-hover="hover">\u000a<a href="http://detail.docer.com/23819.html" target="_blank" class="mcm_img" title="\u6625\u5929\u7684\u5ae9\u82d7.dpt"><img src="/application/styles/images/loading48.gif" lazyLoadSrc="http://img1.template.cache.wps.cn/wps/cdnwps/upload/official/template/2012-9-24/505fbed365cf7.png/210x157.jpg" alt="\u6625\u5929\u7684\u5ae9\u82d7.dpt"></a>\u000a<p>\u000a<a href="http://detail.docer.com/23819.html" target="_blank" class="mcm_title" title="\u6625\u5929\u7684\u5ae9\u82d7.dpt">\u6625\u5929\u7684\u5ae9\u82d7</a>\u000a</p>\u000a<div class="mcm_show">\u000a<p>\u000a<span class="gray" title="\u9884\u89c8\uff1a560329">\u9884\u89c8\uff1a560329</span>\u000a<a href="javascript:void(0)" class="collect" ms-click="clickCollect($event, 23819, 1, 3)" title="\u6536\u85cf"></a>\u000a</p>\u000a</div>\u000a</li>\u000a<li ms-hover="hover">\u000a<a href="http://detail.docer.com/11448.html" target="_blank" class="mcm_img" title="\u5546\u52a1\u5168\u7403\u5316.dpt"><img src="/application/styles/images/loading48.gif" lazyLoadSrc="http://img1.template.cache.wps.cn/wps/cdnwps/upload/official/template/2011-10-20/4e9fdb652da59.png/210x157.jpg" alt="\u5546\u52a1\u5168\u7403\u5316.dpt"></a>\u000a<p>\u000a<a href="http://detail.docer.com/11448.html" target="_blank" class="mcm_title" title="\u5546\u52a1\u5168\u7403\u5316.dpt">\u5546\u52a1\u5168\u7403\u5316</a>\u000a</p>\u000a<div class="mcm_show">\u000a<p>\u000a<span class="gray" title="\u9884\u89c8\uff1a483413">\u9884\u89c8\uff1a483413</span>\u000a<a href="javascript:void(0)" class="collect" ms-click="clickCollect($event, 11448, 1, 3)" title="\u6536\u85cf"></a>\u000a</p>\u000a</div>\u000a</li>\u000a<li ms-hover="hover">\u000a<a href="http://detail.docer.com/9168.html" target="_blank" class="mcm_img" title="\u751f\u5982\u590f\u82b1PPT\u6a21\u677f.dpt"><img src="/application/styles/images/loading48.gif" lazyLoadSrc="http://img1.template.cache.wps.cn/wps/cdnwps/upload/official/template/2011-6-7/4dedf8c21f5f9.png/210x157.jpg" alt="\u751f\u5982\u590f\u82b1PPT\u6a21\u677f.dpt"></a>\u000a<p>\u000a<a href="http://detail.docer.com/9168.html" target="_blank" class="mcm_title" title="\u751f\u5982\u590f\u82b1PPT\u6a21\u677f.dpt">\u751f\u5982\u590f\u82b1PPT\u6a21\u677f</a>\u000a</p>\u000a<div class="mcm_show">\u000a<p>\u000a<span class="gray" title="\u9884\u89c8\uff1a1135540">\u9884\u89c8\uff1a1135540</span>\u000a<a href="javascript:void(0)" class="collect" ms-click="clickCollect($event, 9168, 1, 3)" title="\u6536\u85cf"></a>\u000a</p>\u000a</div>\u000a</li>\u000a<li ms-hover="hover">\u000a<a href="http://detail.docer.com/1064281.html" target="_blank" class="mcm_img" title="\u7b80\u7ea6\u5927\u6c14\u5546\u52a1\u901a\u7528\u6a21\u677f.pptx"><img src="/application/styles/images/loading48.gif" lazyLoadSrc="http://img1.template.cache.wps.cn/wps/cdnwps//upload/partner/previews/a/b/2/2/d/33303863-3039-6165-2d35-3333392d3834.png/210x117.png" alt="\u7b80\u7ea6\u5927\u6c14\u5546\u52a1\u901a\u7528\u6a21\u677f.pptx"></a>\u000a<p>\u000a<a href="http://detail.docer.com/1064281.html" target="_blank" class="mcm_title" title="\u7b80\u7ea6\u5927\u6c14\u5546\u52a1\u901a\u7528\u6a21\u677f.pptx">\u7b80\u7ea6\u5927\u6c14\u5546\u52a1\u901a\u7528\u6a21\u677f</a>\u000a</p>\u000a<div class="mcm_show">\u000a<p>\u000a<span class="fwb mcm_title_price">\uffe5<span class="red">19.99</span></span>\u000a<span class="gray" title="\u9884\u89c8\uff1a76">\u9884\u89c8\uff1a76</span>\u000a<a href="javascript:void(0)" class="collect" ms-click="clickCollect($event, 1064281, 3, 3)" title="\u6536\u85cf"></a>\u000a</p>\u000a</div>\u000a</li>\u000a<li ms-hover="hover">\u000a<a href="http://detail.docer.com/6997.html" target="_blank" class="mcm_img" title="\u68a6\u4e2d\u7684\u81ea\u7531PPT\u6a21\u677f.dpt"><img src="/application/styles/images/loading48.gif" lazyLoadSrc="http://img1.template.cache.wps.cn/wps/cdnwps/upload/official/template/2010-5-25/4bfac6f4d6db8.png/210x157.jpg" alt="\u68a6\u4e2d\u7684\u81ea\u7531PPT\u6a21\u677f.dpt"></a>\u000a<p>\u000a<a href="http://detail.docer.com/6997.html" target="_blank" class="mcm_title" title="\u68a6\u4e2d\u7684\u81ea\u7531PPT\u6a21\u677f.dpt">\u68a6\u4e2d\u7684\u81ea\u7531PPT\u6a21\u677f</a>\u000a</p>\u000a<div class="mcm_show">\u000a<p>\u000a<span class="gray" title="\u9884\u89c8\uff1a568985">\u9884\u89c8\uff1a568985</span>\u000a<a href="javascript:void(0)" class="collect" ms-click="clickCollect($event, 6997, 1, 3)" title="\u6536\u85cf"></a>\u000a</p>\u000a</div>\u000a</li>\u000a<li ms-hover="hover">\u000a<a href="http://detail.docer.com/1064280.html" target="_blank" class="mcm_img" title="\u9ad8\u7aef\u5927\u6c14\u4e92\u8054\u7f51\u5546\u4e1a\u8ba1\u5212\u4e66PPT\u6a21\u677f.pptx"><img src="/application/styles/images/loading48.gif" lazyLoadSrc="http://img1.template.cache.wps.cn/wps/cdnwps//upload/partner/previews/4/4/b/5/e/66626530-3735-3534-2d65-6664662d6130.jpg/210x117.jpg" alt="\u9ad8\u7aef\u5927\u6c14\u4e92\u8054\u7f51\u5546\u4e1a\u8ba1\u5212\u4e66PPT\u6a21\u677f.pptx"></a>\u000a<p>\u000a<a href="http://detail.docer.com/1064280.html" target="_blank" class="mcm_title" title="\u9ad8\u7aef\u5927\u6c14\u4e92\u8054\u7f51\u5546\u4e1a\u8ba1\u5212\u4e66PPT\u6a21\u677f.pptx">\u9ad8\u7aef\u5927\u6c14\u4e92\u8054\u7f51\u5546\u4e1a\u8ba1\u5212\u4e66PPT\u6a21\u677f</a>\u000a</p>\u000a<div class="mcm_show">\u000a<p>\u000a<span class="fwb mcm_title_price">\uffe5<span class="red">14.9</span></span>\u000a<span class="gray" title="\u9884\u89c8\uff1a53">\u9884\u89c8\uff1a53</span>\u000a<a href="javascript:void(0)" class="collect" ms-click="clickCollect($event, 1064280, 3, 3)" title="\u6536\u85cf"></a>\u000a</p>\u000a</div>\u000a</li>\u000a<li ms-hover="hover">\u000a<a href="http://detail.docer.com/1064623.html" target="_blank" class="mcm_img" title="2016\u9e7f\u7ba1\u5bb6\u6218\u7565\u53d1\u5e03\u4f1aPPT.pptx"><img src="/application/styles/images/loading48.gif" lazyLoadSrc="http://img1.template.cache.wps.cn/wps/cdnwps//upload/partner/previews/2/8/d/9/9/34653539-3734-3261-2d33-3234342d6366.jpg/210x117.jpg" alt="2016\u9e7f\u7ba1\u5bb6\u6218\u7565\u53d1\u5e03\u4f1aPPT.pptx"></a>\u000a<p>\u000a<a href="http://detail.docer.com/1064623.html" target="_blank" class="mcm_title" title="2016\u9e7f\u7ba1\u5bb6\u6218\u7565\u53d1\u5e03\u4f1aPPT.pptx">2016\u9e7f\u7ba1\u5bb6\u6218\u7565\u53d1\u5e03\u4f1aPPT</a>\u000a</p>\u000a<div class="mcm_show">\u000a<p>\u000a<span class="fwb mcm_title_price">\uffe5<span class="red">49.99</span></span>\u000a<span class="gray" title="\u9884\u89c8\uff1a0">\u9884\u89c8\uff1a0</span>\u000a<a href="javascript:void(0)" class="collect" ms-click="clickCollect($event, 1064623, 3, 3)" title="\u6536\u85cf"></a>\u000a</p>\u000a</div>\u000a</li>\u000a<li ms-hover="hover">\u000a<a href="http://detail.docer.com/1064440.html" target="_blank" class="mcm_img" title="\u6c34\u5f69\u6e05\u65b0\u901a\u7528\u62a5\u544a\u6a21\u677f.pptx"><img src="/application/styles/images/loading48.gif" lazyLoadSrc="http://img1.template.cache.wps.cn/wps/cdnwps//upload/partner/previews/3/5/a/7/8/39316530-6131-3437-2d62-3939342d6561.png/210x117.png" alt="\u6c34\u5f69\u6e05\u65b0\u901a\u7528\u62a5\u544a\u6a21\u677f.pptx"></a>\u000a<p>\u000a<a href="http://detail.docer.com/1064440.html" target="_blank" class="mcm_title" title="\u6c34\u5f69\u6e05\u65b0\u901a\u7528\u62a5\u544a\u6a21\u677f.pptx">\u6c34\u5f69\u6e05\u65b0\u901a\u7528\u62a5\u544a\u6a21\u677f</a>\u000a</p>\u000a<div class="mcm_show">\u000a<p>\u000a<span class="fwb mcm_title_price">\uffe5<span class="red">19.99</span></span>\u000a<span class="gray" title="\u9884\u89c8\uff1a28">\u9884\u89c8\uff1a28</span>\u000a<a href="javascript:void(0)" class="collect" ms-click="clickCollect($event, 1064440, 3, 3)" title="\u6536\u85cf"></a>\u000a</p>\u000a</div>\u000a</li>\u000a<li ms-hover="hover">\u000a<a href="http://detail.docer.com/21262.html" target="_blank" class="mcm_img" title="\u81ea\u7136\u5143\u7d20\u7cfb\u5217PPT\u2014\u6d9f\u6f2a\uff08\u5bbd\u5c4f\uff09.dpt"><img src="/application/styles/images/loading48.gif" lazyLoadSrc="http://img1.template.cache.wps.cn/wps/cdnwps/upload/official/template/2012-6-19/4fe03b96dd37c.png/210x157.jpg" alt="\u81ea\u7136\u5143\u7d20\u7cfb\u5217PPT\u2014\u6d9f\u6f2a\uff08\u5bbd\u5c4f\uff09.dpt"></a>\u000a<p>\u000a<a href="http://detail.docer.com/21262.html" target="_blank" class="mcm_title" title="\u81ea\u7136\u5143\u7d20\u7cfb\u5217PPT\u2014\u6d9f\u6f2a\uff08\u5bbd\u5c4f\uff09.dpt">\u81ea\u7136\u5143\u7d20\u7cfb\u5217PPT\u2014\u6d9f\u6f2a\uff08\u5bbd\u5c4f\uff09</a>\u000a</p>\u000a<div class="mcm_show">\u000a<p>\u000a<span class="gray" title="\u9884\u89c8\uff1a1491274">\u9884\u89c8\uff1a1491274</span>\u000a<a href="javascript:void(0)" class="collect" ms-click="clickCollect($event, 21262, 1, 3)" title="\u6536\u85cf"></a>\u000a</p>\u000a</div>\u000a</li>\u000a<li ms-hover="hover">\u000a<a href="http://detail.docer.com/9942.html" target="_blank" class="mcm_img" title="\u901a\u7528\u5de5\u4f5c\u6c47\u62a5\u6a21\u677f.dpt"><img src="/application/styles/images/loading48.gif" lazyLoadSrc="http://img1.template.cache.wps.cn/wps/cdnwps/upload/official/template/2011-7-11/4e1ae506cf3aa.png/210x157.jpg" alt="\u901a\u7528\u5de5\u4f5c\u6c47\u62a5\u6a21\u677f.dpt"></a>\u000a<p>\u000a<a href="http://detail.docer.com/9942.html" target="_blank" class="mcm_title" title="\u901a\u7528\u5de5\u4f5c\u6c47\u62a5\u6a21\u677f.dpt">\u901a\u7528\u5de5\u4f5c\u6c47\u62a5\u6a21\u677f</a>\u000a</p>\u000a<div class="mcm_show">\u000a<p>\u000a<span class="gray" title="\u9884\u89c8\uff1a526540">\u9884\u89c8\uff1a526540</span>\u000a<a href="javascript:void(0)" class="collect" ms-click="clickCollect($event, 9942, 1, 3)" title="\u6536\u85cf"></a>\u000a</p>\u000a</div>\u000a</li>\u000a<li ms-hover="hover">\u000a<a href="http://detail.docer.com/1064443.html" target="_blank" class="mcm_img" title="\u9ad8\u8d35\u5178\u96c5\u6587\u827a\u6a21\u677f.pptx"><img src="/application/styles/images/loading48.gif" lazyLoadSrc="http://img1.template.cache.wps.cn/wps/cdnwps//upload/partner/previews/c/5/e/3/0/65393330-6434-6437-2d61-3966382d6132.jpg/210x117.jpg" alt="\u9ad8\u8d35\u5178\u96c5\u6587\u827a\u6a21\u677f.pptx"></a>\u000a<p>\u000a<a href="http://detail.docer.com/1064443.html" target="_blank" class="mcm_title" title="\u9ad8\u8d35\u5178\u96c5\u6587\u827a\u6a21\u677f.pptx">\u9ad8\u8d35\u5178\u96c5\u6587\u827a\u6a21\u677f</a>\u000a</p>\u000a<div class="mcm_show">\u000a<p>\u000a<span class="fwb mcm_title_price">\uffe5<span class="red">17.99</span></span>\u000a<span class="gray" title="\u9884\u89c8\uff1a28">\u9884\u89c8\uff1a28</span>\u000a<a href="javascript:void(0)" class="collect" ms-click="clickCollect($event, 1064443, 3, 3)" title="\u6536\u85cf"></a>\u000a</p>\u000a</div>\u000a</li>\u000a<li ms-hover="hover">\u000a<a href="http://detail.docer.com/1064276.html" target="_blank" class="mcm_img" title="\u591a\u5f69\u7c89\u7b14\u5b57\u5de5\u4f5c\u603b\u7ed3\u901a\u7528PPT.pptx"><img src="/application/styles/images/loading48.gif" lazyLoadSrc="http://img1.template.cache.wps.cn/wps/cdnwps//upload/partner/previews/e/f/9/9/f/35316664-3737-3831-2d36-3062322d3033.jpg/210x117.jpg" alt="\u591a\u5f69\u7c89\u7b14\u5b57\u5de5\u4f5c\u603b\u7ed3\u901a\u7528PPT.pptx"></a>\u000a<p>\u000a<a href="http://detail.docer.com/1064276.html" target="_blank" class="mcm_title" title="\u591a\u5f69\u7c89\u7b14\u5b57\u5de5\u4f5c\u603b\u7ed3\u901a\u7528PPT.pptx">\u591a\u5f69\u7c89\u7b14\u5b57\u5de5\u4f5c\u603b\u7ed3\u901a\u7528PPT</a>\u000a</p>\u000a<div class="mcm_show">\u000a<p>\u000a<span class="fwb mcm_title_price">\uffe5<span class="red">26.99</span></span>\u000a<span class="gray" title="\u9884\u89c8\uff1a60">\u9884\u89c8\uff1a60</span>\u000a<a href="javascript:void(0)" class="collect" ms-click="clickCollect($event, 1064276, 3, 3)" title="\u6536\u85cf"></a>\u000a</p>\u000a</div>\u000a</li>\u000a<li ms-hover="hover">\u000a<a href="http://detail.docer.com/1064412.html" target="_blank" class="mcm_img" title="\u4f01\u4e1a\u5e74\u4f1a\u76db\u5178PPT\u6a21\u677f.pptx"><img src="/application/styles/images/loading48.gif" lazyLoadSrc="http://img1.template.cache.wps.cn/wps/cdnwps//upload/partner/previews/1/4/e/c/8/62383265-6337-3338-2d65-3736632d6638.png/210x117.png" alt="\u4f01\u4e1a\u5e74\u4f1a\u76db\u5178PPT\u6a21\u677f.pptx"></a>\u000a<p>\u000a<a href="http://detail.docer.com/1064412.html" target="_blank" class="mcm_title" title="\u4f01\u4e1a\u5e74\u4f1a\u76db\u5178PPT\u6a21\u677f.pptx">\u4f01\u4e1a\u5e74\u4f1a\u76db\u5178PPT\u6a21\u677f</a>\u000a</p>\u000a<div class="mcm_show">\u000a<p>\u000a<span class="fwb mcm_title_price">\uffe5<span class="red">19.99</span></span>\u000a<span class="gray" title="\u9884\u89c8\uff1a38">\u9884\u89c8\uff1a38</span>\u000a<a href="javascript:void(0)" class="collect" ms-click="clickCollect($event, 1064412, 3, 3)" title="\u6536\u85cf"></a>\u000a</p>\u000a</div>\u000a</li>\u000a<li ms-hover="hover">\u000a<a href="http://detail.docer.com/1064282.html" target="_blank" class="mcm_img" title="\u7b80\u7ea6\u5c0f\u6e05\u65b0\u901a\u7528\u6a21\u677f.pptx"><img src="/application/styles/images/loading48.gif" lazyLoadSrc="http://img1.template.cache.wps.cn/wps/cdnwps//upload/partner/previews/7/3/3/6/6/35343130-3535-3930-2d62-3833382d6232.png/210x117.png" alt="\u7b80\u7ea6\u5c0f\u6e05\u65b0\u901a\u7528\u6a21\u677f.pptx"></a>\u000a<p>\u000a<a href="http://detail.docer.com/1064282.html" target="_blank" class="mcm_title" title="\u7b80\u7ea6\u5c0f\u6e05\u65b0\u901a\u7528\u6a21\u677f.pptx">\u7b80\u7ea6\u5c0f\u6e05\u65b0\u901a\u7528\u6a21\u677f</a>\u000a</p>\u000a<div class="mcm_show">\u000a<p>\u000a<span class="fwb mcm_title_price">\uffe5<span class="red">19.99</span></span>\u000a<span class="gray" title="\u9884\u89c8\uff1a71">\u9884\u89c8\uff1a71</span>\u000a<a href="javascript:void(0)" class="collect" ms-click="clickCollect($event, 1064282, 3, 3)" title="\u6536\u85cf"></a>\u000a</p>\u000a</div>\u000a</li>\u000a<li ms-hover="hover">\u000a<a href="http://detail.docer.com/1064498.html" target="_blank" class="mcm_img" title="\u591a\u5f69\u6e05\u65b0\u901a\u7528\u6a21\u677f.pptx"><img src="/application/styles/images/loading48.gif" lazyLoadSrc="http://img1.template.cache.wps.cn/wps/cdnwps//upload/partner/previews/4/0/9/b/6/65666234-6236-6663-2d63-3731612d6235.png/210x117.png" alt="\u591a\u5f69\u6e05\u65b0\u901a\u7528\u6a21\u677f.pptx"></a>\u000a<p>\u000a<a href="http://detail.docer.com/1064498.html" target="_blank" class="mcm_title" title="\u591a\u5f69\u6e05\u65b0\u901a\u7528\u6a21\u677f.pptx">\u591a\u5f69\u6e05\u65b0\u901a\u7528\u6a21\u677f</a>\u000a</p>\u000a<div class="mcm_show">\u000a<p>\u000a<span class="fwb mcm_title_price">\uffe5<span class="red">19.99</span></span>\u000a<span class="gray" title="\u9884\u89c8\uff1a21">\u9884\u89c8\uff1a21</span>\u000a<a href="javascript:void(0)" class="collect" ms-click="clickCollect($event, 1064498, 3, 3)" title="\u6536\u85cf"></a>\u000a</p>\u000a</div>\u000a</li>\u000a<li ms-hover="hover">\u000a<a href="http://detail.docer.com/1064291.html" target="_blank" class="mcm_img" title="\u65f6\u5c1a\u5fae\u7acb\u4f53\u603b\u7ed3\u6c47\u62a5ppt.pptx"><img src="/application/styles/images/loading48.gif" lazyLoadSrc="http://img1.template.cache.wps.cn/wps/cdnwps//upload/partner/previews/e/8/5/2/e/36383531-3332-6239-2d38-6130642d3539.jpg/210x157.jpg" alt="\u65f6\u5c1a\u5fae\u7acb\u4f53\u603b\u7ed3\u6c47\u62a5ppt.pptx"></a>\u000a<p>\u000a<a href="http://detail.docer.com/1064291.html" target="_blank" class="mcm_title" title="\u65f6\u5c1a\u5fae\u7acb\u4f53\u603b\u7ed3\u6c47\u62a5ppt.pptx">\u65f6\u5c1a\u5fae\u7acb\u4f53\u603b\u7ed3\u6c47\u62a5ppt</a>\u000a</p>\u000a<div class="mcm_show">\u000a<p>\u000a<span class="fwb mcm_title_price">\uffe5<span class="red">27.99</span></span>\u000a<span class="gray" title="\u9884\u89c8\uff1a8">\u9884\u89c8\uff1a8</span>\u000a<a href="javascript:void(0)" class="collect" ms-click="clickCollect($event, 1064291, 3, 3)" title="\u6536\u85cf"></a>\u000a</p>\u000a</div>\u000a</li>\u000a<li ms-hover="hover">\u000a<a href="http://detail.docer.com/1064544.html" target="_blank" class="mcm_img" title="2017\u9ad8\u7aef\u5962\u534e\u5927\u6c14\u5546\u52a1\u5e74\u7ec8\u603b\u7ed3\u66a8\u65b0\u5e74\u8ba1\u5212\u52a8\u6001PPT\u6a21\u677f.pptx"><img src="/application/styles/images/loading48.gif" lazyLoadSrc="http://img1.template.cache.wps.cn/wps/cdnwps//upload/partner/previews/0/a/e/1/5/65326537-6436-3661-2d35-3636322d3232.jpg/210x117.jpg" alt="2017\u9ad8\u7aef\u5962\u534e\u5927\u6c14\u5546\u52a1\u5e74\u7ec8\u603b\u7ed3\u66a8\u65b0\u5e74\u8ba1\u5212\u52a8\u6001PPT\u6a21\u677f.pptx"></a>\u000a<p>\u000a<a href="http://detail.docer.com/1064544.html" target="_blank" class="mcm_title" title="2017\u9ad8\u7aef\u5962\u534e\u5927\u6c14\u5546\u52a1\u5e74\u7ec8\u603b\u7ed3\u66a8\u65b0\u5e74\u8ba1\u5212\u52a8\u6001PPT\u6a21\u677f.pptx">2017\u9ad8\u7aef\u5962\u534e\u5927\u6c14\u5546\u52a1\u5e74\u7ec8\u603b\u7ed3\u66a8\u65b0\u5e74\u8ba1\u5212\u52a8\u6001PPT\u6a21\u677f</a>\u000a</p>\u000a<div class="mcm_show">\u000a<p>\u000a<span class="fwb mcm_title_price">\uffe5<span class="red">19.99</span></span>\u000a<span class="gray" title="\u9884\u89c8\uff1a6">\u9884\u89c8\uff1a6</span>\u000a<a href="javascript:void(0)" class="collect" ms-click="clickCollect($event, 1064544, 3, 3)" title="\u6536\u85cf"></a>\u000a</p>\u000a</div>\u000a</li>\u000a<li ms-hover="hover">\u000a<a href="http://detail.docer.com/210187.html" target="_blank" class="mcm_img" title="\u4e94\u5f69\u70ab\u70b9PPT\u6a21\u677f.dpt"><img src="/application/styles/images/loading48.gif" lazyLoadSrc="http://img1.template.cache.wps.cn/wps/cdnwps/upload/official/preview/2013-12-2/529bfb7630356_1.png/210x157.jpg" alt="\u4e94\u5f69\u70ab\u70b9PPT\u6a21\u677f.dpt"></a>\u000a<p>\u000a<a href="http://detail.docer.com/210187.html" target="_blank" class="mcm_title" title="\u4e94\u5f69\u70ab\u70b9PPT\u6a21\u677f.dpt">\u4e94\u5f69\u70ab\u70b9PPT\u6a21\u677f</a>\u000a</p>\u000a<div class="mcm_show">\u000a<p>\u000a<span class="gray" title="\u9884\u89c8\uff1a487432">\u9884\u89c8\uff1a487432</span>\u000a<a href="javascript:void(0)" class="collect" ms-click="clickCollect($event, 210187, 1, 3)" title="\u6536\u85cf"></a>\u000a</p>\u000a</div>\u000a</li>\u000a<li ms-hover="hover">\u000a<a href="http://detail.docer.com/7129.html" target="_blank" class="mcm_img" title="\u6f14\u8bb2\u62a5\u544a.dpt"><img src="/application/styles/images/loading48.gif" lazyLoadSrc="http://img1.template.cache.wps.cn/wps/cdnwps/upload/official/template/2010-7-21/4c462949ea085.png/210x157.jpg" alt="\u6f14\u8bb2\u62a5\u544a.dpt"></a>\u000a<p>\u000a<a href="http://detail.docer.com/7129.html" target="_blank" class="mcm_title" title="\u6f14\u8bb2\u62a5\u544a.dpt">\u6f14\u8bb2\u62a5\u544a</a>\u000a</p>\u000a<div class="mcm_show">\u000a<p>\u000a<span class="gray" title="\u9884\u89c8\uff1a481352">\u9884\u89c8\uff1a481352</span>\u000a<a href="javascript:void(0)" class="collect" ms-click="clickCollect($event, 7129, 1, 3)" title="\u6536\u85cf"></a>\u000a</p>\u000a</div>\u000a</li>\u000a<li ms-hover="hover">\u000a<a href="http://detail.docer.com/1064524.html" target="_blank" class="mcm_img" title="\u6e05\u65b0\u7b80\u7ea6\u5927\u6c14\u6c34\u5f69\u5e74\u7ec8\u5de5\u4f5c\u603b\u7ed3\u6c47\u62a5\u8ba1\u5212\u8ff0\u804c\u62a5\u544aPPT.pptx"><img src="/application/styles/images/loading48.gif" lazyLoadSrc="http://img1.template.cache.wps.cn/wps/cdnwps//upload/partner/previews/7/4/5/d/e/66306263-3362-3032-2d65-6433312d6333.jpg/210x117.jpg" alt="\u6e05\u65b0\u7b80\u7ea6\u5927\u6c14\u6c34\u5f69\u5e74\u7ec8\u5de5\u4f5c\u603b\u7ed3\u6c47\u62a5\u8ba1\u5212\u8ff0\u804c\u62a5\u544aPPT.pptx"></a>\u000a<p>\u000a<a href="http://detail.docer.com/1064524.html" target="_blank" class="mcm_title" title="\u6e05\u65b0\u7b80\u7ea6\u5927\u6c14\u6c34\u5f69\u5e74\u7ec8\u5de5\u4f5c\u603b\u7ed3\u6c47\u62a5\u8ba1\u5212\u8ff0\u804c\u62a5\u544aPPT.pptx">\u6e05\u65b0\u7b80\u7ea6\u5927\u6c14\u6c34\u5f69\u5e74\u7ec8\u5de5\u4f5c\u603b\u7ed3\u6c47\u62a5\u8ba1\u5212\u8ff0\u804c\u62a5\u544aPPT</a>\u000a</p>\u000a<div class="mcm_show">\u000a<p>\u000a<span class="fwb mcm_title_price">\uffe5<span class="red">29.99</span></span>\u000a<span class="gray" title="\u9884\u89c8\uff1a8">\u9884\u89c8\uff1a8</span>\u000a<a href="javascript:void(0)" class="collect" ms-click="clickCollect($event, 1064524, 3, 3)" title="\u6536\u85cf"></a>\u000a</p>\u000a</div>\u000a</li>\u000a<li ms-hover="hover">\u000a<a href="http://detail.docer.com/21255.html" target="_blank" class="mcm_img" title="\u81ea\u7136\u5143\u7d20\u7cfb\u5217PPT\u2014\u6c34\uff08\u5bbd\u5c4f\uff09.dpt"><img src="/application/styles/images/loading48.gif" lazyLoadSrc="http://img1.template.cache.wps.cn/wps/cdnwps/upload/official/template/2012-6-19/4fe03b96d4eaf.png/210x157.jpg" alt="\u81ea\u7136\u5143\u7d20\u7cfb\u5217PPT\u2014\u6c34\uff08\u5bbd\u5c4f\uff09.dpt"></a>\u000a<p>\u000a<a href="http://detail.docer.com/21255.html" target="_blank" class="mcm_title" title="\u81ea\u7136\u5143\u7d20\u7cfb\u5217PPT\u2014\u6c34\uff08\u5bbd\u5c4f\uff09.dpt">\u81ea\u7136\u5143\u7d20\u7cfb\u5217PPT\u2014\u6c34\uff08\u5bbd\u5c4f\uff09</a>\u000a</p>\u000a<div class="mcm_show">\u000a<p>\u000a<span class="gray" title="\u9884\u89c8\uff1a917493">\u9884\u89c8\uff1a917493</span>\u000a<a href="javascript:void(0)" class="collect" ms-click="clickCollect($event, 21255, 1, 3)" title="\u6536\u85cf"></a>\u000a</p>\u000a</div>\u000a</li>\u000a<li ms-hover="hover">\u000a<a href="http://detail.docer.com/1064499.html" target="_blank" class="mcm_img" title="\u5927\u6c14\u7ea2\u9ed1\u901a\u7528\u5546\u52a1\u6a21\u677f"><img src="/application/styles/images/loading48.gif" lazyLoadSrc="http://img1.template.cache.wps.cn/wps/cdnwps//upload/partner/previews/0/e/1/7/3/31363761-3233-3664-2d38-6665352d3865.png/210x117.png" alt="\u5927\u6c14\u7ea2\u9ed1\u901a\u7528\u5546\u52a1\u6a21\u677f"></a>\u000a<p>\u000a<a href="http://detail.docer.com/1064499.html" target="_blank" class="mcm_title" title="\u5927\u6c14\u7ea2\u9ed1\u901a\u7528\u5546\u52a1\u6a21\u677f">\u5927\u6c14\u7ea2\u9ed1\u901a\u7528\u5546\u52a1\u6a21\u677f</a>\u000a</p>\u000a<div class="mcm_show">\u000a<p>\u000a<span class="fwb mcm_title_price">\uffe5<span class="red">19.99</span></span>\u000a<span class="gray" title="\u9884\u89c8\uff1a24">\u9884\u89c8\uff1a24</span>\u000a<a href="javascript:void(0)" class="collect" ms-click="clickCollect($event, 1064499, 3, 3)" title="\u6536\u85cf"></a>\u000a</p>\u000a</div>\u000a</li>\u000a<li ms-hover="hover">\u000a<a href="http://detail.docer.com/7115.html" target="_blank" class="mcm_img" title="\u84dd\u8272\u5fc3\u60c5PPT\u6a21\u677f.dpt"><img src="/application/styles/images/loading48.gif" lazyLoadSrc="http://img1.template.cache.wps.cn/wps/cdnwps/upload/official/template/2010-7-16/4c3f65a7bc1d7.png/210x157.jpg" alt="\u84dd\u8272\u5fc3\u60c5PPT\u6a21\u677f.dpt"></a>\u000a<p>\u000a<a href="http://detail.docer.com/7115.html" target="_blank" class="mcm_title" title="\u84dd\u8272\u5fc3\u60c5PPT\u6a21\u677f.dpt">\u84dd\u8272\u5fc3\u60c5PPT\u6a21\u677f</a>\u000a</p>\u000a<div class="mcm_show">\u000a<p>\u000a<span class="gray" title="\u9884\u89c8\uff1a608941">\u9884\u89c8\uff1a608941</span>\u000a<a href="javascript:void(0)" class="collect" ms-click="clickCollect($event, 7115, 1, 3)" title="\u6536\u85cf"></a>\u000a</p>\u000a</div>\u000a</li>\u000a<li ms-hover="hover">\u000a<a href="http://detail.docer.com/209051.html" target="_blank" class="mcm_img" title="\u5c0f\u6e05\u65b0\u7ea2\u9886\u5dfePPT\u6a21\u677f.dpt"><img src="/application/styles/images/loading48.gif" lazyLoadSrc="http://img1.template.cache.wps.cn/wps/cdnwps/upload/official/preview/2013-10-31/527205a92e65e_1.png/210x157.jpg" alt="\u5c0f\u6e05\u65b0\u7ea2\u9886\u5dfePPT\u6a21\u677f.dpt"></a>\u000a<p>\u000a<a href="http://detail.docer.com/209051.html" target="_blank" class="mcm_title" title="\u5c0f\u6e05\u65b0\u7ea2\u9886\u5dfePPT\u6a21\u677f.dpt">\u5c0f\u6e05\u65b0\u7ea2\u9886\u5dfePPT\u6a21\u677f</a>\u000a</p>\u000a<div class="mcm_show">\u000a<p>\u000a<span class="gray" title="\u9884\u89c8\uff1a516145">\u9884\u89c8\uff1a516145</span>\u000a<a href="javascript:void(0)" class="collect" ms-click="clickCollect($event, 209051, 1, 3)" title="\u6536\u85cf"></a>\u000a</p>\u000a</div>\u000a</li>\u000a<li ms-hover="hover">\u000a<a href="http://detail.docer.com/1064270.html" target="_blank" class="mcm_img" title="\u7c89\u7ea2\u6e10\u53d8\u901a\u7528\u6a21\u677f.pptx"><img src="/application/styles/images/loading48.gif" lazyLoadSrc="http://img1.template.cache.wps.cn/wps/cdnwps//upload/partner/previews/b/1/0/c/5/36323931-3531-3335-2d32-3938652d6166.jpg/210x117.jpg" alt="\u7c89\u7ea2\u6e10\u53d8\u901a\u7528\u6a21\u677f.pptx"></a>\u000a<p>\u000a<a href="http://detail.docer.com/1064270.html" target="_blank" class="mcm_title" title="\u7c89\u7ea2\u6e10\u53d8\u901a\u7528\u6a21\u677f.pptx">\u7c89\u7ea2\u6e10\u53d8\u901a\u7528\u6a21\u677f</a>\u000a</p>\u000a<div class="mcm_show">\u000a<p>\u000a<span class="fwb mcm_title_price">\uffe5<span class="red">19.99</span></span>\u000a<span class="gray" title="\u9884\u89c8\uff1a50">\u9884\u89c8\uff1a50</span>\u000a<a href="javascript:void(0)" class="collect" ms-click="clickCollect($event, 1064270, 3, 3)" title="\u6536\u85cf"></a>\u000a</p>\u000a</div>\u000a</li>\u000a<li ms-hover="hover">\u000a<a href="http://detail.docer.com/1064279.html" target="_blank" class="mcm_img" title="\u533b\u7597\u533b\u5b66\u533b\u9662\u5de5\u4f5c\u603b\u7ed3\u8ff0\u804c\u62a5\u544aPPT\u6a21\u677f.pptx"><img src="/application/styles/images/loading48.gif" lazyLoadSrc="http://img1.template.cache.wps.cn/wps/cdnwps//upload/partner/previews/4/2/f/2/3/38376136-3761-6135-2d38-3930652d6166.jpg/210x117.jpg" alt="\u533b\u7597\u533b\u5b66\u533b\u9662\u5de5\u4f5c\u603b\u7ed3\u8ff0\u804c\u62a5\u544aPPT\u6a21\u677f.pptx"></a>\u000a<p>\u000a<a href="http://detail.docer.com/1064279.html" target="_blank" class="mcm_title" title="\u533b\u7597\u533b\u5b66\u533b\u9662\u5de5\u4f5c\u603b\u7ed3\u8ff0\u804c\u62a5\u544aPPT\u6a21\u677f.pptx">\u533b\u7597\u533b\u5b66\u533b\u9662\u5de5\u4f5c\u603b\u7ed3\u8ff0\u804c\u62a5\u544aPPT\u6a21\u677f</a>\u000a</p>\u000a<div class="mcm_show">\u000a<p>\u000a<span class="fwb mcm_title_price">\uffe5<span class="red">23.99</span></span>\u000a<span class="gray" title="\u9884\u89c8\uff1a30">\u9884\u89c8\uff1a30</span>\u000a<a href="javascript:void(0)" class="collect" ms-click="clickCollect($event, 1064279, 3, 3)" title="\u6536\u85cf"></a>\u000a</p>\u000a</div>\u000a</li>\u000a<li ms-hover="hover">\u000a<a href="http://detail.docer.com/1064626.html" target="_blank" class="mcm_img" title="\u6e05\u65b0\u6de1\u96c5\u7eff\u8272\u5e74\u7ec8\u603b\u7ed3\u6c47\u62a5.pptx"><img src="/application/styles/images/loading48.gif" lazyLoadSrc="http://img1.template.cache.wps.cn/wps/cdnwps//upload/partner/previews/c/f/0/b/5/32333639-6138-3566-2d35-3139642d3464.jpg/210x117.jpg" alt="\u6e05\u65b0\u6de1\u96c5\u7eff\u8272\u5e74\u7ec8\u603b\u7ed3\u6c47\u62a5.pptx"></a>\u000a<p>\u000a<a href="http://detail.docer.com/1064626.html" target="_blank" class="mcm_title" title="\u6e05\u65b0\u6de1\u96c5\u7eff\u8272\u5e74\u7ec8\u603b\u7ed3\u6c47\u62a5.pptx">\u6e05\u65b0\u6de1\u96c5\u7eff\u8272\u5e74\u7ec8\u603b\u7ed3\u6c47\u62a5</a>\u000a</p>\u000a<div class="mcm_show">\u000a<p>\u000a<span class="fwb mcm_title_price">\uffe5<span class="red">24.99</span></span>\u000a<span class="gray" title="\u9884\u89c8\uff1a3">\u9884\u89c8\uff1a3</span>\u000a<a href="javascript:void(0)" class="collect" ms-click="clickCollect($event, 1064626, 3, 3)" title="\u6536\u85cf"></a>\u000a</p>\u000a</div>\u000a</li>\u000a<li ms-hover="hover">\u000a<a href="http://detail.docer.com/1064401.html" target="_blank" class="mcm_img" title="\u4e2d\u56fd\u5e74\u606d\u8d3a\u65b0\u5e74\u9759\u6001\u5927\u6c14ppt\u6a21\u677f.pptx"><img src="/application/styles/images/loading48.gif" lazyLoadSrc="http://img1.template.cache.wps.cn/wps/cdnwps//upload/partner/previews/d/5/d/9/1/61386263-3162-6538-2d33-3531632d3639.jpg/210x117.jpg" alt="\u4e2d\u56fd\u5e74\u606d\u8d3a\u65b0\u5e74\u9759\u6001\u5927\u6c14ppt\u6a21\u677f.pptx"></a>\u000a<p>\u000a<a href="http://detail.docer.com/1064401.html" target="_blank" class="mcm_title" title="\u4e2d\u56fd\u5e74\u606d\u8d3a\u65b0\u5e74\u9759\u6001\u5927\u6c14ppt\u6a21\u677f.pptx">\u4e2d\u56fd\u5e74\u606d\u8d3a\u65b0\u5e74\u9759\u6001\u5927\u6c14ppt\u6a21\u677f</a>\u000a</p>\u000a<div class="mcm_show">\u000a<p>\u000a<span class="fwb mcm_title_price">\uffe5<span class="red">14.99</span></span>\u000a<span class="gray" title="\u9884\u89c8\uff1a41">\u9884\u89c8\uff1a41</span>\u000a<a href="javascript:void(0)" class="collect" ms-click="clickCollect($event, 1064401, 3, 3)" title="\u6536\u85cf"></a>\u000a</p>\u000a</div>\u000a</li>\u000a<li ms-hover="hover">\u000a<a href="http://detail.docer.com/1064360.html" target="_blank" class="mcm_img" title="\u6b27\u7f8e\u98ce\u9ad8\u7aef\u5546\u52a1\u5e74\u7ec8\u6c47\u62a5\u603b\u7ed3PPT\u6a21\u677f.pptx"><img src="/application/styles/images/loading48.gif" lazyLoadSrc="http://img1.template.cache.wps.cn/wps/cdnwps//upload/partner/previews/1/e/4/a/1/32393935-6464-3265-2d36-6564642d6130.jpg/210x117.jpg" alt="\u6b27\u7f8e\u98ce\u9ad8\u7aef\u5546\u52a1\u5e74\u7ec8\u6c47\u62a5\u603b\u7ed3PPT\u6a21\u677f.pptx"></a>\u000a<p>\u000a<a href="http://detail.docer.com/1064360.html" target="_blank" class="mcm_title" title="\u6b27\u7f8e\u98ce\u9ad8\u7aef\u5546\u52a1\u5e74\u7ec8\u6c47\u62a5\u603b\u7ed3PPT\u6a21\u677f.pptx">\u6b27\u7f8e\u98ce\u9ad8\u7aef\u5546\u52a1\u5e74\u7ec8\u6c47\u62a5\u603b\u7ed3PPT\u6a21\u677f</a>\u000a</p>\u000a<div class="mcm_show">\u000a<p>\u000a<span class="fwb mcm_title_price">\uffe5<span class="red">24.99</span></span>\u000a<span class="gray" title="\u9884\u89c8\uff1a46">\u9884\u89c8\uff1a46</span>\u000a<a href="javascript:void(0)" class="collect" ms-click="clickCollect($event, 1064360, 3, 3)" title="\u6536\u85cf"></a>\u000a</p>\u000a</div>\u000a</li>\u000a<li ms-hover="hover">\u000a<a href="http://detail.docer.com/1064400.html" target="_blank" class="mcm_img" title="\u5723\u8bde\u8282\u6d3b\u52a8\u5e86\u795d\u7b56\u5212\u65b9\u6848\u9ad8\u7aef\u7cbe\u81f4PPT\u6a21\u677f.pptx"><img src="/application/styles/images/loading48.gif" lazyLoadSrc="http://img1.template.cache.wps.cn/wps/cdnwps//upload/partner/previews/0/8/0/0/0/66613339-3661-3563-2d63-3563632d3830.jpg/210x117.jpg" alt="\u5723\u8bde\u8282\u6d3b\u52a8\u5e86\u795d\u7b56\u5212\u65b9\u6848\u9ad8\u7aef\u7cbe\u81f4PPT\u6a21\u677f.pptx"></a>\u000a<p>\u000a<a href="http://detail.docer.com/1064400.html" target="_blank" class="mcm_title" title="\u5723\u8bde\u8282\u6d3b\u52a8\u5e86\u795d\u7b56\u5212\u65b9\u6848\u9ad8\u7aef\u7cbe\u81f4PPT\u6a21\u677f.pptx">\u5723\u8bde\u8282\u6d3b\u52a8\u5e86\u795d\u7b56\u5212\u65b9\u6848\u9ad8\u7aef\u7cbe\u81f4PPT\u6a21\u677f</a>\u000a</p>\u000a<div class="mcm_show">\u000a<p>\u000a<span class="fwb mcm_title_price">\uffe5<span class="red">24.99</span></span>\u000a<span class="gray" title="\u9884\u89c8\uff1a31">\u9884\u89c8\uff1a31</span>\u000a<a href="javascript:void(0)" class="collect" ms-click="clickCollect($event, 1064400, 3, 3)" title="\u6536\u85cf"></a>\u000a</p>\u000a</div>\u000a</li>\u000a<li ms-hover="hover">\u000a<a href="http://detail.docer.com/12737.html" target="_blank" class="mcm_img" title="\u82b1\u5349\u6d82\u9e26.dpt"><img src="/application/styles/images/loading48.gif" lazyLoadSrc="http://img1.template.cache.wps.cn/wps/cdnwps/upload/official/template/2012/1/12/4f0e396f84d66.png/210x157.jpg" alt="\u82b1\u5349\u6d82\u9e26.dpt"></a>\u000a<p>\u000a<a href="http://detail.docer.com/12737.html" target="_blank" class="mcm_title" title="\u82b1\u5349\u6d82\u9e26.dpt">\u82b1\u5349\u6d82\u9e26</a>\u000a</p>\u000a<div class="mcm_show">\u000a<p>\u000a<span class="gray" title="\u9884\u89c8\uff1a652911">\u9884\u89c8\uff1a652911</span>\u000a<a href="javascript:void(0)" class="collect" ms-click="clickCollect($event, 12737, 1, 3)" title="\u6536\u85cf"></a>\u000a</p>\u000a</div>\u000a</li>\u000a<li ms-hover="hover">\u000a<a href="http://detail.docer.com/12834.html" target="_blank" class="mcm_img" title="\u7b80\u7ea6\u8bbe\u8ba1.dpt"><img src="/application/styles/images/loading48.gif" lazyLoadSrc="http://img1.template.cache.wps.cn/wps/cdnwps/upload/official/template/2012-2-10/4f34839ddf7ce.png/210x157.jpg" alt="\u7b80\u7ea6\u8bbe\u8ba1.dpt"></a>\u000a<p>\u000a<a href="http://detail.docer.com/12834.html" target="_blank" class="mcm_title" title="\u7b80\u7ea6\u8bbe\u8ba1.dpt">\u7b80\u7ea6\u8bbe\u8ba1</a>\u000a</p>\u000a<div class="mcm_show">\u000a<p>\u000a<span class="gray" title="\u9884\u89c8\uff1a1065364">\u9884\u89c8\uff1a1065364</span>\u000a<a href="javascript:void(0)" class="collect" ms-click="clickCollect($event, 12834, 1, 3)" title="\u6536\u85cf"></a>\u000a</p>\u000a</div>\u000a</li>\u000a<li ms-hover="hover">\u000a<a href="http://detail.docer.com/1064490.html" target="_blank" class="mcm_img" title="\u65c5\u884c\u65e5\u8bb0\u65c5\u6e38\u5206\u4eab\u96ea\u5c71\u6e38\u5386\u4e2a\u4eba\u6e38\u73a9\u661f\u7a7a\u98ce\u901a\u7528\u6a21\u677f.pptx"><img src="/application/styles/images/loading48.gif" lazyLoadSrc="http://img1.template.cache.wps.cn/wps/cdnwps//upload/partner/previews/e/8/3/8/3/39323237-6533-3364-2d37-6166642d3263.jpg/210x117.jpg" alt="\u65c5\u884c\u65e5\u8bb0\u65c5\u6e38\u5206\u4eab\u96ea\u5c71\u6e38\u5386\u4e2a\u4eba\u6e38\u73a9\u661f\u7a7a\u98ce\u901a\u7528\u6a21\u677f.pptx"></a>\u000a<p>\u000a<a href="http://detail.docer.com/1064490.html" target="_blank" class="mcm_title" title="\u65c5\u884c\u65e5\u8bb0\u65c5\u6e38\u5206\u4eab\u96ea\u5c71\u6e38\u5386\u4e2a\u4eba\u6e38\u73a9\u661f\u7a7a\u98ce\u901a\u7528\u6a21\u677f.pptx">\u65c5\u884c\u65e5\u8bb0\u65c5\u6e38\u5206\u4eab\u96ea\u5c71\u6e38\u5386\u4e2a\u4eba\u6e38\u73a9\u661f\u7a7a\u98ce\u901a\u7528\u6a21\u677f</a>\u000a</p>\u000a<div class="mcm_show">\u000a<p>\u000a<span class="fwb mcm_title_price">\uffe5<span class="red">9.9</span></span>\u000a<span class="gray" title="\u9884\u89c8\uff1a12">\u9884\u89c8\uff1a12</span>\u000a<a href="javascript:void(0)" class="collect" ms-click="clickCollect($event, 1064490, 3, 3)" title="\u6536\u85cf"></a>\u000a</p>\u000a</div>\u000a</li>\u000a<li ms-hover="hover">\u000a<a href="http://detail.docer.com/212379.html" target="_blank" class="mcm_img" title="\u6781\u7b80\u5546\u52a1\u6a21\u677f.dpt"><img src="/application/styles/images/loading48.gif" lazyLoadSrc="http://img1.template.cache.wps.cn/wps/cdnwps/upload/official/preview/2014-1-7/52cbd17bae93b_1.png/210x157.jpg" alt="\u6781\u7b80\u5546\u52a1\u6a21\u677f.dpt"></a>\u000a<p>\u000a<a href="http://detail.docer.com/212379.html" target="_blank" class="mcm_title" title="\u6781\u7b80\u5546\u52a1\u6a21\u677f.dpt">\u6781\u7b80\u5546\u52a1\u6a21\u677f</a>\u000a</p>\u000a<div class="mcm_show">\u000a<p>\u000a<span class="gray" title="\u9884\u89c8\uff1a724250">\u9884\u89c8\uff1a724250</span>\u000a<a href="javascript:void(0)" class="collect" ms-click="clickCollect($event, 212379, 1, 3)" title="\u6536\u85cf"></a>\u000a</p>\u000a</div>\u000a</li>\u000a<li ms-hover="hover">\u000a<a href="http://detail.docer.com/1064543.html" target="_blank" class="mcm_img" title="\u84dd\u8272\u7b80\u7ea6\u5927\u6c14\u516c\u53f8\u4ecb\u7ecd\u4ea7\u54c1\u5ba3\u4f20\u52a8\u6001PPT\u6a21\u677f.pptx"><img src="/application/styles/images/loading48.gif" lazyLoadSrc="http://img1.template.cache.wps.cn/wps/cdnwps//upload/partner/previews/f/6/2/d/d/65663761-3938-3735-2d32-6630342d6665.jpg/210x117.jpg" alt="\u84dd\u8272\u7b80\u7ea6\u5927\u6c14\u516c\u53f8\u4ecb\u7ecd\u4ea7\u54c1\u5ba3\u4f20\u52a8\u6001PPT\u6a21\u677f.pptx"></a>\u000a<p>\u000a<a href="http://detail.docer.com/1064543.html" target="_blank" class="mcm_title" title="\u84dd\u8272\u7b80\u7ea6\u5927\u6c14\u516c\u53f8\u4ecb\u7ecd\u4ea7\u54c1\u5ba3\u4f20\u52a8\u6001PPT\u6a21\u677f.pptx">\u84dd\u8272\u7b80\u7ea6\u5927\u6c14\u516c\u53f8\u4ecb\u7ecd\u4ea7\u54c1\u5ba3\u4f20\u52a8\u6001PPT\u6a21\u677f</a>\u000a</p>\u000a<div class="mcm_show">\u000a<p>\u000a<span class="fwb mcm_title_price">\uffe5<span class="red">22.99</span></span>\u000a<span class="gray" title="\u9884\u89c8\uff1a3">\u9884\u89c8\uff1a3</span>\u000a<a href="javascript:void(0)" class="collect" ms-click="clickCollect($event, 1064543, 3, 3)" title="\u6536\u85cf"></a>\u000a</p>\u000a</div>\u000a</li>\u000a<li ms-hover="hover">\u000a<a href="http://detail.docer.com/209977.html" target="_blank" class="mcm_img" title="\u7b80\u6d01\u6b27\u7f8e\u98ce\u6a21\u677f.dpt"><img src="/application/styles/images/loading48.gif" lazyLoadSrc="http://img1.template.cache.wps.cn/wps/cdnwps/upload/official/preview/2013-11-15/52859016b3443_1.png/210x157.jpg" alt="\u7b80\u6d01\u6b27\u7f8e\u98ce\u6a21\u677f.dpt"></a>\u000a<p>\u000a<a href="http://detail.docer.com/209977.html" target="_blank" class="mcm_title" title="\u7b80\u6d01\u6b27\u7f8e\u98ce\u6a21\u677f.dpt">\u7b80\u6d01\u6b27\u7f8e\u98ce\u6a21\u677f</a>\u000a</p>\u000a<div class="mcm_show">\u000a<p>\u000a<span class="gray" title="\u9884\u89c8\uff1a748045">\u9884\u89c8\uff1a748045</span>\u000a<a href="javascript:void(0)" class="collect" ms-click="clickCollect($event, 209977, 1, 3)" title="\u6536\u85cf"></a>\u000a</p>\u000a</div>\u000a</li>\u000a<li ms-hover="hover">\u000a<a href="http://detail.docer.com/1064409.html" target="_blank" class="mcm_img" title="\u5c71\u6c34\u58a8\u97f5\u4e2d\u56fd\u98ce\u5e74\u7ec8\u603b\u7ed3\u62a5\u544a\u6a21\u677f.pptx"><img src="/application/styles/images/loading48.gif" lazyLoadSrc="http://img1.template.cache.wps.cn/wps/cdnwps//upload/partner/previews/d/6/a/6/1/63633732-3466-6437-2d66-3336622d3462.jpg/210x117.jpg" alt="\u5c71\u6c34\u58a8\u97f5\u4e2d\u56fd\u98ce\u5e74\u7ec8\u603b\u7ed3\u62a5\u544a\u6a21\u677f.pptx"></a>\u000a<p>\u000a<a href="http://detail.docer.com/1064409.html" target="_blank" class="mcm_title" title="\u5c71\u6c34\u58a8\u97f5\u4e2d\u56fd\u98ce\u5e74\u7ec8\u603b\u7ed3\u62a5\u544a\u6a21\u677f.pptx">\u5c71\u6c34\u58a8\u97f5\u4e2d\u56fd\u98ce\u5e74\u7ec8\u603b\u7ed3\u62a5\u544a\u6a21\u677f</a>\u000a</p>\u000a<div class="mcm_show">\u000a<p>\u000a<span class="fwb mcm_title_price">\uffe5<span class="red">24.99</span></span>\u000a<span class="gray" title="\u9884\u89c8\uff1a38">\u9884\u89c8\uff1a38</span>\u000a<a href="javascript:void(0)" class="collect" ms-click="clickCollect($event, 1064409, 3, 3)" title="\u6536\u85cf"></a>\u000a</p>\u000a</div>\u000a</li>\u000a<li ms-hover="hover">\u000a<a href="http://detail.docer.com/22540.html" target="_blank" class="mcm_img" title="\u5e0c\u671b\u7684\u7530\u91ce.dpt"><img src="/application/styles/images/loading48.gif" lazyLoadSrc="http://img1.template.cache.wps.cn/wps/cdnwps/upload/official/template/2012-7-9/4ffa9b601be72.png/210x157.jpg" alt="\u5e0c\u671b\u7684\u7530\u91ce.dpt"></a>\u000a<p>\u000a<a href="http://detail.docer.com/22540.html" target="_blank" class="mcm_title" title="\u5e0c\u671b\u7684\u7530\u91ce.dpt">\u5e0c\u671b\u7684\u7530\u91ce</a>\u000a</p>\u000a<div class="mcm_show">\u000a<p>\u000a<span class="gray" title="\u9884\u89c8\uff1a618043">\u9884\u89c8\uff1a618043</span>\u000a<a href="javascript:void(0)" class="collect" ms-click="clickCollect($event, 22540, 1, 3)" title="\u6536\u85cf"></a>\u000a</p>\u000a</div>\u000a</li>\u000a<li ms-hover="hover">\u000a<a href="http://detail.docer.com/1064273.html" target="_blank" class="mcm_img" title="2017\u591a\u5f69\u7b80\u7ea6\u5927\u6c14\u901a\u7528\u6a21\u677f.pptx"><img src="/application/styles/images/loading48.gif" lazyLoadSrc="http://img1.template.cache.wps.cn/wps/cdnwps//upload/partner/previews/d/d/0/8/5/33393034-3336-6366-2d61-3231372d3734.png/210x117.png" alt="2017\u591a\u5f69\u7b80\u7ea6\u5927\u6c14\u901a\u7528\u6a21\u677f.pptx"></a>\u000a<p>\u000a<a href="http://detail.docer.com/1064273.html" target="_blank" class="mcm_title" title="2017\u591a\u5f69\u7b80\u7ea6\u5927\u6c14\u901a\u7528\u6a21\u677f.pptx">2017\u591a\u5f69\u7b80\u7ea6\u5927\u6c14\u901a\u7528\u6a21\u677f</a>\u000a</p>\u000a<div class="mcm_show">\u000a<p>\u000a<span class="fwb mcm_title_price">\uffe5<span class="red">19.99</span></span>\u000a<span class="gray" title="\u9884\u89c8\uff1a78">\u9884\u89c8\uff1a78</span>\u000a<a href="javascript:void(0)" class="collect" ms-click="clickCollect($event, 1064273, 3, 3)" title="\u6536\u85cf"></a>\u000a</p>\u000a</div>\u000a</li>\u000a<li ms-hover="hover">\u000a<a href="http://detail.docer.com/7951.html" target="_blank" class="mcm_img" title="\u8377\u5858\u6625\u7eff.dpt"><img src="/application/styles/images/loading48.gif" lazyLoadSrc="http://img1.template.cache.wps.cn/wps/cdnwps/upload/official/template/2011-1-22/4d3a426930816.png/210x157.jpg" alt="\u8377\u5858\u6625\u7eff.dpt"></a>\u000a<p>\u000a<a href="http://detail.docer.com/7951.html" target="_blank" class="mcm_title" title="\u8377\u5858\u6625\u7eff.dpt">\u8377\u5858\u6625\u7eff</a>\u000a</p>\u000a<div class="mcm_show">\u000a<p>\u000a<span class="gray" title="\u9884\u89c8\uff1a773611">\u9884\u89c8\uff1a773611</span>\u000a<a href="javascript:void(0)" class="collect" ms-click="clickCollect($event, 7951, 1, 3)" title="\u6536\u85cf"></a>\u000a</p>\u000a</div>\u000a</li>\u000a<li ms-hover="hover">\u000a<a href="http://detail.docer.com/1064268.html" target="_blank" class="mcm_img" title="\u6742\u5fd7\u753b\u518c\u6587\u827a\u753b\u518c\u516c\u53f8\u5ba3\u4f20\u6742\u5fd7\u65f6\u5c1a\u6a21\u677f83.pptx"><img src="/application/styles/images/loading48.gif" lazyLoadSrc="http://img1.template.cache.wps.cn/wps/cdnwps//upload/partner/previews/0/6/a/9/e/61363031-6135-6366-2d66-3066622d6633.jpg/210x117.jpg" alt="\u6742\u5fd7\u753b\u518c\u6587\u827a\u753b\u518c\u516c\u53f8\u5ba3\u4f20\u6742\u5fd7\u65f6\u5c1a\u6a21\u677f83.pptx"></a>\u000a<p>\u000a<a href="http://detail.docer.com/1064268.html" target="_blank" class="mcm_title" title="\u6742\u5fd7\u753b\u518c\u6587\u827a\u753b\u518c\u516c\u53f8\u5ba3\u4f20\u6742\u5fd7\u65f6\u5c1a\u6a21\u677f83.pptx">\u6742\u5fd7\u753b\u518c\u6587\u827a\u753b\u518c\u516c\u53f8\u5ba3\u4f20\u6742\u5fd7\u65f6\u5c1a\u6a21\u677f83</a>\u000a</p>\u000a<div class="mcm_show">\u000a<p>\u000a<span class="fwb mcm_title_price">\uffe5<span class="red">34.99</span></span>\u000a<span class="gray" title="\u9884\u89c8\uff1a21">\u9884\u89c8\uff1a21</span>\u000a<a href="javascript:void(0)" class="collect" ms-click="clickCollect($event, 1064268, 3, 3)" title="\u6536\u85cf"></a>\u000a</p>\u000a</div>\u000a</li>\u000a<li ms-hover="hover">\u000a<a href="http://detail.docer.com/1064272.html" target="_blank" class="mcm_img" title="\u591a\u5f69\u5546\u52a1\u6b27\u7f8e\u5b9e\u7528\u8ba1\u5212\u4e66PPT\u6a21\u677f.pptx"><img src="/application/styles/images/loading48.gif" lazyLoadSrc="http://img1.template.cache.wps.cn/wps/cdnwps//upload/partner/previews/5/b/1/6/9/62313536-6365-3136-2d33-6230312d6461.jpg/210x117.jpg" alt="\u591a\u5f69\u5546\u52a1\u6b27\u7f8e\u5b9e\u7528\u8ba1\u5212\u4e66PPT\u6a21\u677f.pptx"></a>\u000a<p>\u000a<a href="http://detail.docer.com/1064272.html" target="_blank" class="mcm_title" title="\u591a\u5f69\u5546\u52a1\u6b27\u7f8e\u5b9e\u7528\u8ba1\u5212\u4e66PPT\u6a21\u677f.pptx">\u591a\u5f69\u5546\u52a1\u6b27\u7f8e\u5b9e\u7528\u8ba1\u5212\u4e66PPT\u6a21\u677f</a>\u000a</p>\u000a<div class="mcm_show">\u000a<p>\u000a<span class="fwb mcm_title_price">\uffe5<span class="red">24.99</span></span>\u000a<span class="gray" title="\u9884\u89c8\uff1a38">\u9884\u89c8\uff1a38</span>\u000a<a href="javascript:void(0)" class="collect" ms-click="clickCollect($event, 1064272, 3, 3)" title="\u6536\u85cf"></a>\u000a</p>\u000a</div>\u000a</li>\u000a<li ms-hover="hover">\u000a<a href="http://detail.docer.com/9276.html" target="_blank" class="mcm_img" title="\u7ecf\u5178\u6bd5\u4e1a\u8bba\u6587\u7b54\u8fa9PPT\u6a21\u677f.dpt"><img src="/application/styles/images/loading48.gif" lazyLoadSrc="http://img1.template.cache.wps.cn/wps/cdnwps/upload/official/template/2011-6-9/4df05bf1d56e7.png/210x157.jpg" alt="\u7ecf\u5178\u6bd5\u4e1a\u8bba\u6587\u7b54\u8fa9PPT\u6a21\u677f.dpt"></a>\u000a<p>\u000a<a href="http://detail.docer.com/9276.html" target="_blank" class="mcm_title" title="\u7ecf\u5178\u6bd5\u4e1a\u8bba\u6587\u7b54\u8fa9PPT\u6a21\u677f.dpt">\u7ecf\u5178\u6bd5\u4e1a\u8bba\u6587\u7b54\u8fa9PPT\u6a21\u677f</a>\u000a</p>\u000a<div class="mcm_show">\u000a<p>\u000a<span class="gray" title="\u9884\u89c8\uff1a487638">\u9884\u89c8\uff1a487638</span>\u000a<a href="javascript:void(0)" class="collect" ms-click="clickCollect($event, 9276, 1, 3)" title="\u6536\u85cf"></a>\u000a</p>\u000a</div>\u000a</li>\u000a<li ms-hover="hover">\u000a<a href="http://detail.docer.com/1064269.html" target="_blank" class="mcm_img" title="\u5e84\u4e25\u8083\u9759\u6cd5\u9662\u7cfb\u7edf\u4e13\u7528PPT\u8bbe\u8ba1.pptx"><img src="/application/styles/images/loading48.gif" lazyLoadSrc="http://img1.template.cache.wps.cn/wps/cdnwps//upload/partner/previews/c/5/e/c/b/39333035-6266-3362-2d39-3239332d3936.jpg/210x117.jpg" alt="\u5e84\u4e25\u8083\u9759\u6cd5\u9662\u7cfb\u7edf\u4e13\u7528PPT\u8bbe\u8ba1.pptx"></a>\u000a<p>\u000a<a href="http://detail.docer.com/1064269.html" target="_blank" class="mcm_title" title="\u5e84\u4e25\u8083\u9759\u6cd5\u9662\u7cfb\u7edf\u4e13\u7528PPT\u8bbe\u8ba1.pptx">\u5e84\u4e25\u8083\u9759\u6cd5\u9662\u7cfb\u7edf\u4e13\u7528PPT\u8bbe\u8ba1</a>\u000a</p>\u000a<div class="mcm_show">\u000a<p>\u000a<span class="fwb mcm_title_price">\uffe5<span class="red">26.99</span></span>\u000a<span class="gray" title="\u9884\u89c8\uff1a5">\u9884\u89c8\uff1a5</span>\u000a<a href="javascript:void(0)" class="collect" ms-click="clickCollect($event, 1064269, 3, 3)" title="\u6536\u85cf"></a>\u000a</p>\u000a</div>\u000a</li>\u000a<li ms-hover="hover">\u000a<a href="http://detail.docer.com/144178.html" target="_blank" class="mcm_img" title="\u53e4\u5178\u9752\u82b1\u74f7\u98ce\u683c\u6a21\u677f.dpt"><img src="/application/styles/images/loading48.gif" lazyLoadSrc="http://img1.template.cache.wps.cn/wps/cdnwps/upload/official/template/2013-2-20/512481e63383a.png/210x157.jpg" alt="\u53e4\u5178\u9752\u82b1\u74f7\u98ce\u683c\u6a21\u677f.dpt"></a>\u000a<p>\u000a<a href="http://detail.docer.com/144178.html" target="_blank" class="mcm_title" title="\u53e4\u5178\u9752\u82b1\u74f7\u98ce\u683c\u6a21\u677f.dpt">\u53e4\u5178\u9752\u82b1\u74f7\u98ce\u683c\u6a21\u677f</a>\u000a</p>\u000a<div class="mcm_show">\u000a<p>\u000a<span class="gray" title="\u9884\u89c8\uff1a483640">\u9884\u89c8\uff1a483640</span>\u000a<a href="javascript:void(0)" class="collect" ms-click="clickCollect($event, 144178, 1, 3)" title="\u6536\u85cf"></a>\u000a</p>\u000a</div>\u000a</li>\u000a<li ms-hover="hover">\u000a<a href="http://detail.docer.com/1064525.html" target="_blank" class="mcm_img" title="\u590d\u53e4\u6e05\u65b0\u901a\u7528\u6a21\u677f.pptx"><img src="/application/styles/images/loading48.gif" lazyLoadSrc="http://img1.template.cache.wps.cn/wps/cdnwps//upload/partner/previews/e/d/c/f/9/64653437-6437-3062-2d39-3033632d3433.png/210x117.png" alt="\u590d\u53e4\u6e05\u65b0\u901a\u7528\u6a21\u677f.pptx"></a>\u000a<p>\u000a<a href="http://detail.docer.com/1064525.html" target="_blank" class="mcm_title" title="\u590d\u53e4\u6e05\u65b0\u901a\u7528\u6a21\u677f.pptx">\u590d\u53e4\u6e05\u65b0\u901a\u7528\u6a21\u677f</a>\u000a</p>\u000a<div class="mcm_show">\u000a<p>\u000a<span class="fwb mcm_title_price">\uffe5<span class="red">19.99</span></span>\u000a<span class="gray" title="\u9884\u89c8\uff1a14">\u9884\u89c8\uff1a14</span>\u000a<a href="javascript:void(0)" class="collect" ms-click="clickCollect($event, 1064525, 3, 3)" title="\u6536\u85cf"></a>\u000a</p>\u000a</div>\u000a</li>\u000a<li ms-hover="hover">\u000a<a href="http://detail.docer.com/1064362.html" target="_blank" class="mcm_img" title="\u706b\u529b\u56db\u5c042017\u5de5\u4f5c\u6c47\u62a5\u603b\u7ed3PPT\u6a21\u677f.pptx"><img src="/application/styles/images/loading48.gif" lazyLoadSrc="http://img1.template.cache.wps.cn/wps/cdnwps//upload/partner/previews/f/f/d/b/f/32343133-3832-6565-2d62-6363352d6462.jpg/210x117.jpg" alt="\u706b\u529b\u56db\u5c042017\u5de5\u4f5c\u6c47\u62a5\u603b\u7ed3PPT\u6a21\u677f.pptx"></a>\u000a<p>\u000a<a href="http://detail.docer.com/1064362.html" target="_blank" class="mcm_title" title="\u706b\u529b\u56db\u5c042017\u5de5\u4f5c\u6c47\u62a5\u603b\u7ed3PPT\u6a21\u677f.pptx">\u706b\u529b\u56db\u5c042017\u5de5\u4f5c\u6c47\u62a5\u603b\u7ed3PPT\u6a21\u677f</a>\u000a</p>\u000a<div class="mcm_show">\u000a<p>\u000a<span class="fwb mcm_title_price">\uffe5<span class="red">24.99</span></span>\u000a<span class="gray" title="\u9884\u89c8\uff1a18">\u9884\u89c8\uff1a18</span>\u000a<a href="javascript:void(0)" class="collect" ms-click="clickCollect($event, 1064362, 3, 3)" title="\u6536\u85cf"></a>\u000a</p>\u000a</div>\u000a</li>\u000a<li ms-hover="hover">\u000a<a href="http://detail.docer.com/212385.html" target="_blank" class="mcm_img" title="\u6df1\u84dd\u65f6\u5c1a\u62a5\u544a\u6a21\u677f.dpt"><img src="/application/styles/images/loading48.gif" lazyLoadSrc="http://img1.template.cache.wps.cn/wps/cdnwps/upload/official/preview/2014-1-7/52cbd17cc5460_1.png/210x157.jpg" alt="\u6df1\u84dd\u65f6\u5c1a\u62a5\u544a\u6a21\u677f.dpt"></a>\u000a<p>\u000a<a href="http://detail.docer.com/212385.html" target="_blank" class="mcm_title" title="\u6df1\u84dd\u65f6\u5c1a\u62a5\u544a\u6a21\u677f.dpt">\u6df1\u84dd\u65f6\u5c1a\u62a5\u544a\u6a21\u677f</a>\u000a</p>\u000a<div class="mcm_show">\u000a<p>\u000a<span class="gray" title="\u9884\u89c8\uff1a500337">\u9884\u89c8\uff1a500337</span>\u000a<a href="javascript:void(0)" class="collect" ms-click="clickCollect($event, 212385, 1, 3)" title="\u6536\u85cf"></a>\u000a</p>\u000a</div>\u000a</li>\u000a<li ms-hover="hover">\u000a<a href="http://detail.docer.com/210003.html" target="_blank" class="mcm_img" title="\u7070\u8272\u7b26\u53f7ppt\u6a21\u677f.dpt"><img src="/application/styles/images/loading48.gif" lazyLoadSrc="http://img1.template.cache.wps.cn/wps/cdnwps/upload/official/preview/2013-11-18/5289beaa5b3fd_1.png/210x157.jpg" alt="\u7070\u8272\u7b26\u53f7ppt\u6a21\u677f.dpt"></a>\u000a<p>\u000a<a href="http://detail.docer.com/210003.html" target="_blank" class="mcm_title" title="\u7070\u8272\u7b26\u53f7ppt\u6a21\u677f.dpt">\u7070\u8272\u7b26\u53f7ppt\u6a21\u677f</a>\u000a</p>\u000a<div class="mcm_show">\u000a<p>\u000a<span class="gray" title="\u9884\u89c8\uff1a480245">\u9884\u89c8\uff1a480245</span>\u000a<a href="javascript:void(0)" class="collect" ms-click="clickCollect($event, 210003, 1, 3)" title="\u6536\u85cf"></a>\u000a</p>\u000a</div>\u000a</li>\u000a<li ms-hover="hover">\u000a<a href="http://detail.docer.com/6098.html" target="_blank" class="mcm_img" title="\u6e05\u96c5\u7af9\u8da3\uff08\u52a8\u753b\uff09.dpt"><img src="/application/styles/images/loading48.gif" lazyLoadSrc="http://img1.template.cache.wps.cn/wps/cdnwps/upload/official/2009-9-1/4a9c7fc064680.png/210x157.jpg" alt="\u6e05\u96c5\u7af9\u8da3\uff08\u52a8\u753b\uff09.dpt"></a>\u000a<p>\u000a<a href="http://detail.docer.com/6098.html" target="_blank" class="mcm_title" title="\u6e05\u96c5\u7af9\u8da3\uff08\u52a8\u753b\uff09.dpt">\u6e05\u96c5\u7af9\u8da3\uff08\u52a8\u753b\uff09</a>\u000a</p>\u000a<div class="mcm_show">\u000a<p>\u000a<span class="gray" title="\u9884\u89c8\uff1a592946">\u9884\u89c8\uff1a592946</span>\u000a<a href="javascript:void(0)" class="collect" ms-click="clickCollect($event, 6098, 1, 3)" title="\u6536\u85cf"></a>\u000a</p>\u000a</div>\u000a</li>\u000a<li ms-hover="hover">\u000a<a href="http://detail.docer.com/190511.html" target="_blank" class="mcm_img" title="\u81f4\u6211\u4eec\u7ec8\u5c06\u901d\u53bb\u7684\u9752\u6625.dpt"><img src="/application/styles/images/loading48.gif" lazyLoadSrc="http://img1.template.cache.wps.cn/wps/cdnwps/upload/official/preview/2013-5-9/518b195f0e1d3_1.png/210x157.jpg" alt="\u81f4\u6211\u4eec\u7ec8\u5c06\u901d\u53bb\u7684\u9752\u6625.dpt"></a>\u000a<p>\u000a<a href="http://detail.docer.com/190511.html" target="_blank" class="mcm_title" title="\u81f4\u6211\u4eec\u7ec8\u5c06\u901d\u53bb\u7684\u9752\u6625.dpt">\u81f4\u6211\u4eec\u7ec8\u5c06\u901d\u53bb\u7684\u9752\u6625</a>\u000a</p>\u000a<div class="mcm_show">\u000a<p>\u000a<span class="gray" title="\u9884\u89c8\uff1a651520">\u9884\u89c8\uff1a651520</span>\u000a<a href="javascript:void(0)" class="collect" ms-click="clickCollect($event, 190511, 1, 3)" title="\u6536\u85cf"></a>\u000a</p>\u000a</div>\u000a</li>\u000a<li ms-hover="hover">\u000a<a href="http://detail.docer.com/1064523.html" target="_blank" class="mcm_img" title="2017\u552f\u7f8e\u7b80\u7ea6\u5927\u6c14\u5e74\u5ea6\u5de5\u4f5c\u603b\u7ed3\u5e74\u7ec8\u6c47\u62a5\u4e2a\u4eba\u8ff0\u804cPPT.pptx"><img src="/application/styles/images/loading48.gif" lazyLoadSrc="http://img1.template.cache.wps.cn/wps/cdnwps//upload/partner/previews/d/3/d/1/3/65313337-6238-3962-2d35-6638642d6365.jpg/210x117.jpg" alt="2017\u552f\u7f8e\u7b80\u7ea6\u5927\u6c14\u5e74\u5ea6\u5de5\u4f5c\u603b\u7ed3\u5e74\u7ec8\u6c47\u62a5\u4e2a\u4eba\u8ff0\u804cPPT.pptx"></a>\u000a<p>\u000a<a href="http://detail.docer.com/1064523.html" target="_blank" class="mcm_title" title="2017\u552f\u7f8e\u7b80\u7ea6\u5927\u6c14\u5e74\u5ea6\u5de5\u4f5c\u603b\u7ed3\u5e74\u7ec8\u6c47\u62a5\u4e2a\u4eba\u8ff0\u804cPPT.pptx">2017\u552f\u7f8e\u7b80\u7ea6\u5927\u6c14\u5e74\u5ea6\u5de5\u4f5c\u603b\u7ed3\u5e74\u7ec8\u6c47\u62a5\u4e2a\u4eba\u8ff0\u804cPPT</a>\u000a</p>\u000a<div class="mcm_show">\u000a<p>\u000a<span class="fwb mcm_title_price">\uffe5<span class="red">29.99</span></span>\u000a<span class="gray" title="\u9884\u89c8\uff1a4">\u9884\u89c8\uff1a4</span>\u000a<a href="javascript:void(0)" class="collect" ms-click="clickCollect($event, 1064523, 3, 3)" title="\u6536\u85cf"></a>\u000a</p>\u000a</div>\u000a</li>\u000a<li ms-hover="hover">\u000a<a href="http://detail.docer.com/10702.html" target="_blank" class="mcm_img" title="\u5f00\u573a\u52a8\u753b\u5927\u578b\u4f01\u4e1a\u4e13\u7528\u6c47\u62a5PPT.dpt"><img src="/application/styles/images/loading48.gif" lazyLoadSrc="http://img1.template.cache.wps.cn/wps/cdnwps/upload/official/template/2011-9-5/4e646de969541.png/210x157.jpg" alt="\u5f00\u573a\u52a8\u753b\u5927\u578b\u4f01\u4e1a\u4e13\u7528\u6c47\u62a5PPT.dpt"></a>\u000a<p>\u000a<a href="http://detail.docer.com/10702.html" target="_blank" class="mcm_title" title="\u5f00\u573a\u52a8\u753b\u5927\u578b\u4f01\u4e1a\u4e13\u7528\u6c47\u62a5PPT.dpt">\u5f00\u573a\u52a8\u753b\u5927\u578b\u4f01\u4e1a\u4e13\u7528\u6c47\u62a5PPT</a>\u000a</p>\u000a<div class="mcm_show">\u000a<p>\u000a<span class="gray" title="\u9884\u89c8\uff1a605924">\u9884\u89c8\uff1a605924</span>\u000a<a href="javascript:void(0)" class="collect" ms-click="clickCollect($event, 10702, 1, 3)" title="\u6536\u85cf"></a>\u000a</p>\u000a</div>\u000a</li>\u000a<li ms-hover="hover">\u000a<a href="http://detail.docer.com/209876.html" target="_blank" class="mcm_img" title="\u4e03\u5f69\u6811\u53f6PPT.dpt"><img src="/application/styles/images/loading48.gif" lazyLoadSrc="http://img1.template.cache.wps.cn/wps/cdnwps/upload/official/preview/2013-11-12/5281c9501f254_1.png/210x157.jpg" alt="\u4e03\u5f69\u6811\u53f6PPT.dpt"></a>\u000a<p>\u000a<a href="http://detail.docer.com/209876.html" target="_blank" class="mcm_title" title="\u4e03\u5f69\u6811\u53f6PPT.dpt">\u4e03\u5f69\u6811\u53f6PPT</a>\u000a</p>\u000a<div class="mcm_show">\u000a<p>\u000a<span class="gray" title="\u9884\u89c8\uff1a484333">\u9884\u89c8\uff1a484333</span>\u000a<a href="javascript:void(0)" class="collect" ms-click="clickCollect($event, 209876, 1, 3)" title="\u6536\u85cf"></a>\u000a</p>\u000a</div>\u000a</li>\u000a<li ms-hover="hover">\u000a<a href="http://detail.docer.com/1064397.html" target="_blank" class="mcm_img" title="\u4e91\u4e0a\u89c6\u89c9\u5e74\u7ec8\u5546\u52a1\u603b\u7ed3\u6a21\u677f.pptx"><img src="/application/styles/images/loading48.gif" lazyLoadSrc="http://img1.template.cache.wps.cn/wps/cdnwps//upload/partner/previews/5/1/b/7/d/37343066-6237-6538-2d62-3665622d3235.png/210x117.png" alt="\u4e91\u4e0a\u89c6\u89c9\u5e74\u7ec8\u5546\u52a1\u603b\u7ed3\u6a21\u677f.pptx"></a>\u000a<p>\u000a<a href="http://detail.docer.com/1064397.html" target="_blank" class="mcm_title" title="\u4e91\u4e0a\u89c6\u89c9\u5e74\u7ec8\u5546\u52a1\u603b\u7ed3\u6a21\u677f.pptx">\u4e91\u4e0a\u89c6\u89c9\u5e74\u7ec8\u5546\u52a1\u603b\u7ed3\u6a21\u677f</a>\u000a</p>\u000a<div class="mcm_show">\u000a<p>\u000a<span class="fwb mcm_title_price">\uffe5<span class="red">19.99</span></span>\u000a<span class="gray" title="\u9884\u89c8\uff1a25">\u9884\u89c8\uff1a25</span>\u000a<a href="javascript:void(0)" class="collect" ms-click="clickCollect($event, 1064397, 3, 3)" title="\u6536\u85cf"></a>\u000a</p>\u000a</div>\u000a</li>\u000a<div class="cb"></div>\u000a</ul>\u000a<div class="cb"></div>\u000a<div class="pagebar">\u000a<div class="sum">\u5171<strong>10000</strong>\u4e2a\u6a21\u677f</div>\u000a<div class="paging">\u000a&nbsp;<strong>1</strong>&nbsp;<a href="/PPT\u6a21\u677f/?sale_type=0&keyword=&tags=&orderby=mix&amp;page=2">2</a>&nbsp;<a href="/PPT\u6a21\u677f/?sale_type=0&keyword=&tags=&orderby=mix&amp;page=3">3</a>&nbsp;<a href="/PPT\u6a21\u677f/?sale_type=0&keyword=&tags=&orderby=mix&amp;page=2">\u4e0b\u9875</a>&nbsp;&nbsp;<a href="/PPT\u6a21\u677f/?sale_type=0&keyword=&tags=&orderby=mix&amp;page=112">\u672b\u9875</a>\u000a</div>\u000a<div class="pagebar_go">\u000a\u8f6c\u5230\u7b2c<input type="text" class="pagebar_go_input" ms-duplex="pageNumber">\u9875\u000a<a href="javascript:void(0)" class="pagebar_go_btn" ms-click="gotoUrl()">\u8df3\u8f6c</a>\u000a</div>\u000a</div>\u000a<div class="main_foot">\u000a<div class="main_foot_recommend main_foot_recommend_first">\u000a<h3>\u6700\u8fd190\u5929\u7545\u9500\u4f5c\u54c1</h3>\u000a<div class="cb"></div>\u000a<ul class="main_foot_recommend1">\u000a<li>\u000a<a href="http://detail.docer.com/900998.html" class="mfr1_title">\u624b\u7ed8\u6821\u56ed\u98ce\u683c\u6a21\u677f</a>\u000a<span class="mfr1_text">14.99\u5143</span>\u000a<span class="mfr1_text mfr1_text2"><span class="red">134</span>\u6b21</span>\u000a</li>\u000a<li>\u000a<a href="http://detail.docer.com/1049576.html" class="mfr1_title">\u6b27\u7f8e\u66f2\u7ebf\u5de5\u4f5c\u603b\u7ed3\u5e74\u4e2d\u6c47\u62a5</a>\u000a<span class="mfr1_text">19.99\u5143</span>\u000a<span class="mfr1_text mfr1_text2"><span class="red">134</span>\u6b21</span>\u000a</li>\u000a<li>\u000a<a href="http://detail.docer.com/721889.html" class="mfr1_title">\u6211\u7684\u5bb6\u4e61PPT\u6a21\u677f</a>\u000a<span class="mfr1_text">4.99\u5143</span>\u000a<span class="mfr1_text mfr1_text2"><span class="red">123</span>\u6b21</span>\u000a</li>\u000a<li>\u000a<a href="http://detail.docer.com/878052.html" class="mfr1_title">\u5b8c\u6574\u6846\u67b6\u56fd\u5bb6\u5956\u5b66\u91d1\u7533\u8bf7\u7b54\u8fa9PPT</a>\u000a<span class="mfr1_text">16.99\u5143</span>\u000a<span class="mfr1_text mfr1_text2"><span class="red">97</span>\u6b21</span>\u000a</li>\u000a<li>\u000a<a href="http://detail.docer.com/869460.html" class="mfr1_title">\u521b\u610f\u7b80\u7ea6\u5927\u6c14\u5546\u52a1\u5de5\u4f5c\u603b\u7ed3\u6c47\u62a5\u8ff0\u804c\u62a5\u544a\u65b0\u5e74\u8ba1\u5212PPT</a>\u000a<span class="mfr1_text">29.99\u5143</span>\u000a<span class="mfr1_text mfr1_text2"><span class="red">92</span>\u6b21</span>\u000a</li>\u000a<li>\u000a<a href="http://detail.docer.com/844447.html" class="mfr1_title">\u9ad8\u7aef\u7b80\u7ea6\u5927\u6c14\u9759\u6001\u5546\u52a1\u6a21\u677f</a>\u000a<span class="mfr1_text">3.79\u5143</span>\u000a<span class="mfr1_text mfr1_text2"><span class="red">91</span>\u6b21</span>\u000a</li>\u000a</ul>\u000a</div>\u000a<div class="main_foot_recommend">\u000a<h3>\u6700\u53d7\u6b22\u8fce\u7684\u8bbe\u8ba1\u5e08</h3>\u000a<a href="http://chn.docer.com/author/" class="main_foot_recommend_more" rel="nofollow">\u66f4\u591a</a>\u000a<div class="cb"></div>\u000a<ul class="main_foot_recommend2">\u000a<li>\u000a<a href="http://chn.docer.com/works?userid=3317247">\u000a<img class="auther_img" src="http://img1.template.cache.wps.cn/wps/cdnwps/upload/official/template/vip/commend_img/logo/asadal2.jpg" onerror="javascript:this.src='http://www.docer.com/application/styles/images/loading24.gif';" alt="">\u000a</a>\u000a<div class="auther_info">\u000a<p class="auther_info_name"><a href="http://chn.docer.com/works?userid=3317247">\u963f\u65af\u8fbe</a></p>\u000a<p class="auther_info_text">\u9500\u552e\u6536\u5165\uff1a426021.60 \u5143 </p>\u000a</div>\u000a</li>\u000a<li>\u000a<a href="http://chn.docer.com/works?userid=524233">\u000a<img class="auther_img" src="http://www.docer.com/application/styles/images/custom/worker/ppt_expert5.png" onerror="javascript:this.src='http://www.docer.com/application/styles/images/loading24.gif';" alt="">\u000a</a>\u000a<div class="auther_info">\u000a<p class="auther_info_name"><a href="http://chn.docer.com/works?userid=524233">\u516b\u97f3\u9b54\u7434</a></p>\u000a<p class="auther_info_text">\u9500\u552e\u6536\u5165\uff1a414683.07 \u5143 </p>\u000a</div>\u000a</li>\u000a<li>\u000a<a href="http://chn.docer.com/works?userid=8046649">\u000a<img class="auther_img" src="http://img1.template.cache.wps.cn/wps/cdnwps/upload/official/template/vip/commend_img/logo/peter2.jpg" onerror="javascript:this.src='http://www.docer.com/application/styles/images/loading24.gif';" alt="">\u000a</a>\u000a<div class="auther_info">\u000a<p class="auther_info_name"><a href="http://chn.docer.com/works?userid=8046649">Peter_ppt</a></p>\u000a<p class="auther_info_text">\u9500\u552e\u6536\u5165\uff1a401425.70 \u5143 </p>\u000a</div>\u000a</li>\u000a<li>\u000a<a href="http://chn.docer.com/works?userid=24077535">\u000a<img class="auther_img" src="http://img1.template.cache.wps.cn/wps/cdnwps/upload/official/template/vip/commend_img/docer/ppt_expert4.png" onerror="javascript:this.src='http://www.docer.com/application/styles/images/loading24.gif';" alt="">\u000a</a>\u000a<div class="auther_info">\u000a<p class="auther_info_name"><a href="http://chn.docer.com/works?userid=24077535">\u5927\u6f14PPT\u5de5\u4f5c\u5ba4</a></p>\u000a<p class="auther_info_text">\u9500\u552e\u6536\u5165\uff1a329404.47 \u5143 </p>\u000a</div>\u000a</li>\u000a<li>\u000a<a href="http://chn.docer.com/works?userid=2239676">\u000a<img class="auther_img" src="http://img1.template.cache.wps.cn/wps/cdnwps/upload/official/template/vip/commend_img/docer/lunwenziyuan.jpg" onerror="javascript:this.src='http://www.docer.com/application/styles/images/loading24.gif';" alt="">\u000a</a>\u000a<div class="auther_info">\u000a<p class="auther_info_name"><a href="http://chn.docer.com/works?userid=2239676">\u8bba\u6587\u8d44\u6e90\u7f51</a></p>\u000a<p class="auther_info_text">\u9500\u552e\u6536\u5165\uff1a193461.60 \u5143 </p>\u000a</div>\u000a</li>\u000a<li>\u000a<a href="http://chn.docer.com/works?userid=3067349">\u000a<img class="auther_img" src="http://www.docer.com/application/styles/images/custom/worker/ppt_expert7.png" onerror="javascript:this.src='http://www.docer.com/application/styles/images/loading24.gif';" alt="">\u000a</a>\u000a<div class="auther_info">\u000a<p class="auther_info_name"><a href="http://chn.docer.com/works?userid=3067349">\u718a\u732b\u8fbe\u4eba</a></p>\u000a<p class="auther_info_text">\u9500\u552e\u6536\u5165\uff1a156750.59 \u5143 </p>\u000a</div>\u000a</li>\u000a</ul>\u000a</div>\u000a<div class="main_foot_recommend main_foot_attestation">\u000a<h3>\u5546\u5bb6\u8ba4\u8bc1</h3>\u000a<div class="cb"></div>\u000a<p class="mfa_top">\u52a0\u5165\u539f\u521b\u8bbe\u8ba1\u5e08\u60a8\u53ef\u4ee5\uff1a</p>\u000a<div class="mfa_content">\u000a\u5750\u4eab\u6536\u76ca<br />\u91cd\u70b9\u4f4d\u7f6e\u5f3a\u529b\u63a8\u8350<br />\u4f5c\u54c1\u96c6\u4e13\u9875\u5c55\u793a\u000a</div>\u000a<a href="http://www.docer.com/per-certificate.html" class="mfa_btn" rel="nofollow">\u4e2a\u4eba\u8ba4\u8bc1</a>\u000a<a href="http://www.docer.com/en-certificate.html " class="mfa_btn" rel="nofollow">\u673a\u6784\u8ba4\u8bc1</a>\u000a</div>\u000a<div class="cb"></div>\u000a</div>\u000a</div>\u000a</div>\u000a<div style="display:none;" id="docer_com_footer">\u000a<script type="text/javascript">\u000atry {\u000aBAIDU_CLB_fillSlot("1029698");\u000a} catch (_e) {}\u000a</script>\u000a</div>\u000a<div class="section_link">\u000a<dl>\u000a<dt class="section_link1">\u5173\u4e8e\u6211\u4eec</dt>\u000a<dd><a href="http://www.docer.com/about.html">\u5173\u4e8e\u7a3b\u58f3</a></dd>\u000a<dd><a rel="nofollow" href="http://www.docer.com/contact.html">\u8054\u7cfb\u6211\u4eec</a></dd>\u000a<dd><a rel="nofollow" target="_blank" href="http://www.wps.cn/privacy/docer/">\u7528\u6237\u534f\u8bae</a></dd>\u000a</dl>\u000a<dl>\u000a<dt class="section_link2">\u8d2d\u7269\u6307\u5357</dt>\u000a<dd><a rel="nofollow" target="_blank" href="http://www.docer.com/shoppinghelp.html">\u8d2d\u7269\u6307\u5357</a></dd>\u000a</dl>\u000a<dl>\u000a<dt class="section_link3">\u5546\u5bb6\u8ba4\u8bc1</dt>\u000a<dd><a href="http://www.docer.com/per-certificate.html">\u4e2a\u4eba\u8ba4\u8bc1</a></dd>\u000a<dd><a href="http://www.docer.com/en-certificate.html">\u673a\u6784\u8ba4\u8bc1</a></dd>\u000a<dd><a href="http://img2.template.cache.wps.cn/wps/cdnwps//upload/official/template/vip/commend_img/docer/request.zip">\u7a3b\u58f3\u4e0a\u4f20\u89c4\u8303</a></dd>\u000a</dl>\u000a<dl>\u000a<dt class="section_link4">\u5173\u6ce8\u6211\u4eec</dt>\u000a<dd><a rel="nofollow" target="_blank" href="http://weibo.com/officezy">\u65b0\u6d6a\u5fae\u535a</a></dd>\u000a<dd ms-hover="weixin_img"><a rel="nofollow" href="javascript:void(0);">\u5b98\u65b9\u5fae\u4fe1</a><img style="width:150px;" src="//www.docer.com/application/styles/images/about/about_code.png" alt=""></dd>\u000a</dl>\u000a<ul class="foot_link">\u000a<li class="fl_phone">400-677-5005 </li>\u000a<li style="margin-top: 10px;"><a href="http://shang.qq.com/wpa/qunwpa?idkey=0defd225dc7b81aae7e2653f1d597c35c2169d42a41d15a863ab06a8ba5a8880" target="_blank" class="fl_qq">\u7a3b&nbsp;&nbsp;\u7c89&nbsp;\u7fa4\uff1a281082297\uff08\u7528\u6237\u53cd\u9988\u54a8\u8be2\uff09</a></li>\u000a<li style="margin-top: 10px;"><a target="_blank" href="http://shang.qq.com/wpa/qunwpa?idkey=72d68b72aa999a114b33289f59c36150b694aa93f77c426ef94989a10f0f24ef" target="_blank" class="fl_qq">\u8bbe\u8ba1\u5e08\u7fa4\uff1a340554428\uff08\u8ba4\u8bc1\u8bbe\u8ba1\u5e08\u4ea4\u6d41\uff09</a></li>\u000a</ul>\u000a<div class="cb"></div>\u000a</div>\u000a<div class="friends_link">\u000a\u53cb\u60c5\u94fe\u63a5\uff1a\u000a<a href="http://ziti.admin5.com" target="_blank">A5\u5b57\u4f53\u4e0b\u8f7d</a>\u000a<a href="http://www.docer.com/" target="_blank">WPS\u7a3b\u58f3\u513f</a>\u000a<a href="http://www.1ppt.com/" target="_blank">PPT\u6a21\u677f</a>\u000a<a href="http://www.ppthi-hoo.com/" target="_blank">hi-hoo</a>\u000a<a href="http://www.chinapptx.com/" target="_blank">\u9510\u5f97\u5e7b\u6f14</a>\u000a<a href="http://www.mokaoba.com/" target="_blank">\u6a21\u8003\u5427</a>\u000a<a href="http://he.offcn.com/" target="_blank">\u6cb3\u5357\u4e2d\u516c\u6559\u80b2</a>\u000a<a href="http://www.visionunion.com" target="_blank">\u89c6\u89c9\u540c\u76df</a>\u000a<a href="http://www.pptjia.com/" target="_blank">PPT\u6a21\u677f\u5bb6\u56ed</a>\u000a<a href="http://www.51pptmoban.com/" target="_blank">51PPT\u6a21\u677f\u7f51</a>\u000a<a href="http://www.nokia88.com" target="_blank">\u8bfa\u57fa\u4e9a\u624b\u673a</a>\u000a<a href="http://www.yanj.cn/" target="_blank">\u6f14\u754c\u7f51PPT</a>\u000a<a href="http://www.renrendoc.com/" target="_blank">\u4eba\u4eba\u6587\u5e93</a>\u000a<a href="http://www.diyifanwen.com/" target="_blank">\u7b2c\u4e00\u8303\u6587\u7f51</a>\u000a<a href="http://www.500d.me" target="_blank">\u4e94\u767e\u4e01</a>\u000a<a href="http://www.pooban.com/" target="_blank">PPT\u6a21\u677f</a>\u000a<a href="http://www.58.com/ziwojieshao/" target="_blank">\u81ea\u6211\u4ecb\u7ecd</a>\u000a<a href="http://www.16pic.com" target="_blank">\u516d\u56fe\u7f51</a>\u000a<a href="http://www.zuotishi.com/" target="_blank">\u505a\u9898\u5ba4</a>\u000a<a href="http://www.logo123.net/" target="_blank">logo\u8bbe\u8ba1</a>\u000a<a href="http://www.yingsheng.com/" target="_blank">\u82f1\u76db\u5728\u7ebf\u6559\u80b2</a>\u000a<a href="http://mingyan.yjbys.com/" target="_blank">\u52b1\u5fd7\u540d\u8a00</a>\u000a<a href="http://www.jiao4.com/" target="_blank">\u6559\u5ba4\u7f51</a>\u000a<a href="http://www.188doc.com" target="_blank">\u4f01\u4e1a\u7ba1\u7406\u8d44\u6599\u7f51</a>\u000a<a href="http://www.logobiaozhi.com" target="_blank">\u5317\u4eacLOGO\u8bbe\u8ba1\u516c\u53f8</a>\u000a<a href="http://www.dlsstax.com/" target="_blank">\u5927\u529b\u7a0e\u624b</a>\u000a<a href="tencent://message/?uin=2210615125&site=qq&menu=yes" class="friend_link_qq">\u5408\u4f5cQQ:2210615125</a>\u000a</div>\u000a<div class="popup" style="display:none">\u000a<div class="login_n login_n_collect" >\u000a<a href="#" class="collect_close">\u5173\u95ed</a>\u000a<div class="collect_btn">\u000a<a href="#" class="collect_btn1">\u53bb\u901b\u901b</a>\u000a<a href="#" class="collect_btn2">\u786e\u5b9a</a>\u000a</div>\u000a</div>\u000a<div class="mask"></div>\u000a</div>\u000a<div class="popup" id="repeatAddCart">\u000a<span class="add_again">\u8fd9\u6b3e\u5b9d\u8d1d\u5df2\u7ecf\u52a0\u5230\u8d2d\u7269\u8f66\u4e86\u54e6~ </span>\u000a</div>\u000a<div class="popup" id="alreadyBuyTips">\u000a<span class="add_again">\u4f60\u5df2\u8d2d\u4e70\u8fc7\u8fd9\u6b3e\u5b9d\u8d1d\u4e86\u54e6~</span>\u000a</div>\u000a<div class="popup" id="maxCountTips">\u000a<span class="add_again">\u8d2d\u7269\u8f66\u6700\u591a\u53ea\u80fd\u6dfb\u52a099\u4e2a\u5b9d\u8d1d\u54e6~</span>\u000a</div>\u000a<div class="to_top">\u000a<a href="/index/desktop?from=button_desktop" target="_blank" ms-click="sendCount('action', '\u4fdd\u5b58\u5230\u684c\u9762')">\u4fdd\u5b58<br>\u5230\u684c\u9762</a>\u000a<a rel="nofollow" href="javascript:scroll(0,0)" ms-controller="MainCtrl" ms-if="backTopRemoveMark" ms-css-display="backTopMark ? 'block': 'none'" ms-click="sendCount('action', '\u8fd4\u56de\u9876\u90e8')" class="back" style="display:none;" title="\u8fd4\u56de\u9876\u90e8"></a>\u000a</div>\u000a<div id="footer">\u000a<p>\u000a<a target="_blank" href="http://www.wps.cn/">WPS\u5b98\u7f51</a>&nbsp;|\u000a&nbsp;<a target="_blank" href="http://bbs.wps.cn/">WPS\u8bba\u575b</a>&nbsp;|\u000a&nbsp;<a target="_blank" href="https://vip.wps.cn/">WPS\u4f1a\u5458\u4e2d\u5fc3</a>&nbsp;|\u000a&nbsp;<a target="_blank" href="http://mo.wps.cn/office-for-android/">WPS for Android</a>&nbsp;|\u000a&nbsp;<a target="_blank" href="http://mo.wps.cn/office-for-ios/">WPS for iOS</a>&nbsp;|\u000a&nbsp;<a target="_blank" href="http://linux.wps.cn/">WPS for Linux</a>&nbsp;|\u000a&nbsp;<a target="_blank" href="http://www.51dzt.com/">\u6253\u5b57\u901a</a>&nbsp;|\u000a&nbsp;<a target="_blank" href="http://www.iciba.com/">\u7231\u8bcd\u9738</a>\u000a</p>\u000a<p><span>Copyright  2008-2016</span><a rel="nofollow" href="http://www.wps.cn/" target="_blank" rel="nofollow">Kingsoft Office Corporation,</a><span>All Rights Reserved.</span><a rel="nofollow" href="http://www.kingsoft.com/licence/002.jpg" target="_blank" rel="nofollow">\u65b0\u51fa\u7f51\u8bc1&lt;\u4eac&gt;\u5b57011\u53f7</a><span>\u7ca4ICP\u590713015957\u53f7-7</span></p></div>\u000a<div class="popup"  ms-controller="LoginCtrl" ms-visible="loginDisplay">\u000a<div class="login_n" >\u000a<div class="login_n_t">\u000a<h2>\u7528\u6237\u767b\u5f55 </h2>\u000a<a rel="nofollow" href="javascript:void(0)" class="close" ms-click="hideLogin" rel="nofollow">\u5173\u95ed</a>\u000a</div>\u000a<div class="login_icon">\u000a<h3>\u4f7f\u7528\u4ee5\u4e0b\u5e10\u53f7\u767b\u5f55</h3>\u000a<div class="icon_section">\u000a<a rel="nofollow" href="javascript:void(0)" ms-click="jumpLogin($event, 'qq')" class="btn_icon_qq" rel="nofollow">QQ\u767b\u5f55</a>\u000a<a rel="nofollow" href="javascript:void(0)" ms-click="jumpLogin($event, 'wps')" class="btn_icon_wps">WPS\u901a\u884c\u8bc1\u767b\u5f55</a>\u000a<a rel="nofollow" href="javascript:void(0)" ms-click="jumpLogin($event, 'wechat')" class="btn_icon_weixin">\u5fae\u4fe1\u767b\u5f55</a>\u000a<a rel="nofollow" href="javascript:void(0)" ms-click="jumpLogin($event, 'sina')" class="btn_icon_sina" rel="nofollow">\u65b0\u6d6a\u5fae\u535a\u767b\u5f55</a>\u000a<a rel="nofollow" href="javascript:void(0)" ms-click="jumpLogin($event, 'xiaomi')" class="btn_icon_mi" rel="nofollow">\u5c0f\u7c73\u767b\u5f55</a>\u000a</div>\u000a<div class="txt_agree">\u9009\u62e9\u4e0a\u65b9\u4efb\u4e00\u8d26\u53f7\u767b\u5f55\u5373\u8868\u660e\u60a8\u5df2\u9605\u8bfb\u5e76\u540c\u610f<a rel="nofollow" href="http://www.wps.cn/privacy/cloudservice/" target="_blank" rel="nofollow">\u300a\u91d1\u5c71\u529e\u516c\u4e91\u670d\u52a1\u7cfb\u5217\u534f\u8bae\u300b</a></div>\u000a<div class="remember"><input type="checkbox" id="remember_check" value="true" ms-duplex-radio="autoLogin"/><label for="remember_check"> 5\u5929\u5185\u81ea\u52a8\u767b\u5f55</label></div>\u000a</div>\u000a</div>\u000a<div class="mask" ms-visible="loginDisplay" ms-click="hideLogin"></div>\u000a</div>\u000a<div class="popup">\u000a<div class="add_goods_fail">\u000a<a rel="nofollow" href="#" class="agf_close" title="\u5173\u95ed">\u5173\u95ed</a>\u000a<div class="cb"></div>\u000a<p class="agf_main">\u5546\u54c1\u6dfb\u52a0\u5931\u8d25\uff0c\u5df2\u8d85\u51fa\u8d2d\u7269\u8f66\u6700\u5927\u5bb9\u91cf\uff01</p>\u000a</div>\u000a<div class="mask"></div>\u000a</div>\u000a<div class="popup" ms-important="MainCtrl" ms-visible="favoriteTips">\u000a<div class="login_n" >\u000a<div class="login_n_t">\u000a<h2>www.docer.com\u63d0\u793a\u60a8\uff1a </h2>\u000a<a rel="nofollow" href="javascript:void(0)" class="close" ms-click="hideFavoriteTip()" rel="nofollow">\u5173\u95ed</a>\u000a</div>\u000a<div class="collect_pop_main">\u000a<span class="collect_star"></span>\u000a<div class="collect_fast_text">\u000a\u4e3b\u4eba\uff0c\u5feb\u5feb\u6309<span class="cft_btn"></span>\u6536\u85cf\u6211\u5427<br>\u6211\u60f3\u5929\u5929\u89c1\u4f60\u54e6~\u000a</div>\u000a<a href="javascript:void(0)" class="collect_pop_btn" ms-click="hideFavoriteTip()">\u786e\u5b9a</a>\u000a</div>\u000a</div>\u000a<div class="mask"></div>\u000a</div>\u000a<div id="signDIV" class="popup" style="display:none;" ms-controller="SignCtrl" ms-visible="signVisible">\u000a<div id="box_signin" style="display:block;" >\u000a<div class="box_s_head">\u000a<h2 style="display:block;" ms-visible="checkReward('get')">\u7ffb\u724c\u8d62\u60ca\u559c</h2>\u000a<h2 style="display:none;" ms-visible="checkReward('all')">\u6211\u7684\u62bd\u5956\u5956\u52b1</h2>\u000a<a href="javascript:void(0);" class="close" title="\u5173\u95ed" ms-click="closeSign"  rel="nofollow" ></a>\u000a</div>\u000a<iframe ms-src="frameSrc" name="signFrame" frameborder="0" scrolling=no width=642 height=340 ></iframe>\u000a</div>\u000a<div class="mask"></div>\u000a</div>\u000a<div class="popup" ms-important="MainCtrl" ms-visible="commonCouponState==1">\u000a<div class="get_yhq get_yhq2">\u000a<a href="javascript:void(0);" class="get_yhq_close" title="\u5173\u95ed" ms-click="setValue('commonCouponState',0)"></a>\u000a<p class="get_yhq_title">{{coupon.name}}</p>\u000a<div class="get_yhq_price get_yhq_price2">{{coupon.price}}\u5143</div>\u000a<p class="get_yhq_name">\u6a21\u677f\u62b5\u7528\u5238</p>\u000a<a href="javascript:void(0);" class="get_yhq_btn" title="\u786e\u5b9a" ms-click="setValue('commonCouponState',0)">\u786e\u5b9a</a>\u000a<p class="get_yhq_text">\u5238\u6709\u6548\u671f\uff1a{{coupon.date*1000|date('yyyy\u5e74MM\u6708dd\u65e5')}}<br />\u000a\u5df2\u653e\u5165\u60a8\u7684\u8d26\u6237\uff0c\u70b9\u51fb&nbsp;\u201c<a href="/center#!/myCoupons" class="get_yhq_popup_link">\u6211\u7684\u4f18\u60e0\u5238</a>\u201d&nbsp;\u67e5\u770b</p>\u000a</div>\u000a<div class="mask"></div>\u000a</div>\u000a<div class="popup" ms-important="MainCtrl" ms-visible="commonCouponState==2">\u000a<div class="geted_yhq geted_yhq2">\u000a<a href="javascript:void(0);" class="get_yhq_close" title="\u5173\u95ed" ms-click="setValue('commonCouponState',0)"></a>\u000a<p class="get_yhq_title">\u4eb2\uff0c\u60a8\u5df2\u7ecf\u9886\u53d6\u8fc7\u6b64\u4f18\u60e0\u5238\u4e86.</p>\u000a<a href="javascript:void(0);" class="get_yhq_btn" title="\u786e\u5b9a" ms-click="setValue('commonCouponState',0)">\u786e\u5b9a</a>\u000a<p class="get_yhq_text">\u000a\u5df2\u653e\u5165\u60a8\u7684\u8d26\u6237\uff0c\u70b9\u51fb&nbsp;\u201c<a href="/center#!/myCoupons" class="get_yhq_popup_link">\u6211\u7684\u4f18\u60e0\u5238</a>\u201d&nbsp;\u67e5\u770b</p>\u000a</div>\u000a<div class="mask"></div>\u000a</div>\u000a<div ms-important="MainCtrl">\u000a<div class="popup">\u000a<div class="card_pay_main card_overdue_main">\u000a<div class="cpm_top clearfix">\u000a<h2>\u6708\u5361\u5230\u671f\u63d0\u793a</h2>\u000a<a href="javascript:void(0)" class="close" title="\u5173\u95ed" ms-click="setMonthCard('payState',-1)"></a>\u000a</div>\u000a<div class="cpm_main clearfix">\u000a<span class="com_logo"></span>\u000a<p class="com_text">\u4eb2\uff0c\u60a8\u7684\u7a3b\u58f3\u6708\u5361\u5c06\u4e8e <span class="red">7</span> \u5929\u540e<span class="fz14">\uff082016\u5e741\u67081\u65e5\uff09</span>\u5230\u671f<br><span class="fz14 red">\u8fd8\u5dee13\u5929\u5c31\u53ef\u4ee5\u5347\u7ea7\u6708\u5361V2\u5566\uff0c\u7ee7\u7eed\u4fdd\u6301\u54e6~</span></p>\u000a</div>\u000a<div class="com_btn">\u000a<a href="javascript:void(0)" class="cpm_btn cpm_pay_btn_red2">\u7acb\u5373\u7eed\u8d39</a>\u000a<a href="javascript:void(0)" class="cpm_btn cpm_pay_btn_gray">\u6211\u77e5\u9053\u4e86</a>\u000a</div>\u000a</div>\u000a<div class="mask"></div>\u000a</div>\u000a<div class="popup">\u000a<div class="card_pay_main card_overdue_main">\u000a<div class="cpm_top clearfix">\u000a<h2>\u6708\u5361\u5230\u671f\u63d0\u793a</h2>\u000a<a href="javascript:void(0)" class="close" title="\u5173\u95ed" ms-click="setMonthCard('payState',-1)"></a>\u000a</div>\u000a<div class="cpm_main clearfix">\u000a<span class="com_logo"></span>\u000a<p class="com_text">\u4eb2\uff0c\u60a8\u7684\u7a3b\u58f3\u6708\u5361\u5df2\u7ecf\u5230\u671f<br><span class="fz14 red">\u60a8\u5df2\u5931\u53bb\u6a21\u677f\u514d\u5355\u7b49\u7279\u6743\uff0c\u6708\u5361\u6210\u957f\u503c\u6b63\u5728\u4ee5\u6bcf\u5929100\u70b9<br>\u7684\u901f\u5ea6\u8870\u51cf\uff0c\u518d\u4e0d\u7eed\u8d39\u5c31\u665a\u5566\uff01</span></p>\u000a</div>\u000a<div class="com_btn">\u000a<a href="javascript:void(0)" class="cpm_btn cpm_pay_btn_red2">\u7acb\u5373\u7eed\u8d39</a>\u000a<a href="javascript:void(0)" class="cpm_btn cpm_pay_btn_gray">\u6211\u77e5\u9053\u4e86</a>\u000a</div>\u000a</div>\u000a<div class="mask"></div>\u000a</div>\u000a</div>\u000a<div class="online_ser" ms-controller="MainCtrl" ms-if="serviceRemoveMark">\u000a<a href="javascript:void(0)" ms-click="showOrHideService" ms-class-1="btn_ser_un:!serviceVisible" ms-class-2="btn_ser_up:serviceVisible"></a><!-- ms-class-1="btn_ser_un:!showInfo" ms-class-2="btn_ser_up:showInfo" -->\u000a<div class="ser_c">\u000a<h3>\u8d2d\u4e70\u53cd\u9988</h3>\u000a<ul class="ser_qq">\u000a<li><a href="http://wpa.b.qq.com/cgi/wpa.php?ln=1&key=XzkzODA1NjE4Ml80NTAwNTBfNDAwODk4MDcwN18yXw" target="_blank" ms-class="no_online:!isOnline(0)" ms-click="sendCount('action', '\u5728\u7ebf\u5ba2\u670d | \u5c0f\u58f3')">\u5c0f\u58f3</a></li>\u000a</ul>\u000a<h3>PPT\u4ee3\u505a/\u7f8e\u5316/\u8bbe\u8ba1</h3>\u000a<ul class="ser_qq">\u000a<li><a href="tencent://message/?uin=2850856413&site=qq&menu=yes" target="_blank" ms-class="no_online:!isOnline(0)" ms-click="sendCount('action', '\u5728\u7ebf\u5ba2\u670d | \u8700\u5b50\u5370\u8c61')">\u8700\u5b50\u5370\u8c61</a></li>\u000a<li><a href="tencent://message/?uin=2853732694&site=qq&menu=yes" target="_blank" ms-class="no_online:!isOnline(0)" ms-click="sendCount('action', '\u5728\u7ebf\u5ba2\u670d | \u5fae\u5c18')">\u5fae\u5c18</a></li>\u000a<li><a href="tencent://message/?uin=2853732692&site=qq&menu=yes" target="_blank" ms-class="no_online:!isOnline(0)" ms-click="sendCount('action', '\u5728\u7ebf\u5ba2\u670d | \u65f6\u5149\u5370\u8c61')">\u65f6\u5149\u5370\u8c61</a></li>\u000a<li><a href="tencent://message/?uin=2853732697&site=qq&menu=yes" target="_blank" ms-class="no_online:!isOnline(0)" ms-click="sendCount('action', '\u5728\u7ebf\u5ba2\u670d | \u516b\u97f3\u8bbe\u8ba1')">\u516b\u97f3\u8bbe\u8ba1</a></li>\u000a<li><a href="tencent://message/?uin=2853732698&site=qq&menu=yes" target="_blank" ms-class="no_online:!isOnline(0)" ms-click="sendCount('action', '\u5728\u7ebf\u5ba2\u670d | \u718a\u732b\u8fbe\u4eba')">\u718a\u732b\u8fbe\u4eba</a></li>\u000a</ul>\u000a<h3>\u7b80\u5386\u4ee3\u505a/\u8bbe\u8ba1/\u6539\u5199</h3>\u000a<ul class="ser_qq">\u000a<li><a href="tencent://message/?uin=2853732706&site=qq&menu=yes" target="_blank" ms-class="no_online:!isOnline(0)" ms-click="sendCount('action', '\u5728\u7ebf\u5ba2\u670d | \u8f7b\u7b80\u5386')">\u8f7b\u7b80\u5386</a></li>\u000a<li><a href="tencent://message/?uin=2853732707&site=qq&menu=yes" target="_blank" ms-class="no_online:!isOnline(0)" ms-click="sendCount('action', '\u5728\u7ebf\u5ba2\u670d | \u4e03\u8292\u661f')">\u4e03\u8292\u661f</a></li>\u000a<li><a href="tencent://message/?uin=2853732708&site=qq&menu=yes" target="_blank" ms-class="no_online:!isOnline(0)" ms-click="sendCount('action', '\u5728\u7ebf\u5ba2\u670d | Aaron')">Aaron</a></li>\u000a</ul>\u000a<h3>Excel\u6570\u636e\u62a5\u8868\u5b9a\u5236</h3>\u000a<ul class="ser_qq">\u000a<li><a href="tencent://message/?uin=2850856390&site=qq&menu=yes" target="_blank" ms-class="no_online:!isOnline(0)" ms-click="sendCount('action', '\u5728\u7ebf\u5ba2\u670d | \u964c\u4e0a\u82b1\u5f00')">\u964c\u4e0a\u82b1\u5f00</a></li>\u000a<li><a href="tencent://message/?uin=2850856391&site=qq&menu=yes" target="_blank" ms-class="no_online:!isOnline(0)" ms-click="sendCount('action', '\u5728\u7ebf\u5ba2\u670d | \u9752\u8b5e')">\u9752\u8b5e</a></li>\u000a</ul>\u000a</div>\u000a</div>\u000a<input type="hidden" id="path" value="//www.docer.com/application"/>\u000a<script>\u000avar datamodel = {"userinfo":""};\u000avar globaldatamodel = {"ads":""};\u000a</script>\u000a<script type="text/javascript" src="//www.docer.com/application/javascript/publish/lib/requirejs/require.min.js?v=2016011041"></script>\u000a<script type="text/javascript" src="//www.docer.com/application/javascript/publish/load.js?v=2016011041"></script>\u000a<script type="text/javascript">var cnzz_protocol = (("https:" == document.location.protocol) ? " https://" : " http://");document.write(unescape("%3Cspan id='cnzz_stat_icon_1253016024'%3E%3C/span%3E%3Cscript src='" + cnzz_protocol + "w.cnzz.com/q_stat.php%3Fid%3D1253016024' type='text/javascript'%3E%3C/script%3E"));</script>\u000a<script type="text/javascript">\u000avar _bdhmProtocol = (("https:" == document.location.protocol) ? " https://" : " http://");\u000adocument.write(unescape("%3Cscript src='" + _bdhmProtocol + "hm.baidu.com/h.js%3F6b97cf55979459b56b4fca2e8d217d44' type='text/javascript'%3E%3C/script%3E"));\u000a</script>\u000a<script type="text/javascript" src="//www.docer.com/application/javascript/publish/wa.js?v=2016011041"></script>\u000a</div>\u000a</body>\u000a<script type="text/javascript">\u000awindow.filterData = [{"type":"tags","s_type":"1","name":"\u005cu6309\u005cu7528\u005cu9014","item":[{"v":"\u005cu62a5\u005cu544a","k":"\u005cu62a5\u005cu544a","ext":null},{"v":"\u005cu53d1\u005cu5e03\u005cu4f1a","k":"\u005cu53d1\u005cu5e03\u005cu4f1a","ext":null},{"v":"\u005cu5e86\u005cu5178\u005cu4eea\u005cu5f0f","k":"\u005cu5e86\u005cu5178\u005cu4eea\u005cu5f0f","ext":null},{"v":"\u005cu7ed3\u005cu5a5a","k":"\u005cu7ed3\u005cu5a5a","ext":null},{"v":"\u005cu8282\u005cu65e5\u005cu5e86\u005cu5178","k":"\u005cu8282\u005cu65e5\u005cu5e86\u005cu5178","ext":null},{"v":"\u005cu6f14\u005cu8bb2","k":"\u005cu6f14\u005cu8bb2","ext":null},{"v":"\u005cu54c1\u005cu724c\u005cu5ba3\u005cu8bb2","k":"\u005cu54c1\u005cu724c\u005cu5ba3\u005cu8bb2","ext":null},{"v":"\u005cu603b\u005cu7ed3","k":"\u005cu603b\u005cu7ed3","ext":null},{"v":"\u005cu57f9\u005cu8bad","k":"\u005cu57f9\u005cu8bad","ext":null},{"v":"\u005cu6bd5\u005cu4e1a\u005cu7b54\u005cu8fa9","k":"\u005cu6bd5\u005cu4e1a\u005cu7b54\u005cu8fa9","ext":null},{"v":"\u005cu7b80\u005cu5386","k":"\u005cu7b80\u005cu5386","ext":null}]},{"type":"hangye","s_type":"1","name":"\u005cu6309\u005cu884c\u005cu4e1a","item":[{"v":"\u005cu4e92\u005cu8054\u005cu7f51","k":"\u005cu4e92\u005cu8054\u005cu7f51","ext":null},{"v":"\u005cu79d1\u005cu6280","k":"\u005cu79d1\u005cu6280","ext":null},{"v":"\u005cu4ea4\u005cu901a","k":"\u005cu4ea4\u005cu901a","ext":null},{"v":"\u005cu6559\u005cu80b2","k":"\u005cu6559\u005cu80b2","ext":null},{"v":"\u005cu533b\u005cu836f","k":"\u005cu533b\u005cu836f","ext":null},{"v":"\u005cu827a\u005cu672f","k":"\u005cu827a\u005cu672f","ext":null},{"v":"\u005cu5e7f\u005cu544a","k":"\u005cu5e7f\u005cu544a","ext":null},{"v":"\u005cu91d1\u005cu878d","k":"\u005cu91d1\u005cu878d","ext":null},{"v":"\u005cu623f\u005cu5730\u005cu4ea7","k":"\u005cu623f\u005cu5730\u005cu4ea7","ext":null},{"v":"\u005cu515a\u005cu653f","k":"\u005cu515a\u005cu653f","ext":null},{"v":"\u005cu5f71\u005cu89c6","k":"\u005cu5f71\u005cu89c6","ext":null},{"v":"\u005cu80fd\u005cu6e90","k":"\u005cu80fd\u005cu6e90","ext":null}]},{"type":"style","s_type":"1","name":"\u005cu6309\u005cu98ce\u005cu683c","item":[{"v":"\u005cu5546\u005cu52a1","k":"\u005cu5546\u005cu52a1","ext":null},{"v":"\u005cu7b80\u005cu7ea6","k":"\u005cu7b80\u005cu7ea6","ext":null},{"v":"\u005cu590d\u005cu53e4\u005cu98ce","k":"\u005cu590d\u005cu53e4\u005cu98ce","ext":null},{"v":"\u005cu521b\u005cu610f\u005cu8bbe\u005cu8ba1","k":"\u005cu521b\u005cu610f\u005cu8bbe\u005cu8ba1","ext":null},{"v":"\u005cu6b27\u005cu7f8e\u005cu98ce","k":"\u005cu6b27\u005cu7f8e\u005cu98ce","ext":null},{"v":"\u005cu6e05\u005cu65b0\u005cu6de1\u005cu96c5","k":"\u005cu6e05\u005cu65b0\u005cu6de1\u005cu96c5","ext":null},{"v":"\u005cu53ef\u005cu7231","k":"\u005cu53ef\u005cu7231","ext":null},{"v":"\u005cu4e2d\u005cu56fd\u005cu98ce","k":"\u005cu4e2d\u005cu56fd\u005cu98ce","ext":null},{"v":"\u005cu97e9\u005cu8303\u005cu513f","k":"\u005cu97e9\u005cu8303\u005cu513f","ext":null},{"v":"\u005cu9177\u005cu70ab","k":"\u005cu9177\u005cu70ab","ext":null}]},{"type":"color","s_type":"1","name":"\u005cu989c\u005cu8272","item":[{"v":"\u005cu7eff\u005cu8272","k":"\u005cu7eff\u005cu8272","ext":null},{"v":"\u005cu84dd\u005cu8272","k":"\u005cu84dd\u005cu8272","ext":null},{"v":"\u005cu7d2b\u005cu8272","k":"\u005cu7d2b\u005cu8272","ext":null},{"v":"\u005cu9ed1\u005cu8272","k":"\u005cu9ed1\u005cu8272","ext":null},{"v":"\u005cu7c89\u005cu8272","k":"\u005cu7c89\u005cu8272","ext":null},{"v":"\u005cu7ea2\u005cu8272","k":"\u005cu7ea2\u005cu8272","ext":null},{"v":"\u005cu9ec4\u005cu8272","k":"\u005cu9ec4\u005cu8272","ext":null},{"v":"\u005cu767d\u005cu8272","k":"\u005cu767d\u005cu8272","ext":null},{"v":"\u005cu7070\u005cu8272","k":"\u005cu7070\u005cu8272","ext":null},{"v":"\u005cu5f69\u005cu8272","k":"\u005cu5f69\u005cu8272","ext":null}]},{"type":"effect","s_type":"2","name":"\u005cu6bd4\u005cu4f8b","item":[{"v":"\u005cu666e\u005cu5c4f","k":"\u005cu666e\u005cu5c4f","ext":null},{"v":"\u005cu5bbd\u005cu5c4f","k":"\u005cu5bbd\u005cu5c4f","ext":null}]},{"type":"price","s_type":"6","name":"\u005cu4ef7\u005cu683c","item":[{"ext":null,"v":"1\u005cu5143-5\u005cu5143","k":"100-500"},{"ext":null,"v":"5\u005cu5143-10\u005cu5143","k":"500-1000"},{"ext":null,"v":"10\u005cu5143-15\u005cu5143","k":"1000-1500"},{"ext":null,"v":">15\u005cu5143","k":"1500-"}]}];\u000aload('search');\u000a</script>\u000a</html>
p3
a.