(lp0
S'http://www.51pptmoban.com/ppt/'
p1
aS'\xe5\x85\x8d\xe8\xb4\xb9ppt\xe6\xa8\xa1\xe6\x9d\xbf\xef\xbc\x8cppt\xe6\xa8\xa1\xe6\x9d\xbf\xe4\xb8\x8b\xe8\xbd\xbd\xef\xbc\x8c\xe5\xb9\xbb\xe7\x81\xaf\xe7\x89\x87\xe6\xa8\xa1\xe6\x9d\xbf\xe2\x80\x94\xe2\x80\x9451PPT\xe6\xa8\xa1\xe6\x9d\xbf\xe7\xbd\x91'
p2
aI0
aV<!DOCTYPE html PUBLIC "-//W3C//DTD XHTML 1.0 Transitional//EN" "http://www.w3.org/TR/xhtml1/DTD/xhtml1-transitional.dtd">\u000a<html xmlns="http://www.w3.org/1999/xhtml">\u000a<head>\u000a<title>\u514d\u8d39ppt\u6a21\u677f\uff0cppt\u6a21\u677f\u4e0b\u8f7d\uff0c\u5e7b\u706f\u7247\u6a21\u677f\u2015\u201551PPT\u6a21\u677f\u7f51</title>\u000a<meta name="keywords" content="ppt\u6a21\u677f\uff0cppt\u6a21\u677f\u514d\u8d39\u4e0b\u8f7d\uff0c\u539f\u521bppt\u6a21\u677f\uff0c\u514d\u8d39ppt\u6a21\u677f\uff0c\u5e7b\u706f\u7247\u6a21\u677f\uff0cpowerpoint\u6a21\u677f\uff0cppt\u6f14\u793a\u6587\u7a3f\uff0cppt\u7b80\u62a5"/>\u000a<meta name="description" content="\u5e7b\u706f\u7247\u6a21\u677f\uff0cppt\u6a21\u677f\u514d\u8d39\u4e0b\u8f7d\u3002"/>\u000a<meta http-equiv="Content-Type" content="text/html; charset=gb2312"/>\u000a<link href="/css/pptlist.css" rel="stylesheet" type="text/css"/>\u000a<script src="/js/ppt.js" type="text/javascript"></script>\u000a</head>\u000a<body>\u000a<div class="top">\u000a<div class="top_l"><img src="/images/logo.gif" width="290" height="65" alt="51PPT\u6a21\u677f\u7f51\uff1a\u514d\u8d39\u63d0\u4f9bPPT\u6a21\u677f\u4e0b\u8f7d\u3002"/></div>\u000a<div class="top_r">\u000a<div class="top_r_l">\u000a<form action="/e/search/index.php" method="post" name="searchform" id="searchform">\u000a<div class="search_l"><input name="keyboard" type="text" class="sbox" id="keyboard"/><input type="hidden" name="show" value="title"/></div>\u000a<div class="search_r"><input type="image" src="/images/so.gif" width="45" height="36"/></div>\u000a</form>\u000a<div class="key">\u70ed\u95e8\u641c\u7d22\uff1a<a href='/e/search/result/?searchid=42465' target=_blank>\u57f9\u8badPpt</a>&nbsp;<a href='/e/search/result/?searchid=42464' target=_blank>\u81ea\u62cdapp</a>&nbsp;<a href='/e/search/result/?searchid=42463' target=_blank>\u6c34\u58a8\u98ceppt\u6a21\u677f</a>&nbsp;<a href='/e/search/result/?searchid=42462' target=_blank>\u96c5\u7070</a>&nbsp;<a href='/e/search/result/?searchid=42461' target=_blank>\u56fd\u5916\u521b\u610f\u7cbe\u7f8e</a>&nbsp;<a href='/e/search/result/?searchid=42460' target=_blank>\u97f3\u4e50\u52a8\u6001PPT</a>&nbsp;<a href='/e/search/result/?searchid=42459' target=_blank>\u6295\u8d44\u7406\u8d22\u91d1\u878d\u884c\u4e1a</a>&nbsp;<a href='/e/search/result/?searchid=42458' target=_blank>\u65b0\u5458\u5de5\u5165\u804c\u57f9</a><br></div>\u000a</div>\u000a<div class="top_r_r">\u000a<ul>\u000a<li class="tb1"><a onclick="window.external.addFavorite(location.href,document.title)" href="#">\u6536\u85cf\u672c\u7ad9</a></li>\u000a<li class="tb2"><a href="/up.html" target="_blank">\u4e0a\u4f20\u6a21\u677f</a></li>\u000a<li class="tb3">\u6280\u672f\u4ea4\u6d41</li>\u000a<li class="tb4"><script src="/e/member/login/login-js.php"></script></li>\u000a</ul>\u000a</div>\u000a</div>\u000a</div>\u000a<div class="nav">\u000a<ul>\u000a<li><a href="/">\u9996 \u9875</a> </li>\u000a<li><a href="/ppt/">PPT\u6a21\u677f</a> </li>\u000a<li><a href="/pic/">PPT\u56fe\u7247</a> </li>\u000a<li><a href="/tubiao/">PPT\u56fe\u8868</a> </li>\u000a<li><a href="/sucai/">PPT\u7d20\u6750</a> </li>\u000a<li><a href="/texiao/">PPT\u7279\u6548</a> </li>\u000a<li><a href="/pptzhuanti.html">PPT\u4e13\u9898</a> </li>\u000a<li><a href="/pptmoban-top.html">\u6392\u884c\u699c</a> </li>\u000a<li><a href="/ppt-soft/">PPT\u8f6f\u4ef6</a> </li>\u000a<li><a href="/search/">\u641c \u7d22</a> </li>\u000a<li><a href="/jiaocheng/">PPT\u6559\u7a0b</a> </li>\u000a</ul>\u000a</div>\u000a<div class="pptlm">\u000a<ul>\u000a<li><a href="/shangwu/" title="\u5546\u52a1\u6a21\u677fPPT\u6a21\u677f" target="_blank">\u5546\u52a1\u6a21\u677f</a> </li>\u000a<li><a href="/zhuti/" title="\u4e3b\u9898\u6a21\u677fPPT\u6a21\u677f" target="_blank">\u4e3b\u9898\u6a21\u677f</a> </li>\u000a<li><a href="/hangye/" title="\u884c\u4e1a\u6a21\u677fPPT\u6a21\u677f" target="_blank">\u884c\u4e1a\u6a21\u677f</a> </li>\u000a<li><a href="/ziran/" title="\u81ea\u7136\u6a21\u677fPPT\u6a21\u677f" target="_blank">\u81ea\u7136\u6a21\u677f</a> </li>\u000a<li><a href="/gongsi/" title="\u516c\u53f8\u6a21\u677fPPT\u6a21\u677f" target="_blank">\u516c\u53f8\u6a21\u677f</a> </li>\u000a<li><a href="/keji/" title="\u79d1\u6280\u6a21\u677fPPT\u6a21\u677f" target="_blank">\u79d1\u6280\u6a21\u677f</a> </li>\u000a<li><a href="/dongwu/" title="\u52a8\u7269\u6a21\u677fPPT\u6a21\u677f" target="_blank">\u52a8\u7269\u6a21\u677f</a> </li>\u000a<li><a href="/jieri/" title="\u8282\u65e5\u6a21\u677fPPT\u6a21\u677f" target="_blank">\u8282\u65e5\u6a21\u677f</a> </li>\u000a<li><a href="/guowai/" title="\u56fd\u5916\u6a21\u677fPPT\u6a21\u677f" target="_blank">\u56fd\u5916\u6a21\u677f</a> </li>\u000a<li><a href="/tongyong/" title="\u901a\u7528\u6a21\u677fPPT\u6a21\u677f" target="_blank">\u901a\u7528\u6a21\u677f</a> </li>\u000a<li><a href="/beijing/" title="\u80cc\u666f\u6a21\u677fPPT\u6a21\u677f" target="_blank">\u80cc\u666f\u6a21\u677f</a> </li>\u000a<li><a href="/zt/kuanpingPPTmoban/" title="\u5bbd\u5c4fppt\u6a21\u677f" target="_blank">\u5bbd\u5c4f</a></li>\u000a<li><a href="/zt/biaopingPPTmoban/" title="\u6807\u5c4fppt\u6a21\u677f" target="_blank">\u6807\u5c4fPPT</a></li>\u000a<li><a href="/zt/jingtaiPPTmoban/" title="\u9759\u6001ppt\u6a21\u677f" target="_blank">\u9759\u6001</a></li>\u000a<li><a href="/zt/dongtaiPPTmoban/" title="\u52a8\u6001ppt\u6a21\u677f" target="_blank">\u52a8\u6001PPT</a></li>\u000a<li><a href="/pptzhuanti.html" title="PPT\u6a21\u677f\u5730\u56fe" target="_blank">more</a></li>\u000a</ul>\u000a</div>\u000a<div class="ppt_t">\u000a<div class="ppt_t_l"><script>ppt("a15");</script></div>\u000a<div class="ppt_t_r"><a href='/ppter.html' target=_blank><img src='/d/file/2014/12/21/093ecdd12631f9114c238e9622bfeb5f.png' border=0 width='235' height='90' alt='PPT\u5927\u8bbe\u8ba1\u5e08'></a></div>\u000a</div>\u000a<div class="listwz">\u000a<div class="listwz_l"><a href="/">\u9996\u9875</a>&nbsp;>&nbsp;<a href="/ppt/">ppt\u6a21\u677f</a>&nbsp;></div>\u000a<div class="listwz_r">\u000a<ul>\u000a<li><a class="hongse" href="/zt/hongse/" title="\u7ea2\u8272ppt\u6a21\u677f" target="_blank">\u7ea2</a></li>\u000a<li><a class="huangse" href="/zt/huangse/" title="\u9ec4\u8272ppt\u6a21\u677f" target="_blank">\u9ec4</a></li>\u000a<li><a class="lanse" href="/zt/lanse/" title="\u84dd\u8272ppt\u6a21\u677f" target="_blank">\u84dd</a></li>\u000a<li><a class="lvse" href="/zt/lvse/" title="\u7eff\u8272ppt\u6a21\u677f" target="_blank">\u7eff</a></li>\u000a<li><a class="zise" href="/zt/zise/" title="\u7d2b\u8272ppt\u6a21\u677f" target="_blank">\u7d2b</a></li>\u000a<li><a class="zongse" href="/zt/zongse/" title="\u68d5\u8272ppt\u6a21\u677f" target="_blank">\u68d5</a></li>\u000a<li><a class="huise" href="/zt/huise/" title="\u7070\u8272ppt\u6a21\u677f" target="_blank">\u7070</a></li>\u000a<li><a class="heise" href="/zt/heise/" title="\u9ed1\u8272ppt\u6a21\u677f" target="_blank">\u9ed1</a></li>\u000a<li><a class="caise" href="/zt/hunhese/" title="\u5f69\u8272ppt\u6a21\u677f" target="_blank">\u5f69</a></li>\u000a</ul>\u000a</div>\u000a</div>\u000a<div class="clear"></div>\u000a<div class="pptlist">\u000a<dl>\u000a<dd>\u000a<div class="pdiv"><a href="/zhuti/6348.html" target="_blank"><img alt="\u516c\u53f8\u8def\u6f14\u878d\u8d44\u521b\u4e1a\u5546\u4e1a\u8ba1\u5212\u4e66ppt\u6a21\u677f" src="/d/file/2016/12/20/8b33243d859154082e5e6afdbdf1bc1d.jpg" width="290" height="218"/></a></div>\u000a<b><a href="/zhuti/6348.html" target="_blank">\u516c\u53f8\u8def\u6f14\u878d\u8d44\u521b\u4e1a\u5546\u4e1a\u8ba1\u5212\u4e66ppt\u6a21\u677f</a></b>\u000a<p>\u4eba\u6c14<span>0</span> | \u4e0b\u8f7d<span>0</span></p>\u000a<p>\u4e3b\u9898\u6a21\u677f 5\u661f 4.49 MB 2016-12-21</p>\u000a</dd>\u000a<dd>\u000a<div class="pdiv"><a href="/zhuti/6347.html" target="_blank"><img alt="\u65b9\u5411\u2015\u2015\u4e2a\u4eba\u603b\u7ed3\u65b0\u5e74\u5de5\u4f5c\u8ba1\u5212ppt\u6a21\u677f" src="/d/file/2016/12/20/57dae7a7b4881d5f27fc74c73c8d94d2.jpg" width="290" height="218"/></a></div>\u000a<b><a href="/zhuti/6347.html" target="_blank">\u65b9\u5411\u2015\u2015\u4e2a\u4eba\u603b\u7ed3\u65b0\u5e74\u5de5\u4f5c\u8ba1\u5212ppt\u6a21\u677f</a></b>\u000a<p>\u4eba\u6c14<span>0</span> | \u4e0b\u8f7d<span>0</span></p>\u000a<p>\u4e3b\u9898\u6a21\u677f 3\u661f 2.70 MB 2016-12-21</p>\u000a</dd>\u000a<dd>\u000a<div class="pdiv"><a href="/zhuti/6346.html" target="_blank"><img alt="\u987a\u6ed1\u5f39\u6027\u52a8\u753b\u6742\u5fd7\u98ceUI\u5e73\u9762\u8bbe\u8ba1\u5e08\u6c42\u804c\u7ade\u8058\u7b80\u5386ppt\u6a21\u677f" src="/d/file/2016/12/19/3c183564e479ceb6adb9afc8fb90286b.jpg" width="290" height="218"/></a></div>\u000a<b><a href="/zhuti/6346.html" target="_blank">\u987a\u6ed1\u5f39\u6027\u52a8\u753b\u6742\u5fd7\u98ceUI\u5e73\u9762\u8bbe\u8ba1\u5e08\u6c42\u804c\u7ade\u8058\u7b80</a></b>\u000a<p>\u4eba\u6c14<span>1626</span> | \u4e0b\u8f7d<span>545</span></p>\u000a<p>\u4e3b\u9898\u6a21\u677f 5\u661f 2.71 MB 2016-12-20</p>\u000a</dd>\u000a<dd>\u000a<div class="pdiv"><a href="/jieri/6345.html" target="_blank"><img alt="Merry Christmas\u6ee1\u6ee1\u5723\u8bde\u98ce\u6241\u5e73\u7cbe\u7f8e\u559c\u5e86\u5723\u8bde\u8282\u4e3b\u9898ppt\u6a21\u677f" src="/d/file/2016/12/19/afa396b1a28d2470373549218309e50e.jpg" width="290" height="218"/></a></div>\u000a<b><a href="/jieri/6345.html" target="_blank">Merry Christmas\u6ee1\u6ee1\u5723\u8bde\u98ce\u6241\u5e73\u7cbe\u7f8e\u559c\u5e86\u5723\u8bde</a></b>\u000a<p>\u4eba\u6c14<span>1449</span> | \u4e0b\u8f7d<span>677</span></p>\u000a<p>\u8282\u65e5\u6a21\u677f 5\u661f 4.17 MB 2016-12-20</p>\u000a</dd>\u000a<dd>\u000a<div class="pdiv"><a href="/shangwu/6344.html" target="_blank"><img alt="\u5546\u52a1\u7070\u4f4e\u9762\u80cc\u666f\u6241\u5e73\u5316\u7b80\u7ea6\u5de5\u4f5c\u6c47\u62a5ppt\u6a21\u677f" src="/d/file/2016/12/19/3c13e19847b549d2423615d8e1d83b4b.jpg" width="290" height="218"/></a></div>\u000a<b><a href="/shangwu/6344.html" target="_blank">\u5546\u52a1\u7070\u4f4e\u9762\u80cc\u666f\u6241\u5e73\u5316\u7b80\u7ea6\u5de5\u4f5c\u6c47\u62a5ppt\u6a21\u677f</a></b>\u000a<p>\u4eba\u6c14<span>1929</span> | \u4e0b\u8f7d<span>500</span></p>\u000a<p>\u5546\u52a1\u6a21\u677f 4\u661f 1.35 MB 2016-12-20</p>\u000a</dd>\u000a<dd>\u000a<div class="pdiv"><a href="/zhuti/6343.html" target="_blank"><img alt="\u6241\u5e73\u5927\u6c14\u6742\u5fd7\u98ce\u4e2a\u4eba\u5e74\u7ec8\u603b\u7ed3\u65b0\u5e74\u8ba1\u5212ppt\u6a21\u677f" src="/d/file/2016/12/18/349bf58f27bd871cf18a8ce8375a8f14.jpg" width="290" height="218"/></a></div>\u000a<b><a href="/zhuti/6343.html" target="_blank">\u6241\u5e73\u5927\u6c14\u6742\u5fd7\u98ce\u4e2a\u4eba\u5e74\u7ec8\u603b\u7ed3\u65b0\u5e74\u8ba1\u5212ppt\u6a21\u677f</a></b>\u000a<p>\u4eba\u6c14<span>5253</span> | \u4e0b\u8f7d<span>1675</span></p>\u000a<p>\u4e3b\u9898\u6a21\u677f 5\u661f 16.64 MB 2016-12-19</p>\u000a</dd>\u000a<dd>\u000a<div class="pdiv"><a href="/zhuti/6342.html" target="_blank"><img alt="\u91d1\u8272\u4f4e\u9762\u80cc\u666f\u4f4e\u9762\u98ce\u4e2a\u4eba\u5e74\u7ec8\u603b\u7ed3ppt\u6a21\u677f" src="/d/file/2016/12/18/4b922e59d6054f893fb005c144aab4f7.jpg" width="290" height="218"/></a></div>\u000a<b><a href="/zhuti/6342.html" target="_blank">\u91d1\u8272\u4f4e\u9762\u80cc\u666f\u4f4e\u9762\u98ce\u4e2a\u4eba\u5e74\u7ec8\u603b\u7ed3ppt\u6a21\u677f</a></b>\u000a<p>\u4eba\u6c14<span>3400</span> | \u4e0b\u8f7d<span>631</span></p>\u000a<p>\u4e3b\u9898\u6a21\u677f 3\u661f 1.63 MB 2016-12-19</p>\u000a</dd>\u000a<dd>\u000a<div class="pdiv"><a href="/zhuti/6341.html" target="_blank"><img alt="\u5fae\u7acb\u4f53\u98ce\u7cbe\u7f8e\u901a\u7528\u5de5\u4f5c\u603b\u7ed3\u62a5\u544appt\u6a21\u677f" src="/d/file/2016/12/18/e38ef5d883012a700288c0c7b29c1735.jpg" width="290" height="218"/></a></div>\u000a<b><a href="/zhuti/6341.html" target="_blank">\u5fae\u7acb\u4f53\u98ce\u7cbe\u7f8e\u901a\u7528\u5de5\u4f5c\u603b\u7ed3\u62a5\u544appt\u6a21\u677f</a></b>\u000a<p>\u4eba\u6c14<span>3650</span> | \u4e0b\u8f7d<span>1792</span></p>\u000a<p>\u4e3b\u9898\u6a21\u677f 5\u661f 8.07 MB 2016-12-19</p>\u000a</dd>\u000a<dd>\u000a<div class="pdiv"><a href="/jieri/6340.html" target="_blank"><img alt="\u6b22\u4e50\u559c\u5e86\u5723\u8bde\u98ce\u5de5\u4f5c\u6c47\u62a5\u7ea2\u8272\u5723\u8bde\u8282ppt\u6a21\u677f" src="/d/file/2016/12/18/104478d3829c550d58239a485919f7d5.jpg" width="290" height="218"/></a></div>\u000a<b><a href="/jieri/6340.html" target="_blank">\u6b22\u4e50\u559c\u5e86\u5723\u8bde\u98ce\u5de5\u4f5c\u6c47\u62a5\u7ea2\u8272\u5723\u8bde\u8282ppt\u6a21\u677f</a></b>\u000a<p>\u4eba\u6c14<span>1485</span> | \u4e0b\u8f7d<span>535</span></p>\u000a<p>\u8282\u65e5\u6a21\u677f 5\u661f 8.68 MB 2016-12-19</p>\u000a</dd>\u000a<dd>\u000a<div class="pdiv"><a href="/tongyong/6339.html" target="_blank"><img alt="\u6d3b\u529b\u8292\u679c\u5f69\u6761\u89c6\u89c9\u611f\u52a8\u6001ppt\u6a21\u677f" src="/d/file/2016/12/18/e3f2f6e2eb46babd2037224694e06cf5.jpg" width="290" height="218"/></a></div>\u000a<b><a href="/tongyong/6339.html" target="_blank">\u6d3b\u529b\u8292\u679c\u5f69\u6761\u89c6\u89c9\u611f\u52a8\u6001ppt\u6a21\u677f</a></b>\u000a<p>\u4eba\u6c14<span>658</span> | \u4e0b\u8f7d<span>135</span></p>\u000a<p>\u901a\u7528\u6a21\u677f 3\u661f 2.59 MB 2016-12-19</p>\u000a</dd>\u000a<dd>\u000a<div class="pdiv"><a href="/zhuti/6336.html" target="_blank"><img alt="\u6241\u5e73\u5546\u52a1\u5361\u901a\u98ce\u52a8\u6001\u6570\u636e\u8868\u5e74\u7ec8\u5de5\u4f5c\u603b\u7ed3\u62a5\u544appt\u6a21\u677f" src="/d/file/2016/12/15/e3df554b60e653b02e2e39d6e7c061df.jpg" width="290" height="218"/></a></div>\u000a<b><a href="/zhuti/6336.html" target="_blank">\u6241\u5e73\u5546\u52a1\u5361\u901a\u98ce\u52a8\u6001\u6570\u636e\u8868\u5e74\u7ec8\u5de5\u4f5c\u603b\u7ed3\u62a5\u544a</a></b>\u000a<p>\u4eba\u6c14<span>4617</span> | \u4e0b\u8f7d<span>1609</span></p>\u000a<p>\u4e3b\u9898\u6a21\u677f 4\u661f 237.68 KB 2016-12-16</p>\u000a</dd>\u000a<dd>\u000a<div class="pdiv"><a href="/zhuti/6335.html" target="_blank"><img alt="\u624b\u6e38\u300a\u9634\u9633\u5e08\u300b\u89d2\u8272\u4ecb\u7ecdppt\u6a21\u677f" src="/d/file/2016/12/15/619fcd816287fb4453556acd4d817c06.jpg" width="290" height="218"/></a></div>\u000a<b><a href="/zhuti/6335.html" target="_blank">\u624b\u6e38\u300a\u9634\u9633\u5e08\u300b\u89d2\u8272\u4ecb\u7ecdppt\u6a21\u677f</a></b>\u000a<p>\u4eba\u6c14<span>2337</span> | \u4e0b\u8f7d<span>531</span></p>\u000a<p>\u4e3b\u9898\u6a21\u677f 4\u661f 13.79 MB 2016-12-16</p>\u000a</dd>\u000a<dd>\u000a<div class="pdiv"><a href="/tongyong/6334.html" target="_blank"><img alt="\u96ea\u5730\u4e2d\u7684\u5c0f\u96ea\u4eba\u7ea2\u8272\u559c\u5e86ppt\u6a21\u677f" src="/d/file/2016/12/15/5f80e2703f7df87fccc61bd1a125a4d0.jpg" width="290" height="218"/></a></div>\u000a<b><a href="/tongyong/6334.html" target="_blank">\u96ea\u5730\u4e2d\u7684\u5c0f\u96ea\u4eba\u7ea2\u8272\u559c\u5e86ppt\u6a21\u677f</a></b>\u000a<p>\u4eba\u6c14<span>1985</span> | \u4e0b\u8f7d<span>567</span></p>\u000a<p>\u901a\u7528\u6a21\u677f 3\u661f 1.55 MB 2016-12-16</p>\u000a</dd>\u000a<dd>\u000a<div class="pdiv"><a href="/gongsi/6333.html" target="_blank"><img alt="\u5fae\u8f6f\u5b98\u65b9office365\u529e\u516c\u5f00\u53d1\u5e73\u53f0\u4ecb\u7ecd\u6700\u65b0\u5361\u901a\u98ce\u683cppt\u6a21\u677f" src="/d/file/2016/12/14/65c843cb216a6e43064c8220406368d9.jpg" width="290" height="218"/></a></div>\u000a<b><a href="/gongsi/6333.html" target="_blank">\u5fae\u8f6f\u5b98\u65b9office365\u529e\u516c\u5f00\u53d1\u5e73\u53f0\u4ecb\u7ecd\u6700\u65b0\u5361\u901a</a></b>\u000a<p>\u4eba\u6c14<span>2522</span> | \u4e0b\u8f7d<span>652</span></p>\u000a<p>\u516c\u53f8\u6a21\u677f 5\u661f 8.46 MB 2016-12-15</p>\u000a</dd>\u000a<dd>\u000a<div class="pdiv"><a href="/jieri/6332.html" target="_blank"><img alt="\u6d3b\u529b\u52a8\u611f\u559c\u5e86\u516c\u53f8\u65b0\u6625\u8054\u8c0a\u4f1appt\u6a21\u677f" src="/d/file/2016/12/14/41bc82adc04a55ba787b5a99d12a4275.jpg" width="290" height="218"/></a></div>\u000a<b><a href="/jieri/6332.html" target="_blank">\u6d3b\u529b\u52a8\u611f\u559c\u5e86\u516c\u53f8\u65b0\u6625\u8054\u8c0a\u4f1appt\u6a21\u677f</a></b>\u000a<p>\u4eba\u6c14<span>1982</span> | \u4e0b\u8f7d<span>686</span></p>\u000a<p>\u8282\u65e5\u6a21\u677f 4\u661f 2.35 MB 2016-12-15</p>\u000a</dd>\u000a<dd>\u000a<div class="pdiv"><a href="/jieri/6331.html" target="_blank"><img alt="\u6f02\u4eae\u62bd\u8c61\u5723\u8bde\u6811\u70ab\u4e3d\u559c\u5e86\u7ea2\u5723\u8bde\u8282ppt\u6a21\u677f" src="/d/file/2016/12/14/2026d06d019a5062ea3a3dcc394122bf.jpg" width="290" height="218"/></a></div>\u000a<b><a href="/jieri/6331.html" target="_blank">\u6f02\u4eae\u62bd\u8c61\u5723\u8bde\u6811\u70ab\u4e3d\u559c\u5e86\u7ea2\u5723\u8bde\u8282ppt\u6a21\u677f</a></b>\u000a<p>\u4eba\u6c14<span>2196</span> | \u4e0b\u8f7d<span>562</span></p>\u000a<p>\u8282\u65e5\u6a21\u677f 3\u661f 504.94 KB 2016-12-15</p>\u000a</dd>\u000a<dd>\u000a<div class="pdiv"><a href="/zhuti/6330.html" target="_blank"><img alt="\u7ec6\u7ebf\u5708\u4e0e\u5706\u7684\u521b\u610f\u5c01\u9762\u6241\u5e73\u5316\u5de5\u4f5c\u603b\u7ed3\u62a5\u544appt\u6a21\u677f" src="/d/file/2016/12/14/32eb72f0b10742c61ea27e85cbc28bd9.jpg" width="290" height="218"/></a></div>\u000a<b><a href="/zhuti/6330.html" target="_blank">\u7ec6\u7ebf\u5708\u4e0e\u5706\u7684\u521b\u610f\u5c01\u9762\u6241\u5e73\u5316\u5de5\u4f5c\u603b\u7ed3\u62a5\u544app</a></b>\u000a<p>\u4eba\u6c14<span>13492</span> | \u4e0b\u8f7d<span>5576</span></p>\u000a<p>\u4e3b\u9898\u6a21\u677f 4\u661f 3.47 MB 2016-12-15</p>\u000a</dd>\u000a<dd>\u000a<div class="pdiv"><a href="/zhuti/6328.html" target="_blank"><img alt="\u51e0\u4f55\u56fe\u5f62\u4f4e\u9762\u80cc\u666f\u5de5\u4f5c\u6c47\u62a5ppt\u6a21\u677f" src="/d/file/2016/12/13/b7cc53693d6c32b89bedb0cb6db366fd.jpg" width="290" height="218"/></a></div>\u000a<b><a href="/zhuti/6328.html" target="_blank">\u51e0\u4f55\u56fe\u5f62\u4f4e\u9762\u80cc\u666f\u5de5\u4f5c\u6c47\u62a5ppt\u6a21\u677f</a></b>\u000a<p>\u4eba\u6c14<span>14438</span> | \u4e0b\u8f7d<span>6708</span></p>\u000a<p>\u4e3b\u9898\u6a21\u677f 4\u661f 4.22 MB 2016-12-14</p>\u000a</dd>\u000a<dd>\u000a<div class="pdiv"><a href="/jieri/6327.html" target="_blank"><img alt="\u6241\u5e73\u5316\u7cbe\u7f8e\u5361\u901a\u7ea2\u8272\u559c\u5e86\u5723\u8bde\u8282ppt\u6a21\u677f" src="/d/file/2016/12/13/2b2d32a05166a612336547af935f0871.jpg" width="290" height="218"/></a></div>\u000a<b><a href="/jieri/6327.html" target="_blank">\u6241\u5e73\u5316\u7cbe\u7f8e\u5361\u901a\u7ea2\u8272\u559c\u5e86\u5723\u8bde\u8282ppt\u6a21\u677f</a></b>\u000a<p>\u4eba\u6c14<span>2948</span> | \u4e0b\u8f7d<span>1182</span></p>\u000a<p>\u8282\u65e5\u6a21\u677f 4\u661f 1.17 MB 2016-12-14</p>\u000a</dd>\u000a<dd>\u000a<div class="pdiv"><a href="/zhuti/6326.html" target="_blank"><img alt="\u7a81\u7834\u8fb9\u9645\u2015\u2015\u91d1\u8272\u4f11\u95f2\u5546\u52a1\u4e2a\u4eba\u5de5\u4f5c\u6c47\u62a5ppt\u6a21\u677f" src="/d/file/2016/12/13/57300553b5887b201fa27e4c23673469.jpg" width="290" height="218"/></a></div>\u000a<b><a href="/zhuti/6326.html" target="_blank">\u7a81\u7834\u8fb9\u9645\u2015\u2015\u91d1\u8272\u4f11\u95f2\u5546\u52a1\u4e2a\u4eba\u5de5\u4f5c\u6c47\u62a5ppt\u6a21</a></b>\u000a<p>\u4eba\u6c14<span>8010</span> | \u4e0b\u8f7d<span>1550</span></p>\u000a<p>\u4e3b\u9898\u6a21\u677f 3\u661f 2.40 MB 2016-12-14</p>\u000a</dd>\u000a</dl>\u000a<div class="bad"><script>ppt("a25");</script></div>\u000a<div class="pages"><a title="Total record">&nbsp;4988 </a>&nbsp;&nbsp;&nbsp;<b>1</b>&nbsp;<a href="/ppt/index_2.html">2</a>&nbsp;<a href="/ppt/index_3.html">3</a>&nbsp;<a href="/ppt/index_4.html">4</a>&nbsp;<a href="/ppt/index_5.html">5</a>&nbsp;<a href="/ppt/index_6.html">6</a>&nbsp;<a href="/ppt/index_7.html">7</a>&nbsp;<a href="/ppt/index_8.html">8</a>&nbsp;<a href="/ppt/index_9.html">9</a>&nbsp;<a href="/ppt/index_10.html">10</a>&nbsp;<a href="/ppt/index_11.html">11</a>&nbsp;<a href="/ppt/index_12.html">12</a>&nbsp;<a href="/ppt/index_2.html">\u4e0b\u4e00\u9875</a>&nbsp;<a href="/ppt/index_250.html">\u5c3e\u9875</a></div>\u000a</div>\u000a<div class="ztlist">\u000a<div class="gad"><script>ppt("a13");</script></div>\u000a<div class="mbzt"><div class="mbzt_l">\u4e3b\u9898\u6a21\u677f&nbsp;></div><div class="mbzt_r"><ul> <li><a href="/zhuti/shangwupeixun/" title="\u5546\u52a1\u57f9\u8badPPT\u6a21\u677f" target="_blank">\u5546\u52a1\u57f9\u8bad</a> </li>\u000a<li><a href="/zhuti/gongzuozongjiePPTmoban/" title="\u5de5\u4f5c\u603b\u7ed3PPT\u6a21\u677f" target="_blank">\u5de5\u4f5c\u603b\u7ed3</a> </li>\u000a<li><a href="/zhuti/gongzuobaogao/" title="\u5de5\u4f5c\u62a5\u544aPPT\u6a21\u677f" target="_blank">\u5de5\u4f5c\u62a5\u544a</a> </li>\u000a<li><a href="/zhuti/gongzuojihua/" title="\u5de5\u4f5c\u8ba1\u5212PPT\u6a21\u677f" target="_blank">\u5de5\u4f5c\u8ba1\u5212</a> </li>\u000a<li><a href="/zhuti/lunwendabian/" title="\u8bba\u6587\u7b54\u8fa9PPT\u6a21\u677f" target="_blank">\u8bba\u6587\u7b54\u8fa9</a> </li>\u000a<li><a href="/zhuti/gerenjianli/" title="\u4e2a\u4eba\u7b80\u5386PPT\u6a21\u677f" target="_blank">\u4e2a\u4eba\u7b80\u5386</a> </li>\u000a<li><a href="/zhuti/zhongguofengPPTmoban/" title="\u4e2d\u56fd\u98cePPT\u6a21\u677f" target="_blank">\u4e2d\u56fd\u98ce</a> </li>\u000a<li><a href="/zhuti/dangjianPPTmoban/" title="\u515a\u5efaPPT\u6a21\u677f" target="_blank">\u515a\u5efa</a> </li>\u000a<li><a href="/zhuti/dushubiji/" title="\u8bfb\u4e66\u7b14\u8bb0PPT\u6a21\u677f" target="_blank">\u8bfb\u4e66\u7b14\u8bb0</a> </li>\u000a<li><a href="/zhuti/ios/" title="\u82f9\u679cIOSPPT\u6a21\u677f" target="_blank">\u82f9\u679cIOS</a> </li>\u000a<li><a href="/zhuti/gongyi/" title="\u516c\u76caPPT\u6a21\u677f" target="_blank">\u516c\u76ca</a> </li>\u000a<li><a href="/zhuti/bianpinghua/" title="\u6241\u5e73\u5316PPT\u6a21\u677f" target="_blank">\u6241\u5e73\u5316</a> </li>\u000a<li><a href="/zhuti/xiangce/" title="\u76f8\u518cPPT\u6a21\u677f" target="_blank">\u76f8\u518c</a> </li>\u000a<li><a href="/zhuti/huanbao/" title="\u73af\u4fddPPT\u6a21\u677f" target="_blank">\u73af\u4fdd</a> </li>\u000a<li><a href="/zhuti/gerenzongjie/" title="\u4e2a\u4eba\u603b\u7ed3PPT\u6a21\u677f" target="_blank">\u4e2a\u4eba\u603b\u7ed3</a> </li>\u000a<li><a href="/zhuti/PPTqingjingju/" title="PPT\u60c5\u666f\u5267PPT\u6a21\u677f" target="_blank">PPT\u60c5\u666f\u5267</a> </li>\u000a<li><a href="/zhuti/xuesheng/" title="\u5b66\u751fPPT\u6a21\u677f" target="_blank">\u5b66\u751f</a> </li>\u000a<li><a href="/zhuti/yingxiaofangan/" title="\u8425\u9500\u65b9\u6848PPT\u6a21\u677f" target="_blank">\u8425\u9500\u65b9\u6848</a> </li>\u000a<li><a href="/zhuti/hunli/" title="\u5a5a\u793cPPT\u6a21\u677f" target="_blank">\u5a5a\u793c</a> </li>\u000a<li><a href="/zhuti/pptdesign/" title="PPT\u8bbe\u8ba1\u6559\u7a0bPPT\u6a21\u677f" target="_blank">PPT\u8bbe\u8ba1\u6559\u7a0b</a> </li>\u000a<li><a href="/zhuti/lizhi/" title="\u52b1\u5fd7PPT\u6a21\u677f" target="_blank">\u52b1\u5fd7</a> </li>\u000a<li><a href="/zhuti/zheligushi/" title="\u54f2\u7406\u6545\u4e8bPPT\u6a21\u677f" target="_blank">\u54f2\u7406\u6545\u4e8b</a> </li>\u000a<li><a href="/zhuti/chuntianPPTmoban/" title="\u6625\u5929PPT\u6a21\u677f" target="_blank">\u6625\u5929</a> </li>\u000a<li><a href="/zhuti/katong/" title="\u5361\u901aPPT\u6a21\u677f" target="_blank">\u5361\u901a</a> </li>\u000a<li><a href="/zhuti/anquan/" title="\u5b89\u5168PPT\u6a21\u677f" target="_blank">\u5b89\u5168</a> </li>\u000a<li><a href="/zhuti/shengri/" title="\u751f\u65e5PPT\u6a21\u677f" target="_blank">\u751f\u65e5</a> </li>\u000a<li><a href="/zhuti/weiliti/" title="\u5fae\u7acb\u4f53PPT\u6a21\u677f" target="_blank">\u5fae\u7acb\u4f53</a> </li>\u000a<li><a href="/zhuti/zhezhifeng/" title="\u6298\u7eb8\u98cePPT\u6a21\u677f" target="_blank">\u6298\u7eb8\u98ce</a> </li>\u000a<li><a href="/zhuti/ziwojieshao/" title="\u81ea\u6211\u4ecb\u7ecdPPT\u6a21\u677f" target="_blank">\u81ea\u6211\u4ecb\u7ecd</a> </li>\u000a<li><a href="/zhuti/zhiqingchun/" title="\u81f4\u9752\u6625PPT\u6a21\u677f" target="_blank">\u81f4\u9752\u6625</a> </li>\u000a</ul></div></div>\u000a<div class="mbzt"><div class="mbzt_l">\u8282\u65e5\u6a21\u677f&nbsp;></div><div class="mbzt_r"><ul> <li><a href="/jieri/yuandanjie/" title="\u5143\u65e6\u8282PPT\u6a21\u677f" target="_blank">\u5143\u65e6\u8282</a> </li>\u000a<li><a href="/jieri/chunjie/" title="\u6625\u8282PPT\u6a21\u677f" target="_blank">\u6625\u8282</a> </li>\u000a<li><a href="/jieri/qingrenjie/" title="\u60c5\u4eba\u8282PPT\u6a21\u677f" target="_blank">\u60c5\u4eba\u8282</a> </li>\u000a<li><a href="/jieri/funvjie/" title="\u5987\u5973\u8282PPT\u6a21\u677f" target="_blank">\u5987\u5973\u8282</a> </li>\u000a<li><a href="/jieri/zhishujie/" title="\u690d\u6811\u8282PPT\u6a21\u677f" target="_blank">\u690d\u6811\u8282</a> </li>\u000a<li><a href="/jieri/yurenjie/" title="\u611a\u4eba\u8282PPT\u6a21\u677f" target="_blank">\u611a\u4eba\u8282</a> </li>\u000a<li><a href="/jieri/qingmingjie/" title="\u6e05\u660e\u8282PPT\u6a21\u677f" target="_blank">\u6e05\u660e\u8282</a> </li>\u000a<li><a href="/jieri/laodongjie/" title="\u52b3\u52a8\u8282PPT\u6a21\u677f" target="_blank">\u52b3\u52a8\u8282</a> </li>\u000a<li><a href="/jieri/qingnianjie/" title="\u9752\u5e74\u8282PPT\u6a21\u677f" target="_blank">\u9752\u5e74\u8282</a> </li>\u000a<li><a href="/jieri/muqinjie/" title="\u6bcd\u4eb2\u8282PPT\u6a21\u677f" target="_blank">\u6bcd\u4eb2\u8282</a> </li>\u000a<li><a href="/jieri/ertongjie/" title="\u513f\u7ae5\u8282PPT\u6a21\u677f" target="_blank">\u513f\u7ae5\u8282</a> </li>\u000a<li><a href="/jieri/duanwujie/" title="\u7aef\u5348\u8282PPT\u6a21\u677f" target="_blank">\u7aef\u5348\u8282</a> </li>\u000a<li><a href="/jieri/fuqinjie/" title="\u7236\u4eb2\u8282PPT\u6a21\u677f" target="_blank">\u7236\u4eb2\u8282</a> </li>\u000a<li><a href="/jieri/jiandangjie/" title="\u5efa\u515a\u8282PPT\u6a21\u677f" target="_blank">\u5efa\u515a\u8282</a> </li>\u000a<li><a href="/jieri/jianjunjie/" title="\u5efa\u519b\u8282PPT\u6a21\u677f" target="_blank">\u5efa\u519b\u8282</a> </li>\u000a<li><a href="/jieri/qixiqingrenjie/" title="\u4e03\u5915\u60c5\u4eba\u8282PPT\u6a21\u677f" target="_blank">\u4e03\u5915\u60c5\u4eba\u8282</a> </li>\u000a<li><a href="/jieri/jiaoshijie/" title="\u6559\u5e08\u8282PPT\u6a21\u677f" target="_blank">\u6559\u5e08\u8282</a> </li>\u000a<li><a href="/jieri/zhongqiujie/" title="\u4e2d\u79cb\u8282PPT\u6a21\u677f" target="_blank">\u4e2d\u79cb\u8282</a> </li>\u000a<li><a href="/jieri/chongyangjie/" title="\u91cd\u9633\u8282PPT\u6a21\u677f" target="_blank">\u91cd\u9633\u8282</a> </li>\u000a<li><a href="/jieri/guoqingjie/" title="\u56fd\u5e86\u8282PPT\u6a21\u677f" target="_blank">\u56fd\u5e86\u8282</a> </li>\u000a<li><a href="/jieri/wanshengjie/" title="\u4e07\u5723\u8282PPT\u6a21\u677f" target="_blank">\u4e07\u5723\u8282</a> </li>\u000a<li><a href="/jieri/ganenjie/" title="\u611f\u6069\u8282PPT\u6a21\u677f" target="_blank">\u611f\u6069\u8282</a> </li>\u000a<li><a href="/jieri/shengdanjie/" title="\u5723\u8bde\u8282PPT\u6a21\u677f" target="_blank">\u5723\u8bde\u8282</a> </li>\u000a</ul></div></div>\u000a<div class="mbzt"><div class="mbzt_l">\u884c\u4e1a\u6a21\u677f&nbsp;></div><div class="mbzt_r"><ul> <li><a href="/hangye/qiche/" title="\u6c7d\u8f66PPT\u6a21\u677f" target="_blank">\u6c7d\u8f66</a> </li>\u000a<li><a href="/hangye/jiaoyu/" title="\u6559\u80b2PPT\u6a21\u677f" target="_blank">\u6559\u80b2</a> </li>\u000a<li><a href="/hangye/jinrong/" title="\u91d1\u878dPPT\u6a21\u677f" target="_blank">\u91d1\u878d</a> </li>\u000a<li><a href="/hangye/dichan/" title="\u5730\u4ea7PPT\u6a21\u677f" target="_blank">\u5730\u4ea7</a> </li>\u000a<li><a href="/hangye/yiyaoweisheng/" title="\u533b\u836f\u536b\u751fPPT\u6a21\u677f" target="_blank">\u533b\u836f\u536b\u751f</a> </li>\u000a<li><a href="/hangye/tongxin/" title="\u901a\u4fe1PPT\u6a21\u677f" target="_blank">\u901a\u4fe1</a> </li>\u000a<li><a href="/hangye/nengyuan/" title="\u80fd\u6e90PPT\u6a21\u677f" target="_blank">\u80fd\u6e90</a> </li>\u000a<li><a href="/hangye/fuwu/" title="\u670d\u52a1PPT\u6a21\u677f" target="_blank">\u670d\u52a1</a> </li>\u000a<li><a href="/hangye/jianzhu/" title="\u5efa\u7b51PPT\u6a21\u677f" target="_blank">\u5efa\u7b51</a> </li>\u000a<li><a href="/hangye/lvyou/" title="\u65c5\u6e38PPT\u6a21\u677f" target="_blank">\u65c5\u6e38</a> </li>\u000a<li><a href="/hangye/canyin/" title="\u9910\u996ePPT\u6a21\u677f" target="_blank">\u9910\u996e</a> </li>\u000a<li><a href="/hangye/jiaotongyunshu/" title="\u4ea4\u901a\u8fd0\u8f93PPT\u6a21\u677f" target="_blank">\u4ea4\u901a\u8fd0\u8f93</a> </li>\u000a<li><a href="/hangye/tiyu/" title="\u4f53\u80b2\u8fd0\u52a8PPT\u6a21\u677f" target="_blank">\u4f53\u80b2\u8fd0\u52a8</a> </li>\u000a<li><a href="/hangye/cha/" title="\u8336PPT\u6a21\u677f" target="_blank">\u8336</a> </li>\u000a</ul></div></div>\u000a<div class="mbzt"><div class="mbzt_l">\u5927\u8bbe\u8ba1\u5e08&nbsp;></div><div class="mbzt_r"><ul> <li><a href="/shejishi/qiuye/" title="\u79cb\u53f6\u4f5c\u54c1PPT\u6a21\u677f" target="_blank">\u79cb\u53f6\u4f5c\u54c1</a> </li>\u000a<li><a href="/shejishi/damaofeifei/" title="\u5927\u732b\u83f2\u83f2\u4f5c\u54c1PPT\u6a21\u677f" target="_blank">\u5927\u732b\u83f2\u83f2\u4f5c\u54c1</a> </li>\u000a<li><a href="/shejishi/qinyang/" title="\u79e6\u9633PPTPPT\u6a21\u677f" target="_blank">\u79e6\u9633PPT</a> </li>\u000a<li><a href="/shejishi/zhiweisheji/" title="\u53ea\u4e3a\u8bbe\u8ba1PPT\u6a21\u677f" target="_blank">\u53ea\u4e3a\u8bbe\u8ba1</a> </li>\u000a<li><a href="/shejishi/Bobbie/" title="BobbiePPT\u6a21\u677f" target="_blank">Bobbie</a> </li>\u000a<li><a href="/shejishi/Simon/" title="Simon \u963f\u6587PPT\u6a21\u677f" target="_blank">Simon \u963f\u6587</a> </li>\u000a<li><a href="/shejishi/caojiang/" title="\u66f9\u5c06PPTaoPPT\u6a21\u677f" target="_blank">\u66f9\u5c06PPTao</a> </li>\u000a<li><a href="/shejishi/cainiaoppt/" title="\u83dc\u9e1fPPTPPT\u6a21\u677f" target="_blank">\u83dc\u9e1fPPT</a> </li>\u000a<li><a href="/shejishi/yanshizhijia/" title="\u6f14\u793a\u4e4b\u5bb6\u5de5\u4f5c\u5ba4\u4f5c\u54c1PPT\u6a21\u677f" target="_blank">\u6f14\u793a\u4e4b\u5bb6\u5de5\u4f5c\u5ba4\u4f5c\u54c1</a> </li>\u000a<li><a href="/shejishi/xueyuanPPT/" title="\u96ea\u539fPPTPPT\u6a21\u677f" target="_blank">\u96ea\u539fPPT</a> </li>\u000a<li><a href="/shejishi/jiawenqian/" title="\u5609\u6587\u94b1PPT\u6a21\u677f" target="_blank">\u5609\u6587\u94b1</a> </li>\u000a<li><a href="/shejishi/shuimo/" title="\u6c34\u84e6\u4f5c\u54c1PPT\u6a21\u677f" target="_blank">\u6c34\u84e6\u4f5c\u54c1</a> </li>\u000a<li><a href="/shejishi/huisedefeng/" title="\u7070\u8272\u7684\u98cePPT\u6a21\u677f" target="_blank">\u7070\u8272\u7684\u98ce</a> </li>\u000a<li><a href="/shejishi/Hi_wenping/" title="@Hi_wenpingPPT\u6a21\u677f" target="_blank">@Hi_wenping</a> </li>\u000a<li><a href="/shejishi/huxiaoxiaoxiaoxiaoyang/" title="\u80e1\u5c0f\u5c0f\u5c0f\u5c0f\u6837PPT\u6a21\u677f" target="_blank">\u80e1\u5c0f\u5c0f\u5c0f\u5c0f\u6837</a> </li>\u000a<li><a href="/shejishi/feizhaiV/" title="\u80a5\u5b85V PPT\u6a21\u677f" target="_blank">\u80a5\u5b85V </a> </li>\u000a<li><a href="/shejishi/YOYO/" title="YOYO\u4f5c\u54c1PPT\u6a21\u677f" target="_blank">YOYO\u4f5c\u54c1</a> </li>\u000a<li><a href="/shejishi/heimaPPT/" title="\u9ed1\u9a6cPPTPPT\u6a21\u677f" target="_blank">\u9ed1\u9a6cPPT</a> </li>\u000a<li><a href="/shejishi/miaoshouhuichun ppt/" title="\u5999\u624b\u56de\u6625PPTPPT\u6a21\u677f" target="_blank">\u5999\u624b\u56de\u6625PPT</a> </li>\u000a<li><a href="/shejishi/lanmeng/" title="\u84dd\u68a6PPTPPT\u6a21\u677f" target="_blank">\u84dd\u68a6PPT</a> </li>\u000a<li><a href="/shejishi/Sylvia/" title="Sylvia\u4f5c\u54c1PPT\u6a21\u677f" target="_blank">Sylvia\u4f5c\u54c1</a> </li>\u000a<li><a href="/shejishi/chenhuachuangyi/" title="\u9648\u534e\u521b\u610fPPT\u6a21\u677f" target="_blank">\u9648\u534e\u521b\u610f</a> </li>\u000a<li><a href="/shejishi/damengPPT/" title="\u5927\u68a6PowerPPT\u6a21\u677f" target="_blank">\u5927\u68a6Power</a> </li>\u000a<li><a href="/shejishi/cunzhang/" title="\u6751\u957f\u4f5c\u54c1PPT\u6a21\u677f" target="_blank">\u6751\u957f\u4f5c\u54c1</a> </li>\u000a<li><a href="/shejishi/caiwuxiaoshengHRZ/" title="\u8d22\u52a1\u5c0f\u751fHRZPPT\u6a21\u677f" target="_blank">\u8d22\u52a1\u5c0f\u751fHRZ</a> </li>\u000a<li><a href="/shejishi/yinguoPPT/" title="\u56e0\u679cPPTPPT\u6a21\u677f" target="_blank">\u56e0\u679cPPT</a> </li>\u000a<li><a href="/shejishi/yeluo/" title="\u53f6\u843d\u4f5c\u54c1PPT\u6a21\u677f" target="_blank">\u53f6\u843d\u4f5c\u54c1</a> </li>\u000a<li><a href="/shejishi/banruoheidong/" title="\u822c\u82e5\u9ed1\u6d1ePPT\u6a21\u677f" target="_blank">\u822c\u82e5\u9ed1\u6d1e</a> </li>\u000a<li><a href="/shejishi/dishixingxing/" title="\u7b2c\u5341\u884c\u661fPPT\u6a21\u677f" target="_blank">\u7b2c\u5341\u884c\u661f</a> </li>\u000a<li><a href="/shejishi/guanhaiPPT/" title="\u89c2\u6d77PPTPPT\u6a21\u677f" target="_blank">\u89c2\u6d77PPT</a> </li>\u000a</ul></div></div>\u000a<div class="mbzt"><div class="mbzt_l">\u4e13\u5c5e\u4f5c\u54c1&nbsp;></div><div class="mbzt_r"><ul> <li><a href="/zt/yuanchuang/" title="51PPT\u6a21\u677f\u7f51\u539f\u521bPPT\u6a21\u677f PPT\u6a21\u677f" target="_blank">51PPT\u6a21\u677f\u7f51\u539f\u521bPPT\u6a21\u677f </a> </li>\u000a<li><a href="/zt/qitazuopin/" title="\u5176\u4ed6\u63d0\u4f9b\u5546\u514d\u8d39PPT\u4f5c\u54c1PPT\u6a21\u677f" target="_blank">\u5176\u4ed6\u63d0\u4f9b\u5546\u514d\u8d39PPT\u4f5c\u54c1</a> </li>\u000a<li><a href="/zt/ruipu/" title="\u9510\u666ePPTPPT\u6a21\u677f" target="_blank">\u9510\u666ePPT</a> </li>\u000a<li><a href="/zt/buyigongzi/" title="\u5e03\u8863\u516c\u5b50PPT\u6a21\u677f" target="_blank">\u5e03\u8863\u516c\u5b50</a> </li>\u000a<li><a href="/zt/weiruanPPTmoban/" title="\u5fae\u8f6f\u5b98\u65b9PPT\u6a21\u677fPPT\u6a21\u677f" target="_blank">\u5fae\u8f6f\u5b98\u65b9PPT\u6a21\u677f</a> </li>\u000a<li><a href="/zt/OfficePLUS/" title="\u5fae\u8f6fOfficePLUSPPT\u6a21\u677f" target="_blank">\u5fae\u8f6fOfficePLUS</a> </li>\u000a<li><a href="/zt/ThemeGallery/" title="ThemeGalleryPPT\u6a21\u677f" target="_blank">ThemeGallery</a> </li>\u000a<li><a href="/zt/Smiletemplates/" title="SmiletemplatesPPT\u6a21\u677f" target="_blank">Smiletemplates</a> </li>\u000a<li><a href="/zt/wps/" title="WPSPPT\u6a21\u677f" target="_blank">WPS</a> </li>\u000a<li><a href="/zt/PPTKOREA/" title="PPTKOREAPPT\u6a21\u677f" target="_blank">PPTKOREA</a> </li>\u000a<li><a href="/zt/PresentationLoad/" title="PresentationLoadPPT\u6a21\u677f" target="_blank">PresentationLoad</a> </li>\u000a<li><a href="/zt/slideworld/" title="SlideworldPPT\u6a21\u677f" target="_blank">Slideworld</a> </li>\u000a<li><a href="/zt/Soap/" title="SoapPPT\u6a21\u677f" target="_blank">Soap</a> </li>\u000a<li><a href="/zt/Slide shop/" title="Slide shopPPT\u6a21\u677f" target="_blank">Slide shop</a> </li>\u000a<li><a href="/zt/Nordri Design/" title="Nordri DesignPPT\u6a21\u677f" target="_blank">Nordri Design</a> </li>\u000a<li><a href="/zt/Hi-hoo/" title="Hi-hoo PPT PPT\u6a21\u677f" target="_blank">Hi-hoo PPT </a> </li>\u000a<li><a href="/zt/ruide/" title="\u9510\u5f97PPT PPT\u6a21\u677f" target="_blank">\u9510\u5f97PPT </a> </li>\u000a<li><a href="/zt/BIZPPT/" title="BIZPPT PPT\u6a21\u677f" target="_blank">BIZPPT </a> </li>\u000a<li><a href="/zt/Showeet/" title="ShoweetPPT\u6a21\u677f" target="_blank">Showeet</a> </li>\u000a<li><a href="/zt/VitaminD/" title="VitaminDPPT\u6a21\u677f" target="_blank">VitaminD</a> </li>\u000a<li><a href="/zt/IdeaPPT/" title="IdeaPPT PPT\u6a21\u677f" target="_blank">IdeaPPT </a> </li>\u000a<li><a href="/zt/iloveppt/" title="ilovepptPPT\u6a21\u677f" target="_blank">iloveppt</a> </li>\u000a<li><a href="/zt/Charteo/" title="CharteoPPT\u6a21\u677f" target="_blank">Charteo</a> </li>\u000a<li><a href="/zt/sixiangPPT/" title="\u601d\u7fd4PPTPPT\u6a21\u677f" target="_blank">\u601d\u7fd4PPT</a> </li>\u000a<li><a href="/zt/xiakuPPT/" title="\u590f\u9177PPTPPT\u6a21\u677f" target="_blank">\u590f\u9177PPT</a> </li>\u000a</ul></div></div>\u000a</div>\u000a<div class="footer">\u000a<div class="footer_t">\u4e0b\u8f7d\u8bf4\u660e\uff1a\u672c\u7ad9\u6240\u6d89\u53ca\u63d0\u4f9b\u7684PPT\u6a21\u677f\u3001PPT\u56fe\u7247\u3001PPT\u56fe\u8868\u7b49PPT\u7d20\u6750\u5927\u591a\u6765\u81eaPPT\u8bbe\u8ba1\u5927\u5e08\uff08PPT\u539f\u521b\u4f5c\u8005\u4e2a\u4eba\uff09\u6388\u6743\u53d1\u5e03\u4f5c\u54c1\u3001PPT\u8bbe\u8ba1\u516c\u53f8\u514d\u8d39\u4f5c\u54c1\u3001\u4e92\u8054\u7f51\u514d\u8d39\u5171\u4eab\u8d44\u6e90\u7cbe\u9009\u4ee5\u53ca\u90e8\u5206\u539f\u521b\u4f5c\u54c1\uff0c\u5206\u4eab\u7ed9PPT\u7231\u597d\u8005\u4ea4\u6d41\u5b66\u4e60\u4f7f\u7528\uff0c\u8bf7\u52ff\u8fdb\u884c\u5546\u4e1a\u7528\u9014\u3002\u5982\u679c\u672c\u7ad9\u63d0\u4f9b\u7684PPT\u4f5c\u54c1\u6709\u4efb\u4f55\u4fb5\u6743\u884c\u4e3a\uff0c\u8bf7\u544a\u77e5\u6211\u4eec\uff08QQ:1145004 <img src="/images/email.gif"/>\uff09\u5c06\u7acb\u5373\u5220\u9664\u3002\u000a</div>\u000a<div class="footer_d">\u000a<dl>\u000a<dt><a href="/">51PPT\u6a21\u677f\u9996\u9875</a> | <a href="#">\u8054\u7cfb\u6211\u4eec</a> | <a href="/e/tool/gbook/?bid=1">\u7559\u8a00\u5efa\u8bae</a> | <a href="/map.html">\u7f51\u7ad9\u5730\u56fe</a> | <a href="/shenming.html">\u4e0b\u8f7d\u58f0\u660e</a> | <a href="#">\u8fd4\u56de\u9876\u90e8</a></dt>\u000a<dd>\u7248\u6743\u6240\u6709: 51PPT\u6a21\u677f\u7f51 &nbsp;\u672a\u7ecf\u8bb8\u53ef\u7981\u6b62\u590d\u5236\u955c\u50cf&nbsp; <a href="http://www.miibeian.gov.cn/" target="_blank">\u9655ICP\u590705013981\u53f7 </a>&nbsp; <script>ppt("tj");</script></dd>\u000a</dl>\u000a<div class="beian"><a target="_blank" href="http://www.beian.gov.cn/portal/registerSystemInfo?recordcode=61072602000105"><img src="/images/beian.png" style="float:left;"/><p>\u9655\u516c\u7f51\u5b89\u5907 61072602000105\u53f7</p></a></div>\u000a</div>\u000a</div>\u000a<div class="scroll" id="scroll" style="display:none;"></div>\u000a<script src="/js/jquery-1.10.1.min.js"></script>\u000a<script src="/js/top.js" type="text/javascript"></script>\u000a<script src='/e/public/onclick/?enews=doclass&classid=14'></script>\u000a<script>ppt("share");</script>\u000a</body>\u000a</html>
p3
a.