(lp0
S'http://codility.com/'
p1
aS'Automated tests of programming skills. Assessment of software developers. Recruitment software. Codility'
p2
aI0
aV<!DOCTYPE html>\u000a<html class="">\u000a  <head>\u000a  \u000a  \u000a    <meta charset="utf-8">\u000a    <meta http-equiv="content-type" content="text/html; charset=utf-8">\u000a    <meta http-equiv="content-language" content="en-gb">\u000a    <meta http-equiv="X-UA-Compatible" content="IE=edge">\u000a\u000a    \u000a      <title>\u000a        \u000a          Codility \u2013 Industry Leading Tech Recruiting Platform\u000a        \u000a      </title>\u000a    \u000a\u000a    \u000a  \u000a  <meta name="viewport" content="width=device-width, initial-scale=1">\u000a  <meta property="og:image" content="https://codility.com/static/img/avatar.png">\u000a  <meta property="og:site_name" content="Codility">\u000a  <meta property="og:type" content="website">\u000a  <meta property="twitter:card" content="summary">\u000a  <meta property="twitter:site" content="@codility">\u000a\u000a  <meta name="description" content="Codility streamlines and accelerates tech recruiting. Codility automates sourcing, screening and interviewing, reducing recruiting costs and improving hiring results.">\u000a\u000a  <meta property="og:title" content="Source, Assess, Interview and Hire top Programmers with Codility">\u000a  <meta property="og:description" content="Codility streamlines and accelerates tech recruiting. Codility automates sourcing, screening and interviewing, reducing recruiting costs and improving hiring results.">\u000a  <meta property="og:url" content="https://codility.com">\u000a  <meta property="twitter:url" content="https://codility.com">\u000a  <meta property="twitter:title" content="Source, Assess, Interview and Hire top Programmers with Codility">\u000a  <meta property="twitter:description" content="Codility streamlines and accelerates tech recruiting. Codility automates sourcing, screening and interviewing, reducing recruiting costs and improving hiring results.">\u000a\u000a\u000a    \u000a  <link rel="shortcut icon" href="/static/favicon.ico">\u000a\u000a\u000a\u000a    \u000a  <link rel="stylesheet" type="text/css" href="/static/font/vendor/fonts-outer.css?00261d0697866f4ea60ea0c642e46bd7ddb01335">\u000a  <link rel="stylesheet" type="text/css" href="/static/vendor/semantic-outer/semantic.min.css?00261d0697866f4ea60ea0c642e46bd7ddb01335">\u000a  <link rel="stylesheet" type="text/css" href="/static/font/vendor/fonts-icons.css?00261d0697866f4ea60ea0c642e46bd7ddb01335">\u000a  <link rel="stylesheet" type="text/css" href="/static/css/material-icons.css?00261d0697866f4ea60ea0c642e46bd7ddb01335">\u000a  <link rel="stylesheet" type="text/css" href="/static/css/torchlight.auto.css?00261d0697866f4ea60ea0c642e46bd7ddb01335">\u000a\u000a\u000a    \u000a\u000a\u000a\u000a\u000a    \u000a      <script type="application/json" id="data-bag-settings">{"DEBUG": false, "SUPPORT": "support@codility.com", "TESTING": false, "STATIC_URL": "/static/"}</script>\u000a    \u000a\u000a    \u000a  <script src="/static/vendor/jquery/jquery-3.0.0.min.js"></script>\u000a  <script src="/static/vendor/semantic-outer/semantic.min.js"></script>\u000a  <script type="application/json" id="data-bag-outer_urls">[{"url_template": "/terms-of-service-for-companies/", "params": [], "name": "terms_of_service_for_companies"}, {"url_template": "/privacy-policy/", "params": [], "name": "privacy_policy"}, {"url_template": "/login/", "params": [], "name": "login"}, {"url_template": "/demo/take-sample-test/", "params": [], "name": "demo_intro"}, {"url_template": "/programmers/login/", "params": [], "name": "programmers_login"}, {"url_template": "/programmers/", "params": [], "name": "programmers_home"}, {"url_template": "/trial/", "params": [], "name": "free_trial"}, {"url_template": "/trial_ajax/", "params": [], "name": "free_trial_ajax"}, {"url_template": "/pricing/", "params": [], "name": "pricing"}, {"url_template": "/pricing/contact/", "params": [], "name": "pricing-contact"}, {"url_template": "/confirm/", "params": [], "name": "confirm_data"}, {"url_template": "/pricing/_contact/", "params": [], "name": "ajax_pricing_contact"}, {"url_template": "/programmers/lessons/", "params": [], "name": "lessons_index"}, {"url_template": "/programmers/", "params": [], "name": "programmers_home"}, {"url_template": "/programmers/challenges/", "params": [], "name": "challenges_index"}, {"url_template": "/confirm_ajax/", "params": [], "name": "confirm_ajax"}, {"url_template": "/social/login/{backend}/", "params": ["backend"], "name": "social:begin"}, {"url_template": "/dashboards/", "params": [], "name": "dashboard"}, {"url_template": "/social/complete/{backend}/", "params": ["backend"], "name": "social:complete"}]</script>\u000a  <script type="application/json" id="data-bag-external_urls">[{"url_template": "https://www.facebook.com/Codility/", "params": [], "name": "facebook_profile"}, {"url_template": "https://codility24.zendesk.com/hc/en-us/articles/203518982-I-use-Greenhouse-How-can-I-integrate-Codility-", "params": [], "name": "help_center_greenhouse"}, {"url_template": "https://twitter.com/Codility", "params": [], "name": "twitter_profile"}, {"url_template": "https://github.com/Codility/", "params": [], "name": "github_profile"}, {"url_template": "https://codility24.zendesk.com/hc/en-us/articles/205300722-Do-you-use-Jobvite-Integrate-with-Codility-", "params": [], "name": "help_center_jobvite"}, {"url_template": "https://vimeo.com/39707925", "params": [], "name": "how_we_hire"}, {"url_template": "https://codility24.zendesk.com", "params": [], "name": "help_center"}, {"url_template": "https://codility24.zendesk.com/hc/en-us/articles/205487412-New-Integration-has-come-live-Use-Codility-via-SmartRecruiters", "params": [], "name": "help_center_smartrecruiters"}, {"url_template": "https://blog.codility.com", "params": [], "name": "blog"}, {"url_template": "https://codility24.zendesk.com/hc/en-us/articles/202626271-Video-Creating-a-Codility-test", "params": [], "name": "help_center_create_test"}, {"url_template": "https://www.linkedin.com/company/codility", "params": [], "name": "linkedin_profile"}, {"url_template": "https://codility24.zendesk.com/hc/en-us/articles/204090732-How-to-get-more-candidates-completing-your-tests", "params": [], "name": "help_center_more_candidates"}]</script>\u000a  <script src="/static/js/vendor.auto.js?00261d0697866f4ea60ea0c642e46bd7ddb01335"></script>\u000a  <script src="/static/js/torchlight.auto.js?00261d0697866f4ea60ea0c642e46bd7ddb01335"></script>\u000a\u000a\u000a    \u000a\u000a\u000a    \u000a  \u000a  <script src="https://load.sumome.com/" data-sumo-site-id="7a21efbda1f7adae43bba39a68e91c23dcc096a5775ca98cae439f6653a0207a" async="async"></script>\u000a\u000a\u000a\u000a\u000a  <script>\u000awindow.intercomSettings = {"app_id": "i70y2q1e"};\u000a</script>\u000a\u000a  <script>(function(){var w=window;var ic=w.Intercom;if(typeof ic==="function"){ic('reattach_activator');ic('update',intercomSettings);}else{var d=document;var i=function(){i.c(arguments)};i.q=[];i.c=function(args){i.q.push(args)};w.Intercom=i;function l(){var s=d.createElement('script');s.type='text/javascript';s.async=true;s.src='https://widget.intercom.io/widget/i70y2q1e';var x=d.getElementsByTagName('script')[0];x.parentNode.insertBefore(s,x);}if(w.attachEvent){w.attachEvent('onload',l);}else{w.addEventListener('load',l,false);}}})()</script>\u000a\u000a\u000a\u000a<!-- Google Analytics -->\u000a<script>\u000a  (function(i,s,o,g,r,a,m){i['GoogleAnalyticsObject']=r;i[r]=i[r]||function(){\u000a      (i[r].q=i[r].q||[]).push(arguments)},i[r].l=1*new Date();a=s.createElement(o),\u000a    m=s.getElementsByTagName(o)[0];a.async=1;a.src=g;m.parentNode.insertBefore(a,m)\u000a  })(window,document,'script','//www.google-analytics.com/analytics.js','ga');\u000a\u000a  ga('create', 'UA-10522543-1', 'auto');\u000a  // \u000a  \u000a  ga('send', 'pageview');\u000a\u000a</script>\u000a<!-- End Google Analytics -->\u000a\u000a\u000a\u000a<!-- Optimizely -->\u000a  <script src="//cdn.optimizely.com/js/3340180682.js"></script>\u000a<!-- End Optimizely -->\u000a\u000a\u000a\u000a  <script>\u000a    adroll_adv_id = "TWWN4SOREBDJFD34AOTGGI";\u000a    adroll_pix_id = "DNJHG72SLJDP5HFSNQB4P7";\u000a    (function () {\u000a      var oldonload = window.onload;\u000a      window.onload = function () {\u000a        __adroll_loaded = true;\u000a        var scr = document.createElement("script");\u000a        var host = (("https:" == document.location.protocol) ? "https://s.adroll.com" : "http://a.adroll.com");\u000a        scr.setAttribute('async', 'true');\u000a        scr.type = "text/javascript";\u000a        scr.src = host + "/j/roundtrip.js";\u000a        ((document.getElementsByTagName('head') || [null])[0] ||\u000a        document.getElementsByTagName('script')[0].parentNode).appendChild(scr);\u000a        if (oldonload) {\u000a          oldonload()\u000a        }\u000a      };\u000a    }());\u000a  </script>\u000a\u000a<script>\u000a  function adroll_record_user(options) {\u000a    // allow some time for the Adroll script to load\u000a    setTimeout(function () {\u000a      // since we're in a timeout handler, no need to handle the error explicitly\u000a      // - it will reach Sentry anyway\u000a      if (window.__adroll)\u000a        __adroll.record_user(options);\u000a    }, 500);\u000a  }\u000a</script>\u000a\u000a\u000a\u000a<!-- Start of Async HubSpot Analytics Code -->\u000a  <script type="text/javascript">\u000a    (function(d,s,i,r) {\u000a      if (d.getElementById(i)){return;}\u000a      var n=d.createElement(s),e=d.getElementsByTagName(s)[0];\u000a      n.id=i;n.src='//js.hs-analytics.net/analytics/'+(Math.ceil(new Date()/r)*r)+'/2502692.js';\u000a      e.parentNode.insertBefore(n, e);\u000a    })(document,"script","hs-analytics",300000);\u000a  </script>\u000a<!-- End of Async HubSpot Analytics Code -->\u000a\u000a\u000a\u000a\u000a  \u000a    \u000a  <script>\u000a      (function(h,o,t,j,a,r){\u000a          h.hj=h.hj||function(){(h.hj.q=h.hj.q||[]).push(arguments)};\u000a          h._hjSettings={hjid:209174,hjsv:5};\u000a          a=o.getElementsByTagName('head')[0];\u000a          r=o.createElement('script');r.async=1;\u000a          r.src=t+h._hjSettings.hjid+j+h._hjSettings.hjsv;\u000a          a.appendChild(r);\u000a      })(window,document,'//static.hotjar.com/c/hotjar-','.js?sv=');\u000a  </script>\u000a\u000a\u000a  \u000a\u000a\u000a    \u000a    \u000a    \u000a    \u000a    \u000a  </head>\u000a  <!-- lang: -->\u000a\u000a  <body class="body  ">\u000a    \u000a\u000a    <input type='hidden' name='csrfmiddlewaretoken' value='65csrOVCYDlyV9TsYdr9HooZFVxVAyQW' />\u000a\u000a    \u000a  \u000a<!-- Google Tag Manager -->\u000a<noscript>\u000a  <iframe src="//www.googletagmanager.com/ns.html?id=GTM-MRS6R7"\u000a          height="0"\u000a          width="0"\u000a          style="display:none;visibility:hidden"></iframe>\u000a</noscript>\u000a<script>(function(w,d,s,l,i){w[l]=w[l]||[];w[l].push({'gtm.start':\u000anew Date().getTime(),event:'gtm.js'});var f=d.getElementsByTagName(s)[0],\u000aj=d.createElement(s),dl=l!='dataLayer'?'&l='+l:'';j.async=true;j.src=\u000a'//www.googletagmanager.com/gtm.js?id='+i+dl;f.parentNode.insertBefore(j,f);\u000a})(window,document,'script','dataLayer','GTM-MRS6R7');</script>\u000a<!-- End Google Tag Manager -->\u000a\u000a\u000a\u000a  <!-- Facebook Pixel Code -->\u000a  <script>\u000a    !function(f,b,e,v,n,t,s){if(f.fbq)return;n=f.fbq=function(){n.callMethod?\u000a    n.callMethod.apply(n,arguments):n.queue.push(arguments)};if(!f._fbq)f._fbq=n;\u000a    n.push=n;n.loaded=!0;n.version='2.0';n.queue=[];t=b.createElement(e);t.async=!0;\u000a    t.src=v;s=b.getElementsByTagName(e)[0];s.parentNode.insertBefore(t,s)}(window,\u000a    document,'script','https://connect.facebook.net/en_US/fbevents.js');\u000a\u000a    fbq('init', '1622586274737919');\u000a    fbq('track', "PageView");\u000a  </script>\u000a  <noscript>\u000a    <img height="1" width="1" style="display:none"\u000a    src="https://www.facebook.com/tr?id=1622586274737919&ev=PageView&noscript=1"\u000a    />\u000a  </noscript>\u000a  <!-- End Facebook Pixel Code -->\u000a\u000a\u000a\u000a\u000a\u000a\u000a    \u000a  \u000a  \u000a    <div class="ui right vertical sidebar menu js-hamburger-menu c-mobile-sidebar-menu">\u000a      <a class="item" href="/">Home</a>\u000a      <div class="item">\u000a        Features:\u000a        <div class="menu c-mobile-sidebar-submenu">\u000a          <a class="item mod-source" href="/sourcing/"><i class="world icon"></i>Source</a>\u000a          <a class="item mod-assess" href="/assess/"><i class="report icon"></i>Assess</a>\u000a          <a class="item mod-interview" href="/interview/"><i class="chat icon"></i>Interview</a>\u000a        </div>\u000a      </div>\u000a      <a class="item" href="/pricing/">Pricing</a>\u000a      \u000a        <a class="item" href="/login/">Login</a>\u000a        <div class="item">\u000a          <a class="ui basic compact inverted button js-start-free-trial" href="/trial/">Start Free Trial</a>\u000a        </div>\u000a      \u000a    </div>\u000a  \u000a\u000a  <div class="pusher">\u000a    \u000a      <div id="cookies">\u000a        <span>\u000a          By using our site you are agreeing that we can use cookies in accordance\u000a          with&nbsp;our&nbsp;<a href="/cookie-policy/" target="_blank">Cookie&nbsp;Policy</a>.\u000a        </span>\u000a        <button class="ui basic inverted mini button mod-hover" id="hide_cookies">Got it</button>\u000a      </div>\u000a    \u000a\u000a    \u000a  \u000a\u000a\u000a    \u000a  <section class="c-torchlight-top mod-landing">\u000a    \u000a\u000a\u000a<div class="c-header-bar ">\u000a  \u000a    <div class="ui fluid basic popup js-solutions-popup c-solutions-popup">\u000a      <div class="c-navbar-placeholder"></div>\u000a      <div class="ui center aligned container c-solutions-popup-container">\u000a        <div class="ui very relaxed equal height grid ">\u000a  <div class="c-solutions-nav-column \u000a              twelve wide mobile twelve wide tablet four wide computer column">\u000a    <div class="c-solutions-nav-box mod-source">\u000a      <h3>\u000a        <span class="c-underlined-header mod-source mod-left-pad mod-right-pad">\u000a          Source\u000a        </span>\u000a      </h3>\u000a      <h5>\u000a        Increase your visibility<br class="mobile visible tablet visible">\u000a        and expand your talent&nbsp;pool\u000a      </h5>\u000a      <div class="c-solutions-nav-box-button">\u000a        <a class="ui button teal" href="/sourcing/">\u000a          Learn more\u000a        </a>\u000a      </div>\u000a    </div>\u000a  </div>\u000a  <div class="c-solutions-nav-column \u000a              twelve wide mobile twelve wide tablet four wide computer column">\u000a    <div class="c-solutions-nav-box mod-assess">\u000a      <h3>\u000a        <span class="c-underlined-header mod-assess mod-left-pad mod-right-pad">\u000a          Assess\u000a        </span>\u000a      </h3>\u000a      <h5>\u000a        Create tests using our wealth<br class="mobile visible tablet visible">\u000a        of available tasks, or create your&nbsp;own\u000a      </h5>\u000a      <div class="c-solutions-nav-box-button">\u000a        <a class="ui button blue" href="/assess/">\u000a          Learn more\u000a        </a>\u000a      </div>\u000a    </div>\u000a  </div>\u000a  <div class="c-solutions-nav-column \u000a              twelve wide mobile twelve wide tablet four wide computer column">\u000a    <div class="c-solutions-nav-box mod-interview">\u000a      <h3>\u000a        <span class="c-underlined-header mod-interview mod-left-pad mod-right-pad">\u000a          Interview\u000a        </span>\u000a      </h3>\u000a      <h5>\u000a        Connect with candidates<br class="mobile visible tablet visible">\u000a        and watch them code wherever you&nbsp;are\u000a      </h5>\u000a      <div class="c-solutions-nav-box-button">\u000a        <a class="ui button purple" href="/interview/">\u000a          Learn more\u000a        </a>\u000a      </div>\u000a    </div>\u000a  </div>\u000a</div>\u000a\u000a      </div>\u000a    </div>\u000a  \u000a  <div class="left floated column">\u000a    <a href="/" class="c-header-bar-codility-logo">\u000a      <i class="icon codility_logo" title="Codility"></i>\u000a    </a>\u000a  </div>\u000a  \u000a    <div class="c-nav-bar computer visible ui secondary menu">\u000a      <a class="ui basic button mod-header-bar-secondary  item js-solutions-menu mod-hover">\u000a        Features\u000a        <i class="large dropdown icon js-solutions-dropdown-icon"></i>\u000a      </a>\u000a      <a class="ui basic button mod-header-bar-secondary item mod-hover" href="/pricing/">Pricing</a>\u000a      \u000a        <a class="ui basic button mod-header-bar-secondary item mod-hover js-login-link" href="/login/">Login</a>\u000a        <a class="ui basic button mod-header-bar-primary item mod-hover js-start-free-trial" href="/trial/">Start Free Trial</a>\u000a      \u000a    </div>\u000a    <div class="c-nav-bar-mobile mobile visible tablet visible">\u000a      <i class="menu icon mod-hamburger js-hamburger"></i>\u000a    </div>\u000a  \u000a</div>\u000a\u000a    <div class="ui center aligned container">\u000a      <div>\u000a        <h1 class="c-top-header mod-white mod-shadow">\u000a          Hire stronger<br/>\u000a          <span class="c-animated-headline" data-random-element>\u000a            <span\u000a              class="js-animated-headline"\u000a              data-strings="[&quot;Coders&quot;, &quot;Engineers&quot;, &quot;Developers&quot;, &quot;Programmers&quot;, &quot;Front End Devs&quot;]"\u000a            >Coders</span><span\u000a              class="js-animated-headline-cursor"\u000a              style="opacity: 0"\u000a            >|</span>\u000a          </span>, faster.\u000a        </h1>\u000a        <div class="c-call-to-action-section">\u000a          <a href="/trial/" class="ui primary button mod-call-to-action mod-mobile-fluid js-start-free-trial">\u000a            Start Recruiting\u000a          </a>\u000a        </div>\u000a        <h5>\u000a          <a href="/programmers/" class="c-programmers-home-link">\u000a            Prepare for the test, try Lessons and Challenges\u000a          </a>\u000a        </h5>\u000a      </div>\u000a    </div>\u000a    <div class="c-usecases-images">\u000a      <div class="c-usecases-image"\u000a           style="background-image: url('/static/img/landing/solutions_source.png')"\u000a           data-id="source"></div>\u000a      <div class="c-usecases-image"\u000a           style="background-image: url('/static/img/landing/solutions_interview.png')"\u000a           data-id="interview"></div>\u000a      <div class="c-usecases-image mod-active"\u000a           style="background-image: url('/static/img/landing/solutions_assess.png')"\u000a           data-id="assess"></div>\u000a    </div>\u000a  </section>\u000a\u000a  <div class="c-usecases-images-spacer"></div>\u000a\u000a  <section class="c-padded-section mod-extra-bottom-padding mod-tablet-small-padding">\u000a    <div class="ui stackable three column center aligned equal height grid container">\u000a      <div class="column">\u000a        <a class="c-usecases-box mod-source" data-id="source" href="/sourcing/">\u000a          <h2 class="c-usecases-box-header">Source</h2>\u000a          <h5 class="c-usecases-box-text">\u000a            <span class="c-usecases-box-text-base">\u000a              Increase your visibility <br class="mobile visible"/> and expand your talent pool\u000a            </span>\u000a            <span class="c-usecases-box-text-alternative">\u000a              Create engaging, innovative challenges to attract top talent\u000a            </span>\u000a          </h5>\u000a          <h5 class="c-usecases-box-more">Learn More</h5>\u000a        </a>\u000a      </div>\u000a      <div class="column">\u000a        <a class="c-usecases-box mod-assess mod-active" data-id="assess" href="/assess/">\u000a          <h2 class="c-usecases-box-header">Assess</h2>\u000a          <h5 class="c-usecases-box-text">\u000a            <span class="c-usecases-box-text-base">\u000a              Assess and rank tech candidates through objective programming tasks\u000a            </span>\u000a            <span class="c-usecases-box-text-alternative">\u000a              Create tests using our wealth of available tasks, or create your own\u000a            </span>\u000a          </h5>\u000a          <h5 class="c-usecases-box-more">Learn More</h5>\u000a        </a>\u000a      </div>\u000a      <div class="column">\u000a        <a class="c-usecases-box mod-interview" data-id="interview" href="/interview/">\u000a          <h2 class="c-usecases-box-header">Interview</h2>\u000a          <h5 class="c-usecases-box-text">\u000a            <span class="c-usecases-box-text-base">\u000a              Connect with candidates and watch them code wherever you&nbsp;are\u000a            </span>\u000a            <span class="c-usecases-box-text-alternative">\u000a              Expand phone interviews into collaborative, insightful conversations\u000a            </span>\u000a          </h5>\u000a          <h5 class="c-usecases-box-more">Learn More</h5>\u000a        </a>\u000a      </div>\u000a    </div>\u000a  </section>\u000a\u000a  <section class="c-padded-section mod-landing">\u000a    <div class="ui center aligned container">\u000a      <h3 class="c-section-title">Supercharge Your Tech&nbsp;Recruiting&nbsp;Cycle</h3>\u000a      <div class="ui relaxed grid">\u000a        <div class="twelve wide mobile six wide tablet three wide computer column">\u000a          <div class="c-feature-box">\u000a            <img\u000a              class="c-feature-image ui centered circular image"\u000a              src="/static/img/landing/img_plugin@2x.png"\u000a              alt="Codility ATS integration"\u000a              title="Codility ATS integration"\u000a            >\u000a            <h3>Plug-in</h3>\u000a            <h5>Integrate with your ATS</h5>\u000a          </div>\u000a        </div>\u000a        <div class="twelve wide mobile six wide tablet three wide computer column">\u000a          <div class="c-feature-box">\u000a            <img\u000a              class="c-feature-image ui centered circular image"\u000a              src="/static/img/landing/img_setup@2x.png"\u000a              alt="Easy programmers test setup"\u000a              title="Easy programmers test setup"\u000a            >\u000a            <h3>Set up</h3>\u000a            <h5>Create tests in minutes</h5>\u000a          </div>\u000a        </div>\u000a        <div class="twelve wide mobile six wide tablet three wide computer column">\u000a          <div class="c-feature-box">\u000a            <img\u000a              class="c-feature-image ui centered circular image"\u000a              src="/static/img/landing/img_rank@2x.png"\u000a              alt="Benchmark your Candidate with Codility"\u000a              title="Benchmark your Candidate with Codility"\u000a            >\u000a            <h3>Rank</h3>\u000a            <h5>Benchmark your candidates</h5>\u000a          </div>\u000a        </div>\u000a        <div class="twelve wide mobile six wide tablet three wide computer column">\u000a          <div class="c-feature-box">\u000a            <img\u000a              class="c-feature-image ui centered circular image"\u000a              src="/static/img/landing/img_relyon@2x.png"\u000a              alt="Detect cheating candidates with Codility"\u000a              title="Detect cheating candidates with Codility"\u000a            >\u000a            <h3>Rely on</h3>\u000a            <h5>Strongest plagiarism detection</h5>\u000a          </div>\u000a        </div>\u000a      </div>\u000a    </div>\u000a  </section>\u000a\u000a  <section class="c-customers">\u000a    <div class="ui center aligned container">\u000a  <h4 class="c-section-title">\u000a    We've helped clients around <br class="mobile visible"/> the world hire stronger <br class="mobile visible"/> programmers faster\u000a    \u000a  </h4>\u000a  <div class="ui grid" data-random-element>\u000a    \u000a      \u000a        <div class="four wide mobile three wide tablet two wide computer column">\u000a          <img class="ui centered image" src="/static/img/customers-landing/l_checkpoint.png" alt="">\u000a        </div>\u000a      \u000a    \u000a      \u000a        <div class="four wide mobile three wide tablet two wide computer column">\u000a          <img class="ui centered image" src="/static/img/customers-landing/l_symantec.png" alt="">\u000a        </div>\u000a      \u000a    \u000a      \u000a        <div class="four wide mobile three wide tablet two wide computer column">\u000a          <img class="ui centered image" src="/static/img/customers-landing/l_splunk.png" alt="">\u000a        </div>\u000a      \u000a    \u000a      \u000a        <div class="four wide mobile three wide tablet two wide computer column">\u000a          <img class="ui centered image" src="/static/img/customers-landing/l_rakuten.png" alt="">\u000a        </div>\u000a      \u000a    \u000a      \u000a        <div class="four wide mobile three wide tablet two wide computer column">\u000a          <img class="ui centered image" src="/static/img/customers-landing/l_indeed.png" alt="">\u000a        </div>\u000a      \u000a    \u000a      \u000a        <div class="four wide mobile three wide tablet two wide computer column">\u000a          <img class="ui centered image" src="/static/img/customers-landing/l_appannie.png" alt="">\u000a        </div>\u000a      \u000a    \u000a      \u000a        <div class="four wide mobile three wide tablet two wide computer column">\u000a          <img class="ui centered image" src="/static/img/customers-landing/l_wikia.png" alt="">\u000a        </div>\u000a      \u000a    \u000a      \u000a        <div class="four wide mobile three wide tablet two wide computer column">\u000a          <img class="ui centered image" src="/static/img/customers-landing/l_samsung.png" alt="">\u000a        </div>\u000a      \u000a    \u000a      \u000a        <div class="four wide mobile three wide tablet two wide computer column">\u000a          <img class="ui centered image" src="/static/img/customers-landing/l_amazon.png" alt="">\u000a        </div>\u000a      \u000a    \u000a      \u000a        <div class="four wide mobile three wide tablet two wide computer column">\u000a          <img class="ui centered image" src="/static/img/customers-landing/l_wargaming.png" alt="">\u000a        </div>\u000a      \u000a    \u000a      \u000a        <div class="four wide mobile three wide tablet two wide computer column">\u000a          <img class="ui centered image" src="/static/img/customers-landing/l_intel.png" alt="">\u000a        </div>\u000a      \u000a    \u000a      \u000a        <div class="four wide mobile three wide tablet two wide computer column">\u000a          <img class="ui centered image" src="/static/img/customers-landing/l_boa.png" alt="">\u000a        </div>\u000a      \u000a    \u000a      \u000a    \u000a      \u000a    \u000a      \u000a    \u000a  </div>\u000a</div>\u000a\u000a  </section>\u000a\u000a  <section class="c-torchlight-bottom mod-landing">\u000a    <div class="ui center aligned container">\u000a        <h4 class="mod-white">See how Codility can automate and enrich your tech recruiting today</h4>\u000a        <div class="ui hidden divider"></div>\u000a        <div class="ui center aligned grid">\u000a          <div class="twelve wide column">\u000a            <form class="ui form js-populate-modal-form">\u000a              <div class="fields">\u000a                <div class="four wide field">\u000a                  <input type="text" name="email" placeholder="your email" class="js-mail">\u000a                </div>\u000a                <div class="four wide field">\u000a                  <input type="password" name="password" placeholder="password" class="js-password">\u000a                </div>\u000a                <div class="four wide field">\u000a                  <button class="ui fluid primary button js-start-free-trial js-populate-modal">Start a free trial now!</button>\u000a                </div>\u000a              </div>\u000a            </form>\u000a          </div>\u000a        </div>\u000a    </div>\u000a  </section>\u000a\u000a  \u000a<section class="c-testmap js-testmap" data-url="/last_status/" data-random-element>\u000a  <div class="ui container">\u000a    <div class="c-testmap-layout">\u000a      <div class="c-testmap-container">\u000a        <div class="c-testmap-map js-map">\u000a          <canvas class="c-testmap-map-canvas js-canvas"></canvas>\u000a        </div>\u000a      </div>\u000a      <div class="c-testmap-aside">\u000a        <p>Just now, a new test session started in</p>\u000a        <h3 class="c-testmap-aside-header js-place">&nbsp;</h3>\u000a        <hr class="c-testmap-aside-bar">\u000a        <h3 class="c-testmap-aside-header js-count">3,765,464</h3>\u000a        <p>Assessments to date</p>\u000a      </div>\u000a    </div>\u000a  </div>\u000a</section>\u000a\u000a  <section class="c-seo-band">\u000a  <div class="ui centered grid container">\u000a    \u000a      <div class="twelve wide mobile six wide tablet two wide computer column">\u000a        <a href="/sql-engineers/">\u000a          SQL Engineers\u000a        </a>\u000a      </div>\u000a    \u000a      <div class="twelve wide mobile six wide tablet two wide computer column">\u000a        <a href="/mobile-developers/">\u000a          Mobile Developers\u000a        </a>\u000a      </div>\u000a    \u000a      <div class="twelve wide mobile six wide tablet two wide computer column">\u000a        <a href="/ios-developers/">\u000a          iOS Developers\u000a        </a>\u000a      </div>\u000a    \u000a      <div class="twelve wide mobile six wide tablet two wide computer column">\u000a        <a href="/java-developers/">\u000a          Java Developers\u000a        </a>\u000a      </div>\u000a    \u000a      <div class="twelve wide mobile six wide tablet two wide computer column">\u000a        <a href="/dev-ops/">\u000a          Dev Ops\u000a        </a>\u000a      </div>\u000a    \u000a      <div class="twelve wide mobile six wide tablet two wide computer column">\u000a        <a href="/full-stack-teams/">\u000a          Full Stack Teams\u000a        </a>\u000a      </div>\u000a    \u000a  </div>\u000a</section>\u000a\u000a\u000a\u000a\u000a    <div id="js-registration_modal_container" data-context="null"></div>\u000a    <div id="js-confirmation_modal_container" data-user="null"></div>\u000a\u000a\u000a    \u000a      \u000a\u000a<section class="c-torchlight-footer">\u000a  <div class="ui container">\u000a\u000a    <div class="ui grid">\u000a      <div class="six wide mobile four wide tablet four wide computer two wide large screen two wide widescreen column">\u000a        <p>Product</p>\u000a        <p>\u000a          <a href="/sourcing/">Source</a><br/>\u000a          <a href="/assess/">Assess</a><br/>\u000a          <a href="/interview/">Interview</a><br/>\u000a          <a href="/pricing/">Pricing</a><br/>\u000a          <a href="/customers/">Customers</a><br/>\u000a          <a href="/trial/">Free Trial</a><br/>\u000a        </p>\u000a      </div>\u000a\u000a      <div class="six wide mobile four wide tablet four wide computer two wide large screen two wide widescreen column">\u000a        <p>Programmers</p>\u000a        <p>\u000a          <a href="/programmers/lessons/">Lessons</a><br/>\u000a          <a href="/programmers/challenges/">Challenges</a><br/>\u000a          <a href="/demo/take-sample-test/">Demo Test</a><br/>\u000a          <a href="/candidate-faq/">Candidate FAQ</a><br/>\u000a        </p>\u000a      </div>\u000a\u000a      <div class="six wide mobile four wide tablet four wide computer two wide large screen two wide widescreen column">\u000a        <p>Support</p>\u000a        <p>\u000a          <a href="https://codility24.zendesk.com">Help Center</a><br/>\u000a          <a href="/api-general-guidance/">API &amp; Developers</a><br/>\u000a          <a href="https://codility24.zendesk.com/hc/en-us/articles/202626271-Video-Creating-a-Codility-test">Create Codility Test</a><br/>\u000a          <a href="https://codility24.zendesk.com/hc/en-us/articles/204090732-How-to-get-more-candidates-completing-your-tests">Get More Candidates</a><br/>\u000a        </p>\u000a      </div>\u000a\u000a      <div class="six wide mobile four wide tablet four wide computer two wide large screen two wide widescreen column">\u000a        <p>Legal</p>\u000a        <p>\u000a          <a href="/terms-of-service-for-companies/">Terms of Service</a><br/>\u000a          <a href="/privacy-policy/">Privacy Policy</a><br/>\u000a          <a href="/cookie-policy/">Cookie Policy</a><br/>\u000a        </p>\u000a      </div>\u000a\u000a      <div class="six wide mobile four wide tablet four wide computer two wide large screen two wide widescreen column">\u000a        <p>Company</p>\u000a        <p>\u000a          <a href="/about/">About</a><br/>\u000a          <a href="/jobs/">Jobs</a><br/>\u000a          <a href="https://blog.codility.com">Blog</a><br/>\u000a          <a href="https://vimeo.com/39707925">How We Hire</a><br/>\u000a        </p>\u000a      </div>\u000a\u000a      <div class="six wide mobile four wide tablet four wide computer two wide large screen two wide widescreen column">\u000a        <p>Let's get in touch</p>\u000a        <p>\u000a          <a href="tel:14154668085">US 1-415-466-8085</a><br/>\u000a          <a href="tel:+4402089707867">UK +44 (0) 208 970 78 67</a>\u000a        </p>\u000a        <p>\u000a          <a href="https://www.linkedin.com/company/codility"><i class="linkedin icon mod-footer-icon"></i></a>\u000a          <a href="https://twitter.com/Codility"><i class="twitter icon mod-footer-icon"></i></a>\u000a          <a href="https://www.facebook.com/Codility/"><i class="facebook icon mod-footer-icon"></i></a>\u000a          <a href="https://github.com/Codility/"><i class="github icon mod-footer-icon"></i></a>\u000a        </p>\u000a      </div>\u000a    </div>\u000a\u000a    <div class="c-copyright">&copy; 2009&ndash;2016 Codility Ltd., registered in England and Wales (No. 7048726). VAT ID GB981191408. Registered office: 107 Cheapside, London EC2V 6DN</div>\u000a\u000a</section>\u000a\u000a    \u000a\u000a  </div>\u000a\u000a\u000a  </body>\u000a</html>\u000a
p3
a.