(lp0
S'https://code.google.com/p/pydbgr/'
p1
aS'pydbgr - Modular, Extensible gdb-like Python Debugger in the Trepan family - Google Project Hosting'
p2
aI0
aV<!DOCTYPE html>\u000a<html class="google" lang="en" ng-app="codesiteArchive.application">\u000a\u000a  <head>\u000a    <meta charset="utf-8">\u000a    <meta content="initial-scale=1, minimum-scale=1, width=device-width" name="viewport">\u000a\u000a    <!-- https://developers.google.com/webmasters/ajax-crawling/docs/specification -->\u000a    <meta name="fragment" content="!">\u000a    <title>Google Code Archive - Long-term storage for Google Code Project Hosting.</title>\u000a\u000a    <link rel="icon" type="image/vnd.microsoft.icon" href="/archive/img/project-hosting.ico">\u000a    <script src="//www.google.com/js/google.js"></script>\u000a    <link href="//www.google.com/css/maia.css" rel="stylesheet">\u000a    <link\u000a        href="//fonts.googleapis.com/css?family=Open+Sans:300,400,600,700&amp;lang=en"\u000a        rel="stylesheet">\u000a    <link rel="stylesheet" href="/archive/archive_css.css">\u000a    <script>\u000a      CLOSURE_NO_DEPS = true;\u000a    </script>\u000a    <script src="/archive/angular.js"></script>\u000a    <script src="/archive/pagedown.js"></script>\u000a    <script src="/archive/archive.js"></script>\u000a    <base href="/archive/">\u000a  </head>\u000a\u000a  <body>\u000a    <div class="maia-header" id="maia-header" role="banner">\u000a      <div class="maia-aux">\u000a        <a href="/archive/">\u000a          <h1>\u000a            <img alt="Google" src="//www.google.com/images/branding/googlelogo/1x/googlelogo_color_116x41dp.png"> Code</a>\u000a          </h1>\u000a        </a>\u000a        <a href="/archive/">\u000a          <h2>\u000a            Archive\u000a          </h2>\u000a        </a>\u000a        <a class="maia-teleport" href="#content">Skip to content</a>\u000a        <div class="maia-util">\u000a          <form action="/archive/search" class="maia-search">\u000a            <input name="q" placeholder="Search this site" type="text">\u000a            <button class="maia-button">\u000a              <span class="maia-search-icon">Search</span>\u000a            </button>\u000a          </form>\u000a        </div>\u000a      </div>\u000a    </div>\u000a\u000a    <div ng-view></div>\u000a\u000a    <div id="maia-signature"></div>\u000a    <div class="maia-footer" id="maia-footer">\u000a      <div id="maia-footer-local">\u000a      </div>\u000a      <div id="maia-footer-global">\u000a        <div class="maia-aux">\u000a          <ul>\u000a            <li>\u000a              <a href="//www.google.com/">Google</a>\u000a            </li>\u000a            <li>\u000a              <a href="//www.google.com/intl/en/about/">About Google</a>\u000a            </li>\u000a            <li>\u000a              <a href="//www.google.com/intl/en/policies/privacy/">Privacy</a>\u000a            </li>\u000a            <li>\u000a              <a href="//www.google.com/intl/en/policies/terms/">Terms</a>\u000a            </li>\u000a          </ul>\u000a        </div>\u000a      </div>\u000a    </div>\u000a    <script src="//www.google.com/js/maia.js"></script>\u000a  </body>\u000a\u000a</html>
p3
a.