(lp0
S'http://www.xinplay.com/forum.php?mod=forumdisplay&fid=43'
p1
aS'\xe3\x80\x90\xe6\x96\xb0\xe6\x8f\x90\xe9\x86\x92\xe3\x80\x91\xe7\xa0\xb4\xe8\xa7\xa3\xe6\x8a\x80\xe6\x9c\xaf \xe5\xbf\x83\xe6\xb8\xb8\xe4\xb9\x8b\xe5\x9f\x9f'
p2
aI0
aV<!DOCTYPE html>\u000a<html lang="en">\u000a<head>\u000a<meta charset="UTF-8">\u000a<title>xinplay.com</title>\u000a<meta name="description" content="\u767e\u5ea6\u4e00\u4e0b \u4f60\u5c31\u77e5\u9053" />\u000a<meta name="keywords" content="\u767e\u5ea6\u641c\u7d22,\u56fe\u7247\u641c\u7d22,\u5185\u5bb9\u641c\u7d22" />\u000a\u000a<link rel="stylesheet" href="http://cdn.dragonstatic.com/parking/css/oneclick.css" type="text/css" />\u000a\u000a\u000a<script type="text/javascript" src="http://cdn.dragonstatic.com/parking/js/client2.js" charset="UTF-8"></script>\u000a<script type="text/javascript" src="http://cdn.dragonstatic.com/parking/js/track.js"></script>\u000a<script type="text/javascript" src="http://cpro.baidustatic.com/cpro/ui/dp.js"></script>\u000a<script type="text/javascript" src="http://cpro.baidustatic.com/cpro/ui/ci.js"></script>\u000a<script type="text/javascript">var pageinfo = {ad:1};</script>\u000a\u000a</head>\u000a<body>\u000a\u000a\u000a\u000a\u000a<div style="width:960px;margin: 0 auto;">\u000a<div style="width:960px; height:130px; background:url(http://cdn.dragonstatic.com/parking/images/city_light_960.jpg);">\u000a<div style="padding-top:10px;padding-left:10px;font-size:30px;color:#8c8682;">xinplay.com</div>\u000a</div>\u000a</div>\u000a\u000a\u000a\u000a\u000a\u000a\u000a<!--&lt;!&ndash;4399\u6a2a\u5e45&ndash;&gt;-->\u000a<!--<div style="width:960px; margin: 0 auto; background-color:#fff; padding-top:5px;">-->\u000a<!--<script src="http://uimg.1qwe3r.com/mrcode1.php?ai=40029" language="JavaScript"></script>-->\u000a<!--&lt;!&ndash;<script src="http://uimg.1qwe3r.com/mrcode.php?ai=16390" language="JavaScript"></script>&ndash;&gt;-->\u000a<!--</div>-->\u000a<!--&lt;!&ndash;4399\u60ac\u6d6e&ndash;&gt;-->\u000a<!--<div>-->\u000a<!--<script src="http://uimg.1qwe3r.com/mrcode1.php?ai=37585" language="JavaScript"></script>-->\u000a<!--</div>-->\u000a<div style="width:960px;margin: 0 auto;overflow: hidden;background-color:#fff;padding-bottom:5px;">\u000a<div style="width:200px; float: left; background-color:#fff;margin: 0 auto; padding-left:20px; padding-top:15px;">\u000a<div id="cpro_u109200302">\u000a<script type="text/javascript">\u000avar tempData = {\u000an: dpClient,\u000atn: "baiduCustSTagLinkUnit",\u000askin: "tabcloud_skin_2",\u000astid: 5,\u000atu: slotConfig["luList"],\u000arsi1: 1100,\u000arsi0: 190,\u000arad: 1,\u000arss0: "",\u000arss1: "",\u000arss2: "",\u000arss6: "e10900",\u000arsi5: 1,\u000aat: "text",\u000acad: 1,\u000aaurl: "",\u000arss7: "ffffff",\u000atitSU: 0,\u000atitFF: encodeURIComponent("arial","\u5b8b\u4f53"),\u000aconSL: 0,\u000abdh: 1,\u000atitFS: 14,\u000aadn: 25,\u000aconBW: 0,\u000ahn: 25,\u000awn: 1,\u000aie: 0\u000a};\u000acustInlayRender(tempData);\u000atempData = null;\u000a</script>\u000a</div>\u000a</div>\u000a<div style="width:700px;float:right;background-color:#fff;margin-left:20px;padding-top:25px;padding-bottom:15px;">\u000a<div id="cpro_u109200303" class=""></div>\u000a<script type="text/javascript">\u000avar tempData = {\u000an : dpClient,\u000atu : slotConfig["tuwen"],\u000arsi1 : 1100,\u000arsi0 : 700,\u000arad : 1,\u000arss0 : "",\u000arss1 : "",\u000arss2 : "",\u000arss4 : "",\u000arss6 : "e10900",\u000aat : "text",\u000acad : 1,\u000aaurl : "",\u000arss7 : "ffffff",\u000awn : 1,\u000ahn : 10,\u000atitFS : 24,\u000atitFF: encodeURIComponent("arial","\u5b8b\u4f53"),\u000adesFS : 16,\u000aurlFS : 16,\u000aconSL : 0,\u000aiteRS : 20,\u000aisIE : 0\u000a};\u000acustInlayRender(tempData);\u000atempData = null;\u000a</script>\u000a</div>\u000a</div>\u000a\u000a\u000a<div style="width: 100%; margin: 0 auto; text-align:center;padding-top:20px;">Copyright &copy; xinplay.com</div>\u000a\u000a\u000a\u000a\u000a\u000a\u000a\u000a\u000a</body>\u000a</html>
p3
a.