(lp0
S'https://wizardforcel.gitbooks.io/mastering-elasticsearch/content/chapter-5/52_README.html'
p1
aS'Discovery\xe6\xa8\xa1\xe5\x9d\x97\xe7\x9a\x84\xe9\x85\x8d\xe7\xbd\xae | Mastering Elasticsearch \xe4\xb8\xad\xe6\x96\x87\xe7\x89\x88'
p2
aI0
aV<!DOCTYPE HTML>\u000a<html lang="zh-tw" >\u000a    \u000a    <head>\u000a        \u000a        <meta charset="UTF-8">\u000a        <meta http-equiv="X-UA-Compatible" content="IE=edge" />\u000a        <title>Discovery\u6a21\u5757\u7684\u914d\u7f6e | Mastering Elasticsearch \u4e2d\u6587\u7248</title>\u000a        <meta content="text/html; charset=utf-8" http-equiv="Content-Type">\u000a        <meta name="description" content="">\u000a        <meta name="generator" content="GitBook 2.6.7">\u000a        <meta name="author" content="wizardforcel">\u000a        \u000a        <meta name="HandheldFriendly" content="true"/>\u000a        <meta name="viewport" content="width=device-width, initial-scale=1, user-scalable=no">\u000a        <meta name="apple-mobile-web-app-capable" content="yes">\u000a        <meta name="apple-mobile-web-app-status-bar-style" content="black">\u000a        <link rel="apple-touch-icon-precomposed" sizes="152x152" href="../gitbook/images/apple-touch-icon-precomposed-152.png">\u000a        <link rel="shortcut icon" href="../gitbook/images/favicon.ico" type="image/x-icon">\u000a        \u000a    <link rel="stylesheet" href="../gitbook/style.css">\u000a    \u000a        \u000a        <link rel="stylesheet" href="../gitbook/plugins/gitbook-plugin-comment/plugin.css">\u000a        \u000a    \u000a        \u000a        <link rel="stylesheet" href="../gitbook/plugins/gitbook-plugin-highlight/website.css">\u000a        \u000a    \u000a        \u000a        <link rel="stylesheet" href="../gitbook/plugins/gitbook-plugin-search/search.css">\u000a        \u000a    \u000a        \u000a        <link rel="stylesheet" href="../gitbook/plugins/gitbook-plugin-fontsettings/website.css">\u000a        \u000a    \u000a    \u000a\u000a        \u000a    \u000a    \u000a    <link rel="next" href="../chapter-5/53_README.html" />\u000a    \u000a    \u000a    <link rel="prev" href="../chapter-5/51_README.html" />\u000a    \u000a\u000a        \u000a    </head>\u000a    <body>\u000a        \u000a        \u000a    <div class="book"\u000a        data-level="5.2"\u000a        data-chapter-title="Discovery\u6a21\u5757\u7684\u914d\u7f6e"\u000a        data-filepath="chapter-5/52_README.md"\u000a        data-basepath=".."\u000a        data-revision="Mon May 02 2016 08:52:51 GMT+0000 (UTC)"\u000a        data-innerlanguage="">\u000a    \u000a\u000a<div class="book-summary">\u000a    <nav role="navigation">\u000a        <ul class="summary">\u000a            \u000a            \u000a            \u000a                \u000a                <li>\u000a                    <a href="https://www.gitbook.com/book/wizardforcel/mastering-elasticsearch" target="blank" class="custom-link">Mastering Elasticsearch \u4e2d\u6587\u7248</a>\u000a                </li>\u000a            \u000a            \u000a\u000a            \u000a            <li class="divider"></li>\u000a            \u000a\u000a            \u000a    \u000a        <li class="chapter " data-level="0" data-path="index.html">\u000a            \u000a                \u000a                    <a href="../index.html">\u000a                \u000a                        <i class="fa fa-check"></i>\u000a                        \u000a                        \u524d\u8a00\u000a                    </a>\u000a            \u000a            \u000a        </li>\u000a    \u000a        <li class="chapter " data-level="1" data-path="chapter-1/index.html">\u000a            \u000a                \u000a                    <a href="../chapter-1/index.html">\u000a                \u000a                        <i class="fa fa-check"></i>\u000a                        \u000a                            <b>1.</b>\u000a                        \u000a                        \u7b2c1\u7ae0 \u8ba4\u8bc6Elasticsearch\u000a                    </a>\u000a            \u000a            \u000a            <ul class="articles">\u000a                \u000a    \u000a        <li class="chapter " data-level="1.1" data-path="chapter-1/11_README.html">\u000a            \u000a                \u000a                    <a href="../chapter-1/11_README.html">\u000a                \u000a                        <i class="fa fa-check"></i>\u000a                        \u000a                            <b>1.1.</b>\u000a                        \u000a                        \u8ba4\u8bc6Apache Lucene\u000a                    </a>\u000a            \u000a            \u000a            <ul class="articles">\u000a                \u000a    \u000a        <li class="chapter " data-level="1.1.1" data-path="chapter-1/111_README.html">\u000a            \u000a                \u000a                    <a href="../chapter-1/111_README.html">\u000a                \u000a                        <i class="fa fa-check"></i>\u000a                        \u000a                            <b>1.1.1.</b>\u000a                        \u000a                        \u719f\u6089Lucene\u000a                    </a>\u000a            \u000a            \u000a        </li>\u000a    \u000a        <li class="chapter " data-level="1.1.2" data-path="chapter-1/112_README.html">\u000a            \u000a                \u000a                    <a href="../chapter-1/112_README.html">\u000a                \u000a                        <i class="fa fa-check"></i>\u000a                        \u000a                            <b>1.1.2.</b>\u000a                        \u000a                        \u603b\u4f53\u67b6\u6784\u000a                    </a>\u000a            \u000a            \u000a        </li>\u000a    \u000a        <li class="chapter " data-level="1.1.3" data-path="chapter-1/113_README.html">\u000a            \u000a                \u000a                    <a href="../chapter-1/113_README.html">\u000a                \u000a                        <i class="fa fa-check"></i>\u000a                        \u000a                            <b>1.1.3.</b>\u000a                        \u000a                        \u5206\u6790\u4f60\u7684\u6587\u672c\u000a                    </a>\u000a            \u000a            \u000a        </li>\u000a    \u000a        <li class="chapter " data-level="1.1.4" data-path="chapter-1/114_README.html">\u000a            \u000a                \u000a                    <a href="../chapter-1/114_README.html">\u000a                \u000a                        <i class="fa fa-check"></i>\u000a                        \u000a                            <b>1.1.4.</b>\u000a                        \u000a                        Lucene\u67e5\u8be2\u8bed\u8a00\u000a                    </a>\u000a            \u000a            \u000a        </li>\u000a    \u000a\u000a            </ul>\u000a            \u000a        </li>\u000a    \u000a        <li class="chapter " data-level="1.2" data-path="chapter-1/12_README.html">\u000a            \u000a                \u000a                    <a href="../chapter-1/12_README.html">\u000a                \u000a                        <i class="fa fa-check"></i>\u000a                        \u000a                            <b>1.2.</b>\u000a                        \u000a                        \u8ba4\u8bc6 ElasticSearch\u000a                    </a>\u000a            \u000a            \u000a            <ul class="articles">\u000a                \u000a    \u000a        <li class="chapter " data-level="1.2.1" data-path="chapter-1/121_README.html">\u000a            \u000a                \u000a                    <a href="../chapter-1/121_README.html">\u000a                \u000a                        <i class="fa fa-check"></i>\u000a                        \u000a                            <b>1.2.1.</b>\u000a                        \u000a                        \u57fa\u672c\u6982\u5ff5\u000a                    </a>\u000a            \u000a            \u000a        </li>\u000a    \u000a        <li class="chapter " data-level="1.2.2" data-path="chapter-1/122_README.html">\u000a            \u000a                \u000a                    <a href="../chapter-1/122_README.html">\u000a                \u000a                        <i class="fa fa-check"></i>\u000a                        \u000a                            <b>1.2.2.</b>\u000a                        \u000a                        ElasticSearch\u80cc\u540e\u7684\u6838\u5fc3\u7406\u5ff5\u000a                    </a>\u000a            \u000a            \u000a        </li>\u000a    \u000a        <li class="chapter " data-level="1.2.3" data-path="chapter-1/123_README.html">\u000a            \u000a                \u000a                    <a href="../chapter-1/123_README.html">\u000a                \u000a                        <i class="fa fa-check"></i>\u000a                        \u000a                            <b>1.2.3.</b>\u000a                        \u000a                        ElasticSearch\u7684\u5de5\u4f5c\u539f\u7406\u000a                    </a>\u000a            \u000a            \u000a        </li>\u000a    \u000a\u000a            </ul>\u000a            \u000a        </li>\u000a    \u000a        <li class="chapter " data-level="1.3" data-path="chapter-1/13_README.html">\u000a            \u000a                \u000a                    <a href="../chapter-1/13_README.html">\u000a                \u000a                        <i class="fa fa-check"></i>\u000a                        \u000a                            <b>1.3.</b>\u000a                        \u000a                        \u672c\u7ae0\u5c0f\u7ed3\u000a                    </a>\u000a            \u000a            \u000a        </li>\u000a    \u000a\u000a            </ul>\u000a            \u000a        </li>\u000a    \u000a        <li class="chapter " data-level="2" data-path="chapter-2/index.html">\u000a            \u000a                \u000a                    <a href="../chapter-2/index.html">\u000a                \u000a                        <i class="fa fa-check"></i>\u000a                        \u000a                            <b>2.</b>\u000a                        \u000a                        \u7b2c2\u7ae0 \u5f3a\u5927\u7684\u7528\u6237\u67e5\u8be2\u8bed\u8a00DSL\u000a                    </a>\u000a            \u000a            \u000a            <ul class="articles">\u000a                \u000a    \u000a        <li class="chapter " data-level="2.1" data-path="chapter-2/21_README.html">\u000a            \u000a                \u000a                    <a href="../chapter-2/21_README.html">\u000a                \u000a                        <i class="fa fa-check"></i>\u000a                        \u000a                            <b>2.1.</b>\u000a                        \u000a                        Lucene\u9ed8\u8ba4\u6253\u5206\u7b97\u6cd5\u000a                    </a>\u000a            \u000a            \u000a        </li>\u000a    \u000a        <li class="chapter " data-level="2.2" data-path="chapter-2/22_README.html">\u000a            \u000a                \u000a                    <a href="../chapter-2/22_README.html">\u000a                \u000a                        <i class="fa fa-check"></i>\u000a                        \u000a                            <b>2.2.</b>\u000a                        \u000a                        \u67e5\u8be2\u91cd\u5199\u673a\u5236\u000a                    </a>\u000a            \u000a            \u000a        </li>\u000a    \u000a        <li class="chapter " data-level="2.3" data-path="chapter-2/23_README.html">\u000a            \u000a                \u000a                    <a href="../chapter-2/23_README.html">\u000a                \u000a                        <i class="fa fa-check"></i>\u000a                        \u000a                            <b>2.3.</b>\u000a                        \u000a                        \u91cd\u6392\u5e8f\u000a                    </a>\u000a            \u000a            \u000a        </li>\u000a    \u000a        <li class="chapter " data-level="2.4" data-path="chapter-2/24_README.html">\u000a            \u000a                \u000a                    <a href="../chapter-2/24_README.html">\u000a                \u000a                        <i class="fa fa-check"></i>\u000a                        \u000a                            <b>2.4.</b>\u000a                        \u000a                        \u6279\u5904\u7406\u000a                    </a>\u000a            \u000a            \u000a        </li>\u000a    \u000a        <li class="chapter " data-level="2.5" data-path="chapter-2/25_README.html">\u000a            \u000a                \u000a                    <a href="../chapter-2/25_README.html">\u000a                \u000a                        <i class="fa fa-check"></i>\u000a                        \u000a                            <b>2.5.</b>\u000a                        \u000a                        \u67e5\u8be2\u7ed3\u679c\u7684\u6392\u5e8f\u000a                    </a>\u000a            \u000a            \u000a        </li>\u000a    \u000a        <li class="chapter " data-level="2.6" data-path="chapter-2/26_README.html">\u000a            \u000a                \u000a                    <a href="../chapter-2/26_README.html">\u000a                \u000a                        <i class="fa fa-check"></i>\u000a                        \u000a                            <b>2.6.</b>\u000a                        \u000a                        Update API\u000a                    </a>\u000a            \u000a            \u000a        </li>\u000a    \u000a        <li class="chapter " data-level="2.7" data-path="chapter-2/27_README.html">\u000a            \u000a                \u000a                    <a href="../chapter-2/27_README.html">\u000a                \u000a                        <i class="fa fa-check"></i>\u000a                        \u000a                            <b>2.7.</b>\u000a                        \u000a                        \u4f7f\u7528filters\u4f18\u5316\u67e5\u8be2\u000a                    </a>\u000a            \u000a            \u000a        </li>\u000a    \u000a        <li class="chapter " data-level="2.8" data-path="chapter-2/28_README.html">\u000a            \u000a                \u000a                    <a href="../chapter-2/28_README.html">\u000a                \u000a                        <i class="fa fa-check"></i>\u000a                        \u000a                            <b>2.8.</b>\u000a                        \u000a                        filters\u548cscope\u5728ElasticSearch Faceting\u6a21\u5757\u7684\u5e94\u7528\u000a                    </a>\u000a            \u000a            \u000a        </li>\u000a    \u000a        <li class="chapter " data-level="2.9" data-path="chapter-2/29_README.html">\u000a            \u000a                \u000a                    <a href="../chapter-2/29_README.html">\u000a                \u000a                        <i class="fa fa-check"></i>\u000a                        \u000a                            <b>2.9.</b>\u000a                        \u000a                        \u672c\u7ae0\u5c0f\u7ed3\u000a                    </a>\u000a            \u000a            \u000a        </li>\u000a    \u000a\u000a            </ul>\u000a            \u000a        </li>\u000a    \u000a        <li class="chapter " data-level="3" data-path="chapter-3/index.html">\u000a            \u000a                \u000a                    <a href="../chapter-3/index.html">\u000a                \u000a                        <i class="fa fa-check"></i>\u000a                        \u000a                            <b>3.</b>\u000a                        \u000a                        \u7b2c3\u7ae0 \u7d22\u5f15\u5e95\u5c42\u63a7\u5236\u000a                    </a>\u000a            \u000a            \u000a        </li>\u000a    \u000a        <li class="chapter " data-level="4" data-path="chapter-4/index.html">\u000a            \u000a                \u000a                    <a href="../chapter-4/index.html">\u000a                \u000a                        <i class="fa fa-check"></i>\u000a                        \u000a                            <b>4.</b>\u000a                        \u000a                        \u7b2c4\u7ae0 \u63a2\u7a76\u5206\u5e03\u5f0f\u7d22\u5f15\u67b6\u6784\u000a                    </a>\u000a            \u000a            \u000a            <ul class="articles">\u000a                \u000a    \u000a        <li class="chapter " data-level="4.1" data-path="chapter-4/41_README.html">\u000a            \u000a                \u000a                    <a href="../chapter-4/41_README.html">\u000a                \u000a                        <i class="fa fa-check"></i>\u000a                        \u000a                            <b>4.1.</b>\u000a                        \u000a                        \u9009\u62e9\u6070\u5f53\u7684\u5206\u7247\u6570\u91cf\u548c\u5206\u7247\u526f\u672c\u6570\u91cf\u000a                    </a>\u000a            \u000a            \u000a        </li>\u000a    \u000a        <li class="chapter " data-level="4.2" data-path="chapter-4/42_README.html">\u000a            \u000a                \u000a                    <a href="../chapter-4/42_README.html">\u000a                \u000a                        <i class="fa fa-check"></i>\u000a                        \u000a                            <b>4.2.</b>\u000a                        \u000a                        \u8def\u7531\u529f\u80fd\u6d45\u8c08\u000a                    </a>\u000a            \u000a            \u000a        </li>\u000a    \u000a        <li class="chapter " data-level="4.3" data-path="chapter-4/44_README.html">\u000a            \u000a                \u000a                    <a href="../chapter-4/44_README.html">\u000a                \u000a                        <i class="fa fa-check"></i>\u000a                        \u000a                            <b>4.3.</b>\u000a                        \u000a                        \u8c03\u6574\u96c6\u7fa4\u7684\u5206\u7247\u5206\u914d\u000a                    </a>\u000a            \u000a            \u000a        </li>\u000a    \u000a        <li class="chapter " data-level="4.4" data-path="chapter-4/43_README.html">\u000a            \u000a                \u000a                    <a href="../chapter-4/43_README.html">\u000a                \u000a                        <i class="fa fa-check"></i>\u000a                        \u000a                            <b>4.4.</b>\u000a                        \u000a                        \u6539\u53d8\u5206\u7247\u7684\u9ed8\u8ba4\u5206\u914d\u65b9\u5f0f\u000a                    </a>\u000a            \u000a            \u000a        </li>\u000a    \u000a        <li class="chapter " data-level="4.5" data-path="chapter-4/45_README.html">\u000a            \u000a                \u000a                    <a href="../chapter-4/45_README.html">\u000a                \u000a                        <i class="fa fa-check"></i>\u000a                        \u000a                            <b>4.5.</b>\u000a                        \u000a                        \u67e5\u8be2\u7684execution preference\u000a                    </a>\u000a            \u000a            \u000a        </li>\u000a    \u000a        <li class="chapter " data-level="4.6" data-path="chapter-4/46_README.html">\u000a            \u000a                \u000a                    <a href="../chapter-4/46_README.html">\u000a                \u000a                        <i class="fa fa-check"></i>\u000a                        \u000a                            <b>4.6.</b>\u000a                        \u000a                        \u5b66\u4ee5\u81f4\u7528\u000a                    </a>\u000a            \u000a            \u000a        </li>\u000a    \u000a        <li class="chapter " data-level="4.7" data-path="chapter-4/47_README.html">\u000a            \u000a                \u000a                    <a href="../chapter-4/47_README.html">\u000a                \u000a                        <i class="fa fa-check"></i>\u000a                        \u000a                            <b>4.7.</b>\u000a                        \u000a                        \u672c\u7ae0\u5c0f\u7ed3\u000a                    </a>\u000a            \u000a            \u000a        </li>\u000a    \u000a\u000a            </ul>\u000a            \u000a        </li>\u000a    \u000a        <li class="chapter " data-level="5" data-path="chapter-5/index.html">\u000a            \u000a                \u000a                    <a href="../chapter-5/index.html">\u000a                \u000a                        <i class="fa fa-check"></i>\u000a                        \u000a                            <b>5.</b>\u000a                        \u000a                        \u7b2c5\u7ae0 \u7ba1\u7406Elasticsearch\u000a                    </a>\u000a            \u000a            \u000a            <ul class="articles">\u000a                \u000a    \u000a        <li class="chapter " data-level="5.1" data-path="chapter-5/51_README.html">\u000a            \u000a                \u000a                    <a href="../chapter-5/51_README.html">\u000a                \u000a                        <i class="fa fa-check"></i>\u000a                        \u000a                            <b>5.1.</b>\u000a                        \u000a                        \u9009\u62e9\u6b63\u786e\u7684directory\u5b9e\u73b0\u7c7b\u2014\u2014\u5b58\u50a8\u6a21\u5757\u000a                    </a>\u000a            \u000a            \u000a        </li>\u000a    \u000a        <li class="chapter active" data-level="5.2" data-path="chapter-5/52_README.html">\u000a            \u000a                \u000a                    <a href="../chapter-5/52_README.html">\u000a                \u000a                        <i class="fa fa-check"></i>\u000a                        \u000a                            <b>5.2.</b>\u000a                        \u000a                        Discovery\u6a21\u5757\u7684\u914d\u7f6e\u000a                    </a>\u000a            \u000a            \u000a        </li>\u000a    \u000a        <li class="chapter " data-level="5.3" data-path="chapter-5/53_README.html">\u000a            \u000a                \u000a                    <a href="../chapter-5/53_README.html">\u000a                \u000a                        <i class="fa fa-check"></i>\u000a                        \u000a                            <b>5.3.</b>\u000a                        \u000a                        \u7d22\u5f15\u6bb5\u6570\u636e\u7edf\u8ba1\u000a                    </a>\u000a            \u000a            \u000a        </li>\u000a    \u000a        <li class="chapter " data-level="5.4" data-path="chapter-5/54_README.html">\u000a            \u000a                \u000a                    <a href="../chapter-5/54_README.html">\u000a                \u000a                        <i class="fa fa-check"></i>\u000a                        \u000a                            <b>5.4.</b>\u000a                        \u000a                        \u7406\u89e3ElasticSearch\u7684\u7f13\u5b58\u000a                    </a>\u000a            \u000a            \u000a        </li>\u000a    \u000a        <li class="chapter " data-level="5.5" data-path="chapter-5/55_README.html">\u000a            \u000a                \u000a                    <a href="../chapter-5/55_README.html">\u000a                \u000a                        <i class="fa fa-check"></i>\u000a                        \u000a                            <b>5.5.</b>\u000a                        \u000a                        \u672c\u7ae0\u5c0f\u7ed3\u000a                    </a>\u000a            \u000a            \u000a        </li>\u000a    \u000a\u000a            </ul>\u000a            \u000a        </li>\u000a    \u000a        <li class="chapter " data-level="6" data-path="chapter-6/index.html">\u000a            \u000a                \u000a                    <a href="../chapter-6/index.html">\u000a                \u000a                        <i class="fa fa-check"></i>\u000a                        \u000a                            <b>6.</b>\u000a                        \u000a                        \u7b2c6\u7ae0 \u5e94\u5bf9\u7a81\u53d1\u4e8b\u4ef6\u000a                    </a>\u000a            \u000a            \u000a        </li>\u000a    \u000a        <li class="chapter " data-level="7" data-path="chapter-7/index.html">\u000a            \u000a                \u000a                    <a href="../chapter-7/index.html">\u000a                \u000a                        <i class="fa fa-check"></i>\u000a                        \u000a                            <b>7.</b>\u000a                        \u000a                        \u7b2c7\u7ae0 \u4f18\u5316\u7528\u6237\u4f53\u9a8c\u000a                    </a>\u000a            \u000a            \u000a        </li>\u000a    \u000a        <li class="chapter " data-level="8" data-path="chapter-8/index.html">\u000a            \u000a                \u000a                    <a href="../chapter-8/index.html">\u000a                \u000a                        <i class="fa fa-check"></i>\u000a                        \u000a                            <b>8.</b>\u000a                        \u000a                        \u7b2c8\u7ae0 ElasticSearch Java API\u000a                    </a>\u000a            \u000a            \u000a        </li>\u000a    \u000a        <li class="chapter " data-level="9" data-path="chapter-9/index.html">\u000a            \u000a                \u000a                    <a href="../chapter-9/index.html">\u000a                \u000a                        <i class="fa fa-check"></i>\u000a                        \u000a                            <b>9.</b>\u000a                        \u000a                        \u7b2c9\u7ae0 \u5f00\u53d1ElasticSearch\u63d2\u4ef6\u000a                    </a>\u000a            \u000a            \u000a        </li>\u000a    \u000a\u000a\u000a            \u000a            <li class="divider"></li>\u000a            <li>\u000a                <a href="https://www.gitbook.com" target="blank" class="gitbook-link">\u000a                    \u672c\u66f8\u4f7f\u7528 GitBook \u91cb\u51fa\u000a                </a>\u000a            </li>\u000a            \u000a        </ul>\u000a    </nav>\u000a</div>\u000a\u000a    <div class="book-body">\u000a        <div class="body-inner">\u000a            <div class="book-header" role="navigation">\u000a    <!-- Actions Left -->\u000a    \u000a\u000a    <!-- Title -->\u000a    <h1>\u000a        <i class="fa fa-circle-o-notch fa-spin"></i>\u000a        <a href="../" >Mastering Elasticsearch \u4e2d\u6587\u7248</a>\u000a    </h1>\u000a</div>\u000a\u000a            <div class="page-wrapper" tabindex="-1" role="main">\u000a                <div class="page-inner">\u000a                \u000a                \u000a                    <section class="normal" id="section-">\u000a                    \u000a                        <h2 id="&#x8282;&#x70B9;&#x53D1;&#x73B0;&#x6A21;&#x5757;&#x7684;&#x914D;&#x7F6E;">&#x8282;&#x70B9;&#x53D1;&#x73B0;&#x6A21;&#x5757;&#x7684;&#x914D;&#x7F6E;</h2>\u000a<div style="text-indent:2em;">\u000a<p>&#x6211;&#x4EEC;&#x5DF2;&#x7ECF;&#x591A;&#x6B21;&#x63D0;&#x5230;&#xFF0C;ElasticSearch&#x521B;&#x5EFA;&#x7684;&#x76EE;&#x7684;&#x5C31;&#x662F;&#x5BF9;&#x5E94;&#x96C6;&#x7FA4;&#x5DE5;&#x4F5C;&#x73AF;&#x5883;&#x3002;&#x8FD9;&#x662F;&#x8DDF;&#x4E0E;ElasticSearch&#x529F;&#x80FD;&#x7C7B;&#x4F3C;&#x7684;&#x5176;&#x5B83;&#x5F00;&#x6E90;&#x89E3;&#x51B3;&#x65B9;&#x6848;(&#x6BD4;&#x5982;solr)&#x4E3B;&#x8981;&#x7684;&#x4E0D;&#x540C;&#x70B9;&#x3002;&#x5176;&#x5B83;&#x89E3;&#x51B3;&#x65B9;&#x6848;&#x4E5F;&#x8BB8;&#x540C;&#x6837;&#x80FD;&#x6216;&#x96BE;&#x6216;&#x6613;&#x5730;&#x5E94;&#x7528;&#x4E8E;&#x591A;&#x8282;&#x70B9;&#x7684;&#x5206;&#x5E03;&#x5F0F;&#x73AF;&#x5883;&#xFF0C;&#x4F46;&#x662F;&#x5BF9;&#x5BF9;&#x4E8E;ElasticSearch&#x6765;&#x8BF4;&#xFF0C;&#x5DE5;&#x4F5C;&#x5728;&#x5206;&#x5E03;&#x5F0F;&#x73AF;&#x5883;&#x5C31;&#x662F;&#x5B83;&#x6BCF;&#x5929;&#x7684;&#x751F;&#x6D3B;&#x3002;&#x7531;&#x4E8E;&#x8282;&#x70B9;&#x53D1;&#x73B0;&#x673A;&#x5236;&#xFF0C;&#x5B83;&#x6700;&#x5927;&#x7A0B;&#x5EA6;&#x7B80;&#x5316;&#x4E86;&#x96C6;&#x7FA4;&#x7684; &#x5B89;&#x88C5;&#x548C;&#x914D;&#x7F6E;&#x3002;</p>\u000a<p>&#x8BE5;&#x53D1;&#x73B0;&#x673A;&#x5236;&#x4E3B;&#x8981;&#x57FA;&#x4E8E;&#x4EE5;&#x4E0B;&#x5047;&#x8BBE;&#xFF1A;\u000a&#x96C6;&#x7FA4;&#x7531;cluster.name&#x8BBE;&#x7F6E;&#x9879;&#x76F8;&#x540C;&#x7684;&#x8282;&#x70B9;&#x81EA;&#x52A8;&#x8FDE;&#x63A5;&#x800C;&#x6210;&#x3002;&#x8FD9;&#x5C31;&#x5141;&#x8BB8;&#x4E86;&#x540C;&#x4E00;&#x4E2A;&#x7F51;&#x6BB5;&#x4E2D;&#x5B58;&#x5728;&#x591A;&#x4E2A;&#x72EC;&#x7ACB;&#x7684;&#x96C6;&#x7FA4;&#x3002;&#x81EA;&#x52A8;&#x53D1;&#x73B0;&#x673A;&#x5236;&#x7684;&#x7F3A;&#x70B9;&#x5728;&#x4E8E;&#xFF1A;&#x5982;&#x679C;&#x6709;&#x4EBA;&#x5FD8;&#x8BB0;&#x6539;&#x53D8;cluster.name&#x7684;&#x8BBE;&#x7F6E;&#x9879;&#xFF0C;&#x65E0;&#x610F;&#x4E2D;&#x8FDE;&#x63A5;&#x5230;&#x5176;&#x5B83;&#x7684;&#x67D0;&#x4E2A;&#x96C6;&#x7FA4;&#x3002;&#x5728;&#x8FD9;&#x79CD;&#x60C5;&#x51B5;&#x4E0B;&#xFF0C;ElasticSearch&#x53EF;&#x80FD;&#x51FA;&#x4E8E;&#x91CD;&#x65B0;&#x5E73;&#x8861;&#x96C6;&#x7FA4;&#x72B6;&#x6001;&#x7684;&#x8003;&#x8651;&#xFF0C;&#x5C06;&#x4E00;&#x4E9B;&#x6570;&#x636E;&#x79FB;&#x52A8;&#x5230;&#x4E86;&#x65B0;&#x52A0;&#x5165;&#x7684;&#x8282;&#x70B9;&#x3002;&#x5F53;&#x8BE5;&#x8282;&#x70B9;&#x88AB;&#x5173;&#x95ED;&#xFF0C;&#x8282;&#x70B9;&#x6240;&#x5728;&#x7684;&#x96C6;&#x7FA4;&#x4E2D;&#x4F1A;&#x6709;&#x90E8;&#x5206;&#x6570;&#x636E;&#x50CF;&#x51FA;&#x73B0;&#x9B54;&#x6CD5;&#x4E00;&#x6837;&#x51ED;&#x7A7A;&#x6D88;&#x5931;&#x3002; </p>\u000a\u000a<h4 id="zen-&#x53D1;&#x73B0;&#x673A;&#x5236;">Zen &#x53D1;&#x73B0;&#x673A;&#x5236;</h4>\u000a<p>Zen &#x53D1;&#x73B0;&#x673A;&#x5236;&#x662F;ElasticSearch&#x4E2D;&#x9ED8;&#x8BA4;&#x7684;&#x7528;&#x6765;&#x53D1;&#x73B0;&#x65B0;&#x8282;&#x70B9;&#x7684;&#x529F;&#x80FD;&#x6A21;&#x5757;&#xFF0C;&#x800C;&#x4E14;&#x96C6;&#x7FA4;&#x542F;&#x52A8;&#x540E;&#x9ED8;&#x8BA4;&#x751F;&#x6548;&#x3002;Zen&#x53D1;&#x73B0;&#x673A;&#x5236;&#x9ED8;&#x8BA4;&#x914D;&#x7F6E;&#x662F;&#x7528;&#x591A;&#x64AD;&#x6765;&#x5BFB;&#x627E;&#x5176;&#x5B83;&#x7684;&#x8282;&#x70B9;&#x3002;&#x5BF9;&#x4E8E;&#x7528;&#x6237;&#x800C;&#x8A00;&#xFF0C;&#x8FD9;&#x662F;&#x4E00;&#x6781;&#x5176;&#x7701;&#x4E8B;&#x7684;&#x89E3;&#x51B3;&#x65B9;&#x6848;&#xFF1A;&#x53EA;&#x9700;&#x542F;&#x52A8;&#x65B0;&#x7684;ElasticSearch&#x8282;&#x70B9;&#x5373;&#x53EF;&#xFF0C;&#x5982;&#x679C;&#x5404;&#x4E2A;&#x6A21;&#x5757;&#x5DE5;&#x4F5C;&#x6B63;&#x5E38;&#xFF0C;&#x8BE5;&#x8282;&#x70B9;&#x5C31;&#x4F1A;&#x81EA;&#x52A8;&#x6DFB;&#x52A0;&#x5230;&#x4E0E;&#x8282;&#x70B9;&#x4E2D;&#x96C6;&#x7FA4;&#x540D;&#x5B57;(cluster.name)&#x4E00;&#x6837;&#x7684;&#x96C6;&#x7FA4;&#xFF0C;&#x540C;&#x65F6;&#x5176;&#x5B83;&#x7684;&#x8282;&#x70B9;&#x90FD;&#x80FD;&#x611F;&#x77E5;&#x5230;&#x65B0;&#x8282;&#x70B9;&#x7684;&#x52A0;&#x5165;&#x3002;&#x5982;&#x679C;&#x8282;&#x70B9;&#x6DFB;&#x52A0;&#x4E0D;&#x8FDB;&#x53BB;&#xFF0C;&#x4F60;&#x5C31;&#x5E94;&#x8BE5;&#x68C0;&#x67E5;&#x8282;&#x70B9;&#x7684;publish_host&#x5C5E;&#x6027;&#x6216;&#x8005;host&#x5C5E;&#x6027;&#x7684;&#x8BBE;&#x7F6E;&#xFF0C;&#x6765;&#x786E;&#x4FDD;ElasticSearch&#x5728;&#x76D1;&#x542C;&#x5408;&#x9002;&#x7684;&#x7F51;&#x7EDC;&#x7AEF;&#x53E3;&#x3002; </p>\u000a<p>\u000a&#x6709;&#x65F6;&#x7531;&#x4E8E;&#x67D0;&#x4E9B;&#x539F;&#x56E0;&#xFF0C;&#x591A;&#x64AD;&#x65E0;&#x6CD5;&#x4F7F;&#x7528;&#x6216;&#x8005;&#x7531;&#x4E8E;&#x524D;&#x9762;&#x63D0;&#x5230;&#x7684;&#x4E00;&#x4E9B;&#x539F;&#x56E0;&#xFF0C;&#x4F60;&#x4E0D;&#x60F3;&#x4F7F;&#x7528;&#x5B83;&#x3002;&#x5728;&#x6BD4;&#x8F83;&#x5927;&#x7684;&#x96C6;&#x7FA4;&#x4E2D;&#xFF0C;&#x591A;&#x64AD;&#x53D1;&#x73B0;&#x673A;&#x5236;&#x53EF;&#x80FD;&#x4F1A;&#x4EA7;&#x751F;&#x592A;&#x591A;&#x4E0D;&#x5FC5;&#x8981;&#x7684;&#x6D41;&#x91CF;&#x5F00;&#x9500;&#xFF0C;&#x8FD9;&#x662F;&#x4E0D;&#x4F7F;&#x7528;&#x591A;&#x64AD;&#x7684;&#x4E00;&#x4E2A;&#x5145;&#x5206;&#x7406;&#x7531;&#x3002;&#x5728;&#x8FD9;&#x79CD;&#x60C5;&#x51B5;&#x4E0B;&#xFF0C;Zen&#x53D1;&#x73B0;&#x673A;&#x5236;&#x5F15;&#x5165;&#x4E86;&#x7B2C;&#x4E8C;&#x79CD;&#x53D1;&#x73B0;&#x8282;&#x70B9;&#x7684;&#x65B9;&#x6CD5;&#xFF1A;&#x5355;&#x64AD;&#x6A21;&#x5F0F;&#x3002;&#x8BA9;&#x6211;&#x4EEC;&#x5728;&#x8FD9;&#x4E2A;&#x77E5;&#x8BC6;&#x70B9;&#x4E0A;&#x505C;&#x7559;&#x4E00;&#x6BB5;&#x65F6;&#x95F4;&#xFF0C;&#x4E86;&#x89E3;&#x8FD9;&#x4E9B;&#x6A21;&#x5F0F;&#x7684;&#x914D;&#x7F6E;&#x76F8;&#x5173;&#x77E5;&#x8BC6;&#x3002;\u000a</p>\u000a<!--note structure -->\u000a<div style="height:50px;width:650px;text-indent:0em;">\u000a<div style="float:left;width:13px;height:100%; background:black;">\u000a  <img src="../lm.png" height="40px" width="13px" style="margin-top:5px;">\u000a</div>\u000a<div style="float:left;width:50px;height:100%;position:relative;">\u000a    <img src="../note.png" style="position:absolute; top:30%; ">\u000a</div>\u000a<div style="float:left; width:550px;height:100%;">\u000a    <p style="font-size:13px;margin-top:5px;">&#x5982;&#x679C;&#x60F3;&#x77E5;&#x9053;&#x5173;&#x4E8E;&#x5355;&#x64AD;&#x548C;&#x591A;&#x64AD;ping&#x65B9;&#x6CD5;&#x66F4;&#x591A;&#x7684;&#x4E0D;&#x540C;&#x70B9;&#xFF0C;&#x8BF7;&#x53C2;&#x8003;:http://en.wikipedia.org/wiki/Multicastand http://en.wikipedia.org/wiki/Unicast. </p>\u000a</div>\u000a<div style="float:left;width:13px;height:100%;background:black;">\u000a  <img src="../rm.png" height="40px" width="13px" style="margin-top:5px;">\u000a</div>\u000a</div> <!-- end of note structure -->\u000a\u000a<h4 id="&#x591A;&#x64AD;">&#x591A;&#x64AD;</h4>\u000a<p>&#x524D;&#x9762;&#x5DF2;&#x7ECF;&#x63D0;&#x5230;&#xFF0C;&#x8FD9;&#x662F;&#x9ED8;&#x8BA4;&#x7684;&#x7F51;&#x7EDC;&#x4F20;&#x8F93;&#x6A21;&#x5F0F;&#x3002;&#x5F53;&#x8282;&#x70B9;&#x5E76;&#x975E;&#x96C6;&#x7FA4;&#x7684;&#x4E00;&#x90E8;&#x5206;&#x65F6;(&#x6BD4;&#x5982;&#x8282;&#x70B9;&#x53EA;&#x662F;&#x521A;&#x521A;&#x542F;&#x52A8;&#x6216;&#x8005;&#x91CD;&#x542F; )&#xFF0C;&#x5B83;&#x4F1A;&#x53D1;&#x9001;&#x4E00;&#x4E2A;&#x591A;&#x64AD;&#x7684;ping&#x8BF7;&#x6C42;&#x5230;&#x7F51;&#x6BB5;&#x4E2D;&#xFF0C;&#x8BE5;&#x8BF7;&#x6C42;&#x53EA;&#x662F;&#x7528;&#x6765;&#x901A;&#x77E5;&#x6240;&#x6709;&#x80FD;&#x8FDE;&#x63A5;&#x5230;&#x8282;&#x70B9;&#x548C;&#x96C6;&#x7FA4;&#x5B83;&#x5DF2;&#x7ECF;&#x51C6;&#x5907;&#x597D;&#x52A0;&#x5165;&#x5230;&#x96C6;&#x7FA4;&#x4E2D;&#x3002;&#x5173;&#x4E8E;&#x591A;&#x64AD;&#x53D1;&#x9001;&#xFF0C;Zen&#x53D1;&#x73B0;&#x6A21;&#x5757;&#x66B4;&#x9732;&#x51FA;&#x5982;&#x4E0B;&#x7684;&#x8BBE;&#x7F6E;&#x9879;&#xFF1A;\u000a<ul>\u000a<li>discovery.zen.ping.multicast.address(&#x9ED8;&#x8BA4;&#x662F;&#x6240;&#x6709;&#x7684;&#x7F51;&#x7EDC;&#x63A5;&#x53E3;):&#x5C5E;&#x6027;&#x503C;&#x662F;&#x63A5;&#x53E3;&#x7684;&#x5730;&#x5740;&#x6216;&#x8005;&#x540D;&#x79F0;&#x3002;</li>\u000a<li>discovery.zen.ping.multicast.port(&#x9ED8;&#x8BA4;&#x662F;54328):&#x7AEF;&#x53E3;&#x7528;&#x4E8E;&#x7F51;&#x7EDC;&#x901A;&#x4FE1;&#x3002;</li>\u000a<li>discovery.zen.ping.multicast.group(&#x9ED8;&#x8BA4;&#x662F;:224.2.2.4):&#x4EE3;&#x8868;&#x591A;&#x64AD;&#x901A;&#x4FE1;&#x7684;&#x6D88;&#x606F;&#x63A5;&#x6536;&#x5730;&#x3002;</li>\u000a<li>discovery.zen.ping.multicast.buffer\u005c_size(&#x9ED8;&#x8BA4;&#x662F;:2048byte):</li>\u000a<li>discovery.zen.ping.multicast.ttl(&#x9ED8;&#x8BA4;&#x662F;3):&#x5B83;&#x4EE3;&#x8868;&#x591A;&#x64AD;&#x4FE1;&#x606F;&#x7684;&#x751F;&#x5B58;&#x65F6;&#x95F4;&#x3002;&#x53EA;&#x8981;&#x6570;&#x636E;&#x5305;&#x901A;&#x8FC7;&#x7684;&#x8DEF;&#x7531;&#xFF0C;TTL&#x503C;&#x5C31;&#x5E9F;&#x5F03;&#x4E86;&#x3002;&#x901A;&#x8FC7;&#x8BE5;&#x53C2;&#x6570;&#x53EF;&#x4EE5;&#x9650;&#x5236;&#x4FE1;&#x606F;&#x63A5;&#x6536;&#x7684;&#x533A;&#x57DF;&#x3002;&#x6CE8;&#x610F;&#x8DEF;&#x7531;&#x5668;&#x53EF;&#x4EE5;&#x6307;&#x5B9A;&#x4E00;&#x4E2A;&#x7C7B;&#x4F3C;&#x4E8E;TTL&#x503C;&#x7684;&#x9608;&#x503C;&#x6765;&#x786E;&#x4FDD;TTL&#x503C;&#x5E76;&#x975E;&#x552F;&#x4E00;&#x53EF;&#x4EE5;&#x9650;&#x5236;&#x6570;&#x636E;&#x5305;&#x53EF;&#x4EE5;&#x8DF3;&#x8FC7;&#x8DEF;&#x7531;&#x5668;&#x7684;&#x56E0;&#x7D20;&#x3002;</li>\u000a<li>discovery.zen.ping.multicast.enabled(&#x9ED8;&#x8BA4;&#x503C;&#x4E3A;true):&#x8BBE;&#x7F6E;&#x8BE5;&#x5C5E;&#x6027;&#x503C;&#x7684;&#x503C;&#x4E3A;false&#x5C31;&#x5173;&#x95ED;&#x4E86;&#x591A;&#x64AD;&#x4F20;&#x8F93;&#x3002;&#x5982;&#x679C;&#x8BA1;&#x5212;&#x4F7F;&#x7528;&#x5355;&#x64AD;&#x4F20;&#x8F93;&#xFF0C;&#x5C31;&#x5E94;&#x8BE5;&#x5173;&#x95ED;&#x591A;&#x64AD;&#x4F20;&#x8F93;&#x3002; </li>\u000a</ul>\u000a</p>\u000a\u000a<h4 id="&#x5355;&#x64AD;">&#x5355;&#x64AD;</h4>\u000a<p>&#x5F53;&#x50CF;&#x524D;&#x9762;&#x63CF;&#x8FF0;&#x7684;&#x90A3;&#x6837;&#x5173;&#x95ED;&#x591A;&#x64AD;&#xFF0C;&#x5C31;&#x53EF;&#x4EE5;&#x5B89;&#x5168;&#x5730;&#x4F7F;&#x7528;&#x5355;&#x64AD;&#x3002;&#x5F53;&#x8282;&#x70B9;&#x4E0D;&#x662F;&#x96C6;&#x7FA4;&#x7684;&#x4E00;&#x90E8;&#x5206;&#x65F6;(&#x6BD4;&#x5982;&#x8282;&#x70B9;&#x91CD;&#x542F;&#xFF0C;&#x542F;&#x52A8;&#x6216;&#x8005;&#x7531;&#x4E8E;&#x67D0;&#x4E9B;&#x9519;&#x8BEF;&#x4ECE;&#x96C6;&#x7FA4;&#x4E2D;&#x65AD;&#x5F00;)&#xFF0C;&#x8282;&#x70B9;&#x4F1A;&#x53D1;&#x9001;&#x4E00;&#x4E2A;ping&#x8BF7;&#x6C42;&#x5230;&#x4E8B;&#x5148;&#x8BBE;&#x7F6E;&#x597D;&#x7684;&#x5730;&#x5740;&#x4E2D;&#xFF0C;&#x6765;&#x901A;&#x77E5;&#x96C6;&#x7FA4;&#x5B83;&#x5DF2;&#x7ECF;&#x51C6;&#x5907;&#x597D;&#x52A0;&#x5165;&#x5230;&#x96C6;&#x7FA4;&#x4E2D;&#x4E86;&#x3002;&#x76F8;&#x5173;&#x7684;&#x914D;&#x7F6E;&#x9879;&#x5F88;&#x7B80;&#x5355;&#xFF0C;&#x5982;&#x4E0B;&#xFF1A;\u000a<ul>\u000a<li>discovery.zen.ping.unicats.hosts:&#x8BE5;&#x914D;&#x7F6E;&#x9879;&#x4EE3;&#x8868;&#x96C6;&#x7FA4;&#x4E2D;&#x521D;&#x59CB;&#x7ED3;&#x70B9;&#x7684;&#x4E3B;&#x673A;&#x5217;&#x8868;&#x3002;&#x6BCF;&#x4E2A;&#x4E3B;&#x673A;&#x7531;&#x540D;&#x5B57;(&#x6216;&#x8005;IP&#x5730;&#x5740;)&#x52A0;&#x7AEF;&#x53E3;&#x6216;&#x8005;&#x7AEF;&#x53E3;&#x8303;&#x56F4;&#x7EC4;&#x6210;&#x3002;&#x6BD4;&#x5982;&#xFF0C;&#x8BE5;&#x5C5E;&#x6027;&#x503C;&#x53EF;&#x4EE5;&#x662F;&#x5982;&#x4E0B;&#x7684;&#x5199;&#x6CD5;&#xFF1A;[&quot;master1&quot;,&quot;master2:8181&quot;, &quot;master3[80000-81000]&quot;] &#xFF0C;&#x56E0;&#x6B64;&#x7528;&#x4E8E;&#x5355;&#x64AD;&#x8282;&#x70B9;&#x53D1;&#x73B0;&#x7684;&#x4E3B;&#x673A;&#x5217;&#x8868;&#x57FA;&#x672C;&#x4E0A;&#x4E0D;&#x5FC5;&#x662F;&#x96C6;&#x7FA4;&#x4E2D;&#x7684;&#x6240;&#x6709;&#x8282;&#x70B9;&#xFF0C;&#x56E0;&#x4E3A;&#x4E00;&#x4E2A;&#x8282;&#x70B9;&#x4E00;&#x65E6;&#x8FDE;&#x63A5;&#x5230;&#x96C6;&#x7FA4;&#x4E2D;&#x7684;&#x4E00;&#x4E2A;&#x8282;&#x70B9;&#xFF0C;&#x8FD9;&#x4E2A;&#x8FDE;&#x63A5;&#x4FE1;&#x606F;&#x5C31;&#x4F1A;&#x53D1;&#x9001;&#x96C6;&#x7FA4;&#x4E2D;&#x5176;&#x5B83;&#x6240;&#x6709;&#x7684;&#x8282;&#x70B9;&#x3002; </li>\u000a<li> discovery.zen.ping.unicats.concurrent\u005c_connects(&#x9ED8;&#x8BA4;&#x503C;: 10):&#x8BE5;&#x5C5E;&#x6027;&#x6307;&#x5B9A;&#x8282;&#x70B9;&#x53D1;&#x73B0;&#x6A21;&#x5757;&#x80FD;&#x591F;&#x5F00;&#x542F;&#x7684;&#x5355;&#x64AD;&#x6700;&#x5927;&#x5E76;&#x53D1;&#x8FDE;&#x63A5;&#x6570;&#x3002;</li>\u000a</ul>\u000a</p>\u000a\u000a<h4 id="&#x4E3B;&#x8282;&#x70B9;&#x5019;&#x9009;&#x8282;&#x70B9;&#x4E2A;&#x6570;&#x7684;&#x6700;&#x5C0F;&#x5316;">&#x4E3B;&#x8282;&#x70B9;&#x5019;&#x9009;&#x8282;&#x70B9;&#x4E2A;&#x6570;&#x7684;&#x6700;&#x5C0F;&#x5316;</h4>\u000a<p>&#x5BF9;&#x4E8E;&#x8282;&#x70B9;&#x53D1;&#x73B0;&#x6A21;&#x5757;&#x6765;&#x8BF4;&#xFF0C;discovery.zen.minimum\u005c_master\u005c_nodes&#x65E0;&#x7591;&#x662F;&#x6700;&#x91CD;&#x8981;&#x7684;&#x4E00;&#x4E2A;&#x5C5E;&#x6027;&#x3002;&#x8BE5;&#x5C5E;&#x6027;&#x5141;&#x8BB8;&#x7528;&#x6237;&#x8BBE;&#x7F6E;&#x96C6;&#x7FA4;&#x9009;&#x4E3E;&#x65F6;&#x4E3B;&#x8282;&#x70B9;&#x7684;&#x5019;&#x9009;&#x8282;&#x70B9;&#x6570;&#xFF0C;&#x8BE5;&#x6570;&#x503C;&#x662F;&#x7EC4;&#x5EFA;&#x96C6;&#x7FA4;&#x6240;&#x5FC5;&#x987B;&#x7684;&#x3002;&#x8BE5;&#x5C5E;&#x6027;&#x5B58;&#x5728;&#x7684;&#x610F;&#x4E49;&#x5C31;&#x662F;&#x89E3;&#x51B3;&#x96C6;&#x7FA4;&#x7684;&#x88C2;&#x8111;&#x73B0;&#x8C61;&#x3002;&#x7531;&#x4E8E;&#x67D0;&#x4E9B;&#x6545;&#x969C;(&#x6BD4;&#x5982;&#x7F51;&#x7EDC;&#x6545;&#x969C;)&#xFF0C;&#x7F51;&#x7EDC;&#x4E2D;&#x539F;&#x6765;&#x7684;&#x96C6;&#x7FA4;&#x5206;&#x6210;&#x4E86;&#x591A;&#x4E2A;&#x90E8;&#x5206;&#xFF0C;&#x6BCF;&#x4E2A;&#x90E8;&#x5206;&#x7684;&#x96C6;&#x7FA4;&#x540D;&#x5B57;&#x90FD;&#x76F8;&#x540C;&#xFF0C;&#x8FD9;&#x79CD;&#x73B0;&#x8C61;&#x5C31;&#x662F;&#x96C6;&#x7FA4;&#x7684;&#x88C2;&#x8111;&#x73B0;&#x8C61;&#x3002;&#x4F60;&#x53EF;&#x4EE5;&#x60F3;&#x8C61;&#x4E24;&#x4E2A;&#x540C;&#x540D;&#x7684;&#x96C6;&#x7FA4;(&#x672C;&#x5E94;&#x8BE5;&#x662F;&#x4E00;&#x4E2A;)&#x7D22;&#x5F15;&#x7740;&#x4E0D;&#x540C;&#x7684;&#x6570;&#x636E;&#xFF0C;&#x5F88;&#x5BB9;&#x6613;&#x5C31;&#x4F1A;&#x51FA;&#x73B0;&#x95EE;&#x9898;&#x3002;&#x56E0;&#x6B64;&#xFF0C;&#x4E13;&#x5BB6;&#x5EFA;&#x8BAE;&#x4F7F;&#x7528;discovery.zen.minimum\u005c_master\u005c_nodes&#x5C5E;&#x6027;&#xFF0C;&#x5E76;&#x4E14;&#x8BE5;&#x5C5E;&#x6027;&#x503C;&#x7684;&#x4E0B;&#x9650;&#x662F;&#x96C6;&#x7FA4;&#x8282;&#x70B9;&#x603B;&#x6570;&#x7684;50%+1&#x3002;&#x6BD4;&#x5982;&#xFF0C;&#x5982;&#x679C;&#x4F60;&#x4EEC;&#x96C6;&#x7FA4;&#x6709;9&#x4E2A;&#x8282;&#x70B9;&#xFF0C;&#x6240;&#x6709;&#x7684;&#x8282;&#x70B9;&#x90FD;&#x53EF;&#x4EE5;&#x4F5C;&#x4E3A;&#x4E3B;&#x7ED3;&#x70B9;&#xFF0C;&#x6211;&#x4EEC;&#x5C31;&#x9700;&#x8981;&#x8BBE;&#x7F6E;discovery.zen.minimum\u005c_master\u005c_nodes&#x5C5E;&#x6027;&#x503C;&#x4E3A;5&#x3002;&#x5373;&#x96C6;&#x7FA4;&#x4E2D;&#x81F3;&#x5C11;&#x8981;&#x6709;5&#x4E2A;&#x7B26;&#x5408;&#x9009;&#x4E3E;&#x6761;&#x4EF6;&#x7684;&#x8282;&#x70B9;&#xFF0C;&#x624D;&#x80FD;&#x591F;&#x9009;&#x62E9;&#x51FA;&#x4E00;&#x4E2A;&#x4E3B;&#x8282;&#x70B9;&#x3002; </p>\u000a\u000a<h4 id="zen&#x53D1;&#x73B0;&#x673A;&#x5236;&#x7684;&#x6545;&#x969C;&#x68C0;&#x6D4B;">Zen&#x53D1;&#x73B0;&#x673A;&#x5236;&#x7684;&#x6545;&#x969C;&#x68C0;&#x6D4B;</h4>\u000a<p>ElasticSearch&#x8FD0;&#x884C;&#x65F6;&#x4F1A;&#x542F;&#x52A8;&#x4E24;&#x4E2A;&#x63A2;&#x6D4B;&#x8FDB;&#x7A0B;&#x3002;&#x4E00;&#x4E2A;&#x8FDB;&#x7A0B;&#x7528;&#x4E8E;&#x4ECE;&#x4E3B;&#x8282;&#x70B9;&#x5411;&#x96C6;&#x7FA4;&#x4E2D;&#x5176;&#x5B83;&#x8282;&#x70B9;&#x53D1;&#x9001;ping&#x8BF7;&#x6C42;&#x6765;&#x68C0;&#x6D4B;&#x8282;&#x70B9;&#x662F;&#x5426;&#x6B63;&#x5E38;&#x53EF;&#x7528;&#x3002;&#x53E6;&#x4E00;&#x4E2A;&#x8FDB;&#x7A0B;&#x7684;&#x5DE5;&#x4F5C;&#x53CD;&#x8FC7;&#x6765;&#x4E86;&#xFF0C;&#x5176;&#x5B83;&#x7684;&#x8282;&#x70B9;&#x5411;&#x4E3B;&#x8282;&#x70B9;&#x53D1;&#x9001;ping&#x8BF7;&#x6C42;&#x6765;&#x9A8C;&#x8BC1;&#x4E3B;&#x8282;&#x70B9;&#x662F;&#x5426;&#x6B63;&#x5E38;&#x4E14;&#x5FE0;&#x4E8E;&#x804C;&#x5B88;&#x3002;&#x4F46;&#x662F;&#xFF0C;&#x5982;&#x679C;&#x6211;&#x4EEC;&#x7684;&#x7F51;&#x7EDC;&#x5F88;&#x6162;&#x6216;&#x8005;&#x8282;&#x70B9;&#x5206;&#x5E03;&#x5728;&#x4E0D;&#x540C;&#x7684;&#x4E3B;&#x673A;&#xFF0C;&#x9ED8;&#x8BA4;&#x7684;&#x914D;&#x7F6E;&#x53EF;&#x80FD;&#x663E;&#x5F97;&#x529B;&#x4E0D;&#x4ECE;&#x5FC3;&#x3002;&#x56E0;&#x6B64;&#xFF0C;ElasticSearch&#x7684;&#x8282;&#x70B9;&#x53D1;&#x73B0;&#x6A21;&#x5757;&#x5F00;&#x653E;&#x51FA;&#x4E86;&#x5982;&#x4E0B;&#x7684;&#x5C5E;&#x6027;&#xFF1A;\u000a<ul>\u000a<li>discovery.zen.fd.ping_interval:&#x8BE5;&#x5C5E;&#x6027;&#x7684;&#x9ED8;&#x8BA4;&#x503C;&#x662F;1s,&#x6307;&#x5B9A;&#x4E86;&#x672C;&#x8282;&#x70B9;&#x9694;&#x591A;&#x4E45;&#x5411;&#x76EE;&#x6807;&#x7ED3;&#x70B9;&#x53D1;&#x9001;&#x4E00;&#x6B21;ping&#x8BF7;&#x6C42;&#x3002;</li>\u000a<li>discovery.zen.fd.ping_timeout:&#x8BE5;&#x5C5E;&#x6027;&#x7684;&#x9ED8;&#x8BA4;&#x503C;&#x662F;30s,&#x6307;&#x5B9A;&#x4E86;&#x8282;&#x70B9;&#x7B49;&#x5F85;ping&#x8BF7;&#x6C42;&#x7684;&#x56DE;&#x590D;&#x65F6;&#x95F4;&#x3002;&#x5982;&#x679C;&#x8282;&#x70B9;&#x767E;&#x5206;&#x767E;&#x53EF;&#x7528;&#x6216;&#x8005;&#x7F51;&#x7EDC;&#x6BD4;&#x8F83;&#x6162;&#xFF0C;&#x53EF;&#x80FD;&#x5C31;&#x9700;&#x8981;&#x589E;&#x52A0;&#x8BE5;&#x5C5E;&#x6027;&#x503C;&#x3002;</li>\u000a<li>discovery.zen.fd.ping_retries:&#x8BE5;&#x5C5E;&#x6027;&#x503C;&#x9ED8;&#x8BA4;&#x4E3A;3&#xFF0C;&#x6307;&#x5B9A;&#x4E86;&#x5728;&#x76EE;&#x6807;&#x8282;&#x70B9;&#x88AB;&#x8BA4;&#x5B9A;&#x4E0D;&#x53EF;&#x7528;&#x4E4B;&#x524D;ping&#x8BF7;&#x6C42;&#x91CD;&#x8BD5;&#x7684;&#x6B21;&#x6570;&#x3002;&#x7528;&#x6237;&#x53EF;&#x4EE5;&#x5728;&#x7F51;&#x7EDC;&#x4E22;&#x5305;&#x6BD4;&#x8F83;&#x4E25;&#x91CD;&#x7684;&#x7F51;&#x7EDC;&#x72B6;&#x51B5;&#x4E0B;&#x589E;&#x52A0;&#x8BE5;&#x5C5E;&#x6027;&#x503C;(&#x6216;&#x8005;&#x4FEE;&#x590D;&#x7F51;&#x7EDC;&#x72B6;&#x51B5;)&#x3002;</li>\u000a</ul>\u000a</p>\u000a\u000a<h4 id="amazon-ec2-discovery">Amazon EC2 discovery</h4>\u000a<blockquote>\u000a    &#x5173;&#x4E8E;Amazon EC2 discovery&#x76F8;&#x5173;&#x5185;&#x5BB9;&#x6682;&#x65F6;&#x4E0D;&#x7FFB;&#x8BD1;\u000a</blockquote>\u000a\u000a<h4 id="&#x672C;&#x5730;gateway">&#x672C;&#x5730;Gateway</h4>\u000a<p>&#x968F;&#x7740;ElasticSearch 0.20&#x7248;&#x672C;&#x53D1;&#x5E03;(&#x6709;&#x4E9B;&#x5728;0.19&#x7248;&#x672C;&#x4E2D;)&#xFF0C;&#x9664;&#x9ED8;&#x8BA4;&#x7684;local&#x7C7B;&#x578B;&#x5916;&#xFF0C;&#x5176;&#x5B83;&#x6240;&#x6709;&#x7684;gateway&#x7C7B;&#x578B;&#xFF0C;&#x90FD;&#x5C06;&#x5E9F;&#x5F03;&#x5E76;&#x4E14;&#x4E0D;&#x5EFA;&#x8BAE;&#x7528;&#x6237;&#x4F7F;&#x7528;&#xFF0C;&#x56E0;&#x4E3A;&#x5728;&#x672A;&#x6765;&#x7684;ElasticSearch&#x7248;&#x672C;&#x4E2D;&#xFF0C;&#x8FD9;&#x4E9B;&#x7C7B;&#x578B;&#x5C06;&#x88AB;&#x79FB;&#x9664;&#x3002;&#x5982;&#x679C;&#x60F3;&#x907F;&#x514D;&#x51FA;&#x73B0;&#x6574;&#x4E2A;&#x6570;&#x636E;&#x96C6;&#x91CD;&#x65B0;&#x7D22;&#x5F15;&#x7684;&#x60C5;&#x51B5;&#xFF0C;&#x7528;&#x6237;&#x5E94;&#x8BE5;&#x53EA;&#x4F7F;&#x7528;local&#x7C7B;&#x578B;&#x7684;gateway&#xFF0C;&#x8FD9;&#x4E5F;&#x662F;&#x6211;&#x4EEC;&#x4E3A;&#x4EC0;&#x4E48;&#x4E0D;&#x63A2;&#x8BA8;&#x6240;&#x6709;&#x5176;&#x5B83;&#x7C7B;&#x578B;gateway&#x7684;&#x539F;&#x56E0;&#x3002;\u000alocal&#x7C7B;&#x578B;&#x7684;gateway&#x4F7F;&#x7528;&#x672C;&#x673A;&#x786C;&#x76D8;&#x5B58;&#x50A8;&#x8282;&#x70B9;&#x4E0A;&#x7684;&#x5143;&#x6570;&#x636E;&#x3001;mappings&#x6570;&#x636E;&#x3001;&#x7D22;&#x5F15;&#x6570;&#x636E;&#x3002;&#x4E3A;&#x4E86;&#x80FD;&#x591F;&#x4F7F;&#x7528;&#x8FD9;&#x79CD;gateway&#x7C7B;&#x578B;&#xFF0C;&#x9700;&#x8981;&#x670D;&#x52A1;&#x5668;&#x7684;&#x786C;&#x76D8;&#x6709;&#x8DB3;&#x591F;&#x7684;&#x7A7A;&#x95F4;&#x5728;&#x4E0D;&#x4F7F;&#x7528;&#x5185;&#x5B58;&#x7F13;&#x5B58;&#x7684;&#x60C5;&#x51B5;&#x4E0B;&#x5B58;&#x50A8;&#x6240;&#x6709;&#x6570;&#x636E;&#x3002;local&#x7C7B;&#x578B;&#x7684;gateway&#x6301;&#x4E45;&#x5316;&#x6570;&#x636E;&#x7684;&#x65B9;&#x5F0F;&#x4E0E;&#x5176;&#x5B83;gateway&#x6709;&#x6240;&#x4E0D;&#x540C;&#xFF0C;&#x4E3A;&#x4E86;&#x786E;&#x4FDD;&#x5728;&#x5199;&#x6570;&#x636E;&#x7684;&#x8FC7;&#x7A0B;&#x4E2D;&#xFF0C;&#x6570;&#x636E;&#x4E0D;&#x4E22;&#x5931;&#xFF0C;&#x5B83;&#x91C7;&#x7528;&#x540C;&#x6B65;&#x7684;&#x65B9;&#x5F0F;&#x6765;&#x5B8C;&#x6210;&#x5199;&#x6570;&#x636E;&#x7684;&#x529F;&#x80FD;&#x3002;\u000a</p>\u000a<!--note structure -->\u000a<div style="height:50px;width:650px;text-indent:0em;">\u000a<div style="float:left;width:13px;height:100%; background:black;">\u000a  <img src="../lm.png" height="40px" width="13px" style="margin-top:5px;">\u000a</div>\u000a<div style="float:left;width:50px;height:100%;position:relative;">\u000a    <img src="../note.png" style="position:absolute; top:30%; ">\u000a</div>\u000a<div style="float:left; width:550px;height:100%;">\u000a    <p style="font-size:13px;margin-top:5px;">&#x5982;&#x679C;&#x60F3;&#x8BBE;&#x7F6E;&#x96C6;&#x7FA4;&#x4F7F;&#x7528;&#x7684;gateway&#x7C7B;&#x578B;&#xFF0C;&#x7528;&#x6237;&#x9700;&#x8981;&#x4F7F;&#x7528;gateway.type&#x5C5E;&#x6027;&#xFF0C;&#x9ED8;&#x8BA4;&#x60C5;&#x51B5;&#x4E0B;&#x8BE5;&#x5C5E;&#x6027;&#x503C;&#x4E3A;local </p>\u000a</div>\u000a<div style="float:left;width:13px;height:100%;background:black;">\u000a  <img src="../rm.png" height="40px" width="13px" style="margin-top:5px;">\u000a</div>\u000a</div> <!-- end of note structure -->\u000a\u000a<h4 id="local&#x7C7B;&#x578B;gateway&#x7684;&#x5907;&#x4EFD;">local&#x7C7B;&#x578B;gateway&#x7684;&#x5907;&#x4EFD;</h4>\u000a<p>ElasticSearch&#x76F4;&#x5230;0.90.5&#x7248;&#x672C;(&#x5305;&#x62EC;&#x8BE5;&#x7248;&#x672C;)&#x90FD;&#x4E0D;&#x652F;&#x6301;&#x5B58;&#x50A8;&#x5728;local&#x7C7B;&#x578B;gateway&#x4E2D;&#x6570;&#x636E;&#x7684;&#x81EA;&#x52A8;&#x5907;&#x4EFD;&#x3002;&#x7136;&#x800C;&#xFF0C;&#x505A;&#x6570;&#x636E;&#x5907;&#x4EFD;&#x662F;&#x81F3;&#x5173;&#x91CD;&#x8981;&#x7684;&#xFF0C;&#x6BD4;&#x5982;&#xFF0C;&#x5982;&#x679C;&#x60F3;&#x628A;&#x96C6;&#x7FA4;&#x5347;&#x7EA7;&#x5230;&#x4E00;&#x4E2A;&#x6BD4;&#x8F83;&#x65B0;&#x7684;&#x7248;&#x672C;&#xFF0C;&#x5982;&#x679C;&#x5347;&#x7EA7;&#x51FA;&#x73B0;&#x4E86;&#x4E00;&#x4E9B;&#x95EE;&#x9898;&#xFF0C;&#x5C31;&#x9700;&#x8981;&#x56DE;&#x6EDA;&#x64CD;&#x4F5C;&#x4E86;&#x3002;&#x4E3A;&#x4E86;&#x5B8C;&#x6210;&#x4E0A;&#x8FF0;&#x7684;&#x64CD;&#x4F5C;&#xFF0C;&#x9700;&#x8981;&#x6267;&#x884C;&#x5982;&#x4E0B;&#x7684;&#x6B65;&#x9AA4;&#xFF1A;\u000a<ul>\u000a<li>&#x505C;&#x6B62;&#x53D1;&#x751F;&#x5728;ElasticSearch&#x96C6;&#x7FA4;&#x4E2D;&#x7684;&#x6570;&#x636E;&#x7D22;&#x5F15;&#x64CD;&#x4F5C;(&#x8FD9;&#x53EF;&#x80FD;&#x610F;&#x5473;&#x7740;&#x505C;&#x6B62;rivers&#x6216;&#x8005;&#x4EFB;&#x4F55;&#x5411;ElasticSearch&#x96C6;&#x7FA4;&#x53D1;&#x9001;&#x6570;&#x636E;&#x7684;&#x5E94;&#x7528;)</li>\u000a<li>&#x7528;Flush API&#x5237;&#x65B0;&#x6240;&#x6709;&#x8FD8;&#x6CA1;&#x6709;&#x63D0;&#x4EA4;&#x7684;&#x6570;&#x636E;&#x3002;</li>\u000a<li>&#x4E3A;&#x96C6;&#x7FA4;&#x4E2D;&#x7684;&#x6BCF;&#x4E00;&#x4E2A;&#x5206;&#x7247;&#x81F3;&#x5C11;&#x521B;&#x5EFA;&#x4E00;&#x4E2A;&#x62F7;&#x8D1D;&#xFF0C;&#x4E07;&#x4E00;&#x51FA;&#x73B0;&#x95EE;&#x9898;&#xFF0C;&#x4E5F;&#x80FD;&#x627E;&#x56DE;&#x6570;&#x636E;&#x3002;&#x5F53;&#x7136;&#xFF0C;&#x5982;&#x679C;&#x5E0C;&#x671B;&#x5C3D;&#x53EF;&#x80FD;&#x7B80;&#x5355;&#x5730;&#x89E3;&#x51B3;&#x95EE;&#x9898;&#xFF0C;&#x4E5F;&#x53EF;&#x4EE5;&#x590D;&#x5236;&#x6574;&#x4E2A;&#x96C6;&#x7FA4;&#x4E2D;&#x6BCF;&#x4E2A;&#x8282;&#x70B9;&#x7684;&#x6240;&#x6709;&#x6570;&#x636E;&#x4F5C;&#x4E3A;&#x5907;&#x7528;&#x96C6;&#x7FA4;&#x3002;</li>\u000a</ul>\u000a</p>\u000a<h4 id="&#x6062;&#x590D;&#x673A;&#x5236;&#x7684;&#x914D;&#x7F6E;">&#x6062;&#x590D;&#x673A;&#x5236;&#x7684;&#x914D;&#x7F6E;</h4>\u000a<p>&#x6211;&#x4EEC;&#x5DF2;&#x7ECF;&#x63D0;&#x5230;&#x53EF;&#x4EE5;&#x4F7F;&#x7528;gateway&#x6765;&#x914D;&#x7F6E;ElasticSearch&#x6062;&#x590D;&#x8FC7;&#x7A0B;&#x7684;&#x884C;&#x4E3A;,&#x4F46;&#x662F;&#x9664;&#x5916;&#x4E4B;&#x5916;&#xFF0C;ElasticSearch&#x8FD8;&#x5141;&#x8BB8;&#x7528;&#x6237;&#x81EA;&#x5DF1;&#x914D;&#x7F6E;&#x6062;&#x590D;&#x8FC7;&#x7A0B;&#x3002;&#x5728;&#x7B2C;4&#x7AE0; &#x5206;&#x5E03;&#x5F0F;&#x7D22;&#x5F15;&#x6784;&#x67B6; &#x7684; &#x6539;&#x53D8;&#x5206;&#x7247;&#x7684;&#x9ED8;&#x8BA4;&#x5206;&#x914D;&#x65B9;&#x5F0F;&#x4E00;&#x8282;&#x4E2D;&#xFF0C;&#x6211;&#x4EEC;&#x5DF2;&#x7ECF;&#x63D0;&#x5230;&#x4E00;&#x4E9B;&#x6062;&#x590D;&#x529F;&#x80FD;&#x7684;&#x914D;&#x7F6E;&#xFF0C;&#x4F46;&#x662F;&#xFF0C;&#x6211;&#x4EEC;&#x8BA4;&#x4E3A;&#x5728;gateway&#x548C;recovery&#x76F8;&#x5173;&#x7684;&#x7AE0;&#x8282;&#x4E2D;&#x8BA8;&#x8BBA;&#x8FD9;&#x4E9B;&#x7528;&#x5230;&#x7684;&#x5C5E;&#x6027;&#x662F;&#x6700;&#x5408;&#x9002;&#x7684;&#x3002; </p>\u000a\u000a<h4 id="clusterlevel-&#x6062;&#x590D;&#x673A;&#x5236;&#x7684;&#x914D;&#x7F6E;">cluster-level &#x6062;&#x590D;&#x673A;&#x5236;&#x7684;&#x914D;&#x7F6E;</h4>\u000a<p>&#x7EDD;&#x5927;&#x591A;&#x6570;&#x6062;&#x590D;&#x673A;&#x5236;&#x90FD;&#x662F;&#x5B9A;&#x4E49;&#x5728;&#x96C6;&#x7FA4;&#x5C42;&#x9762;&#x7684;&#xFF0C;&#x7528;&#x6237;&#x901A;&#x8FC7;&#x4E3A;&#x6062;&#x590D;&#x6A21;&#x5757;&#x8BBE;&#x7F6E;&#x901A;&#x7528;&#x7684;&#x89C4;&#x5219;&#x6765;&#x63A7;&#x5236;&#x6062;&#x590D;&#x6A21;&#x5757;&#x7684;&#x5DE5;&#x4F5C;&#x3002;&#x8FD9;&#x4E9B;&#x8BBE;&#x7F6E;&#x9879;&#x5982;&#x4E0B;&#xFF1A;\u000a<ul>\u000a<li>indices.recovery.concurrent\u005c_streams:&#x8BE5;&#x5C5E;&#x6027;&#x7684;&#x9ED8;&#x8BA4;&#x503C;&#x4E3A;3&#xFF0C;&#x8868;&#x660E;&#x4ECE;&#x6570;&#x636E;&#x6E90;&#x6062;&#x590D;&#x5206;&#x7247;&#x6570;&#x636E;&#x65F6;&#xFF0C;&#x5141;&#x8BB8;&#x540C;&#x65F6;&#x6253;&#x5F00;&#x7684;&#x6570;&#x636E;&#x6D41;&#x901A;&#x9053;&#x3002;&#x8BE5;&#x503C;&#x8D8A;&#x5927;&#xFF0C;&#x7F51;&#x7EDC;&#x5C42;&#x7684;&#x538B;&#x529B;&#x4E5F;&#x5C31;&#x8D8A;&#x5927;&#xFF0C;&#x540C;&#x65F6;&#x6062;&#x590D;&#x7684;&#x901F;&#x5EA6;&#x4E5F;&#x5C31;&#x8D8A;&#x5FEB;&#xFF0C;&#x5F53;&#x7136;&#x6062;&#x590D;&#x901F;&#x5EA6;&#x4E0E;&#x7F51;&#x7EDC;&#x4F7F;&#x7528;&#x91CF;&#x548C;&#x603B;&#x7684;&#x541E;&#x5410;&#x91CF;&#x4E5F;&#x6709;&#x5173;&#x7CFB;&#x3002;  </li><li>\u000a</li><li>indices.recovery.max\u005c_bytes\u005c_per\u005c_sec:&#x8BE5;&#x5C5E;&#x6027;&#x9ED8;&#x8BA4;&#x8BBE;&#x7F6E;&#x4E3A;20MB&#xFF0C;&#x8868;&#x793A;&#x5206;&#x7247;&#x5728;&#x6062;&#x590D;&#x8FC7;&#x7A0B;&#x4E2D;&#x6BCF;&#x79D2;&#x4F20;&#x8F93;&#x7684;&#x6700;&#x5927;&#x6570;&#x636E;&#x91CF;&#x3002;&#x8981;&#x60F3;&#x5173;&#x95ED;&#x4F20;&#x8F93;&#x91CF;&#x7684;&#x9650;&#x5236;&#xFF0C;&#x7528;&#x6237;&#x9700;&#x8981;&#x8BBE;&#x7F6E;&#x8BE5;&#x5C5E;&#x6027;&#x503C;&#x4E3A;0&#x3002;&#x4E0E;&#x5E76;&#x53D1;&#x6D41;&#x7684;&#x529F;&#x80FD;&#x76F8;&#x4F3C;&#xFF0C;&#x8BE5;&#x5C5E;&#x6027;&#x5141;&#x8BB8;&#x7528;&#x6237;&#x5728;&#x6062;&#x590D;&#x8FC7;&#x7A0B;&#x4E2D;&#x63A7;&#x5236;&#x7F51;&#x7EDC;&#x7684;&#x6D41;&#x91CF;&#x3002;&#x8BBE;&#x7F6E;&#x8BE5;&#x5C5E;&#x6027;&#x4E00;&#x4E2A;&#x6BD4;&#x8F83;&#x5927;&#x7684;&#x503C;&#x4F1A;&#x5BFC;&#x81F4;&#x7F51;&#x7EDC;&#x53D8;&#x5F97;&#x7E41;&#x5FD9;&#xFF0C;&#x5F53;&#x7136;&#x6062;&#x590D;&#x8FC7;&#x7A0B;&#x4E5F;&#x4F1A;&#x52A0;&#x5FEB;&#x3002;</li><li>\u000a</li><li>indices.recovery.compress:&#x8BE5;&#x5C5E;&#x6027;&#x503C;&#x9ED8;&#x8BA4;&#x4E3A;true&#xFF0C;&#x5141;&#x8BB8;&#x7528;&#x6237;&#x81EA;&#x884C;&#x51B3;&#x5B9A;&#x5728;&#x6062;&#x590D;&#x8FC7;&#x7A0B;&#x662F;&#x5426;&#x5BF9;&#x6570;&#x636E;&#x8FDB;&#x884C;&#x538B;&#x7F29;&#x3002;&#x8BBE;&#x7F6E;&#x8BE5;&#x5C5E;&#x6027;&#x503C;&#x4E3A;false&#x53EF;&#x4EE5;&#x964D;&#x4F4E;CPU&#x7684;&#x538B;&#x529B;&#xFF0C;&#x4E0E;&#x6B64;&#x540C;&#x65F6;&#xFF0C;&#x4F1A;&#x5BFC;&#x81F4;&#x7F51;&#x7EDC;&#x9700;&#x8981;&#x4F20;&#x8F93;&#x66F4;&#x591A;&#x7684;&#x6570;&#x636E;&#x3002; </li><li>\u000a</li><li>indices.recovery.file\u005c_chunk\u005c_size:&#x8BE5;&#x5C5E;&#x6027;&#x503C;&#x6307;&#x5B9A;&#x4E86;&#x7528;&#x4E8E;&#x4ECE;&#x6E90;&#x6570;&#x636E;&#x590D;&#x5236;&#x5230;&#x5206;&#x7247;&#x65F6;&#xFF0C;&#x6BCF;&#x6B21;&#x590D;&#x5236;&#x7684;&#x6570;&#x636E;&#x5757;&#x7684;&#x5927;&#x5C0F;&#x3002;&#x9ED8;&#x8BA4;&#x503C;&#x662F;512KB,&#x540C;&#x65F6;&#x5982;&#x679C;indices.recovery.compress&#x5C5E;&#x6027;&#x8BBE;&#x7F6E;&#x4E3A;true&#xFF0C;&#x6570;&#x636E;&#x4F1A;&#x88AB;&#x538B;&#x7F29;&#x3002; </li><li>\u000a</li><li>indices.recovery.translog\u005c_ops:&#x8BE5;&#x5C5E;&#x6027;&#x503C;&#x9ED8;&#x8BA4;&#x4E3A;1000&#xFF0C;&#x6307;&#x5B9A;&#x4E86;&#x5728;&#x6062;&#x590D;&#x8FC7;&#x7A0B;&#x4E2D;&#xFF0C;&#x5355;&#x4E2A;&#x8BF7;&#x6C42;&#x4E2D;&#x5206;&#x7247;&#x95F4;&#x4F20;&#x8F93;&#x7684;&#x4E8B;&#x52A1;&#x65E5;&#x5FD7;&#x7684;&#x884C;&#x6570;&#x3002;</li><li>\u000a</li><li>indices.recovery.translog\u005c_size: &#x8BE5;&#x5C5E;&#x6027;&#x6307;&#x5B9A;&#x4E86;&#x4ECE;&#x6E90;&#x6570;&#x636E;&#x5206;&#x7247;&#x590D;&#x5236;&#x4E8B;&#x52A1;&#x65E5;&#x5FD7;&#x6570;&#x636E;&#x65F6;&#x6BCF;&#x6B21;&#x5904;&#x7406;&#x7684;&#x6570;&#x636E;&#x5757;&#x7684;&#x5927;&#x5C0F;&#x3002;&#x9ED8;&#x8BA4;&#x503C;&#x4E3A;512KB&#xFF0C;&#x540C;&#x65F6;&#x5982;&#x679C;&#x5982;&#x679C;indices.recovery.compress&#x5C5E;&#x6027;&#x8BBE;&#x7F6E;&#x4E3A;true&#xFF0C;&#x6570;&#x636E;&#x4F1A;&#x88AB;&#x538B;&#x7F29;&#x3002; </li><li>\u000a</li></ul>\u000a</p>\u000a<!--note structure -->\u000a<div style="height:50px;width:650px;text-indent:0em;">\u000a<div style="float:left;width:13px;height:100%; background:black;">\u000a  <img src="../lm.png" height="40px" width="13px" style="margin-top:5px;">\u000a</div>\u000a<div style="float:left;width:50px;height:100%;position:relative;">\u000a    <img src="../note.png" style="position:absolute; top:30%; ">\u000a</div>\u000a<div style="float:left; width:550px;height:100%;">\u000a    <p style="font-size:13px;margin-top:5px;">&#x5728;ElasticSearch 0.90.0&#x7248;&#x672C;&#x524D;&#xFF0C;&#x66FE;&#x7528;&#x5230;indices.recovery.max\u005c_size\u005c_per\u005c_sec&#x5C5E;&#x6027;&#xFF0C;&#x4F46;&#x662F;&#x5728;&#x968F;&#x540E;&#x7684;&#x7248;&#x672C;&#x4E2D;&#xFF0C;&#x8BE5;&#x5C5E;&#x6027;&#x503C;&#x88AB;&#x5E9F;&#x5F03;&#x4E86;&#xFF0C;&#x7531;indices.recovery.max\u005c_bytes\u005c_per\u005c_sec&#x5C5E;&#x6027;&#x66FF;&#x4EE3;&#x3002;&#x7136;&#x800C;&#xFF0C;&#x5982;&#x679C;&#x4F7F;&#x7528;0.90.0&#x7248;&#x672C;&#x524D;&#x7684;ElasticSearch&#xFF0C;&#x8FD8;&#x662F;&#x6709;&#x5FC5;&#x8981;&#x8BB0;&#x4F4F;&#x8FD9;&#x4E2A;&#x5C5E;&#x6027;&#x3002; </p>\u000a</div>\u000a<div style="float:left;width:13px;height:100%;background:black;">\u000a  <img src="../rm.png" height="40px" width="13px" style="margin-top:5px;">\u000a</div>\u000a</div> <!-- end of note structure -->\u000a<p>&#x4E0A;&#x8FF0;&#x7684;&#x6240;&#x6709;&#x5C5E;&#x6027;&#x90FD;&#x53EF;&#x4EE5;&#x901A;&#x8FC7;&#x96C6;&#x7FA4;&#x7684;update API&#x6216;&#x8005;elasticsearch.yml&#x6765;&#x8BBE;&#x7F6E;&#x751F;&#x6548;&#x3002;</p>\u000a\u000a<h4 id="indexlevel-&#x6062;&#x590D;&#x673A;&#x5236;&#x7684;&#x914D;&#x7F6E;">index-level &#x6062;&#x590D;&#x673A;&#x5236;&#x7684;&#x914D;&#x7F6E;</h4>\u000a<p>&#x9664;&#x4E86;&#x524D;&#x9762;&#x63D0;&#x5230;&#x7684;&#x5C5E;&#x6027;&#xFF0C;&#x8FD8;&#x6709;&#x4E00;&#x4E2A;&#x53EF;&#x4EE5;&#x4F5C;&#x7528;&#x4E8E;&#x5355;&#x4E2A;&#x7D22;&#x5F15;&#x7684;&#x5C5E;&#x6027;&#x3002;&#x8BE5;&#x5C5E;&#x6027;&#x53EF;&#x4EE5;&#x5728;elasticsearch.yml&#x6587;&#x4EF6;&#x4E2D;&#x8BBE;&#x7F6E;&#xFF0C;&#x4E5F;&#x53EF;&#x4EE5;&#x7528;&#x7D22;&#x5F15;&#x66F4;&#x65B0;&#x7684;API&#x6765;&#x8BBE;&#x7F6E;&#xFF0C;&#x5B83;&#x662F;index.recovery.initial\u005c_shards&#x3002;&#x901A;&#x5E38;&#x60C5;&#x51B5;&#x4E0B;&#xFF0C;&#x5F53;&#x96C6;&#x7FA4;&#x4E2D;&#x8FD8;&#x5B58;&#x5728;&#x7740;&#x4E0D;&#x4F4E;&#x4E8E;quorum&#x6570;&#x91CF;&#x7684;&#x5206;&#x7247;&#xFF0C;&#x5E76;&#x4E14;&#x8FD9;&#x4E9B;&#x5206;&#x7247;&#x90FD;&#x53EF;&#x8FDB;&#x884C;&#x5206;&#x914D;&#x65F6;&#xFF0C;ElasticSearch&#x53EA;&#x4F1A;&#x6062;&#x590D;&#x4E00;&#x4E2A;&#x7279;&#x6B8A;&#x7684;&#x5206;&#x7247;&#x3002;quorum&#x6570;&#x91CF;&#x662F;&#x6307;&#x603B;&#x7684;&#x5206;&#x7247;&#x6570;&#x91CF;&#x52A0;&#x4E00;&#x3002;&#x901A;&#x8FC7;&#x4F7F;&#x7528;index.recovery.initial\u005c_shards&#x5C5E;&#x6027;&#x65F6;&#xFF0C;&#x7528;&#x6237;&#x53EF;&#x4EE5;&#x6539;&#x53D8;ElasticSearch&#x4E2D;quorum&#x7684;&#x5B9E;&#x9645;&#x5206;&#x7247;&#x6570;&#x91CF;&#x3002;&#x8BE5;&#x5C5E;&#x6027;&#x53EF;&#x8BBE;&#x7F6E;&#x5982;&#x4E0B;&#x503C;&#xFF1A;\u000a<ul>\u000a<li>quorum: &#x8BE5;&#x503C;&#x610F;&#x5473;&#x7740;&#x96C6;&#x7FA4;&#x4E2D;&#x81F3;&#x5C11;&#x6709;(&#x5206;&#x7247;&#x603B;&#x6570;&#x7684;50%+1)&#x4E2A;&#x5206;&#x7247;&#x5B58;&#x5728;&#x5E76;&#x4E14;&#x53EF;&#x5206;&#x914D;&#x3002;</li>\u000a<li>quorum-1:&#x8BE5;&#x503C;&#x610F;&#x5473;&#x7740;&#x96C6;&#x7FA4;&#x4E2D;&#x81F3;&#x5C11;&#x6709;(&#x5206;&#x7247;&#x603B;&#x6570;&#x7684;50%-1)&#x4E2A;&#x5206;&#x7247;&#x5B58;&#x5728;&#x5E76;&#x4E14;&#x53EF;&#x5206;&#x914D;&#x3002;</li>\u000a<li>full:&#x8BE5;&#x503C;&#x610F;&#x5473;&#x7740;&#x96C6;&#x7FA4;&#x4E2D;&#x6240;&#x6709;&#x7684;&#x5206;&#x7247;&#x90FD;&#x5FC5;&#x987B;&#x5B58;&#x5728;&#x5E76;&#x4E14;&#x53EF;&#x5206;&#x914D;&#x3002;</li>\u000a<li>full-1:&#x8BE5;&#x503C;&#x610F;&#x5473;&#x7740;&#x96C6;&#x7FA4;&#x4E2D;&#x81F3;&#x5C11;&#x6709;(&#x5206;&#x7247;&#x603B;&#x6570;-1)&#x4E2A;&#x5206;&#x7247;&#x5FC5;&#x987B;&#x5B58;&#x5728;&#x5E76;&#x4E14;&#x53EF;&#x5206;&#x914D;&#x3002;</li>\u000a<li>&#x6574;&#x6570;&#x503C;:&#x8868;&#x793A;&#x53EF;&#x8BBE;&#x7F6E;&#x4E3A;&#x4EFB;&#x610F;&#x7684;&#x6574;&#x6570;&#x503C;&#xFF0C;&#x6BD4;&#x5982;1,2&#x6216;&#x8005;5&#xFF0C;&#x8868;&#x793A;&#x81F3;&#x5C11;&#x9700;&#x8981;&#x5B58;&#x5728;&#x4E14;&#x53EF;&#x5206;&#x914D;&#x7684;&#x5206;&#x7247;&#x6570;&#x3002;&#x6BD4;&#x5982;&#xFF0C;&#x5C5E;&#x6027;&#x503C;&#x4E3A;2&#xFF0C;&#x8868;&#x793A;&#x6700;&#x5C11;&#x9700;&#x8981;2&#x4E2A;&#x5206;&#x7247;&#x5B58;&#x5728;&#xFF0C;&#x540C;&#x65F6;ElasticSearch&#x4E2D;&#x81F3;&#x5C11;&#x9700;&#x8981;2&#x4E2A;&#x5206;&#x7247;&#x53EF;&#x5206;&#x914D;&#x3002;</li>\u000a</ul>\u000a&#x4E86;&#x89E3;&#x8BE5;&#x5C5E;&#x6027;&#x503C;&#x7684;&#x4F5C;&#x7528;&#x603B;&#x4F1A;&#x6709;&#x7528;&#x4E0A;&#x7684;&#x4E00;&#x5929;&#xFF0C;&#x5C3D;&#x7BA1;&#x5728;&#x7EDD;&#x5927;&#x591A;&#x6570;&#x573A;&#x666F;&#x4E2D;&#x4F7F;&#x7528;&#x9ED8;&#x8BA4;&#x503C;&#x5C31;&#x8DB3;&#x591F;&#x4E86;&#x3002;\u000a</p>\u000a</div>\u000a\u000a\u000a                    \u000a                    </section>\u000a                \u000a                \u000a                </div>\u000a            </div>\u000a        </div>\u000a\u000a        \u000a        <a href="../chapter-5/51_README.html" class="navigation navigation-prev " aria-label="Previous page: \u9009\u62e9\u6b63\u786e\u7684directory\u5b9e\u73b0\u7c7b\u2014\u2014\u5b58\u50a8\u6a21\u5757"><i class="fa fa-angle-left"></i></a>\u000a        \u000a        \u000a        <a href="../chapter-5/53_README.html" class="navigation navigation-next " aria-label="Next page: \u7d22\u5f15\u6bb5\u6570\u636e\u7edf\u8ba1"><i class="fa fa-angle-right"></i></a>\u000a        \u000a    </div>\u000a</div>\u000a\u000a        \u000a<script src="../gitbook/app.js"></script>\u000a\u000a    \u000a    <script src="../gitbook/plugins/gitbook-plugin-comment/plugin.js"></script>\u000a    \u000a\u000a    \u000a    <script src="../gitbook/plugins/gitbook-plugin-search/lunr.min.js"></script>\u000a    \u000a\u000a    \u000a    <script src="../gitbook/plugins/gitbook-plugin-search/search.js"></script>\u000a    \u000a\u000a    \u000a    <script src="../gitbook/plugins/gitbook-plugin-sharing/buttons.js"></script>\u000a    \u000a\u000a    \u000a    <script src="../gitbook/plugins/gitbook-plugin-fontsettings/buttons.js"></script>\u000a    \u000a\u000a<script>\u000arequire(["gitbook"], function(gitbook) {\u000a    var config = {"comment":{"highlightCommented":true},"autocover":{},"highlight":{},"search":{"maxIndexSize":1000000},"sharing":{"facebook":true,"twitter":true,"google":false,"weibo":false,"instapaper":false,"vk":false,"all":["facebook","google","twitter","weibo","instapaper"]},"fontsettings":{"theme":"white","family":"sans","size":2}};\u000a    gitbook.start(config);\u000a});\u000a</script>\u000a\u000a        \u000a    \u000a<div><script style="display: none;" type="application/javascript">\u000a  (function(i,s,o,g,r,a,m){i['GoogleAnalyticsObject']=r;i[r]=i[r]||function(){\u000a  (i[r].q=i[r].q||[]).push(arguments)},i[r].l=1*new Date();a=s.createElement(o),\u000a  m=s.getElementsByTagName(o)[0];a.async=1;a.src=g;m.parentNode.insertBefore(a,m)\u000a  })(window,document,'script','https://www.google-analytics.com/analytics.js','ga');\u000a\u000a  ga('create', 'UA-57505611-7', 'auto', {name: 'microcdn'});\u000a  ga('microcdn.send', 'pageview');\u000a\u000a  var _cdn_prev_loc = window.location.pathname;\u000a  window.setInterval(function () {\u000a    if (window.location.pathname !== _cdn_prev_loc) {\u000a      _cdn_prev_loc = window.location.pathname;\u000a      ga('microcdn.send', 'pageview');\u000a    }\u000a  }, 100);\u000a\u000a</script></div>\u000a</body>\u000a    \u000a</html>\u000a
p3
a.