(lp0
S'http://www.programmer.com.cn/7578/'
p1
aS'\xe6\xb7\x98\xe5\xae\x9d\xe6\x95\xb0\xe6\x8d\xae\xe9\xad\x94\xe6\x96\xb9\xe6\x8a\x80\xe6\x9c\xaf\xe6\x9e\xb6\xe6\x9e\x84\xe8\xa7\xa3\xe6\x9e\x90'
p2
aI0
aV<!doctype html>\u000a<html lang="zh_CN">\u000a<head>\u000a<meta charset="utf-8">\u000a<title>\u300a\u7a0b\u5e8f\u5458\u300b\u6742\u5fd7\u5c01\u9762\u96c6</title>\u000a</head>\u000a<frameset rows="100%">\u000a<frame src="http://special.csdncms.csdn.net/programmer-covers//7578/">\u000a</frameset>\u000a<noframes>\u000a<body>Please follow <a href="http://special.csdncms.csdn.net/programmer-covers//7578/">link</a>!</body>\u000a</noframes>\u000a</html>\u000a
p3
a.