(lp0
S'http://www.gnu.org/software/emacs/#Obtaining'
p1
aS'wins'
p2
aI0
aV<!doctype html>\u000a<html>\u000a    <head>\u000a        <title>GNU Emacs - GNU Project</title>\u000a        <meta http-equiv="Content-Type" content="text/html; charset=UTF-8">\u000a        <link rel="shortcut icon" type="image/png" href="favicon.png">\u000a        <link rel="stylesheet" href="fira.css">\u000a        <script src="javascript/jquery.min.js" type="text/javascript"></script>\u000a        <script src="javascript/animations.js" type="text/javascript"></script>\u000a        <link rel="stylesheet" type="text/css" href="layout.css">\u000a        <meta name="viewport" content="initial-scale=1.0,maximum-scale=1.0,width=device-width" />\u000a    </head>\u000a\u000a    <body>\u000a        <div class="wrapper">\u000a\u000a            <!-- <div class="release-banner">\u000a                 <div class="container">\u000a                 <h2><em>Emacs 25.1 is out</em>, download it <a href="download.html">here</a>!</h2>\u000a                 </div>\u000a                 </div> -->\u000a\u000a            <div class="header">\u000a                <div class="nav-mobile">\u000a                    <button type="button" class="nav-toggle">\u000a                        <span class="bar"></span>\u000a                        <span class="bar"></span>\u000a                        <span class="bar"></span>\u000a                    </button>\u000a                </div>\u000a                <nav class="gnu-nav">\u000a                    <a href="https://gnu.org" class="gnu-logo"><img alt="GNU" src="images/gnu.transparent.png"/></a>\u000a                    <a href="/gnu/gnu.html">About GNU</a>\u000a                    <a href="/philosophy/philosophy.html">Philosophy</a>\u000a                    <a href="/licenses/licenses.html">Licenses</a>\u000a                    <a href="/education/education.html">Education</a>\u000a                    <a href="/software/software.html">Software</a>\u000a                    <a href="/doc/doc.html">Documentation</a>\u000a                    <a href="/help/help.html">Help GNU</a>\u000a                    <a class="join-fsf" href="https://www.fsf.org/associate/support_freedom?referrer=4052">JOIN&nbsp;THE&nbsp;FSF</a>\u000a                </nav>\u000a                <nav class="main">\u000a                    <a href="index.html">Home</a>\u000a                    <a href="index.html#features">Features</a>\u000a                    <a href="index.html#Releases">Releases</a>\u000a                    <a href="download.html">Download</a>\u000a                    <a href="documentation.html">Documentation & Support</a>\u000a                    <a href="tour/index.html">Tour</a>\u000a                    <a href="further-information.html">Further information</a>\u000a                </nav>\u000a                <div class="container">\u000a                    <div class="logo">\u000a                        <a href="emacs.html"><img src="images/emacs.png" alt="Emacs"/></a>\u000a                        <h1>GNU Emacs</h1>\u000a                    </div>\u000a                    <h2>An extensible, customizable, <a href="/philosophy/free-sw.html">free/libre</a> text editor &mdash; and more.</h2>\u000a                    <p> At its core is an interpreter for Emacs Lisp, a dialect of the Lisp programming language with extensions to support text editing.</p>\u000a                    <img class="teaser" src="images/teaser.png" alt=""/>\u000a                </div>\u000a            </div>\u000a\u000a            <div class="features">\u000a                <div class="container">\u000a                    <h2 id="features">The features of GNU Emacs include</h2>\u000a                    <ul>\u000a                        <li class="modes">\u000a                            Content-aware editing modes, including syntax\u000a                            coloring, for many file types.\u000a                        </li>\u000a                        <li class="documentation">\u000a                            Complete built-in documentation, including a\u000a                            tutorial for new users.\u000a                        </li>\u000a                        <li class="unicode">\u000a                            Full <a href="http://unicode.org">Unicode</a> support for nearly\u000a                            all human scripts.\u000a                        </li>\u000a                    </ul>\u000a                    <ul>\u000a                        <li class="customization">\u000a                            Highly customizable, using Emacs Lisp code or a graphical\u000a                            interface.\u000a                        </li>\u000a                        <li class="extensions">\u000a                            An entire ecosystem of functionality beyond text\u000a                            editing, including a <a href="/software/emacs/manual/org.html">project\u000a                            planner</a>, <a href="/software/emacs/manual/gnus.html">mail and news\u000a                            reader</a>, <a href="http://www.gnu.org/software/emacs/manual/html_node/emacs/Debuggers.html">debugger\u000a                            interface</a>,\u000a                            <a href="/software/emacs/manual/html_node/emacs/Calendar_002fDiary.html">calendar</a>,\u000a                            and <a href="further-information.html">more</a>.\u000a                        </li>\u000a                        <li class="packages">\u000a                            A packaging system for <a href="http://elpa.gnu.org/">downloading and installing</a> extensions.\u000a                        </li>\u000a                    </ul>\u000a                </div>\u000a            </div>\u000a\u000a            <div class="tour-banner">\u000a                <div class="container">\u000a                    New to Emacs? <a href="tour/index.html">\u2192 Take the tour!</a>\u000a                </div>\u000a            </div>\u000a\u000a            <div class="videos" id="videos">\u000a                <div class="container">\u000a                    <h2>Discover Emacs in video</h2>\u000a                    <ul>\u000a                        <li>\u000a                            <a href="./videos/emacs-rocks-14.ogg">\u000a                                @emacsrocks <span class="numb">;; episode 14</span><span class="name">"Paredit"</span>\u000a                            </a>\u000a                        </li>\u000a                        <li>\u000a                            <a href="./videos/emacs-rocks-13.ogg">\u000a                                @emacsrocks <span class="numb">;; episode 13</span><span class="name">"multiple-cursors"</span>\u000a                            </a>\u000a                        </li>\u000a                        <li>\u000a                            <a href="./videos/emacs-rocks-12.ogg">\u000a                                @emacsrocks <span class="numb">;; episode 12</span><span class="name">"Working with HTML"</span>\u000a                            </a>\u000a                        </li>\u000a                    </ul>\u000a                    <p>\u000a                        Watch more episodes on <a href="http://emacsrocks.com">Emacsrocks.com</a>.\u000a                    </p>\u000a                </div>\u000a            </div>\u000a            <div id="video-player" style="display:none;">\u000a                <a class="close">&times;</a>\u000a                <div class="container">\u000a                </div>\u000a            </div>\u000a\u000a            <div class="releases">\u000a                <div class="container">\u000a                    <h2 id="Releases">\u000a                        Emacs 25.1 \u2212 latest release\u000a                    </h2>\u000a\u000a                    <h3>Released September 17, 2016</h3>\u000a                    <p>See also <a href="history.html">dates of older releases</a>.</p>\u000a\u000a                    <p>Emacs 25.1 has a wide variety of new features, including:</p>\u000a                    <ul>\u000a                        <li>Emacs can now load shared/dynamic libraries (modules).\u000a                            A dynamic Emacs module is a shared library that provides additional\u000a                            functionality for use in Emacs Lisp programs, just like a package\u000a                            written in Emacs Lisp would.</li>\u000a                        <li>Experimental support for Cairo drawing.</li>\u000a                        <li>Enhanced network security (TLS/SSL certificate validity and the like)\u000a                             via the new Network Security Manager (NSM).</li>\u000a                        <li>New minor mode 'electric-quote-mode' for using curved quotes as you\u000a                            type.</li>\u000a                        <li>Character folding support in isearch.el.</li>\u000a                        <li>New and improved facilities for inserting Unicode characters: <tt>C-x 8</tt> now has\u000a                            shorthands for several chars, such as U+2010 (HYPHEN), U+2011 (NON-BREAKING HYPHEN), and U+2012 (FIGURE DASH).</li>\u000a                    <p>For more information, read the <a href="news/NEWS.25.1">News</a> file.</p>\u000a                </div>\u000a\u000a            </div>\u000a\u000a            <div class="fsf-banner">\u000a                <div class="container">\u000a                    <div class="left">\u000a                        <a class="fsf-logo" href="http://www.fsf.org"><img src="images/fsf.png" alt="Free Software Fundation"/></a>\u000a                        <div id="fssbox">\u000a                            <p>Subscribe to our monthly newsletter, the <a href="http://www.fsf.org/fss">Free Software Supporter</a></p>\u000a                            <form action="https://my.fsf.org/civicrm/profile/create?reset=1&amp;gid=31" method="post">\u000a                                <div>\u000a                                    <input name="postURL" type="hidden" value="" />\u000a                                    <input type="hidden" name="group[25]" value="1" />\u000a                                    <input name="cancelURL" type="hidden" value="https://crm.fsf.org/civicrm/profile?reset=1&amp;gid=31" />\u000a                                    <input name="_qf_default" type="hidden" value="Edit:cancel" />\u000a                                </div>\u000a                                <p>\u000a                                    <input type="text" id="frmEmail" name="email-Primary" size="18" maxlength="80"\u000a                                           placeholder="email address" onfocus="this.value=''"/>\u000a                                    <input type="submit" name="_qf_Edit_next" value="Sign up" />\u000a                                </p>\u000a                            </form>\u000a                        </div>\u000a                    </div>\u000a                    <div class="right">\u000a                        <p>\u201cOur mission is to preserve, protect and promote the freedom to use, study, copy, modify, and redistribute computer software, and to defend the rights of Free Software users.\u201d</p>\u000a                        <p id="join-fsf"><a href="https://www.fsf.org/associate/support_freedom?referrer=4052">JOIN&nbsp;THE&nbsp;FSF</a></p>\u000a                    </div>\u000a                    <div class="clear"></div>\u000a\u000a\u000a\u000a                </div>\u000a            </div>\u000a\u000a            <div class="push"></div>\u000a            </div>\u000a\u000a            <div class="footer">\u000a                <div class="container">\u000a                    <nav>\u000a                        <a href="index.html">Home</a>\u000a                        <a href="index.html#features">Features</a>\u000a                        <a href="index.html#Releases">Releases</a>\u000a                        <a href="download.html">Download</a>\u000a                        <a href="documentation.html">Documentation & Support</a>\u000a                        <a href="tour/index.html">Tour</a>\u000a                        <a href="further-information.html">Further information</a>\u000a                    </nav>\u000a                    <div class="left">\u000a                        <p>\u000a                            Copyright 2015 <a href="https://fsf.org">Free Software Foundation</a>, Inc. <br/>\u000a                            <address>51 Franklin St, Fifth Floor, Boston, MA 02110, USA</address>\u000a                        </p>\u000a                        <p>Design provided by <a href="http://nicolas-petton.fr">Nicolas Petton</a>.</p>\u000a                        \u000a                    </div>\u000a                    <div class="right">\u000a                        <p>\u000a                            Please send comments to\u000a                            <a href="http://mail.gnu.org/mailman/listinfo/bug-gnu-emacs">bug-gnu-emacs@gnu.org</a>.\u000a                        </p>\u000a                        <p>This website is licensed under the <a href="https://creativecommons.org/licenses/by-nd/3.0/us/">CC BY-ND 3.0 US</a> License.\u000a                        </p>\u000a                    </div>\u000a                </div>\u000a            </div>\u000a\u000a    </body>\u000a</html>\u000a
p3
a.