(lp0
S'http://dbl-wise-rdtf01.dbl01.baidu.com:8620/test/cluster_yugao.php?url=http://www.yidisheji.com/458.html'
p1
aS'dbl-wise-rdtf01.dbl01.baidu.com:8620/test/cluster_yugao.php?url=http://www.yidisheji.com/458.html'
p2
aI-2
a.