(lp0
S'http://cq01-rdqa-dev038.cq01.baidu.com:8039/cluster_test.php?url=http://www.cngytt.com/lvyouzixun/'
p1
aS'cq01-rdqa-dev038.cq01.baidu.com:8039/cluster_test.php?url=http://www.cngytt.com/lvyouzixun/'
p2
aI-2
a.