(lp0
S'http://dbl-tmpbos-mo284.dbl01.baidu.com:8863/webapp?structpage&siteType=6&siteappid=1&onlyspdebug=1&nocache=1&src=http://www.cngytt.com/lvyouzixun/'
p1
aS'dbl-tmpbos-mo284.dbl01.baidu.com:8863/webapp?structpage&amp;siteType=6&amp;siteappid=1&amp;onlyspdebug=1&amp;nocache=1&amp;src=http://www.cngytt.com/lvyouzixun/'
p2
aI-2
a.