(lp0
S'https://www.zhihu.com/question/21274834'
p1
aS'\xe5\x9b\xbd\xe5\x86\x85\xe5\x85\xac\xe5\x8f\xb8\xef\xbc\x9a\xe5\x9b\xbd\xe5\x86\x85\xe5\x85\x81\xe8\xae\xb8\xe8\xbf\x9c\xe7\xa8\x8b\xe5\x8a\x9e\xe5\x85\xac\xe7\x9a\x84\xe5\x85\xac\xe5\x8f\xb8\xe6\x9c\x89\xe5\x93\xaa\xe4\xba\x9b? - \xe5\x88\x9b\xe4\xb8\x9a - \xe7\x9f\xa5\xe4\xb9\x8e'
p2
aI0
aV<!DOCTYPE html>\u000a<html lang="zh-CN" dropEffect="none" class="no-js no-auth ">\u000a<head>\u000a<meta charset="utf-8" />\u000a\u000a<meta http-equiv="X-UA-Compatible" content="IE=edge,chrome=1" />\u000a<meta name="renderer" content="webkit" />\u000a<meta http-equiv="X-ZA-Response-Id" content="001058b42053aee8">\u000a<meta http-equiv="X-ZA-Experiment" content="default:None">\u000a\u000a<title>\u000a\u000a\u000a\u56fd\u5185\u516c\u53f8\uff1a\u56fd\u5185\u5141\u8bb8\u8fdc\u7a0b\u529e\u516c\u7684\u516c\u53f8\u6709\u54ea\u4e9b? - \u521b\u4e1a - \u77e5\u4e4e\u000a\u000a\u000a</title>\u000a\u000a<meta name="apple-itunes-app" content="app-id=432274380, app-argument=zhihu://questions/21274834">\u000a\u000a\u000a<meta name="viewport" content="width=device-width, initial-scale=1, maximum-scale=1"/>\u000a<meta http-equiv="mobile-agent" content="format=html5;url=https://www.zhihu.com/question/21274834">\u000a<meta id="znonce" name="znonce" content="ba09024c78b94031ba66e5f3d9b9acc4">\u000a\u000a\u000a\u000a<link rel="apple-touch-icon" href="https://static.zhihu.com/static/revved/img/ios/touch-icon-152.87c020b9.png" sizes="152x152">\u000a<link rel="apple-touch-icon" href="https://static.zhihu.com/static/revved/img/ios/touch-icon-120.496c913b.png" sizes="120x120">\u000a<link rel="apple-touch-icon" href="https://static.zhihu.com/static/revved/img/ios/touch-icon-76.dcf79352.png" sizes="76x76">\u000a<link rel="apple-touch-icon" href="https://static.zhihu.com/static/revved/img/ios/touch-icon-60.9911cffb.png" sizes="60x60">\u000a\u000a\u000a<link rel="shortcut icon" href="https://static.zhihu.com/static/favicon.ico" type="image/x-icon">\u000a\u000a<link rel="search" type="application/opensearchdescription+xml" href="https://static.zhihu.com/static/search.xml" title="\u77e5\u4e4e" />\u000a<link rel="stylesheet" href="https://static.zhihu.com/static/revved/-/css/z.247f1016.css">\u000a\u000a\u000a\u000a<meta name="google-site-verification" content="FTeR0c8arOPKh8c5DYh_9uu98_zJbaWw53J-Sch9MTg" />\u000a\u000a\u000a\u000a<!--[if lt IE 9]>\u000a<script src="https://static.zhihu.com/static/components/respond/dest/respond.min.js"></script>\u000a<link href="https://static.zhihu.com/static/components/respond/cross-domain/respond-proxy.html" id="respond-proxy" rel="respond-proxy" />\u000a<link href="/static/components/respond/cross-domain/respond.proxy.gif" id="respond-redirect" rel="respond-redirect" />\u000a<script src="/static/components/respond/cross-domain/respond.proxy.js"></script>\u000a<![endif]-->\u000a<script src="https://static.zhihu.com/static/revved/-/js/instant.14757a4a.js"></script>\u000a\u000a\u000a\u000a\u000a</head>\u000a\u000a<body class="zhi ">\u000a\u000a\u000a\u000a\u000a<div role="navigation" class="zu-top" data-za-module="TopNavBar">\u000a<div class="zg-wrap modal-shifting clearfix" id="zh-top-inner">\u000a<a href="/" class="zu-top-link-logo" id="zh-top-link-logo" data-za-c="view_home" data-za-a="visit_home" data-za-l="top_navigation_zhihu_logo">\u77e5\u4e4e</a>\u000a\u000a\u000a\u000a<ul class="topnav-noauth clearfix">\u000a<li>\u000a<a href="javascript:;" class="js-signup-noauth"><i class="zg-icon zg-icon-dd-home"></i>\u6ce8\u518c\u77e5\u4e4e</a>\u000a</li>\u000a<li>\u000a<a href="javascript:;" class="js-signin-noauth">\u767b\u5f55</a>\u000a</li>\u000a</ul>\u000a\u000a\u000a\u000a<button class="zu-top-add-question" id="zu-top-add-question">\u63d0\u95ee</button>\u000a\u000a\u000a<div role="search" id="zh-top-search" class="zu-top-search">\u000a<form method="GET" action="/search" id="zh-top-search-form" class="zu-top-search-form">\u000a\u000a\u000a\u000a<input type="hidden" name="type" value="content">\u000a<label for="q" class="hide-text">\u77e5\u4e4e\u641c\u7d22</label><input type="text" class="zu-top-search-input" id="q" name="q" autocomplete="off" value="" maxlength="100" placeholder="\u641c\u7d22\u4f60\u611f\u5174\u8da3\u7684\u5185\u5bb9...">\u000a<button type="submit" class="zu-top-search-button"><span class="hide-text">\u641c\u7d22</span><span class="sprite-global-icon-magnifier-dark"></span></button>\u000a</form>\u000a</div>\u000a\u000a\u000a\u000a<div id="zg-top-nav" class="zu-top-nav">\u000a<ul class="zu-top-nav-ul zg-clear">\u000a\u000a<li class="zu-top-nav-li " id="zh-top-nav-home">\u000a<a class="zu-top-nav-link" href="/" id="zh-top-link-home" data-za-c="view_home" data-za-a="visit_home" data-za-l="top_navigation_home">\u9996\u9875</a>\u000a</li>\u000a\u000a\u000a\u000a<li class="top-nav-topic-selector zu-top-nav-li " id="zh-top-nav-topic">\u000a<a class="zu-top-nav-link" href="/topic" id="top-nav-dd-topic">\u8bdd\u9898</a>\u000a</li>\u000a\u000a<li class="zu-top-nav-li " id="zh-top-nav-explore">\u000a<a class="zu-top-nav-link" href="/explore">\u53d1\u73b0</a>\u000a</li>\u000a\u000a\u000a</ul>\u000a<div class="zu-top-nav-live zu-noti7-popup zg-r5px no-hovercard" id="zh-top-nav-live-new" role="popup" tabindex="0">\u000a<div class="zu-top-nav-live-inner zg-r5px">\u000a<div class="zu-top-live-icon">&nbsp;</div>\u000a<div class="zu-home-noti-inner" id="zh-top-nav-live-new-inner">\u000a<div class="zm-noti7-popup-tab-container clearfix" tabindex="0">\u000a<button class="zm-noti7-popup-tab-item message">\u000a<span class="icon">\u6d88\u606f</span>\u000a</button>\u000a<button class="zm-noti7-popup-tab-item user">\u000a<span class="icon">\u7528\u6237</span>\u000a</button>\u000a<button class="zm-noti7-popup-tab-item thanks">\u000a<span class="icon">\u8d5e\u540c\u548c\u611f\u8c22</span>\u000a</button>\u000a</div>\u000a</div>\u000a<div class="zm-noti7-frame-border top"></div>\u000a<div class="zm-noti7-frame">\u000a<div class="zm-noti7-content message">\u000a<div class="zm-noti7-content-inner">\u000a<div class="zm-noti7-content-body">\u000a<div class="zm-noti7-popup-loading">\u000a<span class="noti-spinner-loading"></span>\u000a</div>\u000a</div>\u000a</div>\u000a</div>\u000a<div class="zm-noti7-content user" style="display:none;">\u000a<div class="zm-noti7-content-inner">\u000a<div class="zm-noti7-content-body">\u000a<div class="zm-noti7-popup-loading">\u000a<span class="noti-spinner-loading"></span>\u000a</div>\u000a</div>\u000a</div>\u000a</div>\u000a<div class="zm-noti7-content thanks" style="display:none;">\u000a<div class="zm-noti7-content-inner">\u000a<div class="zm-noti7-content-body">\u000a<div class="zm-noti7-popup-loading">\u000a<span class="noti-spinner-loading"></span>\u000a</div>\u000a</div>\u000a</div>\u000a</div>\u000a</div>\u000a<div class="zm-noti7-frame-border bottom"></div>\u000a<div class="zm-noti7-popup-footer">\u000a<a href="/notifications" class="zm-noti7-popup-footer-all zg-right">\u67e5\u770b\u5168\u90e8 &raquo;</a>\u000a<a href="/settings/notification" class="zm-noti7-popup-footer-set" title="\u901a\u77e5\u8bbe\u7f6e" ><i class="zg-icon zg-icon-settings"></i></a>\u000a</div>\u000a</div>\u000a</div>\u000a\u000a</div>\u000a\u000a</div>\u000a</div>\u000a\u000a\u000a<div class="zu-global-notify" id="zh-global-message" style="display:none">\u000a<div class="zg-wrap">\u000a<div class="zu-global-nitify-inner">\u000a<a class="zu-global-notify-close" href="javascript:;" title="\u5173\u95ed" name="close">x</a>\u000a<span class="zu-global-notify-icon"></span>\u000a<span class="zu-global-notify-msg"></span>\u000a</div>\u000a</div>\u000a</div>\u000a\u000a\u000a\u000a\u000a\u000a\u000a<div class="zu-global-notify zu-global-notify-info" id="zh-question-redirect-info" style="display:none"></div>\u000a\u000a\u000a<div class="zu-global-notify zu-global-notify-info" id="zh-question-notification-summary" style="display:none;">\u000a<div class="zg-wrap">\u000a<div class="zu-global-nitify-inner">\u000a<span class="zu-global-notify-icon"></span>\u000a<ul class="zu-question-notify-wrap">\u000a</ul>\u000a</div>\u000a</div>\u000a</div>\u000a\u000a\u000a<div class="zg-wrap zu-main clearfix with-indention-votebar" itemscope itemtype="http://schema.org/Question" id="zh-single-question-page" data-urltoken="21274834" role="main">\u000a<div class="zu-main-content">\u000a<div class="zu-main-content-inner">\u000a\u000a\u000a<meta itemprop="isTopQuestion" content="false" />\u000a<meta itemprop="visitsCount" content="6094" />\u000a\u000a\u000a<div class="zm-tag-editor zg-section">\u000a<div class="zm-tag-editor-labels zg-clear">\u000a\u000a<a class="zm-item-tag"\u000ahref="/topic/19550560"\u000adata-hovercard="t$b$19550560" data-token="19550560" data-topicid="112" data-za-element-name="Title">\u000a\u521b\u4e1a\u000a</a>\u000a\u000a<a class="zm-item-tag"\u000ahref="/topic/19558839"\u000adata-hovercard="t$b$19558839" data-token="19558839" data-topicid="2882" data-za-element-name="Title">\u000aSOHO\u000a</a>\u000a\u000a<a class="zm-item-tag"\u000ahref="/topic/19826351"\u000adata-hovercard="t$b$19826351" data-token="19826351" data-topicid="94169" data-za-element-name="Title">\u000a\u8fdc\u7a0b\u529e\u516c\u000a</a>\u000a\u000a</div>\u000a</div>\u000a<div id="zh-question-title" data-editable="false">\u000a<h2 class="zm-item-title">\u000a\u000a<span class="zm-editable-content">\u56fd\u5185\u5141\u8bb8\u8fdc\u7a0b\u529e\u516c\u7684\u516c\u53f8\u6709\u54ea\u4e9b?</span>\u000a\u000a</h2>\u000a</div>\u000a<div id="zh-question-detail" class="zm-item-rich-text" data-resourceid="690640" data-action="/question/detail">\u000a\u000a<div class="zm-editable-content"></div>\u000a\u000a\u000a</div>\u000a<div class="zm-item-meta zm-item-comment-el clearfix" id="zh-question-meta-wrap">\u000a<div class="zm-meta-panel">\u000a\u000a<a href="#" name="addcomment" class="toggle-comment meta-item">\u000a<i class="z-icon-comment"></i>\u6dfb\u52a0\u8bc4\u8bba\u000a</a>\u000a<a href="#" name="share" class="share meta-item">\u000a<i class="z-icon-share"></i>\u5206\u4eab\u000a</a>\u000a\u000a</div>\u000a<div class="panel-container">\u000a\u000a</div>\u000a</div>\u000a\u000a\u000a<div class="zh-answers-title clearfix">\u000a\u000a<div id="zh-answers-filter" class="Sorter">\u000a\u000a<span class="lbl">\u9ed8\u8ba4\u6392\u5e8f</span>\u000a<a class="lbl" href="/question/21274834?sort=created">\u6309\u65f6\u95f4\u6392\u5e8f</a>\u000a\u000a<i class="zg-icon zg-icon-double-arrow"></i>\u000a</div>\u000a\u000a<h3 data-num="11" id="zh-question-answer-num">11 \u4e2a\u56de\u7b54</h3>\u000a</div>\u000a\u000a<div id="zh-question-answer-wrap" data-pagesize="10" class="zh-question-answer-wrapper" data-widget="navigable" data-navigable-options="{&quot;items&quot;: &quot;&gt;.zm-item-answer&quot;}" data-init="{&quot;params&quot;: {&quot;url_token&quot;: 21274834, &quot;pagesize&quot;: 10, &quot;offset&quot;: 0}, &quot;nodename&quot;: &quot;QuestionAnswerListV2&quot;}">\u000a\u000a\u000a<div tabindex="-1" class="zm-item-answer  zm-item-expanded"\u000a\u000aitemprop="topAnswer"\u000a\u000aitemscope itemtype="http://schema.org/Answer"\u000adata-aid="12899716"\u000adata-atoken="43763571"\u000adata-collapsed="0"\u000adata-created="1428045453"\u000adata-deleted="0"\u000adata-helpful="1"\u000adata-isowner="0"\u000adata-copyable="1"\u000a\u000a>\u000a<link itemprop="url" href="/question/21274834/answer/43763571">\u000a<meta itemprop="answer-id" content="12899716">\u000a<meta itemprop="answer-url-token" content="43763571">\u000a<a class="zg-anchor-hidden" name="answer-12899716"></a>\u000a\u000a\u000a<div class="zm-votebar">\u000a<button class="up ">\u000a<i class="icon vote-arrow"></i>\u000a<span class="count">6</span>\u000a<span class="label sr-only">\u8d5e\u540c</span>\u000a</button>\u000a<button class="down ">\u000a<i class="icon vote-arrow"></i>\u000a<span class="label sr-only">\u53cd\u5bf9</span>\u000a</button>\u000a</div>\u000a\u000a\u000a<div class="answer-head">\u000a<div class="zm-item-answer-author-info">\u000a\u000a<a class="zm-item-link-avatar avatar-link"\u000a\u000ahref="/people/yu-da-xia-80-3" target="_blank" data-hovercard="p$t$yu-da-xia-80-3"\u000a\u000a><img src="https://pic3.zhimg.com/d443e711704036a5b59899806d9e9e3a_s.jpg"\u000aclass="zm-list-avatar avatar"\u000a></a>\u000a\u000a<span class="summary-wrapper">\u000a<span class="author-link-line">\u000a\u000a<a class="author-link"\u000adata-hovercard="p$t$yu-da-xia-80-3"\u000atarget="_blank" href="/people/yu-da-xia-80-3"\u000a>\u9c7c\u5927\u867e</a></span>\u000a</span>\u000a</div>\u000a<div class="zm-item-vote-info" data-votecount="6">\u000a\u000a\u000a\u000a<span class="voters text"><a href="#" class="more text"><span class="js-voteCount">6</span>&nbsp;\u4eba\u8d5e\u540c</a></span>\u000a\u000a\u000a</div>\u000a</div>\u000a<div class="zm-item-rich-text expandable js-collapse-body" data-resourceid="690640" data-action="/answer/content" data-author-name="\u9c7c\u5927\u867e" data-entry-url="/question/21274834/answer/43763571">\u000a\u000a\u000a<div class="zh-summary summary clearfix" style="display:none;">\u000a\u000a\u6211\u4eec\u516c\u53f8\uff08<a href="//link.zhihu.com/?target=http%3A//theplant.jp" class=" external" target="_blank" rel="nofollow noreferrer"><span class="invisible">http://</span><span class="visible">theplant.jp</span><span class="invisible"></span><i class="icon-external"></i></a>\uff09\u652f\u6301\u8fdc\u7a0b\u529e\u516c\u54e6\u3002 \u56e0\u4e3a\u6210\u5458\u5206\u6563\u5728\u4e1c\u4eac\u3001\u582a\u57f9\u62c9\u548c\u676d\u5dde\u5404\u5730\uff0c\u6240\u4ee5\u672c\u6765\u5c31\u662f\u4ee5\u5f02\u5730\u534f\u4f5c\u7684\u5f62\u5f0f\u5728\u5de5\u4f5c\u7684\u3002 \u9664\u4e86\u5927\u5bb6\u90fd\u6bd4\u8f83\u81ea\u89c9\u4e4b\u5916\uff0c\u8fd8\u56e0\u4e3a\u6211\u4eec\u81ea\u5df1\u5f00\u53d1\u7684\u5e73\u53f0\u7fa4\u7b56Qortex\uff08<a href="//link.zhihu.com/?target=http%3A//qortex.cn" class=" external" target="_blank" rel="nofollow noreferrer"><span class="invisible">http://</span><span class="visible">qortex.cn</span><span class="invisible"></span><i class="icon-external"></i></a>\uff09\u975e\u5e38\u9002\u5408\u5f02\u5730\u534f\u4f5c\u3002\u9664\u4e86\u77e5\u8bc6\u5e93\u3001\u2026\u000a\u000a<a href="/question/21274834/answer/43763571" class="toggle-expand">\u663e\u793a\u5168\u90e8</a>\u000a\u000a</div>\u000a\u000a\u000a<div class="zm-editable-content clearfix">\u000a\u6211\u4eec\u516c\u53f8\uff08<a href="//link.zhihu.com/?target=http%3A//theplant.jp" class=" external" target="_blank" rel="nofollow noreferrer"><span class="invisible">http://</span><span class="visible">theplant.jp</span><span class="invisible"></span><i class="icon-external"></i></a>\uff09\u652f\u6301\u8fdc\u7a0b\u529e\u516c\u54e6\u3002<br>\u56e0\u4e3a\u6210\u5458\u5206\u6563\u5728\u4e1c\u4eac\u3001\u582a\u57f9\u62c9\u548c\u676d\u5dde\u5404\u5730\uff0c\u6240\u4ee5\u672c\u6765\u5c31\u662f\u4ee5\u5f02\u5730\u534f\u4f5c\u7684\u5f62\u5f0f\u5728\u5de5\u4f5c\u7684\u3002<br>\u9664\u4e86\u5927\u5bb6\u90fd\u6bd4\u8f83\u81ea\u89c9\u4e4b\u5916\uff0c\u8fd8\u56e0\u4e3a\u6211\u4eec\u81ea\u5df1\u5f00\u53d1\u7684\u5e73\u53f0\u7fa4\u7b56Qortex\uff08<a href="//link.zhihu.com/?target=http%3A//qortex.cn" class=" external" target="_blank" rel="nofollow noreferrer"><span class="invisible">http://</span><span class="visible">qortex.cn</span><span class="invisible"></span><i class="icon-external"></i></a>\uff09\u975e\u5e38\u9002\u5408\u5f02\u5730\u534f\u4f5c\u3002\u9664\u4e86\u77e5\u8bc6\u5e93\u3001\u9879\u76ee\u7ba1\u7406\u529f\u80fd\uff0c\u73b0\u5728\u8fd8\u652f\u6301\u5373\u65f6\u804a\u5929\u7fa4\u804a\uff0c\u4ee5\u524d\u8fd8\u9700\u8981\u501f\u52a9skype\uff0c\u73b0\u5728\u5df2\u7ecf\u53ef\u4ee5\u5b8c\u5168\u4f9d\u9760\u7fa4\u7b56\u6765\u5de5\u4f5c\u4e86\u3002\u000a</div>\u000a\u000a\u000a</div>\u000a<a class="zg-anchor-hidden ac" name="12899716-comment"></a>\u000a<div class="zm-item-meta answer-actions clearfix js-contentActions">\u000a<div class="zm-meta-panel">\u000a\u000a<a itemprop="url" class="answer-date-link meta-item" target="_blank" href="/question/21274834/answer/43763571">\u53d1\u5e03\u4e8e 2015-04-03</a>\u000a\u000a<a href="#" name="addcomment" class="meta-item toggle-comment js-toggleCommentBox">\u000a<i class="z-icon-comment"></i>4 \u6761\u8bc4\u8bba</a>\u000a\u000a\u000a<a href="#" class="meta-item zu-autohide js-thank" data-thanked="false"><i class="z-icon-thank"></i>\u611f\u8c22</a>\u000a\u000a\u000a\u000a<a href="#" class="meta-item zu-autohide js-share"><i class="z-icon-share"></i>\u5206\u4eab</a>\u000a\u000a<a href="#" class="meta-item zu-autohide js-collect"><i class="z-icon-collect"></i>\u6536\u85cf</a>\u000a\u000a\u000a\u000a\u000a\u000a<span class="zg-bull zu-autohide">&bull;</span>\u000a\u000a<a href="#" class="meta-item zu-autohide js-noHelp">\u6ca1\u6709\u5e2e\u52a9</a>\u000a\u000a<span class="zg-bull zu-autohide">&bull;</span>\u000a<a href="#" class="meta-item zu-autohide js-report">\u4e3e\u62a5</a>\u000a\u000a\u000a\u000a\u000a<meta name="copyrightStatus" content="1">\u000a<meta name="disableCopyAvatar" content="">\u000a\u000a<span class="zg-bull">&bull;</span>\u000a\u000a<a href="/terms#sec-licence-1" target="_blank" class="meta-item copyright">\u000a\u4f5c\u8005\u4fdd\u7559\u6743\u5229\u000a</a>\u000a\u000a\u000a</div>\u000a</div>\u000a</div>\u000a\u000a<div tabindex="-1" class="zm-item-answer  zm-item-expanded"\u000a\u000aitemscope itemtype="http://schema.org/Answer"\u000adata-aid="3010908"\u000adata-atoken="19576088"\u000adata-collapsed="0"\u000adata-created="1382511796"\u000adata-deleted="0"\u000adata-helpful="1"\u000adata-isowner="0"\u000adata-copyable="1"\u000a\u000a>\u000a<link itemprop="url" href="/question/21274834/answer/19576088">\u000a<meta itemprop="answer-id" content="3010908">\u000a<meta itemprop="answer-url-token" content="19576088">\u000a<a class="zg-anchor-hidden" name="answer-3010908"></a>\u000a\u000a\u000a<div class="zm-votebar">\u000a<button class="up ">\u000a<i class="icon vote-arrow"></i>\u000a<span class="count">2</span>\u000a<span class="label sr-only">\u8d5e\u540c</span>\u000a</button>\u000a<button class="down ">\u000a<i class="icon vote-arrow"></i>\u000a<span class="label sr-only">\u53cd\u5bf9</span>\u000a</button>\u000a</div>\u000a\u000a\u000a<div class="answer-head">\u000a<div class="zm-item-answer-author-info">\u000a\u000a<a class="zm-item-link-avatar avatar-link"\u000a\u000ahref="/people/getset" target="_blank" data-hovercard="p$t$getset"\u000a\u000a><img src="https://pic4.zhimg.com/e57a02866ba259839c3c83a61fc80f07_s.png"\u000aclass="zm-list-avatar avatar"\u000a></a>\u000a\u000a<span class="summary-wrapper">\u000a<span class="author-link-line">\u000a\u000a<a class="author-link"\u000adata-hovercard="p$t$getset"\u000atarget="_blank" href="/people/getset"\u000a>march</a></span>\u000a</span>\u000a</div>\u000a<div class="zm-item-vote-info" data-votecount="2">\u000a\u000a\u000a\u000a<span class="voters text"><a href="#" class="more text"><span class="js-voteCount">2</span>&nbsp;\u4eba\u8d5e\u540c</a></span>\u000a\u000a\u000a</div>\u000a</div>\u000a<div class="zm-item-rich-text expandable js-collapse-body" data-resourceid="690640" data-action="/answer/content" data-author-name="march" data-entry-url="/question/21274834/answer/19576088">\u000a\u000a\u000a<div class="zh-summary summary clearfix" style="display:none;">\u000a\u000a<a href="//link.zhihu.com/?target=http%3A//Pragmatic.ly" class=" external" target="_blank" rel="nofollow noreferrer"><span class="invisible">http://</span><span class="visible">Pragmatic.ly</span><span class="invisible"></span><i class="icon-external"></i></a> \u5c31\u662f\u5176\u4e2d\u4e00\u5bb6\u554a\u000a\u000a<a href="/question/21274834/answer/19576088" class="toggle-expand">\u663e\u793a\u5168\u90e8</a>\u000a\u000a</div>\u000a\u000a\u000a<div class="zm-editable-content clearfix">\u000a<a href="//link.zhihu.com/?target=http%3A//Pragmatic.ly" class=" external" target="_blank" rel="nofollow noreferrer"><span class="invisible">http://</span><span class="visible">Pragmatic.ly</span><span class="invisible"></span><i class="icon-external"></i></a> \u5c31\u662f\u5176\u4e2d\u4e00\u5bb6\u554a\u000a</div>\u000a\u000a\u000a</div>\u000a<a class="zg-anchor-hidden ac" name="3010908-comment"></a>\u000a<div class="zm-item-meta answer-actions clearfix js-contentActions">\u000a<div class="zm-meta-panel">\u000a\u000a<a itemprop="url" class="answer-date-link meta-item" target="_blank" href="/question/21274834/answer/19576088">\u53d1\u5e03\u4e8e 2013-10-23</a>\u000a\u000a<a href="#" name="addcomment" class="meta-item toggle-comment js-toggleCommentBox">\u000a<i class="z-icon-comment"></i>\u6dfb\u52a0\u8bc4\u8bba</a>\u000a\u000a\u000a<a href="#" class="meta-item zu-autohide js-thank" data-thanked="false"><i class="z-icon-thank"></i>\u611f\u8c22</a>\u000a\u000a\u000a\u000a<a href="#" class="meta-item zu-autohide js-share"><i class="z-icon-share"></i>\u5206\u4eab</a>\u000a\u000a<a href="#" class="meta-item zu-autohide js-collect"><i class="z-icon-collect"></i>\u6536\u85cf</a>\u000a\u000a\u000a\u000a\u000a\u000a<span class="zg-bull zu-autohide">&bull;</span>\u000a\u000a<a href="#" class="meta-item zu-autohide js-noHelp">\u6ca1\u6709\u5e2e\u52a9</a>\u000a\u000a<span class="zg-bull zu-autohide">&bull;</span>\u000a<a href="#" class="meta-item zu-autohide js-report">\u4e3e\u62a5</a>\u000a\u000a\u000a\u000a\u000a<meta name="copyrightStatus" content="1">\u000a<meta name="disableCopyAvatar" content="">\u000a\u000a<span class="zg-bull">&bull;</span>\u000a\u000a<a href="/terms#sec-licence-1" target="_blank" class="meta-item copyright">\u000a\u4f5c\u8005\u4fdd\u7559\u6743\u5229\u000a</a>\u000a\u000a\u000a</div>\u000a</div>\u000a</div>\u000a\u000a<div tabindex="-1" class="zm-item-answer  zm-item-expanded"\u000a\u000aitemscope itemtype="http://schema.org/Answer"\u000adata-aid="46057870"\u000adata-atoken="126377820"\u000adata-collapsed="0"\u000adata-created="1476344076"\u000adata-deleted="0"\u000adata-helpful="1"\u000adata-isowner="0"\u000adata-copyable="1"\u000a\u000a>\u000a<link itemprop="url" href="/question/21274834/answer/126377820">\u000a<meta itemprop="answer-id" content="46057870">\u000a<meta itemprop="answer-url-token" content="126377820">\u000a<a class="zg-anchor-hidden" name="answer-46057870"></a>\u000a\u000a\u000a<div class="zm-votebar">\u000a<button class="up ">\u000a<i class="icon vote-arrow"></i>\u000a<span class="count">1</span>\u000a<span class="label sr-only">\u8d5e\u540c</span>\u000a</button>\u000a<button class="down ">\u000a<i class="icon vote-arrow"></i>\u000a<span class="label sr-only">\u53cd\u5bf9</span>\u000a</button>\u000a</div>\u000a\u000a\u000a<div class="answer-head">\u000a<div class="zm-item-answer-author-info">\u000a\u000a<a class="zm-item-link-avatar avatar-link"\u000a\u000ahref="/people/wang-xiao-er-81" target="_blank" data-hovercard="p$t$wang-xiao-er-81"\u000a\u000a><img src="https://pic2.zhimg.com/79bdba07d_s.jpg"\u000aclass="zm-list-avatar avatar"\u000a></a>\u000a\u000a<span class="summary-wrapper">\u000a<span class="author-link-line">\u000a\u000a<a class="author-link"\u000adata-hovercard="p$t$wang-xiao-er-81"\u000atarget="_blank" href="/people/wang-xiao-er-81"\u000a>\u738b\u5c0f\u4e8c</a></span><span title="\u81ea\u7531\u4eba\u534f\u4f5c\u5e73\u53f0www.freemancn.com" class="bio">\u000a\u81ea\u7531\u4eba\u534f\u4f5c\u5e73\u53f0<a href="//link.zhihu.com/?target=http%3A//www.freemancn.com" class=" external" target="_blank" rel="nofollow noreferrer"><span class="invisible">http://www.</span><span class="visible">freemancn.com</span><span class="invisible"></span><i class="icon-external"></i></a>\u000a</span>\u000a</span>\u000a</div>\u000a<div class="zm-item-vote-info" data-votecount="1">\u000a\u000a\u000a\u000a<span class="voters text"><a href="#" class="more text"><span class="js-voteCount">1</span>&nbsp;\u4eba\u8d5e\u540c</a></span>\u000a\u000a\u000a</div>\u000a</div>\u000a<div class="zm-item-rich-text expandable js-collapse-body" data-resourceid="690640" data-action="/answer/content" data-author-name="\u738b\u5c0f\u4e8c" data-entry-url="/question/21274834/answer/126377820">\u000a\u000a\u000a<div class="zh-summary summary clearfix" style="display:none;">\u000a\u000a\u6709\u5417\uff0c\u5e76\u4e0d\u77e5\u9053\u3002\u5012\u662f\u6709\u4e0d\u5c11\u8fdc\u7a0b\u5de5\u4f5c\u53ef\u4ee5\u9009\u62e9\u7684\u5e73\u53f0\uff0c\u50cf\u81ea\u7531\u4eba<a href="//link.zhihu.com/?target=http%3A//www.freemancn.com" class=" external" target="_blank" rel="nofollow noreferrer"><span class="invisible">http://www.</span><span class="visible">freemancn.com</span><span class="invisible"></span><i class="icon-external"></i></a>\u000a\u000a<a href="/question/21274834/answer/126377820" class="toggle-expand">\u663e\u793a\u5168\u90e8</a>\u000a\u000a</div>\u000a\u000a\u000a<div class="zm-editable-content clearfix">\u000a\u6709\u5417\uff0c\u5e76\u4e0d\u77e5\u9053\u3002\u5012\u662f\u6709\u4e0d\u5c11\u8fdc\u7a0b\u5de5\u4f5c\u53ef\u4ee5\u9009\u62e9\u7684\u5e73\u53f0\uff0c\u50cf\u81ea\u7531\u4eba<a href="//link.zhihu.com/?target=http%3A//www.freemancn.com" class=" external" target="_blank" rel="nofollow noreferrer"><span class="invisible">http://www.</span><span class="visible">freemancn.com</span><span class="invisible"></span><i class="icon-external"></i></a>\u000a</div>\u000a\u000a\u000a</div>\u000a<a class="zg-anchor-hidden ac" name="46057870-comment"></a>\u000a<div class="zm-item-meta answer-actions clearfix js-contentActions">\u000a<div class="zm-meta-panel">\u000a\u000a<a itemprop="url" class="answer-date-link meta-item" target="_blank" href="/question/21274834/answer/126377820">\u53d1\u5e03\u4e8e 2016-10-13</a>\u000a\u000a<a href="#" name="addcomment" class="meta-item toggle-comment js-toggleCommentBox">\u000a<i class="z-icon-comment"></i>\u6dfb\u52a0\u8bc4\u8bba</a>\u000a\u000a\u000a<a href="#" class="meta-item zu-autohide js-thank" data-thanked="false"><i class="z-icon-thank"></i>\u611f\u8c22</a>\u000a\u000a\u000a\u000a<a href="#" class="meta-item zu-autohide js-share"><i class="z-icon-share"></i>\u5206\u4eab</a>\u000a\u000a<a href="#" class="meta-item zu-autohide js-collect"><i class="z-icon-collect"></i>\u6536\u85cf</a>\u000a\u000a\u000a\u000a\u000a\u000a<span class="zg-bull zu-autohide">&bull;</span>\u000a\u000a<a href="#" class="meta-item zu-autohide js-noHelp">\u6ca1\u6709\u5e2e\u52a9</a>\u000a\u000a<span class="zg-bull zu-autohide">&bull;</span>\u000a<a href="#" class="meta-item zu-autohide js-report">\u4e3e\u62a5</a>\u000a\u000a\u000a\u000a\u000a<meta name="copyrightStatus" content="1">\u000a<meta name="disableCopyAvatar" content="">\u000a\u000a<span class="zg-bull">&bull;</span>\u000a\u000a<a href="/terms#sec-licence-1" target="_blank" class="meta-item copyright">\u000a\u4f5c\u8005\u4fdd\u7559\u6743\u5229\u000a</a>\u000a\u000a\u000a</div>\u000a</div>\u000a</div>\u000a\u000a<div tabindex="-1" class="zm-item-answer  zm-item-expanded"\u000a\u000aitemscope itemtype="http://schema.org/Answer"\u000adata-aid="3262355"\u000adata-atoken="20192447"\u000adata-collapsed="0"\u000adata-created="1384852355"\u000adata-deleted="0"\u000adata-helpful="1"\u000adata-isowner="0"\u000adata-copyable="1"\u000a\u000a>\u000a<link itemprop="url" href="/question/21274834/answer/20192447">\u000a<meta itemprop="answer-id" content="3262355">\u000a<meta itemprop="answer-url-token" content="20192447">\u000a<a class="zg-anchor-hidden" name="answer-3262355"></a>\u000a\u000a\u000a<div class="zm-votebar">\u000a<button class="up ">\u000a<i class="icon vote-arrow"></i>\u000a<span class="count">1</span>\u000a<span class="label sr-only">\u8d5e\u540c</span>\u000a</button>\u000a<button class="down ">\u000a<i class="icon vote-arrow"></i>\u000a<span class="label sr-only">\u53cd\u5bf9</span>\u000a</button>\u000a</div>\u000a\u000a\u000a<div class="answer-head">\u000a<div class="zm-item-answer-author-info">\u000a\u000a<a class="zm-item-link-avatar avatar-link"\u000a\u000ahref="/people/ruo-gu-80" target="_blank" data-hovercard="p$t$ruo-gu-80"\u000a\u000a><img src="https://pic4.zhimg.com/0a8a786e7_s.jpg"\u000aclass="zm-list-avatar avatar"\u000a></a>\u000a\u000a<span class="summary-wrapper">\u000a<span class="author-link-line">\u000a\u000a<a class="author-link"\u000adata-hovercard="p$t$ruo-gu-80"\u000atarget="_blank" href="/people/ruo-gu-80"\u000a>\u82e5\u8c37</a></span>\u000a</span>\u000a</div>\u000a<div class="zm-item-vote-info" data-votecount="1">\u000a\u000a\u000a\u000a<span class="voters text"><a href="#" class="more text"><span class="js-voteCount">1</span>&nbsp;\u4eba\u8d5e\u540c</a></span>\u000a\u000a\u000a</div>\u000a</div>\u000a<div class="zm-item-rich-text expandable js-collapse-body" data-resourceid="690640" data-action="/answer/content" data-author-name="\u82e5\u8c37" data-entry-url="/question/21274834/answer/20192447">\u000a\u000a\u000a<div class="zh-summary summary clearfix" style="display:none;">\u000a\u000a\u597d\u50cf\u643a \u7a0b\u5bb6\u662f\u6709\u5728\u5bb6\u5de5\u4f5c\u8fd9\u79cd\u7684\u000a\u000a<a href="/question/21274834/answer/20192447" class="toggle-expand">\u663e\u793a\u5168\u90e8</a>\u000a\u000a</div>\u000a\u000a\u000a<div class="zm-editable-content clearfix">\u000a\u597d\u50cf\u643a \u7a0b\u5bb6\u662f\u6709\u5728\u5bb6\u5de5\u4f5c\u8fd9\u79cd\u7684\u000a</div>\u000a\u000a\u000a</div>\u000a<a class="zg-anchor-hidden ac" name="3262355-comment"></a>\u000a<div class="zm-item-meta answer-actions clearfix js-contentActions">\u000a<div class="zm-meta-panel">\u000a\u000a<a itemprop="url" class="answer-date-link meta-item" target="_blank" href="/question/21274834/answer/20192447">\u53d1\u5e03\u4e8e 2013-11-19</a>\u000a\u000a<a href="#" name="addcomment" class="meta-item toggle-comment js-toggleCommentBox">\u000a<i class="z-icon-comment"></i>1 \u6761\u8bc4\u8bba</a>\u000a\u000a\u000a<a href="#" class="meta-item zu-autohide js-thank" data-thanked="false"><i class="z-icon-thank"></i>\u611f\u8c22</a>\u000a\u000a\u000a\u000a<a href="#" class="meta-item zu-autohide js-share"><i class="z-icon-share"></i>\u5206\u4eab</a>\u000a\u000a<a href="#" class="meta-item zu-autohide js-collect"><i class="z-icon-collect"></i>\u6536\u85cf</a>\u000a\u000a\u000a\u000a\u000a\u000a<span class="zg-bull zu-autohide">&bull;</span>\u000a\u000a<a href="#" class="meta-item zu-autohide js-noHelp">\u6ca1\u6709\u5e2e\u52a9</a>\u000a\u000a<span class="zg-bull zu-autohide">&bull;</span>\u000a<a href="#" class="meta-item zu-autohide js-report">\u4e3e\u62a5</a>\u000a\u000a\u000a\u000a\u000a<meta name="copyrightStatus" content="1">\u000a<meta name="disableCopyAvatar" content="">\u000a\u000a<span class="zg-bull">&bull;</span>\u000a\u000a<a href="/terms#sec-licence-1" target="_blank" class="meta-item copyright">\u000a\u4f5c\u8005\u4fdd\u7559\u6743\u5229\u000a</a>\u000a\u000a\u000a</div>\u000a</div>\u000a</div>\u000a\u000a<div tabindex="-1" class="zm-item-answer  zm-item-expanded"\u000a\u000aitemscope itemtype="http://schema.org/Answer"\u000adata-aid="24921242"\u000adata-atoken="73745354"\u000adata-collapsed="0"\u000adata-created="1448361212"\u000adata-deleted="0"\u000adata-helpful="1"\u000adata-isowner="0"\u000adata-copyable="1"\u000a\u000a>\u000a<link itemprop="url" href="/question/21274834/answer/73745354">\u000a<meta itemprop="answer-id" content="24921242">\u000a<meta itemprop="answer-url-token" content="73745354">\u000a<a class="zg-anchor-hidden" name="answer-24921242"></a>\u000a\u000a\u000a<div class="zm-votebar">\u000a<button class="up ">\u000a<i class="icon vote-arrow"></i>\u000a<span class="count">1</span>\u000a<span class="label sr-only">\u8d5e\u540c</span>\u000a</button>\u000a<button class="down ">\u000a<i class="icon vote-arrow"></i>\u000a<span class="label sr-only">\u53cd\u5bf9</span>\u000a</button>\u000a</div>\u000a\u000a\u000a<div class="answer-head">\u000a<div class="zm-item-answer-author-info">\u000a<span class="name">\u533f\u540d\u7528\u6237</span>\u000a</div>\u000a<div class="zm-item-vote-info" data-votecount="1">\u000a\u000a\u000a\u000a<span class="voters text"><a href="#" class="more text"><span class="js-voteCount">1</span>&nbsp;\u4eba\u8d5e\u540c</a></span>\u000a\u000a\u000a</div>\u000a</div>\u000a<div class="zm-item-rich-text expandable js-collapse-body" data-resourceid="690640" data-action="/answer/content" data-author-name="\u533f\u540d\u7528\u6237" data-entry-url="/question/21274834/answer/73745354">\u000a\u000a\u000a<div class="zh-summary summary clearfix" style="display:none;">\u000a\u000a\u8054\u521b\u5de5\u573auworks\u4e5f\u6709\u8fd8\u4e0d\u9519\u7684\u9879\u76ee\u3002\u000a\u000a<a href="/question/21274834/answer/73745354" class="toggle-expand">\u663e\u793a\u5168\u90e8</a>\u000a\u000a</div>\u000a\u000a\u000a<div class="zm-editable-content clearfix">\u000a\u8054\u521b\u5de5\u573auworks\u4e5f\u6709\u8fd8\u4e0d\u9519\u7684\u9879\u76ee\u3002\u000a</div>\u000a\u000a\u000a</div>\u000a<a class="zg-anchor-hidden ac" name="24921242-comment"></a>\u000a<div class="zm-item-meta answer-actions clearfix js-contentActions">\u000a<div class="zm-meta-panel">\u000a\u000a<a itemprop="url" class="answer-date-link meta-item" target="_blank" href="/question/21274834/answer/73745354">\u53d1\u5e03\u4e8e 2015-11-24</a>\u000a\u000a<a href="#" name="addcomment" class="meta-item toggle-comment js-toggleCommentBox">\u000a<i class="z-icon-comment"></i>1 \u6761\u8bc4\u8bba</a>\u000a\u000a\u000a<a href="#" class="meta-item zu-autohide js-thank" data-thanked="false"><i class="z-icon-thank"></i>\u611f\u8c22</a>\u000a\u000a\u000a\u000a<a href="#" class="meta-item zu-autohide js-share"><i class="z-icon-share"></i>\u5206\u4eab</a>\u000a\u000a<a href="#" class="meta-item zu-autohide js-collect"><i class="z-icon-collect"></i>\u6536\u85cf</a>\u000a\u000a\u000a\u000a\u000a\u000a<span class="zg-bull zu-autohide">&bull;</span>\u000a\u000a<a href="#" class="meta-item zu-autohide js-noHelp">\u6ca1\u6709\u5e2e\u52a9</a>\u000a\u000a<span class="zg-bull zu-autohide">&bull;</span>\u000a<a href="#" class="meta-item zu-autohide js-report">\u4e3e\u62a5</a>\u000a\u000a\u000a\u000a\u000a<meta name="copyrightStatus" content="1">\u000a<meta name="disableCopyAvatar" content="">\u000a\u000a<span class="zg-bull">&bull;</span>\u000a\u000a<a href="/terms#sec-licence-1" target="_blank" class="meta-item copyright">\u000a\u4f5c\u8005\u4fdd\u7559\u6743\u5229\u000a</a>\u000a\u000a\u000a</div>\u000a</div>\u000a</div>\u000a\u000a<div tabindex="-1" class="zm-item-answer  zm-item-expanded"\u000a\u000aitemscope itemtype="http://schema.org/Answer"\u000adata-aid="49852476"\u000adata-atoken="135823409"\u000adata-collapsed="0"\u000adata-created="1481704324"\u000adata-deleted="0"\u000adata-helpful="1"\u000adata-isowner="0"\u000adata-copyable="0"\u000a\u000a>\u000a<link itemprop="url" href="/question/21274834/answer/135823409">\u000a<meta itemprop="answer-id" content="49852476">\u000a<meta itemprop="answer-url-token" content="135823409">\u000a<a class="zg-anchor-hidden" name="answer-49852476"></a>\u000a\u000a\u000a<div class="zm-votebar">\u000a<button class="up ">\u000a<i class="icon vote-arrow"></i>\u000a<span class="count">0</span>\u000a<span class="label sr-only">\u8d5e\u540c</span>\u000a</button>\u000a<button class="down ">\u000a<i class="icon vote-arrow"></i>\u000a<span class="label sr-only">\u53cd\u5bf9</span>\u000a</button>\u000a</div>\u000a\u000a\u000a<div class="answer-head">\u000a<div class="zm-item-answer-author-info">\u000a\u000a<a class="zm-item-link-avatar avatar-link"\u000a\u000ahref="/people/xiao-er-hei-23-50" target="_blank" data-hovercard="p$t$xiao-er-hei-23-50"\u000a\u000a><img src="https://pic1.zhimg.com/v2-80007925015afcd6d0adacdc03822ad4_s.jpg"\u000aclass="zm-list-avatar avatar"\u000a></a>\u000a\u000a<span class="summary-wrapper">\u000a<span class="author-link-line">\u000a\u000a<a class="author-link"\u000adata-hovercard="p$t$xiao-er-hei-23-50"\u000atarget="_blank" href="/people/xiao-er-hei-23-50"\u000a>\u5c0f\u4e8c\u9ed1</a></span><span title="\u7406\u60f3\u4e0d\u673d\uff0c\u804c\u4e1a\u81ea\u7531" class="bio">\u000a\u7406\u60f3\u4e0d\u673d\uff0c\u804c\u4e1a\u81ea\u7531\u000a</span>\u000a</span>\u000a</div>\u000a<div class="zm-item-vote-info empty" data-votecount="0">\u000a\u000a\u000a\u000a\u000a</div>\u000a</div>\u000a<div class="zm-item-rich-text expandable js-collapse-body" data-resourceid="690640" data-action="/answer/content" data-author-name="\u5c0f\u4e8c\u9ed1" data-entry-url="/question/21274834/answer/135823409">\u000a\u000a\u000a<div class="zh-summary summary clearfix" style="display:none;">\u000a<img src="https://pic2.zhimg.com/v2-e2050e4cd0ee37ef5ba4e1e063870ab5_200x112.png" data-rawwidth="581" data-rawheight="791" class="origin_image inline-img zh-lightbox-thumb" data-original="https://pic2.zhimg.com/v2-e2050e4cd0ee37ef5ba4e1e063870ab5_r.png">\u000a\u000a\u000a</div>\u000a\u000a\u000a<div class="zm-editable-content clearfix">\u000a<noscript><img src="https://pic2.zhimg.com/v2-e2050e4cd0ee37ef5ba4e1e063870ab5_b.png" data-rawwidth="581" data-rawheight="791" class="origin_image zh-lightbox-thumb" width="581" data-original="https://pic2.zhimg.com/v2-e2050e4cd0ee37ef5ba4e1e063870ab5_r.png"></noscript><img src="//zhstatic.zhihu.com/assets/zhihu/ztext/whitedot.jpg" data-rawwidth="581" data-rawheight="791" class="origin_image zh-lightbox-thumb lazy" width="581" data-original="https://pic2.zhimg.com/v2-e2050e4cd0ee37ef5ba4e1e063870ab5_r.png" data-actualsrc="https://pic2.zhimg.com/v2-e2050e4cd0ee37ef5ba4e1e063870ab5_b.png">\u000a</div>\u000a\u000a\u000a</div>\u000a<a class="zg-anchor-hidden ac" name="49852476-comment"></a>\u000a<div class="zm-item-meta answer-actions clearfix js-contentActions">\u000a<div class="zm-meta-panel">\u000a\u000a<a itemprop="url" class="answer-date-link meta-item" target="_blank" href="/question/21274834/answer/135823409">\u53d1\u5e03\u4e8e 2016-12-14</a>\u000a\u000a<a href="#" name="addcomment" class="meta-item toggle-comment js-toggleCommentBox">\u000a<i class="z-icon-comment"></i>\u6dfb\u52a0\u8bc4\u8bba</a>\u000a\u000a\u000a<a href="#" class="meta-item zu-autohide js-thank" data-thanked="false"><i class="z-icon-thank"></i>\u611f\u8c22</a>\u000a\u000a\u000a\u000a<a href="#" class="meta-item zu-autohide js-share"><i class="z-icon-share"></i>\u5206\u4eab</a>\u000a\u000a<a href="#" class="meta-item zu-autohide js-collect"><i class="z-icon-collect"></i>\u6536\u85cf</a>\u000a\u000a\u000a\u000a\u000a\u000a<span class="zg-bull zu-autohide">&bull;</span>\u000a\u000a<a href="#" class="meta-item zu-autohide js-noHelp">\u6ca1\u6709\u5e2e\u52a9</a>\u000a\u000a<span class="zg-bull zu-autohide">&bull;</span>\u000a<a href="#" class="meta-item zu-autohide js-report">\u4e3e\u62a5</a>\u000a\u000a\u000a\u000a\u000a<meta name="copyrightStatus" content="1">\u000a<meta name="disableCopyAvatar" content="">\u000a\u000a<span class="zg-bull">&bull;</span>\u000a\u000a<a href="/terms#sec-licence-1" target="_blank" class="meta-item copyright">\u000a\u4f5c\u8005\u4fdd\u7559\u6743\u5229\u000a</a>\u000a\u000a\u000a</div>\u000a</div>\u000a</div>\u000a\u000a<div tabindex="-1" class="zm-item-answer  zm-item-expanded"\u000a\u000aitemscope itemtype="http://schema.org/Answer"\u000adata-aid="49644992"\u000adata-atoken="135305686"\u000adata-collapsed="0"\u000adata-created="1481429048"\u000adata-deleted="0"\u000adata-helpful="1"\u000adata-isowner="0"\u000adata-copyable="0"\u000a\u000a>\u000a<link itemprop="url" href="/question/21274834/answer/135305686">\u000a<meta itemprop="answer-id" content="49644992">\u000a<meta itemprop="answer-url-token" content="135305686">\u000a<a class="zg-anchor-hidden" name="answer-49644992"></a>\u000a\u000a\u000a<div class="zm-votebar">\u000a<button class="up ">\u000a<i class="icon vote-arrow"></i>\u000a<span class="count">0</span>\u000a<span class="label sr-only">\u8d5e\u540c</span>\u000a</button>\u000a<button class="down ">\u000a<i class="icon vote-arrow"></i>\u000a<span class="label sr-only">\u53cd\u5bf9</span>\u000a</button>\u000a</div>\u000a\u000a\u000a<div class="answer-head">\u000a<div class="zm-item-answer-author-info">\u000a\u000a<a class="zm-item-link-avatar avatar-link"\u000a\u000ahref="/people/da-shu-6-57" target="_blank" data-hovercard="p$t$da-shu-6-57"\u000a\u000a><img src="https://pic1.zhimg.com/da8e974dc_s.jpg"\u000aclass="zm-list-avatar avatar"\u000a></a>\u000a\u000a<span class="summary-wrapper">\u000a<span class="author-link-line">\u000a\u000a<a class="author-link"\u000adata-hovercard="p$t$da-shu-6-57"\u000atarget="_blank" href="/people/da-shu-6-57"\u000a>\u5927\u6811</a></span><span title="\u521b\u4e1a" class="bio">\u000a\u521b\u4e1a\u000a</span>\u000a</span>\u000a</div>\u000a<div class="zm-item-vote-info empty" data-votecount="0">\u000a\u000a\u000a\u000a\u000a</div>\u000a</div>\u000a<div class="zm-item-rich-text expandable js-collapse-body" data-resourceid="690640" data-action="/answer/content" data-author-name="\u5927\u6811" data-entry-url="/question/21274834/answer/135305686">\u000a\u000a\u000a<div class="zh-summary summary clearfix" style="display:none;">\u000a\u000a\u4e94\u8c37\u5144\u5f1f \u516c\u53f8\uff0c\u5c31\u662f\u81f4\u529b\u4e8e\u6253\u9020\u4e00\u5bb6\u8fdc\u7a0b\u529e\u516c \u534f\u52a9\u7684\u516c\u53f8\u3002 \u6709\u81f4\u4e8e\u8fdc\u7a0b\u529e\u516c\uff0c\u65b0\u7684\u751f\u6d3b\u65b9\u5f0f\u6539\u53d8\u7684\u7684\u4eba\u624d\u8bf7\u52a0\u5165 <a href="//link.zhihu.com/?target=http%3A//www.0teams.com" class=" external" target="_blank" rel="nofollow noreferrer"><span class="invisible">http://www.</span><span class="visible">0teams.com</span><span class="invisible"></span><i class="icon-external"></i></a> \uff0c\u6709\u4e1a\u52a1\u9700\u6c42\u7684\u6211\u4eec\u6709\u8d44\u6e90\u53ef\u4ee5\u5171\u4eab\u3002\u000a\u000a<a href="/question/21274834/answer/135305686" class="toggle-expand">\u663e\u793a\u5168\u90e8</a>\u000a\u000a</div>\u000a\u000a\u000a<div class="zm-editable-content clearfix">\u000a \u4e94\u8c37\u5144\u5f1f \u516c\u53f8\uff0c\u5c31\u662f\u81f4\u529b\u4e8e\u6253\u9020\u4e00\u5bb6\u8fdc\u7a0b\u529e\u516c \u534f\u52a9\u7684\u516c\u53f8\u3002  \u6709\u81f4\u4e8e\u8fdc\u7a0b\u529e\u516c\uff0c\u65b0\u7684\u751f\u6d3b\u65b9\u5f0f\u6539\u53d8\u7684\u7684\u4eba\u624d\u8bf7\u52a0\u5165 <a href="//link.zhihu.com/?target=http%3A//www.0teams.com" class=" external" target="_blank" rel="nofollow noreferrer"><span class="invisible">http://www.</span><span class="visible">0teams.com</span><span class="invisible"></span><i class="icon-external"></i></a> \uff0c\u6709\u4e1a\u52a1\u9700\u6c42\u7684\u6211\u4eec\u6709\u8d44\u6e90\u53ef\u4ee5\u5171\u4eab\u3002\u000a</div>\u000a\u000a\u000a</div>\u000a<a class="zg-anchor-hidden ac" name="49644992-comment"></a>\u000a<div class="zm-item-meta answer-actions clearfix js-contentActions">\u000a<div class="zm-meta-panel">\u000a\u000a<a itemprop="url" class="answer-date-link meta-item" target="_blank" href="/question/21274834/answer/135305686">\u53d1\u5e03\u4e8e 2016-12-11</a>\u000a\u000a<a href="#" name="addcomment" class="meta-item toggle-comment js-toggleCommentBox">\u000a<i class="z-icon-comment"></i>\u6dfb\u52a0\u8bc4\u8bba</a>\u000a\u000a\u000a<a href="#" class="meta-item zu-autohide js-thank" data-thanked="false"><i class="z-icon-thank"></i>\u611f\u8c22</a>\u000a\u000a\u000a\u000a<a href="#" class="meta-item zu-autohide js-share"><i class="z-icon-share"></i>\u5206\u4eab</a>\u000a\u000a<a href="#" class="meta-item zu-autohide js-collect"><i class="z-icon-collect"></i>\u6536\u85cf</a>\u000a\u000a\u000a\u000a\u000a\u000a<span class="zg-bull zu-autohide">&bull;</span>\u000a\u000a<a href="#" class="meta-item zu-autohide js-noHelp">\u6ca1\u6709\u5e2e\u52a9</a>\u000a\u000a<span class="zg-bull zu-autohide">&bull;</span>\u000a<a href="#" class="meta-item zu-autohide js-report">\u4e3e\u62a5</a>\u000a\u000a\u000a\u000a\u000a<meta name="copyrightStatus" content="1">\u000a<meta name="disableCopyAvatar" content="">\u000a\u000a<span class="zg-bull">&bull;</span>\u000a\u000a<a href="/terms#sec-licence-1" target="_blank" class="meta-item copyright">\u000a\u4f5c\u8005\u4fdd\u7559\u6743\u5229\u000a</a>\u000a\u000a\u000a</div>\u000a</div>\u000a</div>\u000a\u000a<div tabindex="-1" class="zm-item-answer  zm-item-expanded"\u000a\u000aitemscope itemtype="http://schema.org/Answer"\u000adata-aid="49476116"\u000adata-atoken="134883558"\u000adata-collapsed="0"\u000adata-created="1481170675"\u000adata-deleted="0"\u000adata-helpful="1"\u000adata-isowner="0"\u000adata-copyable="0"\u000a\u000a>\u000a<link itemprop="url" href="/question/21274834/answer/134883558">\u000a<meta itemprop="answer-id" content="49476116">\u000a<meta itemprop="answer-url-token" content="134883558">\u000a<a class="zg-anchor-hidden" name="answer-49476116"></a>\u000a\u000a\u000a<div class="zm-votebar">\u000a<button class="up ">\u000a<i class="icon vote-arrow"></i>\u000a<span class="count">0</span>\u000a<span class="label sr-only">\u8d5e\u540c</span>\u000a</button>\u000a<button class="down ">\u000a<i class="icon vote-arrow"></i>\u000a<span class="label sr-only">\u53cd\u5bf9</span>\u000a</button>\u000a</div>\u000a\u000a\u000a<div class="answer-head">\u000a<div class="zm-item-answer-author-info">\u000a\u000a<a class="zm-item-link-avatar avatar-link"\u000a\u000ahref="/people/bearychat" target="_blank" data-hovercard="p$t$bearychat"\u000a\u000a><img src="https://pic3.zhimg.com/v2-9e5f81527523f7463b111779f52bd686_s.jpg"\u000aclass="zm-list-avatar avatar"\u000a></a>\u000a\u000a<span class="summary-wrapper">\u000a<span class="author-link-line">\u000a\u000a<a class="author-link"\u000adata-hovercard="p$t$bearychat"\u000atarget="_blank" href="/people/bearychat"\u000a>\u718a\u4e00</a></span><span title="\u8fdc\u7a0b\u529e\u516c\u5b9e\u8df5\u8005" class="bio">\u000a\u8fdc\u7a0b\u529e\u516c\u5b9e\u8df5\u8005\u000a</span>\u000a</span>\u000a</div>\u000a<div class="zm-item-vote-info empty" data-votecount="0">\u000a\u000a\u000a\u000a\u000a</div>\u000a</div>\u000a<div class="zm-item-rich-text expandable js-collapse-body" data-resourceid="690640" data-action="/answer/content" data-author-name="\u718a\u4e00" data-entry-url="/question/21274834/answer/134883558">\u000a\u000a\u000a<div class="zh-summary summary clearfix" style="display:none;">\u000a\u000a\u6211\u4eec\u5c31\u662f\u4e00\u4e2a\u5141\u8bb8\u6210\u5458\u8fdc\u7a0b\u7684\u56e2\u961f\uff0c\u76ee\u524d\u6211\u4eec\u7684\u5f00\u53d1\u540c\u4e8b\u5206\u5e03\u5728\uff1a\u5317\u4eac\u3001\u6df1\u5733\u3001\u5357\u5b81\u3001\u4e0a\u6d77\u3001\u6210\u90fd\u4ee5\u53ca\u4f60\u60f3\u53bb\u7684\u4efb\u4f55\u4e00\u4e2a\u6709\u7f51\u7edc\u7684\u5730\u65b9\u3002\u7531\u4e8e\u6211\u4eec\u672c\u6765\u5c31\u5728\u505a\u4e00\u6b3e SaaS \u4ea7\u54c1\uff1aBearyChat \uff0c\u6240\u4ee5\u6211\u4eec\u76ee\u524d\u6574\u4f53\u7684\u5de5\u4f5c\u6d41\u90fd\u662f\u57fa\u4e8e BearyChat \u7684\uff0c\u6211\u4eec\u4f1a\u5c06\u5982\u4e0b\u7684\u7528\u5230\u7684\u5de5\u5177\u2026\u000a\u000a<a href="/question/21274834/answer/134883558" class="toggle-expand">\u663e\u793a\u5168\u90e8</a>\u000a\u000a</div>\u000a\u000a\u000a<div class="zm-editable-content clearfix">\u000a       \u6211\u4eec\u5c31\u662f\u4e00\u4e2a\u5141\u8bb8\u6210\u5458\u8fdc\u7a0b\u7684\u56e2\u961f\uff0c\u76ee\u524d\u6211\u4eec\u7684\u5f00\u53d1\u540c\u4e8b\u5206\u5e03\u5728\uff1a\u5317\u4eac\u3001\u6df1\u5733\u3001\u5357\u5b81\u3001\u4e0a\u6d77\u3001\u6210\u90fd\u4ee5\u53ca\u4f60\u60f3\u53bb\u7684\u4efb\u4f55\u4e00\u4e2a\u6709\u7f51\u7edc\u7684\u5730\u65b9\u3002\u7531\u4e8e\u6211\u4eec\u672c\u6765\u5c31\u5728\u505a\u4e00\u6b3e SaaS \u4ea7\u54c1\uff1aBearyChat \uff0c\u6240\u4ee5\u6211\u4eec\u76ee\u524d\u6574\u4f53\u7684\u5de5\u4f5c\u6d41\u90fd\u662f\u57fa\u4e8e BearyChat \u7684\uff0c\u6211\u4eec\u4f1a\u5c06\u5982\u4e0b\u7684\u7528\u5230\u7684\u5de5\u5177\u7edf\u7edf\u96c6\u6210\u5230\u4e0a\u9762\uff0c\u7b2c\u4e00\u65f6\u95f4\u63a5\u6536\u5230\u7684\u4fe1\u606f\uff0c\u7b2c\u4e00\u65f6\u95f4\u8fdb\u884c\u5904\u7406\u6216\u8005\u8ba8\u8bba\uff1a<br><ul><li>GitHub: \u4ee3\u7801\u6258\u7ba1\uff0cCode Review\uff0cissue \u8ddf\u8e2a</li><li>Jenkins:  \u96c6\u6210\u6d4b\u8bd5\uff0c\u90e8\u7f72</li><li>Sentry: \u5f02\u5e38\u6536\u96c6</li><li>Grafana+statsd: \u6570\u636e\u6536\u96c6</li><li>Trello: \u9879\u76ee\u7ba1\u7406</li><li>Zoom: \u8bed\u97f3\u7535\u8bdd\u3001\u5171\u4eab\u5c4f\u5e55</li></ul>       BearyChat \u76f8\u5f53\u4e8e\u4e00\u4e2a\u6211\u4eec\u56e2\u961f\u7684\u5de5\u4f5c\u4fe1\u606f\u6d41\u5165\u53e3\uff0c\u628a\u8fd9\u4e9b\u4fe1\u606f\u901a\u8fc7\u300c\u8ba8\u8bba\u7ec4\u300d\u7684\u5f62\u5f0f\u6c47\u96c6\u3001\u4e32\u8054\uff0c\u7136\u540e\u518d\u5206\u53d1\u7ed9\u76f8\u5173\u7684\u6210\u5458\uff0c\u8fd9\u6837\u4fe1\u606f\u5c31\u4f1a\u53d8\u5f97\u66f4\u52a0\u6709\u5e8f\u3001\u5feb\u901f\u3001\u76f4\u89c2\u3002\u5177\u4f53\u5de5\u4f5c\u6d41\u7a0b\u53ef\u4ee5\u53c2\u8003\u4e4b\u524d\u5206\u4eab\u7684\u7b54\u6848\uff1a<a class="internal" href="https://www.zhihu.com/question/28116487/answer/63138169">\u7845\u8c37\u7684Startup\u4e00\u822c\u91c7\u7528\u54ea\u4e9b\u6280\u672f\u65b9\u6848\uff1f - \u718a\u4e00\u7684\u56de\u7b54 - \u77e5\u4e4e</a><br>      \u6240\u4ee5\uff0c\u53ea\u8981\u5927\u5bb6\u90fd\u53ef\u4ee5\u8db3\u591f\u81ea\u89c9\u5730\u5de5\u4f5c\uff0c\u8ddd\u79bb\u4e0d\u662f\u95ee\u9898\u3002\u53ea\u8981\u5927\u5bb6\u57fa\u4e8e\u7edf\u4e00\u7684\u6807\u51c6\u5316\u5de5\u4f5c\u6d41\u7a0b\uff0c\u4e0d\u7ba1\u5728\u54ea\u91cc\u90fd\u53ef\u4ee5\u8fdb\u884c\u5f00\u53d1\u5de5\u4f5c\u3002<br>     \u8fd9\u6837\u505a\u7684\u597d\u5904\u5c31\u662f\uff0c\u5927\u5bb6\u53ef\u4ee5\u5728\u81ea\u5df1\u5e0c\u671b\u7684\u5730\u65b9\u751f\u6d3b\u548c\u5de5\u4f5c\u3002\u514d\u53bb\u4e86\u5728\u5927\u57ce\u5e02\u4e0a\u4e0b\u73ed\u7684\u5954\u6ce2\u52b3\u788c\uff0c\u53ef\u4ee5\u4e00\u8fb9\u547c\u5438\u7740\u65b0\u9c9c\u7684\u7a7a\u6c14\u4e00\u8fb9coding\uff0c\u5982\u679c\u4f60\u60f3\u6765\u4e00\u573a\u8bf4\u8d70\u5c31\u8d70\u7684\u65c5\u884c\u4e5f\u53ef\u4ee5\uff0c\u5728\u5bcc\u58eb\u5c71\u4e0b\u3001\u585e\u7eb3\u6cb3\u7554\u3001\u8fc8\u963f\u5bc6\u7684\u6d77\u6ee9\u4e0a\u4e00\u8fb9\u4f11\u95f2\u4e00\u8fb9\u5de5\u4f5c\u90fd\u4e0d\u662f\u68a6\u3002\u000a</div>\u000a\u000a\u000a</div>\u000a<a class="zg-anchor-hidden ac" name="49476116-comment"></a>\u000a<div class="zm-item-meta answer-actions clearfix js-contentActions">\u000a<div class="zm-meta-panel">\u000a\u000a<a itemprop="url" class="answer-date-link meta-item" target="_blank" href="/question/21274834/answer/134883558">\u53d1\u5e03\u4e8e 2016-12-08</a>\u000a\u000a<a href="#" name="addcomment" class="meta-item toggle-comment js-toggleCommentBox">\u000a<i class="z-icon-comment"></i>2 \u6761\u8bc4\u8bba</a>\u000a\u000a\u000a<a href="#" class="meta-item zu-autohide js-thank" data-thanked="false"><i class="z-icon-thank"></i>\u611f\u8c22</a>\u000a\u000a\u000a\u000a<a href="#" class="meta-item zu-autohide js-share"><i class="z-icon-share"></i>\u5206\u4eab</a>\u000a\u000a<a href="#" class="meta-item zu-autohide js-collect"><i class="z-icon-collect"></i>\u6536\u85cf</a>\u000a\u000a\u000a\u000a\u000a\u000a<span class="zg-bull zu-autohide">&bull;</span>\u000a\u000a<a href="#" class="meta-item zu-autohide js-noHelp">\u6ca1\u6709\u5e2e\u52a9</a>\u000a\u000a<span class="zg-bull zu-autohide">&bull;</span>\u000a<a href="#" class="meta-item zu-autohide js-report">\u4e3e\u62a5</a>\u000a\u000a\u000a\u000a\u000a<meta name="copyrightStatus" content="1">\u000a<meta name="disableCopyAvatar" content="">\u000a\u000a<span class="zg-bull">&bull;</span>\u000a\u000a<a href="/terms#sec-licence-1" target="_blank" class="meta-item copyright">\u000a\u4f5c\u8005\u4fdd\u7559\u6743\u5229\u000a</a>\u000a\u000a\u000a</div>\u000a</div>\u000a</div>\u000a\u000a<div tabindex="-1" class="zm-item-answer  zm-item-expanded"\u000a\u000aitemscope itemtype="http://schema.org/Answer"\u000adata-aid="45618189"\u000adata-atoken="125284385"\u000adata-collapsed="0"\u000adata-created="1475769797"\u000adata-deleted="0"\u000adata-helpful="1"\u000adata-isowner="0"\u000adata-copyable="1"\u000a\u000a>\u000a<link itemprop="url" href="/question/21274834/answer/125284385">\u000a<meta itemprop="answer-id" content="45618189">\u000a<meta itemprop="answer-url-token" content="125284385">\u000a<a class="zg-anchor-hidden" name="answer-45618189"></a>\u000a\u000a\u000a<div class="zm-votebar">\u000a<button class="up ">\u000a<i class="icon vote-arrow"></i>\u000a<span class="count">0</span>\u000a<span class="label sr-only">\u8d5e\u540c</span>\u000a</button>\u000a<button class="down ">\u000a<i class="icon vote-arrow"></i>\u000a<span class="label sr-only">\u53cd\u5bf9</span>\u000a</button>\u000a</div>\u000a\u000a\u000a<div class="answer-head">\u000a<div class="zm-item-answer-author-info">\u000a\u000a<a class="zm-item-link-avatar avatar-link"\u000a\u000ahref="javascript:;"\u000a\u000a><img src="https://pic1.zhimg.com/da8e974dc_s.jpg"\u000aclass="zm-list-avatar avatar"\u000a></a>\u000a\u000a<span class="summary-wrapper">\u000a<span class="author-link-line">\u000a<span class="name">\u77e5\u4e4e\u7528\u6237</span></span><span title="Formal Verification" class="bio">\u000aFormal Verification\u000a</span>\u000a</span>\u000a</div>\u000a<div class="zm-item-vote-info empty" data-votecount="0">\u000a\u000a\u000a\u000a\u000a</div>\u000a</div>\u000a<div class="zm-item-rich-text expandable js-collapse-body" data-resourceid="690640" data-action="/answer/content" data-author-name="\u66fe\u6d77\u6797" data-entry-url="/question/21274834/answer/125284385">\u000a\u000a\u000a<div class="zh-summary summary clearfix" style="display:none;">\u000a\u000a<a href="//link.zhihu.com/?target=http%3A//Tower.im" class=" external" target="_blank" rel="nofollow noreferrer"><span class="invisible">http://</span><span class="visible">Tower.im</span><span class="invisible"></span><i class="icon-external"></i></a> \u4ed6\u4eec\u7684\u804c\u4f4d\u5728\u62c9\u94a9\u7f51\u53ef\u4ee5\u627e\u5230\u000a\u000a<a href="/question/21274834/answer/125284385" class="toggle-expand">\u663e\u793a\u5168\u90e8</a>\u000a\u000a</div>\u000a\u000a\u000a<div class="zm-editable-content clearfix">\u000a<a href="//link.zhihu.com/?target=http%3A//Tower.im" class=" external" target="_blank" rel="nofollow noreferrer"><span class="invisible">http://</span><span class="visible">Tower.im</span><span class="invisible"></span><i class="icon-external"></i></a> \u4ed6\u4eec\u7684\u804c\u4f4d\u5728\u62c9\u94a9\u7f51\u53ef\u4ee5\u627e\u5230\u000a</div>\u000a\u000a\u000a</div>\u000a<a class="zg-anchor-hidden ac" name="45618189-comment"></a>\u000a<div class="zm-item-meta answer-actions clearfix js-contentActions">\u000a<div class="zm-meta-panel">\u000a\u000a<a itemprop="url" class="answer-date-link meta-item" target="_blank" href="/question/21274834/answer/125284385">\u53d1\u5e03\u4e8e 2016-10-07</a>\u000a\u000a<a href="#" name="addcomment" class="meta-item toggle-comment js-toggleCommentBox">\u000a<i class="z-icon-comment"></i>\u6dfb\u52a0\u8bc4\u8bba</a>\u000a\u000a\u000a<a href="#" class="meta-item zu-autohide js-thank" data-thanked="false"><i class="z-icon-thank"></i>\u611f\u8c22</a>\u000a\u000a\u000a\u000a<a href="#" class="meta-item zu-autohide js-share"><i class="z-icon-share"></i>\u5206\u4eab</a>\u000a\u000a<a href="#" class="meta-item zu-autohide js-collect"><i class="z-icon-collect"></i>\u6536\u85cf</a>\u000a\u000a\u000a\u000a\u000a\u000a<span class="zg-bull zu-autohide">&bull;</span>\u000a\u000a<a href="#" class="meta-item zu-autohide js-noHelp">\u6ca1\u6709\u5e2e\u52a9</a>\u000a\u000a<span class="zg-bull zu-autohide">&bull;</span>\u000a<a href="#" class="meta-item zu-autohide js-report">\u4e3e\u62a5</a>\u000a\u000a\u000a\u000a\u000a<meta name="copyrightStatus" content="1">\u000a<meta name="disableCopyAvatar" content="">\u000a\u000a<span class="zg-bull">&bull;</span>\u000a\u000a<a href="/terms#sec-licence-1" target="_blank" class="meta-item copyright">\u000a\u4f5c\u8005\u4fdd\u7559\u6743\u5229\u000a</a>\u000a\u000a\u000a</div>\u000a</div>\u000a</div>\u000a\u000a<div tabindex="-1" class="zm-item-answer  zm-item-expanded"\u000a\u000aitemscope itemtype="http://schema.org/Answer"\u000adata-aid="30976709"\u000adata-atoken="88854544"\u000adata-collapsed="0"\u000adata-created="1456881397"\u000adata-deleted="0"\u000adata-helpful="1"\u000adata-isowner="0"\u000adata-copyable="1"\u000a\u000a>\u000a<link itemprop="url" href="/question/21274834/answer/88854544">\u000a<meta itemprop="answer-id" content="30976709">\u000a<meta itemprop="answer-url-token" content="88854544">\u000a<a class="zg-anchor-hidden" name="answer-30976709"></a>\u000a\u000a\u000a<div class="zm-votebar">\u000a<button class="up ">\u000a<i class="icon vote-arrow"></i>\u000a<span class="count">0</span>\u000a<span class="label sr-only">\u8d5e\u540c</span>\u000a</button>\u000a<button class="down ">\u000a<i class="icon vote-arrow"></i>\u000a<span class="label sr-only">\u53cd\u5bf9</span>\u000a</button>\u000a</div>\u000a\u000a\u000a<div class="answer-head">\u000a<div class="zm-item-answer-author-info">\u000a\u000a<a class="zm-item-link-avatar avatar-link"\u000a\u000ahref="/people/tang-dong" target="_blank" data-hovercard="p$t$tang-dong"\u000a\u000a><img src="https://pic1.zhimg.com/7145b5c64_s.jpg"\u000aclass="zm-list-avatar avatar"\u000a></a>\u000a\u000a<span class="summary-wrapper">\u000a<span class="author-link-line">\u000a\u000a<a class="author-link"\u000adata-hovercard="p$t$tang-dong"\u000atarget="_blank" href="/people/tang-dong"\u000a>\u5510\u51ac</a></span><span title="\u5efa\u7b51\u8bbe\u8ba1\u4eba\u3002" class="bio">\u000a\u5efa\u7b51\u8bbe\u8ba1\u4eba\u3002\u000a</span>\u000a</span>\u000a</div>\u000a<div class="zm-item-vote-info empty" data-votecount="0">\u000a\u000a\u000a\u000a\u000a</div>\u000a</div>\u000a<div class="zm-item-rich-text expandable js-collapse-body" data-resourceid="690640" data-action="/answer/content" data-author-name="\u5510\u51ac" data-entry-url="/question/21274834/answer/88854544">\u000a\u000a\u000a<div class="zh-summary summary clearfix" style="display:none;">\u000a\u000a\u5efa\u7b51\u8bbe\u8ba1\u516c\u53f8\u6709\u6ca1\u6709\u8fd9\u6837\u7684\u6848\u4f8b\u548c\u89e3\u51b3\u65b9\u6848\uff1f\u000a\u000a<a href="/question/21274834/answer/88854544" class="toggle-expand">\u663e\u793a\u5168\u90e8</a>\u000a\u000a</div>\u000a\u000a\u000a<div class="zm-editable-content clearfix">\u000a\u5efa\u7b51\u8bbe\u8ba1\u516c\u53f8\u6709\u6ca1\u6709\u8fd9\u6837\u7684\u6848\u4f8b\u548c\u89e3\u51b3\u65b9\u6848\uff1f\u000a</div>\u000a\u000a\u000a</div>\u000a<a class="zg-anchor-hidden ac" name="30976709-comment"></a>\u000a<div class="zm-item-meta answer-actions clearfix js-contentActions">\u000a<div class="zm-meta-panel">\u000a\u000a<a itemprop="url" class="answer-date-link meta-item" target="_blank" href="/question/21274834/answer/88854544">\u53d1\u5e03\u4e8e 2016-03-02</a>\u000a\u000a<a href="#" name="addcomment" class="meta-item toggle-comment js-toggleCommentBox">\u000a<i class="z-icon-comment"></i>\u6dfb\u52a0\u8bc4\u8bba</a>\u000a\u000a\u000a<a href="#" class="meta-item zu-autohide js-thank" data-thanked="false"><i class="z-icon-thank"></i>\u611f\u8c22</a>\u000a\u000a\u000a\u000a<a href="#" class="meta-item zu-autohide js-share"><i class="z-icon-share"></i>\u5206\u4eab</a>\u000a\u000a<a href="#" class="meta-item zu-autohide js-collect"><i class="z-icon-collect"></i>\u6536\u85cf</a>\u000a\u000a\u000a\u000a\u000a\u000a<span class="zg-bull zu-autohide">&bull;</span>\u000a\u000a<a href="#" class="meta-item zu-autohide js-noHelp">\u6ca1\u6709\u5e2e\u52a9</a>\u000a\u000a<span class="zg-bull zu-autohide">&bull;</span>\u000a<a href="#" class="meta-item zu-autohide js-report">\u4e3e\u62a5</a>\u000a\u000a\u000a\u000a\u000a<meta name="copyrightStatus" content="1">\u000a<meta name="disableCopyAvatar" content="">\u000a\u000a<span class="zg-bull">&bull;</span>\u000a\u000a<a href="/terms#sec-licence-1" target="_blank" class="meta-item copyright">\u000a\u4f5c\u8005\u4fdd\u7559\u6743\u5229\u000a</a>\u000a\u000a\u000a</div>\u000a</div>\u000a</div>\u000a\u000a\u000a</div>\u000a\u000a<div id="zh-question-collapsed-link" class="zu-question-collap-title" style="display:none" >\u000a<a href="javascript:;" name="expand" class="zg-link-gray" id="zh-question-collapsed-switcher">\u000a<span id="zh-question-collapsed-num">1</span> \u4e2a\u56de\u7b54\u88ab\u6298\u53e0\u000a</a>\u000a\uff08<a target="_blank" href="/question/20120168" class="zg-link-gray">\u4e3a\u4ec0\u4e48\uff1f</a>\uff09\u000a</div>\u000a<div id="zh-question-collapsed-wrap" class="zh-question-answer-wrapper" style="display:none"></div>\u000a<a name="draft"></a>\u000a<div id="zh-question-answer-form-wrap" class="zh-question-answer-form-wrap">\u000a<div class="zm-editable-tip"></div>\u000a<div class="zm-editable-content"></div>\u000a</div>\u000a<!-- \u7248\u6743\u6f14\u793a -->\u000a\u000a<script type="text/x-template" id="copyright-demo-template">\u000a<article>\u000a\u000a<section>\u000a<p class="copyright-demo-title"> \u8fd9\u662f\u4f60\u7684\u56de\u7b54\u6b63\u6587 </p>\u000a<div class="copyright-demo-region"></div>\u000a<div class="copyright-demo-region"></div>\u000a<div class="copyright-demo-region"></div>\u000a<div class="copyright-demo-region"></div>\u000a<div class="copyright-demo-region"></div>\u000a</section>\u000a\u000a<section>\u000a<p class="copyright-demo-title"> \u5f53\u5176\u4ed6\u4eba\u60f3\u590d\u5236\u4f60\u7684\u4e00\u6bb5\u56de\u7b54 </p>\u000a<div class="copyright-demo-region frame2-region" id="copyright-demo-region1">\u000a<span class="copyright-ico-indicator" id="copyright-demo-indicator"></span>\u000a</div>\u000a<div class="copyright-demo-region frame2-region" id="copyright-demo-region2"></div>\u000a<div class="copyright-demo-region frame2-region" id="copyright-demo-region3"></div>\u000a<div class="copyright-demo-region frame2-region" id="copyright-demo-region4"></div>\u000a<div class="copyright-demo-region"></div>\u000a</section>\u000a\u000a<section id="copyright-demo-frame3">\u000a<p class="copyright-demo-title copyright-demo-effect"> \u590d\u5236\u5c06\u53d7\u9650\uff0c\u540c\u65f6\u4f1a\u5f39\u51fa\u63d0\u9192 </p>\u000a<div class="copyright-demo-region copyright-demo-region-selected"></div>\u000a<div class="copyright-demo-region copyright-demo-region-selected"></div>\u000a<div class="copyright-demo-region copyright-demo-region-selected"></div>\u000a<div class="copyright-demo-region copyright-demo-region-selected"></div>\u000a<div class="copyright-demo-region"></div>\u000a<span class="copyright-ico-pointer copyright-demo-pointer"></span>\u000a</section>\u000a</article>\u000a</script>\u000a\u000a\u000a<script type="text/template" class="oauth-success-template--wechat">\u000a<div class="oauth-success oauth-success--wechat">\u000a<img src="/static/img/zhihu_wechat.png" class="oauth-success-image">\u000a<h2 class="oauth-success-title">\u6210\u529f\u7ed1\u5b9a\u5fae\u4fe1\u5e10\u53f7</h2>\u000a<p class="oauth-success-tip">\u4e0b\u6b21\u767b\u5f55\u77e5\u4e4e\u53ef\u76f4\u63a5\u4f7f\u7528\u300c\u5fae\u4fe1\u5feb\u6377\u767b\u5f55\u300d</p>\u000a</div>\u000a</script>\u000a\u000a\u000a</div>\u000a</div>\u000a\u000a\u000a<div class="zu-main-sidebar" data-za-module="RightSideBar">\u000a\u000a<div class="zm-side-section">\u000a<div class="zm-side-section-inner">\u000a<div class="SignFlow SignFlow--bordered" id="SidebarSignFlow">\u000a<div class="SignFlow-panel">\u000a<div class="title register">\u000a<h1>\u52a0\u5165\u77e5\u4e4e</h1>\u000a<h2>\u4e0e\u4e16\u754c\u5206\u4eab\u4f60\u7684\u77e5\u8bc6\u3001\u7ecf\u9a8c\u548c\u89c1\u89e3</h2>\u000a</div>\u000a<div class="view register SignupForm" data-za-module="SignUpForm">\u000a<form action="/register/email" method="POST">\u000a<div class="input-wrapper">\u000a<input type="text" name="fullname" aria-label="\u59d3\u540d" data-placeholder="\u59d3\u540d" required>\u000a</div>\u000a<div class="input-wrapper">\u000a\u000a<input type="text" name="phone_num" class="account" aria-label="\u624b\u673a\u53f7\uff08\u4ec5\u652f\u6301\u4e2d\u56fd\u5927\u9646\uff09" data-placeholder="\u624b\u673a\u53f7\uff08\u4ec5\u652f\u6301\u4e2d\u56fd\u5927\u9646\uff09" required>\u000a\u000a</div>\u000a<div class="input-wrapper toggle-password">\u000a<input type="password" hidden> \u000a<input type="password" name="password" aria-label="\u5bc6\u7801" data-placeholder="\u5bc6\u7801\uff08\u4e0d\u5c11\u4e8e 6 \u4f4d\uff09" required>\u000a<span class="z-ico-show-password"></span>\u000a</div>\u000a<div class="input-wrapper captcha-module" data-type="en" >\u000a<input id="captcha" name="captcha" placeholder="\u9a8c\u8bc1\u7801" required data-rule-required="true" data-msg-required="\u8bf7\u586b\u5199\u9a8c\u8bc1\u7801">\u000a<div class="captcha-container">\u000a\u000a<img class="js-refreshCaptcha captcha" width="120" height="30" data-tooltip="s$t$\u770b\u4e0d\u6e05\u695a\uff1f\u6362\u4e00\u5f20"  alt="\u9a8c\u8bc1\u7801">\u000a</div>\u000a</div>\u000a<div class="actions">\u000a\u000a<input type="submit" value="\u6ce8\u518c" class="submit zg-btn-blue">\u000a\u000a</div>\u000a<div class="sns clearfix">\u000a<span>\u5df2\u6709\u5e10\u53f7\uff1f<a href="#" class="switch-to-login">\u767b\u5f55</a></span>\u000a</div>\u000a</form>\u000a</div>\u000a</div>\u000a<div class="SignFlow-panel" hidden>\u000a<div class="LoginForm">\u000a<div class="title login">\u000a<h1>\u767b\u5f55\u77e5\u4e4e</h1>\u000a<h2>\u4e0e\u4e16\u754c\u5206\u4eab\u4f60\u7684\u77e5\u8bc6\u3001\u7ecf\u9a8c\u548c\u89c1\u89e3</h2>\u000a</div>\u000a<div class="view login" data-za-module="SignInForm">\u000a<form method="POST">\u000a<div class="input-wrapper">\u000a<input type="text" name="account" class="account" aria-label="\u624b\u673a\u53f7\u6216\u90ae\u7bb1" placeholder="\u624b\u673a\u53f7\u6216\u90ae\u7bb1" required>\u000a</div>\u000a<div class="input-wrapper toggle-password">\u000a<input type="password" name="password" aria-label="\u5bc6\u7801" placeholder="\u5bc6\u7801" required>\u000a<span class="z-ico-show-password"></span>\u000a</div>\u000a<div class="input-wrapper captcha-module" data-type="en" >\u000a<input id="captcha" name="captcha" placeholder="\u9a8c\u8bc1\u7801" required data-rule-required="true" data-msg-required="\u8bf7\u586b\u5199\u9a8c\u8bc1\u7801">\u000a<div class="captcha-container">\u000a\u000a<img class="js-refreshCaptcha captcha" width="120" height="30" data-tooltip="s$t$\u770b\u4e0d\u6e05\u695a\uff1f\u6362\u4e00\u5f20"  alt="\u9a8c\u8bc1\u7801">\u000a</div>\u000a</div>\u000a<div class="actions">\u000a\u000a<input type="submit" value="\u767b\u5f55" class="submit zg-btn-blue">\u000a\u000a</div>\u000a<div class="sns clearfix">\u000a<label class="remember-me"><input type="checkbox" name="remember_me" checked value="true">\u8bb0\u4f4f\u6211</label>\u000a<span class="middot"></span>\u000a<button class="unable-login" type="button">\u65e0\u6cd5\u767b\u5f55\uff1f</button>\u000a<button type="button" class="js-show-sns-buttons is-visible">\u793e\u4ea4\u5e10\u53f7\u767b\u5f55</button>\u000a<div class="sns-buttons">\u000a<button type="button" class="wechat"><span class="ico sprite-global-icon-wechat-gray"></span>\u5fae\u4fe1</button>\u000a<button type="button" class="weibo"><span class="ico sprite-global-icon-weibo-gray"></span>\u5fae\u535a</button>\u000a<button type="button" class="qq"><span class="ico sprite-global-icon-qq-gray"></span>QQ</button>\u000a</div>\u000a</div>\u000a</form>\u000a</div>\u000a</div>\u000a</div>\u000a</div>\u000a</div>\u000a</div>\u000a<div class="zm-side-section">\u000a<div class="DownloadApp">\u000a<button class="DownloadApp-button">\u000a<span class="sprite-global-icon-qrcode"></span>\u000a\u4e0b\u8f7d\u77e5\u4e4e App\u000a</button>\u000a</div>\u000a</div>\u000a\u000a\u000a\u000a<div class="zm-side-section">\u000a<div class="zm-side-section-inner zg-gray-normal" id="zh-question-side-header-wrap">\u000a<button data-follow="q:m:button" class="follow-button zg-follow zg-btn-green" data-id="690640">\u5173\u6ce8\u95ee\u9898</button>\u000a\u000a119\u000a\u4eba\u5173\u6ce8\u8be5\u95ee\u9898\u000a\u000a</div>\u000a</div>\u000a\u000a\u000a<div class="shameimaru-placeholder" data-loc="question_up" data-params='{&quot;question_token&quot;: 21274834}'></div>\u000a\u000a<div class="zm-side-section">\u000a<div class="zm-side-section-inner">\u000a<div id="zh-question-related-questions" class="zh-question-related-questions clearfix" data-za-module="RelatedQuestions">\u000a\u000a<a class="zg-right next">\u6362\u4e00\u6362</a>\u000a\u000a<h3>\u76f8\u5173\u95ee\u9898</h3>\u000a<ul itemprop="relatedQuestion" itemscope itemtype="http://schema.org/ItemList">\u000a\u000a<li itemprop="itemListElement" itemscope itemtype="http://schema.org/Question">\u000a<a class="question_link" href="/question/19818460" data-id="107354" data-za-element-name="Title">\u000a\u54ea\u4e9b\u516c\u53f8\u6216\u804c\u4e1a\u53ef\u4ee5\u5141\u8bb8\u5728\u5bb6\u529e\u516c\uff1f\u8fd9\u4f1a\u6210\u4e3a\u4e00\u79cd\u8d8b\u52bf\u5417\uff1f\u000a</a> <span class="num">17 \u4e2a\u56de\u7b54</span><meta itemprop="followerCount" content="116" />\u000a</li>\u000a\u000a<li itemprop="itemListElement" itemscope itemtype="http://schema.org/Question">\u000a<a class="question_link" href="/question/20091313" data-id="216513" data-za-element-name="Title">\u000a\u4e3a\u4ec0\u4e48\u5f88\u591a\u4eba\u66f4\u613f\u610f\u53bb\u5496\u5561\u9986\u770b\u4e66\u3001\u5199\u4f5c\u3001\u5de5\u4f5c\uff1f\u000a</a> <span class="num">673 \u4e2a\u56de\u7b54</span><meta itemprop="followerCount" content="5472" />\u000a</li>\u000a\u000a<li itemprop="itemListElement" itemscope itemtype="http://schema.org/Question">\u000a<a class="question_link" href="/question/34683643" data-id="6079982" data-za-element-name="Title">\u000a\u5982\u4f55\u628a\u5bb6\u5e03\u7f6e\u7684\u9002\u5b9c\u5b66\u4e60\u5de5\u4f5c\uff1f\u000a</a> <span class="num">18 \u4e2a\u56de\u7b54</span><meta itemprop="followerCount" content="308" />\u000a</li>\u000a\u000a<li itemprop="itemListElement" itemscope itemtype="http://schema.org/Question">\u000a<a class="question_link" href="/question/21547626" data-id="799808" data-za-element-name="Title">\u000a\u7a0b\u5e8f\u5458\u5982\u4f55\u627e\u5230\u4e00\u4efd\u8fdc\u7a0b\u5de5\u4f5c?\u000a</a> <span class="num">9 \u4e2a\u56de\u7b54</span><meta itemprop="followerCount" content="173" />\u000a</li>\u000a\u000a<li itemprop="itemListElement" itemscope itemtype="http://schema.org/Question">\u000a<a class="question_link" href="/question/20797000" data-id="499246" data-za-element-name="Title">\u000a\u54ea\u4e9b\u4e92\u8054\u7f51\u516c\u53f8\u5141\u8bb8\u5458\u5de5\u5728\u5bb6\u529e\u516c\uff1f\u96c5\u864e\u65b0\u4efb CEO \u4e3a\u4ec0\u4e48\u53d6\u6d88\u4e86\u8fd9\u6837\u7684\u5236\u5ea6\uff1f\u000a</a> <span class="num">16 \u4e2a\u56de\u7b54</span><meta itemprop="followerCount" content="291" />\u000a</li>\u000a\u000a<li hidden itemprop="itemListElement" itemscope itemtype="http://schema.org/Question">\u000a<a class="question_link" href="/question/23548664" data-id="1600875" data-za-element-name="Title">\u000a\u505asoho\u505a\u5916\u8d38\u7684\uff0c\u6ce8\u518c\u9999\u6e2f\u516c\u53f8\uff0c\u6709\u4ec0\u4e48\u597d\u5904\uff1f\u8c22\u8c22\u000a</a> <span class="num">15 \u4e2a\u56de\u7b54</span><meta itemprop="followerCount" content="162" />\u000a</li>\u000a\u000a<li hidden itemprop="itemListElement" itemscope itemtype="http://schema.org/Question">\u000a<a class="question_link" href="/question/34328685" data-id="5938000" data-za-element-name="Title">\u000a\u8fdc\u7a0b\u5de5\u4f5c\u662f\u4e00\u79cd\u600e\u4e48\u6837\u7684\u4f53\u9a8c\uff1f\u000a</a> <span class="num">13 \u4e2a\u56de\u7b54</span><meta itemprop="followerCount" content="346" />\u000a</li>\u000a\u000a<li hidden itemprop="itemListElement" itemscope itemtype="http://schema.org/Question">\u000a<a class="question_link" href="/question/28827406" data-id="3713909" data-za-element-name="Title">\u000a\u5f00\u59cb\u5916\u8d38Soho\uff0c\u662f\u81ea\u5efa\u7f51\u7ad9\u505a\u63a8\u5e7f\u8fd8\u662f\u5e73\u53f0\u6bd4\u8f83\u597d\uff1f\u000a</a> <span class="num">58 \u4e2a\u56de\u7b54</span><meta itemprop="followerCount" content="1031" />\u000a</li>\u000a\u000a<li hidden itemprop="itemListElement" itemscope itemtype="http://schema.org/Question">\u000a<a class="question_link" href="/question/24361238" data-id="1926310" data-za-element-name="Title">\u000a\u5728\u5bb6\u529e\u516c\u5982\u4f55\u63d0\u9ad8\u6548\u7387\uff1f\u000a</a> <span class="num">10 \u4e2a\u56de\u7b54</span><meta itemprop="followerCount" content="186" />\u000a</li>\u000a\u000a</ul>\u000a</div>\u000a</div>\u000a</div>\u000a\u000a<div class="zm-side-section" data-za-module="RelatedLives">\u000a<div class="SidebarListNav SidebarListNav--noFollowLink zm-side-section-inner">\u000a<h3>\u76f8\u5173 Live \u63a8\u8350 \u26a1\ufe0f</h3>\u000a<ul class="SidebarListNav-list">\u000a\u000a<li class="SidebarListNav-listItem" data-za-module="LiveItem" data-za-index>\u000a<a class="SidebarListNav-itemLink" href="https://www.zhihu.com/lives/769897037545091072" target="_blank">\u000a<img class="Avatar SidebarListNav-avatar" src="https://pic1.zhimg.com/a12d7ef78f589b662d1b232be4cf98e8_s.jpg" srcset="https://pic1.zhimg.com/a12d7ef78f589b662d1b232be4cf98e8_xs.jpg 2x" alt="\u5ba1\u8ba1\u65b0\u4eba\u7684\u751f\u5b58\u6307\u5357" />\u000a<span class="SidebarListNav-label">\u000a\u5ba1\u8ba1\u65b0\u4eba\u7684\u751f\u5b58\u6307\u5357\u000a</span>\u000a</a>\u000a</li>\u000a\u000a<li class="SidebarListNav-listItem" data-za-module="LiveItem" data-za-index>\u000a<a class="SidebarListNav-itemLink" href="https://www.zhihu.com/lives/771397680646586368" target="_blank">\u000a<img class="Avatar SidebarListNav-avatar" src="https://pic3.zhimg.com/c370ec402_s.jpg" srcset="https://pic3.zhimg.com/c370ec402_xs.jpg 2x" alt="\u5ba1\u8ba1\u884c\u4e1a\u7684\u672a\u6765" />\u000a<span class="SidebarListNav-label">\u000a\u5ba1\u8ba1\u884c\u4e1a\u7684\u672a\u6765\u000a</span>\u000a</a>\u000a</li>\u000a\u000a<li class="SidebarListNav-listItem" data-za-module="LiveItem" data-za-index>\u000a<a class="SidebarListNav-itemLink" href="https://www.zhihu.com/lives/771403040564453376" target="_blank">\u000a<img class="Avatar SidebarListNav-avatar" src="https://pic3.zhimg.com/7ec87450814310adcf978a7ccc58947a_s.jpg" srcset="https://pic3.zhimg.com/7ec87450814310adcf978a7ccc58947a_xs.jpg 2x" alt="\u94f6\u884c\u4e1a\u4e0e\u94f6\u884c\u80a1\u6743\u6295\u8d44" />\u000a<span class="SidebarListNav-label">\u000a\u94f6\u884c\u4e1a\u4e0e\u94f6\u884c\u80a1\u6743\u6295\u8d44\u000a</span>\u000a</a>\u000a</li>\u000a\u000a<li class="SidebarListNav-listItem" data-za-module="LiveItem" data-za-index>\u000a<a class="SidebarListNav-itemLink" href="https://www.zhihu.com/lives/769598834480254976" target="_blank">\u000a<img class="Avatar SidebarListNav-avatar" src="https://pic2.zhimg.com/ee515d32d_s.jpg" srcset="https://pic2.zhimg.com/ee515d32d_xs.jpg 2x" alt="\u521b\u4e1a\u8f6c\u578b\u7684\u7ecf\u9a8c\u5206\u4eab" />\u000a<span class="SidebarListNav-label">\u000a\u521b\u4e1a\u8f6c\u578b\u7684\u7ecf\u9a8c\u5206\u4eab\u000a</span>\u000a</a>\u000a</li>\u000a\u000a<li class="SidebarListNav-listItem" data-za-module="LiveItem" data-za-index>\u000a<a class="SidebarListNav-itemLink" href="https://www.zhihu.com/lives/767130190252892160" target="_blank">\u000a<img class="Avatar SidebarListNav-avatar" src="https://pic4.zhimg.com/e06ffde89bd00e145dcbebd6395ab137_s.jpg" srcset="https://pic4.zhimg.com/e06ffde89bd00e145dcbebd6395ab137_xs.jpg 2x" alt="\u5982\u4f55\u5728\u5357\u4eac\u9009\u623f\u5b50" />\u000a<span class="SidebarListNav-label">\u000a\u5982\u4f55\u5728\u5357\u4eac\u9009\u623f\u5b50\u000a</span>\u000a</a>\u000a</li>\u000a\u000a</ul>\u000a</div>\u000a</div>\u000a\u000a\u000a<div class="shameimaru-placeholder" data-loc="question_down" data-params='{&quot;question_token&quot;: 21274834}'></div>\u000a\u000a</div>\u000a\u000a\u000a</div>\u000a\u000a\u000a<div id="zh-footer" class="zh-footer">\u000a<div class="content zg-wrap clearfix">\u000a<ul>\u000a\u000a<li><a href="https://liukanshan.zhihu.com" target="_blank">\u5218\u770b\u5c71</a></li>\u000a\u000a<li><a href="/app" target="_blank">\u79fb\u52a8\u5e94\u7528</a></li>\u000a<li><a href="/careers">\u52a0\u5165\u77e5\u4e4e</a></li>\u000a<li><a href="/terms" target="_blank">\u77e5\u4e4e\u534f\u8bae</a></li>\u000a<li><a href="/contact">\u8054\u7cfb\u6211\u4eec</a></li>\u000a\u000a</ul>\u000a\u000a<span class="copy">&copy; 2016 \u77e5\u4e4e</span>\u000a\u000a</div>\u000a</div>\u000a\u000a<script type="text/json" class="json-inline" data-name="guiders2">{}</script>\u000a<script type="text/json" class="json-inline" data-name="current_user">["","","","-1","",0,0]</script>\u000a<script type="text/json" class="json-inline" data-name="user_status">[null,null,false]</script>\u000a<script type="text/json" class="json-inline" data-name="env">["zhihu.com","comet.zhihu.com",false,null,false,false]</script>\u000a<script type="text/json" class="json-inline" data-name="permissions">[]</script>\u000a\u000a\u000a<script type="text/json" class="json-inline" data-name="ga_vars">{"user_created":0,"now":1482261720000,"abtest_mask":"------------------------------","user_attr":[0,0,0,"-","-"],"user_hash":0}</script>\u000a\u000a<script type="text/json" class="json-inline" data-name="ra-urls">{"Copyright":"https:\u005c/\u005c/static.zhihu.com\u005c/static\u005c/revved\u005c/-\u005c/apps\u005c/Copyright.a08277db.js","CouponApp":"https:\u005c/\u005c/static.zhihu.com\u005c/static\u005c/revved\u005c/-\u005c/apps\u005c/CouponApp.020ed2f5.js","PaymentApp":"https:\u005c/\u005c/static.zhihu.com\u005c/static\u005c/revved\u005c/-\u005c/apps\u005c/PaymentApp.59fa6542.js","Community":"https:\u005c/\u005c/static.zhihu.com\u005c/static\u005c/revved\u005c/-\u005c/apps\u005c/Community.4e7802b8.js","Report":"https:\u005c/\u005c/static.zhihu.com\u005c/static\u005c/revved\u005c/-\u005c/apps\u005c/Report.66dfcf9c.js","OrgOpHelp":"https:\u005c/\u005c/static.zhihu.com\u005c/static\u005c/revved\u005c/-\u005c/apps\u005c/OrgOpHelp.822ca791.js","common":"https:\u005c/\u005c/static.zhihu.com\u005c/static\u005c/revved\u005c/-\u005c/apps\u005c/common.b8369a70.js","BalanceApp":"https:\u005c/\u005c/static.zhihu.com\u005c/static\u005c/revved\u005c/-\u005c/apps\u005c/BalanceApp.e5268acf.js","AnswerWarrant":"https:\u005c/\u005c/static.zhihu.com\u005c/static\u005c/revved\u005c/-\u005c/apps\u005c/AnswerWarrant.9762e482.js","CommentApp":"https:\u005c/\u005c/static.zhihu.com\u005c/static\u005c/revved\u005c/-\u005c/apps\u005c/CommentApp.acaf0f21.js"}</script>\u000a\u000a<script type="text/json" class="json-inline" data-name="current_question">{"status":"normal","editPermission":false,"qid":690640,"askAboutMember":0,"isEditLocked":false,"detailEditReasonRequired":false,"isAnon":0,"showInvitePanel":false,"isOrg":false,"isLocked":0,"urlToken":21274834}</script>\u000a<script type="text/json" class="json-inline" data-name="current_question_owner">false</script>\u000a<script type="text/json" class="json-inline" data-name="draft">[]</script>\u000a<script type="text/json" class="json-inline" data-name="my_answer">{}</script>\u000a<script type="text/json" class="json-inline" data-name="current_question_bio">{"selected_bio":null,"type":null,"value":""}</script>\u000a\u000a<script type="text/json" class="json-inline" data-name="redirect_to">""</script>\u000a\u000a\u000a<script src="https://static.zhihu.com/static/revved/-/js/vendor.cb14a042.js"></script>\u000a<script src="https://static.zhihu.com/static/revved/-/js/closure/base.34bda779.js"></script>\u000a\u000a<script src="https://static.zhihu.com/static/revved/-/js/closure/common.23b70728.js"></script>\u000a\u000a\u000a<script src="https://static.zhihu.com/static/revved/-/js/closure/richtexteditor.25c6a511.js" async></script>\u000a<script src="https://static.zhihu.com/static/revved/-/js/closure/page-main.bc391bdf.js"></script>\u000a<meta name="entry" content="ZH.entrySQ" data-module-id="page-main">\u000a\u000a<script type="text/zscript" znonce="ba09024c78b94031ba66e5f3d9b9acc4"></script>\u000a\u000a<input type="hidden" name="_xsrf" value="dd5c5bd1b2bca5b088cfe35ccd3cd075"/>\u000a</body>\u000a</html>
p3
a.