(lp0
S'https://searchcode.com/'
p1
aS'searchcode | source code search engine'
p2
aI0
aV<!DOCTYPE html>\u000a<html lang="en">\u000a  <head>\u000a    <meta charset="utf-8">\u000a    <meta http-equiv="X-UA-Compatible" content="IE=edge">\u000a    <meta name="viewport" content="width=device-width, initial-scale=1.0">\u000a  <meta name="description" content="searchcode is a free source code and documentation search engine. API documentation, code snippets and open source (free sofware) repositories are indexed and searchable.">\u000a  <link rel="shortcut icon" href="/static/favicon.ico" type="image/x-icon" />\u000a<title>searchcode | source code search engine</title>\u000a<link href="/static/bootstrap/css/bootstrap.min.css" rel="stylesheet" />\u000a<link href="/static/style.css" rel="stylesheet" />\u000a<link href="/static/jquery.nouislider.css" rel="stylesheet" />\u000a<link rel="search" type="application/opensearchdescription+xml" title="searchcode" href="https://addons.mozilla.org/firefox/downloads/latest/570226/addon-570226-latest.xml">\u000a<script src="/static/jquery-1.11.1.min.js"></script>\u000a</head>\u000a<body>\u000a\u000a  <div style="background-image: url('/static//backgrounds/photo_3.jpeg'); background-size:cover; background-repeat: no-repeat; height:100">\u000a    <nav class="navbar navbar-default" role="navigation">\u000a      <div class="navbar-header">\u000a        <button type="button" class="navbar-toggle" data-toggle="collapse" data-target="#bs-example-navbar-collapse-1">\u000a        <span class="sr-only">Toggle navigation</span>\u000a        <span class="icon-bar"></span>\u000a        <span class="icon-bar"></span>\u000a        <span class="icon-bar"></span>\u000a        </button>\u000a        <a class="navbar-brand" href="/">\u000a          <img height="24px" src="/static/searchcode_logo.png" />\u000a        </a>\u000a      </div>\u000a      <div class="collapse navbar-collapse" id="bs-example-navbar-collapse-1">\u000a        <ul class="nav navbar-nav navbar-right">\u000a          <li><a href="/about/">About</a></li>\u000a          <li><a href="/api/">Developers</a></li>\u000a          <li><a href="http://www.boyter.org/category/searchcode/">Updates</a></li>\u000a          <li><a href="/product/">searchcode server</a></li>\u000a        </ul>\u000a      </div>\u000a    </nav>\u000a    <div class="container">\u000a      <div style="height:650px;">\u000a        <div style="text-align:center; top: 350px;left: 50%; transform: translate(-50%, 0); position:absolute;">\u000a          <form method="GET" class="form-inline" >\u000a            <div class="form-group">\u000a              <input type="text" size="50" class="form-control" name="q" autofocus="autofocus" placeholder="Type a code snippet or function" autocapitalize="off" autocorrect="off" autocomplete="off" spellcheck="false">\u000a            </div>\u000a            <button type="submit" class="btn btn-success">search</button>\u000a          </form>\u000a          <div class="white repocount" style="margin-top: 20px;\u000a            background: rgba(0, 0, 0, 0.8);\u000a            border-radius: 5px;\u000a            padding: 5px;"> <span style="font-size: 1.2em; color: white; margin-bottom:10px;">Search over 20 billion lines of code from 7,000,000 projects</span>\u000a            <script async type="text/javascript" src="//cdn.carbonads.com/carbon.js?zoneid=1673&serve=C6AILKT&placement=searchcodecom" id="_carbonads_js"></script>\u000a            <style>#carbonads{margin: 0 auto;padding: 1em;max-width: 26em !important;border: solid 2px #428bca;border-radius: 3px;font-size: .9em;font-family: Verdana, sans-serif;line-height: 1.5; margin-top:20px;} #carbonads * {display: block;overflow: hidden;} .carbon-img{float: left; margin-right: 1em !important; margin-bottom: .5em;} .carbon-text{float: left;max-width: 12em; text-align: left;} .carbon-poweredby{margin-top: -1em;text-align: right;font-size: .9em !important;}</style>\u000a          </div>\u000a        </div>\u000a      </div>\u000a    </div>\u000a  </div>\u000a\u000a\u000a  <div class="container">\u000a  \u000a\u000a  <div class="jumbotron" id="jumbo-examples">\u000a    <h3><span class="glyphicon glyphicon-cog" aria-hidden="true"></span> Try It. With Real World Examples.</h3>\u000a    <p>Helping you find real world examples of functions, API's and libraries over 90 languages across 10+ sources</p>\u000a    <h4>Search Source From Multiple Sources Including</h4>\u000a    <p>\u000a      <a class="btn btn-default" href="/?q=i%2B%2B%3B source:Github">Github</a>\u000a      <a class="btn btn-default" href="/?q=i%2B%2B%3B source:Bitbucket">Bitbucket</a>\u000a      <a class="btn btn-default" href="/?q=i%2B%2B%3B source:GoogleCode">Google Code</a>\u000a      <a class="btn btn-default" href="/?q=i%2B%2B%3B source:CodePlex">Codeplex</a>\u000a      <a class="btn btn-default" href="/?q=i%2B%2B%3B source:Sourceforge">Sourceforge</a>\u000a      <a class="btn btn-default" href="/?q=i%2B%2B%3B source:FedoraProject">Fedora Project</a>\u000a      <a class="btn btn-default" href="/?q=i%2B%2B%3B source:GitLab">GitLab</a>\u000a    </p>\u000a    <h4>Search Using Special Characters</h4>\u000a    <p class="examples">\u000a      <a class="btn btn-info" href="/?q=using+System.Linq%3B" role="button">using System.Linq;</a>\u000a      <a class="btn btn-info" href="/?q=i%2B%2B%3B" role="button">i++;</a>\u000a      <a class="btn btn-info" href="/?q=api.duckduckgo.com" role="button">api.duckduckgo.com</a>\u000a      <a class="btn btn-info" href="/?q=Backbone.Collection.extend" role="button">Backbone.Collection.extend</a>\u000a      <a class="btn btn-info" href="/?q=import+pandas" role="button">import pandas</a>\u000a      <a class="btn btn-info" href="/?q=gsub" role="button">gsub</a>\u000a      <a class="btn btn-info" href="/?q=EZSQL_VERSION" role="button">EZSQL_VERSION</a>\u000a    </p>\u000a    <h4>Filter by Langage</h4>\u000a    <p class="examples">\u000a      <a class="btn btn-warning" href="/?q=mysql_query&lan=24" role="button">mysql_query in PHP</a>\u000a      <a class="btn btn-warning" href="/?q=List<Object>&lan=6" role="button">List&lt;Object&gt; in C#</a>\u000a      <a class="btn btn-warning" href="/?q=endline&lan=74" role="button">endline in AWK</a>\u000a      <a class="btn btn-warning" href="/?q=re.compile&lan=19" role="button">re.compile in Python</a>\u000a      <a class="btn btn-warning" href="/?q=Inputfile%3A&lan=20" role="button">Inputfile: in MATLAB</a>\u000a      <a class="btn btn-warning" href="/?q=Test%3A%3AUnit%3A%3ATestCase&lan=32" role="button">Test::Unit::TestCase in Ruby</a>\u000a      <a class="btn btn-warning" href="/?q=encodeURIComponent&lan=22" role="button">encodeURIComponent in Javascript</a>\u000a      <a class="btn btn-warning" href="/?q=Digital+Equipment+Corporation&lan=29" role="button">Digital Equipment Corporation in Lisp</a>\u000a      <a class="btn btn-warning" href="/?q=import+UniqFM&lan=40" role="button">import UniqFM in Haskell</a>\u000a      <a class="btn btn-warning" href="/?q=ipv6&lan=32" role="button">ipv6 in Ruby</a>\u000a      <a class="btn btn-warning" href="/?q=while%20(*d%2B%2B%20%3D%20*s%2B%2B)%3B&lan=16&lan=23" role="button">while (*d++ = *s++); in C++ and Java</a>\u000a      \u000a    </p>\u000a    <h4>Filter by Repository</h4>\u000a    <p class="examples">\u000a      <a class="btn btn-danger" href="/?q=float+Q_rsqrt+repo%3Aquake" role="button">float Q_rsqrt repo:quake</a>\u000a      <a class="btn btn-danger" href="/?q=using+xunit%3B+repo%3Aninject" role="button">using xunit; repo:ninject</a>\u000a      <a class="btn btn-danger" href="/?q=rpython+repo%3Apypy%2Fpypy" role="button">rpython repo:pypy/pypy</a>\u000a      <a class="btn btn-danger" href="/?q=bitbucket&loc=0&loc2=10000&src=3&lan=32&lan=51" role="button">bitbucket source:bitbucket in perl and ruby</a>\u000a      <a class="btn btn-danger" href="/?q=var+result+repo%3Aduckduckgo%2Fzeroclickinfo-spice" role="button">var result repo:duckduckgo/zeroclickinfo-spice</a>\u000a    </p>\u000a    <h4>Filter by Source</h4>\u000a    <p class="examples">\u000a      <a class="btn btn-success" href="/?q=gitlab%20oauth2&src=13" role="button">gitlab oauth2 in GitLab</a>\u000a      <a class="btn btn-success" href="/?q=protobuf&src=1" role="button">protobuf in GoogleCode</a>\u000a      <a class="btn btn-success" href="/?q=FluentAssertions&src=2" role="button">FluentAssertions in Github</a>\u000a      <a class="btn btn-success" href="/?q=import+com.atlassian&src=3" role="button">import com.atlassian in Bitbucket</a>\u000a      <a class="btn btn-success" href="/?q=namespace+microsoft&src=5" role="button">namespace microsoft in Codeplex</a>\u000a      <a class="btn btn-success" href="/?q=mythes&src=7" role="button">mythes in FedoraProject</a>\u000a      <a class="btn btn-success" href="/?q=%23include+<regex.h>&src=4" role="button">#include &lt;regex.h&gt; in Sourceforge</a>\u000a      <a class="btn btn-success" href="/?q=socket&src=13" role="button">socket in Minix3</a>\u000a    </p>\u000a  </div>\u000a  <div class="jumbotron">\u000a    <h3><span class="glyphicon glyphicon-search" aria-hidden="true"></span> Search code from over 7,000,000 projects.</h3>\u000a    <p>Search over projects from <a href="https://github.com/">Github</a>, <a href="https://bitbucket.org/">Bitbucket</a>, <a href="https://code.google.com/">Google Code</a>, <a href="https://codeplex.com/">Codeplex</a>, <a href="http://sourceforge.net/">Sourceforge</a>, <a href="https://fedoraproject.org/">Fedora Project</a>, <a href="https://gitlab.com/">GitLab</a> and more.</p>\u000a    <p><br />\u000a      <img src="/static/screenshot.png" class="img-responsive" />\u000a    </p>\u000a  </div>\u000a  \u000a\u000a<div class="footer">\u000a  <p>\u000a    <ul>\u000a      <li><a href="/about/">About</a></li>\u000a      <li><a href="/api/">Developers</a></li>\u000a      <li><a href="http://www.boyter.org/category/searchcode/">Updates</a></li>\u000a      <li><a href="/spdx/">SPDX Search</a></li>\u000a      <li><a href="/product/">searchcode server</a></li>\u000a    </ul>\u000a  </p>\u000a  <p>\u000a  </p>\u000a\u000a<p>\u000a  <!-- Begin MailChimp Signup Form -->\u000a  Subscribe to the searchcode newsletter\u000a<div id="mc_embed_signup">\u000a<form action="//searchcode.us13.list-manage.com/subscribe/post?u=bfcb89abd82d48825bbd1270f&amp;id=450cd94d81" method="post" id="mc-embedded-subscribe-form" name="mc-embedded-subscribe-form" class="validate" target="_blank" novalidate>\u000a    <div id="mc_embed_signup_scroll">\u000a<div class="mc-field-group">\u000a  <input type="email" value="" placeholder="Your email..." name="EMAIL" class="required email" id="mce-EMAIL">\u000a  <input type="submit" value="Subscribe" name="subscribe" id="mc-embedded-subscribe" class="button btn btn-xs btn-primary">\u000a</div>\u000a  <div id="mce-responses" class="clear">\u000a    <div class="response" id="mce-error-response" style="display:none"></div>\u000a    <div class="response" id="mce-success-response" style="display:none"></div>\u000a  </div>    <!-- real people should not fill this in and expect good things - do not remove this or risk form bot signups-->\u000a    <div style="position: absolute; left: -5000px;" aria-hidden="true"><input type="text" name="b_bfcb89abd82d48825bbd1270f_450cd94d81" tabindex="-1" value=""></div>\u000a    </div>\u000a</form>\u000a</div>\u000a<!--End mc_embed_signup-->\u000a</p>\u000a\u000a\u000a  <p>searchcode is proudly Made in Sydney | &copy; searchcode 2016</p>\u000a  <script async src="/static/script.js"></script>\u000a  <script async src="/static/jquery.nouislider.min.js"></script>\u000a  <script async src="/static/bootstrap/js/bootstrap.min.js"></script>\u000a  <script async src="/static/typeahead.bundle.min.js"></script>\u000a</div>\u000a</div> \u000a\u000a<script>\u000a(function() {\u000avar dc = document.createElement('script');\u000adc.type = 'text/javascript'; dc.async = true;\u000adc.src = '//portfold.com/code/1/';\u000avar s = document.getElementsByTagName('script')[0];\u000as.parentNode.insertBefore(dc, s);\u000a})();\u000a</script>\u000a<script>\u000a  (function(i,s,o,g,r,a,m){i['GoogleAnalyticsObject']=r;i[r]=i[r]||function(){\u000a  (i[r].q=i[r].q||[]).push(arguments)},i[r].l=1*new Date();a=s.createElement(o),\u000a  m=s.getElementsByTagName(o)[0];a.async=1;a.src=g;m.parentNode.insertBefore(a,m)\u000a  })(window,document,'script','https://www.google-analytics.com/analytics.js','ga');\u000a\u000a  ga('create', 'UA-23451493-1', 'auto');\u000a  ga('send', 'pageview');\u000a\u000a</script>\u000a</body>\u000a</html>
p3
a.