(lp0
S'http://icafe.baidu.com/space/tfwebapp/issue/list?spaceId=1756&cid=5&isQuery=17367&q=%5Bproject%5D%5Bequals%5D%5B135749%5D&currentPage=1&vid=17367#c=[select][status][type][createTime][owner][projectId]'
p1
aS'pa\xe6\x8c\x81\xe7\xbb\xad\xe9\x9b\x86\xe6\x88\x90'
p2
aI-2
a.